
UV_LED_DRIVER_SW_STM32L051.elf:     file format elf32-littlearm

Sections:
Idx Name          Size      VMA       LMA       File off  Algn
  0 .isr_vector   000000c0  08000000  08000000  00010000  2**0
                  CONTENTS, ALLOC, LOAD, READONLY, DATA
  1 .text         00002200  080000c0  080000c0  000100c0  2**2
                  CONTENTS, ALLOC, LOAD, READONLY, CODE
  2 .rodata       00000030  080022c0  080022c0  000122c0  2**2
                  CONTENTS, ALLOC, LOAD, READONLY, DATA
  3 .ARM.extab    00000000  080022f0  080022f0  0002000c  2**0
                  CONTENTS
  4 .ARM          00000000  080022f0  080022f0  0002000c  2**0
                  CONTENTS
  5 .preinit_array 00000000  080022f0  080022f0  0002000c  2**0
                  CONTENTS, ALLOC, LOAD, DATA
  6 .init_array   00000004  080022f0  080022f0  000122f0  2**2
                  CONTENTS, ALLOC, LOAD, DATA
  7 .fini_array   00000004  080022f4  080022f4  000122f4  2**2
                  CONTENTS, ALLOC, LOAD, DATA
  8 .data         0000000c  20000000  080022f8  00020000  2**2
                  CONTENTS, ALLOC, LOAD, DATA
  9 .bss          000000b8  2000000c  08002304  0002000c  2**2
                  ALLOC
 10 ._user_heap_stack 00000604  200000c4  08002304  000200c4  2**0
                  ALLOC
 11 .ARM.attributes 00000028  00000000  00000000  0002000c  2**0
                  CONTENTS, READONLY
 12 .debug_info   00008bc0  00000000  00000000  00020034  2**0
                  CONTENTS, READONLY, DEBUGGING
 13 .debug_abbrev 000019a3  00000000  00000000  00028bf4  2**0
                  CONTENTS, READONLY, DEBUGGING
 14 .debug_aranges 00000a08  00000000  00000000  0002a598  2**3
                  CONTENTS, READONLY, DEBUGGING
 15 .debug_ranges 00000910  00000000  00000000  0002afa0  2**3
                  CONTENTS, READONLY, DEBUGGING
 16 .debug_macro  0000e2e6  00000000  00000000  0002b8b0  2**0
                  CONTENTS, READONLY, DEBUGGING
 17 .debug_line   000088f4  00000000  00000000  00039b96  2**0
                  CONTENTS, READONLY, DEBUGGING
 18 .debug_str    000511b0  00000000  00000000  0004248a  2**0
                  CONTENTS, READONLY, DEBUGGING
 19 .comment      0000007b  00000000  00000000  0009363a  2**0
                  CONTENTS, READONLY
 20 .debug_frame  000022a4  00000000  00000000  000936b8  2**2
                  CONTENTS, READONLY, DEBUGGING

Disassembly of section .text:

080000c0 <__do_global_dtors_aux>:
 80000c0:	b510      	push	{r4, lr}
 80000c2:	4c06      	ldr	r4, [pc, #24]	; (80000dc <__do_global_dtors_aux+0x1c>)
 80000c4:	7823      	ldrb	r3, [r4, #0]
 80000c6:	2b00      	cmp	r3, #0
 80000c8:	d107      	bne.n	80000da <__do_global_dtors_aux+0x1a>
 80000ca:	4b05      	ldr	r3, [pc, #20]	; (80000e0 <__do_global_dtors_aux+0x20>)
 80000cc:	2b00      	cmp	r3, #0
 80000ce:	d002      	beq.n	80000d6 <__do_global_dtors_aux+0x16>
 80000d0:	4804      	ldr	r0, [pc, #16]	; (80000e4 <__do_global_dtors_aux+0x24>)
 80000d2:	e000      	b.n	80000d6 <__do_global_dtors_aux+0x16>
 80000d4:	bf00      	nop
 80000d6:	2301      	movs	r3, #1
 80000d8:	7023      	strb	r3, [r4, #0]
 80000da:	bd10      	pop	{r4, pc}
 80000dc:	2000000c 	.word	0x2000000c
 80000e0:	00000000 	.word	0x00000000
 80000e4:	080022a8 	.word	0x080022a8

080000e8 <frame_dummy>:
 80000e8:	4b04      	ldr	r3, [pc, #16]	; (80000fc <frame_dummy+0x14>)
 80000ea:	b510      	push	{r4, lr}
 80000ec:	2b00      	cmp	r3, #0
 80000ee:	d003      	beq.n	80000f8 <frame_dummy+0x10>
 80000f0:	4903      	ldr	r1, [pc, #12]	; (8000100 <frame_dummy+0x18>)
 80000f2:	4804      	ldr	r0, [pc, #16]	; (8000104 <frame_dummy+0x1c>)
 80000f4:	e000      	b.n	80000f8 <frame_dummy+0x10>
 80000f6:	bf00      	nop
 80000f8:	bd10      	pop	{r4, pc}
 80000fa:	46c0      	nop			; (mov r8, r8)
 80000fc:	00000000 	.word	0x00000000
 8000100:	20000010 	.word	0x20000010
 8000104:	080022a8 	.word	0x080022a8

08000108 <__udivsi3>:
 8000108:	2200      	movs	r2, #0
 800010a:	0843      	lsrs	r3, r0, #1
 800010c:	428b      	cmp	r3, r1
 800010e:	d374      	bcc.n	80001fa <__udivsi3+0xf2>
 8000110:	0903      	lsrs	r3, r0, #4
 8000112:	428b      	cmp	r3, r1
 8000114:	d35f      	bcc.n	80001d6 <__udivsi3+0xce>
 8000116:	0a03      	lsrs	r3, r0, #8
 8000118:	428b      	cmp	r3, r1
 800011a:	d344      	bcc.n	80001a6 <__udivsi3+0x9e>
 800011c:	0b03      	lsrs	r3, r0, #12
 800011e:	428b      	cmp	r3, r1
 8000120:	d328      	bcc.n	8000174 <__udivsi3+0x6c>
 8000122:	0c03      	lsrs	r3, r0, #16
 8000124:	428b      	cmp	r3, r1
 8000126:	d30d      	bcc.n	8000144 <__udivsi3+0x3c>
 8000128:	22ff      	movs	r2, #255	; 0xff
 800012a:	0209      	lsls	r1, r1, #8
 800012c:	ba12      	rev	r2, r2
 800012e:	0c03      	lsrs	r3, r0, #16
 8000130:	428b      	cmp	r3, r1
 8000132:	d302      	bcc.n	800013a <__udivsi3+0x32>
 8000134:	1212      	asrs	r2, r2, #8
 8000136:	0209      	lsls	r1, r1, #8
 8000138:	d065      	beq.n	8000206 <__udivsi3+0xfe>
 800013a:	0b03      	lsrs	r3, r0, #12
 800013c:	428b      	cmp	r3, r1
 800013e:	d319      	bcc.n	8000174 <__udivsi3+0x6c>
 8000140:	e000      	b.n	8000144 <__udivsi3+0x3c>
 8000142:	0a09      	lsrs	r1, r1, #8
 8000144:	0bc3      	lsrs	r3, r0, #15
 8000146:	428b      	cmp	r3, r1
 8000148:	d301      	bcc.n	800014e <__udivsi3+0x46>
 800014a:	03cb      	lsls	r3, r1, #15
 800014c:	1ac0      	subs	r0, r0, r3
 800014e:	4152      	adcs	r2, r2
 8000150:	0b83      	lsrs	r3, r0, #14
 8000152:	428b      	cmp	r3, r1
 8000154:	d301      	bcc.n	800015a <__udivsi3+0x52>
 8000156:	038b      	lsls	r3, r1, #14
 8000158:	1ac0      	subs	r0, r0, r3
 800015a:	4152      	adcs	r2, r2
 800015c:	0b43      	lsrs	r3, r0, #13
 800015e:	428b      	cmp	r3, r1
 8000160:	d301      	bcc.n	8000166 <__udivsi3+0x5e>
 8000162:	034b      	lsls	r3, r1, #13
 8000164:	1ac0      	subs	r0, r0, r3
 8000166:	4152      	adcs	r2, r2
 8000168:	0b03      	lsrs	r3, r0, #12
 800016a:	428b      	cmp	r3, r1
 800016c:	d301      	bcc.n	8000172 <__udivsi3+0x6a>
 800016e:	030b      	lsls	r3, r1, #12
 8000170:	1ac0      	subs	r0, r0, r3
 8000172:	4152      	adcs	r2, r2
 8000174:	0ac3      	lsrs	r3, r0, #11
 8000176:	428b      	cmp	r3, r1
 8000178:	d301      	bcc.n	800017e <__udivsi3+0x76>
 800017a:	02cb      	lsls	r3, r1, #11
 800017c:	1ac0      	subs	r0, r0, r3
 800017e:	4152      	adcs	r2, r2
 8000180:	0a83      	lsrs	r3, r0, #10
 8000182:	428b      	cmp	r3, r1
 8000184:	d301      	bcc.n	800018a <__udivsi3+0x82>
 8000186:	028b      	lsls	r3, r1, #10
 8000188:	1ac0      	subs	r0, r0, r3
 800018a:	4152      	adcs	r2, r2
 800018c:	0a43      	lsrs	r3, r0, #9
 800018e:	428b      	cmp	r3, r1
 8000190:	d301      	bcc.n	8000196 <__udivsi3+0x8e>
 8000192:	024b      	lsls	r3, r1, #9
 8000194:	1ac0      	subs	r0, r0, r3
 8000196:	4152      	adcs	r2, r2
 8000198:	0a03      	lsrs	r3, r0, #8
 800019a:	428b      	cmp	r3, r1
 800019c:	d301      	bcc.n	80001a2 <__udivsi3+0x9a>
 800019e:	020b      	lsls	r3, r1, #8
 80001a0:	1ac0      	subs	r0, r0, r3
 80001a2:	4152      	adcs	r2, r2
 80001a4:	d2cd      	bcs.n	8000142 <__udivsi3+0x3a>
 80001a6:	09c3      	lsrs	r3, r0, #7
 80001a8:	428b      	cmp	r3, r1
 80001aa:	d301      	bcc.n	80001b0 <__udivsi3+0xa8>
 80001ac:	01cb      	lsls	r3, r1, #7
 80001ae:	1ac0      	subs	r0, r0, r3
 80001b0:	4152      	adcs	r2, r2
 80001b2:	0983      	lsrs	r3, r0, #6
 80001b4:	428b      	cmp	r3, r1
 80001b6:	d301      	bcc.n	80001bc <__udivsi3+0xb4>
 80001b8:	018b      	lsls	r3, r1, #6
 80001ba:	1ac0      	subs	r0, r0, r3
 80001bc:	4152      	adcs	r2, r2
 80001be:	0943      	lsrs	r3, r0, #5
 80001c0:	428b      	cmp	r3, r1
 80001c2:	d301      	bcc.n	80001c8 <__udivsi3+0xc0>
 80001c4:	014b      	lsls	r3, r1, #5
 80001c6:	1ac0      	subs	r0, r0, r3
 80001c8:	4152      	adcs	r2, r2
 80001ca:	0903      	lsrs	r3, r0, #4
 80001cc:	428b      	cmp	r3, r1
 80001ce:	d301      	bcc.n	80001d4 <__udivsi3+0xcc>
 80001d0:	010b      	lsls	r3, r1, #4
 80001d2:	1ac0      	subs	r0, r0, r3
 80001d4:	4152      	adcs	r2, r2
 80001d6:	08c3      	lsrs	r3, r0, #3
 80001d8:	428b      	cmp	r3, r1
 80001da:	d301      	bcc.n	80001e0 <__udivsi3+0xd8>
 80001dc:	00cb      	lsls	r3, r1, #3
 80001de:	1ac0      	subs	r0, r0, r3
 80001e0:	4152      	adcs	r2, r2
 80001e2:	0883      	lsrs	r3, r0, #2
 80001e4:	428b      	cmp	r3, r1
 80001e6:	d301      	bcc.n	80001ec <__udivsi3+0xe4>
 80001e8:	008b      	lsls	r3, r1, #2
 80001ea:	1ac0      	subs	r0, r0, r3
 80001ec:	4152      	adcs	r2, r2
 80001ee:	0843      	lsrs	r3, r0, #1
 80001f0:	428b      	cmp	r3, r1
 80001f2:	d301      	bcc.n	80001f8 <__udivsi3+0xf0>
 80001f4:	004b      	lsls	r3, r1, #1
 80001f6:	1ac0      	subs	r0, r0, r3
 80001f8:	4152      	adcs	r2, r2
 80001fa:	1a41      	subs	r1, r0, r1
 80001fc:	d200      	bcs.n	8000200 <__udivsi3+0xf8>
 80001fe:	4601      	mov	r1, r0
 8000200:	4152      	adcs	r2, r2
 8000202:	4610      	mov	r0, r2
 8000204:	4770      	bx	lr
 8000206:	e7ff      	b.n	8000208 <__udivsi3+0x100>
 8000208:	b501      	push	{r0, lr}
 800020a:	2000      	movs	r0, #0
 800020c:	f000 f806 	bl	800021c <__aeabi_idiv0>
 8000210:	bd02      	pop	{r1, pc}
 8000212:	46c0      	nop			; (mov r8, r8)

08000214 <__aeabi_uidivmod>:
 8000214:	2900      	cmp	r1, #0
 8000216:	d0f7      	beq.n	8000208 <__udivsi3+0x100>
 8000218:	e776      	b.n	8000108 <__udivsi3>
 800021a:	4770      	bx	lr

0800021c <__aeabi_idiv0>:
 800021c:	4770      	bx	lr
 800021e:	46c0      	nop			; (mov r8, r8)

08000220 <MX_DAC1_Init>:

DAC_HandleTypeDef hdac1;

/* DAC1 init function */
void MX_DAC1_Init(void)
{
 8000220:	b580      	push	{r7, lr}
 8000222:	b082      	sub	sp, #8
 8000224:	af00      	add	r7, sp, #0
  DAC_ChannelConfTypeDef sConfig = {0};
 8000226:	003b      	movs	r3, r7
 8000228:	0018      	movs	r0, r3
 800022a:	2308      	movs	r3, #8
 800022c:	001a      	movs	r2, r3
 800022e:	2100      	movs	r1, #0
 8000230:	f002 f832 	bl	8002298 <memset>

  /** DAC Initialization 
  */
  hdac1.Instance = DAC;
 8000234:	4b0f      	ldr	r3, [pc, #60]	; (8000274 <MX_DAC1_Init+0x54>)
 8000236:	4a10      	ldr	r2, [pc, #64]	; (8000278 <MX_DAC1_Init+0x58>)
 8000238:	601a      	str	r2, [r3, #0]
  if (HAL_DAC_Init(&hdac1) != HAL_OK)
 800023a:	4b0e      	ldr	r3, [pc, #56]	; (8000274 <MX_DAC1_Init+0x54>)
 800023c:	0018      	movs	r0, r3
 800023e:	f000 fcaf 	bl	8000ba0 <HAL_DAC_Init>
 8000242:	1e03      	subs	r3, r0, #0
 8000244:	d001      	beq.n	800024a <MX_DAC1_Init+0x2a>
  {
    Error_Handler();
 8000246:	f000 f953 	bl	80004f0 <Error_Handler>
  }
  /** DAC channel OUT1 config 
  */
  sConfig.DAC_Trigger = DAC_TRIGGER_NONE;
 800024a:	003b      	movs	r3, r7
 800024c:	2200      	movs	r2, #0
 800024e:	601a      	str	r2, [r3, #0]
  sConfig.DAC_OutputBuffer = DAC_OUTPUTBUFFER_ENABLE;
 8000250:	003b      	movs	r3, r7
 8000252:	2200      	movs	r2, #0
 8000254:	605a      	str	r2, [r3, #4]
  if (HAL_DAC_ConfigChannel(&hdac1, &sConfig, DAC_CHANNEL_1) != HAL_OK)
 8000256:	0039      	movs	r1, r7
 8000258:	4b06      	ldr	r3, [pc, #24]	; (8000274 <MX_DAC1_Init+0x54>)
 800025a:	2200      	movs	r2, #0
 800025c:	0018      	movs	r0, r3
 800025e:	f000 fcc2 	bl	8000be6 <HAL_DAC_ConfigChannel>
 8000262:	1e03      	subs	r3, r0, #0
 8000264:	d001      	beq.n	800026a <MX_DAC1_Init+0x4a>
  {
    Error_Handler();
 8000266:	f000 f943 	bl	80004f0 <Error_Handler>
  }

}
 800026a:	46c0      	nop			; (mov r8, r8)
 800026c:	46bd      	mov	sp, r7
 800026e:	b002      	add	sp, #8
 8000270:	bd80      	pop	{r7, pc}
 8000272:	46c0      	nop			; (mov r8, r8)
 8000274:	2000002c 	.word	0x2000002c
 8000278:	40007400 	.word	0x40007400

0800027c <HAL_DAC_MspInit>:

void HAL_DAC_MspInit(DAC_HandleTypeDef* dacHandle)
{
 800027c:	b580      	push	{r7, lr}
 800027e:	b08a      	sub	sp, #40	; 0x28
 8000280:	af00      	add	r7, sp, #0
 8000282:	6078      	str	r0, [r7, #4]

  GPIO_InitTypeDef GPIO_InitStruct = {0};
 8000284:	2314      	movs	r3, #20
 8000286:	18fb      	adds	r3, r7, r3
 8000288:	0018      	movs	r0, r3
 800028a:	2314      	movs	r3, #20
 800028c:	001a      	movs	r2, r3
 800028e:	2100      	movs	r1, #0
 8000290:	f002 f802 	bl	8002298 <memset>
  if(dacHandle->Instance==DAC)
 8000294:	687b      	ldr	r3, [r7, #4]
 8000296:	681b      	ldr	r3, [r3, #0]
 8000298:	4a19      	ldr	r2, [pc, #100]	; (8000300 <HAL_DAC_MspInit+0x84>)
 800029a:	4293      	cmp	r3, r2
 800029c:	d12c      	bne.n	80002f8 <HAL_DAC_MspInit+0x7c>
  {
  /* USER CODE BEGIN DAC_MspInit 0 */

  /* USER CODE END DAC_MspInit 0 */
    /* DAC clock enable */
    __HAL_RCC_DAC1_CLK_ENABLE();
 800029e:	4b19      	ldr	r3, [pc, #100]	; (8000304 <HAL_DAC_MspInit+0x88>)
 80002a0:	69da      	ldr	r2, [r3, #28]
 80002a2:	4b18      	ldr	r3, [pc, #96]	; (8000304 <HAL_DAC_MspInit+0x88>)
 80002a4:	2180      	movs	r1, #128	; 0x80
 80002a6:	0589      	lsls	r1, r1, #22
 80002a8:	430a      	orrs	r2, r1
 80002aa:	61da      	str	r2, [r3, #28]
 80002ac:	4b15      	ldr	r3, [pc, #84]	; (8000304 <HAL_DAC_MspInit+0x88>)
 80002ae:	69da      	ldr	r2, [r3, #28]
 80002b0:	2380      	movs	r3, #128	; 0x80
 80002b2:	059b      	lsls	r3, r3, #22
 80002b4:	4013      	ands	r3, r2
 80002b6:	613b      	str	r3, [r7, #16]
 80002b8:	693b      	ldr	r3, [r7, #16]
  
    __HAL_RCC_GPIOA_CLK_ENABLE();
 80002ba:	4b12      	ldr	r3, [pc, #72]	; (8000304 <HAL_DAC_MspInit+0x88>)
 80002bc:	695a      	ldr	r2, [r3, #20]
 80002be:	4b11      	ldr	r3, [pc, #68]	; (8000304 <HAL_DAC_MspInit+0x88>)
 80002c0:	2180      	movs	r1, #128	; 0x80
 80002c2:	0289      	lsls	r1, r1, #10
 80002c4:	430a      	orrs	r2, r1
 80002c6:	615a      	str	r2, [r3, #20]
 80002c8:	4b0e      	ldr	r3, [pc, #56]	; (8000304 <HAL_DAC_MspInit+0x88>)
 80002ca:	695a      	ldr	r2, [r3, #20]
 80002cc:	2380      	movs	r3, #128	; 0x80
 80002ce:	029b      	lsls	r3, r3, #10
 80002d0:	4013      	ands	r3, r2
 80002d2:	60fb      	str	r3, [r7, #12]
 80002d4:	68fb      	ldr	r3, [r7, #12]
    /**DAC1 GPIO Configuration    
    PA4     ------> DAC1_OUT1 
    */
    GPIO_InitStruct.Pin = GPIO_PIN_4;
 80002d6:	2114      	movs	r1, #20
 80002d8:	187b      	adds	r3, r7, r1
 80002da:	2210      	movs	r2, #16
 80002dc:	601a      	str	r2, [r3, #0]
    GPIO_InitStruct.Mode = GPIO_MODE_ANALOG;
 80002de:	187b      	adds	r3, r7, r1
 80002e0:	2203      	movs	r2, #3
 80002e2:	605a      	str	r2, [r3, #4]
    GPIO_InitStruct.Pull = GPIO_NOPULL;
 80002e4:	187b      	adds	r3, r7, r1
 80002e6:	2200      	movs	r2, #0
 80002e8:	609a      	str	r2, [r3, #8]
    HAL_GPIO_Init(GPIOA, &GPIO_InitStruct);
 80002ea:	187a      	adds	r2, r7, r1
 80002ec:	2390      	movs	r3, #144	; 0x90
 80002ee:	05db      	lsls	r3, r3, #23
 80002f0:	0011      	movs	r1, r2
 80002f2:	0018      	movs	r0, r3
 80002f4:	f000 fcb6 	bl	8000c64 <HAL_GPIO_Init>

  /* USER CODE BEGIN DAC_MspInit 1 */

  /* USER CODE END DAC_MspInit 1 */
  }
}
 80002f8:	46c0      	nop			; (mov r8, r8)
 80002fa:	46bd      	mov	sp, r7
 80002fc:	b00a      	add	sp, #40	; 0x28
 80002fe:	bd80      	pop	{r7, pc}
 8000300:	40007400 	.word	0x40007400
 8000304:	40021000 	.word	0x40021000

08000308 <MX_GPIO_Init>:
        * Output
        * EVENT_OUT
        * EXTI
*/
void MX_GPIO_Init(void)
{
 8000308:	b590      	push	{r4, r7, lr}
 800030a:	b089      	sub	sp, #36	; 0x24
 800030c:	af00      	add	r7, sp, #0

  GPIO_InitTypeDef GPIO_InitStruct = {0};
 800030e:	240c      	movs	r4, #12
 8000310:	193b      	adds	r3, r7, r4
 8000312:	0018      	movs	r0, r3
 8000314:	2314      	movs	r3, #20
 8000316:	001a      	movs	r2, r3
 8000318:	2100      	movs	r1, #0
 800031a:	f001 ffbd 	bl	8002298 <memset>

  /* GPIO Ports Clock Enable */
  __HAL_RCC_GPIOA_CLK_ENABLE();
 800031e:	4b28      	ldr	r3, [pc, #160]	; (80003c0 <MX_GPIO_Init+0xb8>)
 8000320:	695a      	ldr	r2, [r3, #20]
 8000322:	4b27      	ldr	r3, [pc, #156]	; (80003c0 <MX_GPIO_Init+0xb8>)
 8000324:	2180      	movs	r1, #128	; 0x80
 8000326:	0289      	lsls	r1, r1, #10
 8000328:	430a      	orrs	r2, r1
 800032a:	615a      	str	r2, [r3, #20]
 800032c:	4b24      	ldr	r3, [pc, #144]	; (80003c0 <MX_GPIO_Init+0xb8>)
 800032e:	695a      	ldr	r2, [r3, #20]
 8000330:	2380      	movs	r3, #128	; 0x80
 8000332:	029b      	lsls	r3, r3, #10
 8000334:	4013      	ands	r3, r2
 8000336:	60bb      	str	r3, [r7, #8]
 8000338:	68bb      	ldr	r3, [r7, #8]
  __HAL_RCC_GPIOB_CLK_ENABLE();
 800033a:	4b21      	ldr	r3, [pc, #132]	; (80003c0 <MX_GPIO_Init+0xb8>)
 800033c:	695a      	ldr	r2, [r3, #20]
 800033e:	4b20      	ldr	r3, [pc, #128]	; (80003c0 <MX_GPIO_Init+0xb8>)
 8000340:	2180      	movs	r1, #128	; 0x80
 8000342:	02c9      	lsls	r1, r1, #11
 8000344:	430a      	orrs	r2, r1
 8000346:	615a      	str	r2, [r3, #20]
 8000348:	4b1d      	ldr	r3, [pc, #116]	; (80003c0 <MX_GPIO_Init+0xb8>)
 800034a:	695a      	ldr	r2, [r3, #20]
 800034c:	2380      	movs	r3, #128	; 0x80
 800034e:	02db      	lsls	r3, r3, #11
 8000350:	4013      	ands	r3, r2
 8000352:	607b      	str	r3, [r7, #4]
 8000354:	687b      	ldr	r3, [r7, #4]

  /*Configure GPIO pin Output Level */
  HAL_GPIO_WritePin(GPIOA, STATUS_BLUE_Pin|STATUS_GREEN_Pin|STATUS_RED_Pin, GPIO_PIN_RESET);
 8000356:	2390      	movs	r3, #144	; 0x90
 8000358:	05db      	lsls	r3, r3, #23
 800035a:	2200      	movs	r2, #0
 800035c:	2107      	movs	r1, #7
 800035e:	0018      	movs	r0, r3
 8000360:	f000 fdf0 	bl	8000f44 <HAL_GPIO_WritePin>

  /*Configure GPIO pins : PAPin PAPin PAPin */
  GPIO_InitStruct.Pin = STATUS_BLUE_Pin|STATUS_GREEN_Pin|STATUS_RED_Pin;
 8000364:	193b      	adds	r3, r7, r4
 8000366:	2207      	movs	r2, #7
 8000368:	601a      	str	r2, [r3, #0]
  GPIO_InitStruct.Mode = GPIO_MODE_OUTPUT_PP;
 800036a:	193b      	adds	r3, r7, r4
 800036c:	2201      	movs	r2, #1
 800036e:	605a      	str	r2, [r3, #4]
  GPIO_InitStruct.Pull = GPIO_NOPULL;
 8000370:	193b      	adds	r3, r7, r4
 8000372:	2200      	movs	r2, #0
 8000374:	609a      	str	r2, [r3, #8]
  GPIO_InitStruct.Speed = GPIO_SPEED_FREQ_LOW;
 8000376:	193b      	adds	r3, r7, r4
 8000378:	2200      	movs	r2, #0
 800037a:	60da      	str	r2, [r3, #12]
  HAL_GPIO_Init(GPIOA, &GPIO_InitStruct);
 800037c:	193a      	adds	r2, r7, r4
 800037e:	2390      	movs	r3, #144	; 0x90
 8000380:	05db      	lsls	r3, r3, #23
 8000382:	0011      	movs	r1, r2
 8000384:	0018      	movs	r0, r3
 8000386:	f000 fc6d 	bl	8000c64 <HAL_GPIO_Init>

  /*Configure GPIO pin : PtPin */
  GPIO_InitStruct.Pin = ENABLE_LED_Pin;
 800038a:	193b      	adds	r3, r7, r4
 800038c:	2202      	movs	r2, #2
 800038e:	601a      	str	r2, [r3, #0]
  GPIO_InitStruct.Mode = GPIO_MODE_IT_FALLING;
 8000390:	193b      	adds	r3, r7, r4
 8000392:	4a0c      	ldr	r2, [pc, #48]	; (80003c4 <MX_GPIO_Init+0xbc>)
 8000394:	605a      	str	r2, [r3, #4]
  GPIO_InitStruct.Pull = GPIO_PULLUP;
 8000396:	193b      	adds	r3, r7, r4
 8000398:	2201      	movs	r2, #1
 800039a:	609a      	str	r2, [r3, #8]
  HAL_GPIO_Init(ENABLE_LED_GPIO_Port, &GPIO_InitStruct);
 800039c:	193b      	adds	r3, r7, r4
 800039e:	4a0a      	ldr	r2, [pc, #40]	; (80003c8 <MX_GPIO_Init+0xc0>)
 80003a0:	0019      	movs	r1, r3
 80003a2:	0010      	movs	r0, r2
 80003a4:	f000 fc5e 	bl	8000c64 <HAL_GPIO_Init>

  /* EXTI interrupt init*/
  HAL_NVIC_SetPriority(EXTI0_1_IRQn, 0, 0);
 80003a8:	2200      	movs	r2, #0
 80003aa:	2100      	movs	r1, #0
 80003ac:	2005      	movs	r0, #5
 80003ae:	f000 fbc5 	bl	8000b3c <HAL_NVIC_SetPriority>
  HAL_NVIC_EnableIRQ(EXTI0_1_IRQn);
 80003b2:	2005      	movs	r0, #5
 80003b4:	f000 fbd7 	bl	8000b66 <HAL_NVIC_EnableIRQ>

}
 80003b8:	46c0      	nop			; (mov r8, r8)
 80003ba:	46bd      	mov	sp, r7
 80003bc:	b009      	add	sp, #36	; 0x24
 80003be:	bd90      	pop	{r4, r7, pc}
 80003c0:	40021000 	.word	0x40021000
 80003c4:	10210000 	.word	0x10210000
 80003c8:	48000400 	.word	0x48000400

080003cc <main>:
/**
  * @brief  The application entry point.
  * @retval int
  */
int main(void)
{
 80003cc:	b580      	push	{r7, lr}
 80003ce:	af00      	add	r7, sp, #0
  /* USER CODE END 1 */

  /* MCU Configuration--------------------------------------------------------*/

  /* Reset of all peripherals, Initializes the Flash interface and the Systick. */
  HAL_Init();
 80003d0:	f000 faa4 	bl	800091c <HAL_Init>
  /* USER CODE BEGIN Init */

  /* USER CODE END Init */

  /* Configure the system clock */
  SystemClock_Config();
 80003d4:	f000 f84c 	bl	8000470 <SystemClock_Config>
  /* USER CODE BEGIN SysInit */

  /* USER CODE END SysInit */

  /* Initialize all configured peripherals */
  MX_GPIO_Init();
 80003d8:	f7ff ff96 	bl	8000308 <MX_GPIO_Init>
  MX_TIM1_Init();
 80003dc:	f000 f916 	bl	800060c <MX_TIM1_Init>
  MX_DAC1_Init();
 80003e0:	f7ff ff1e 	bl	8000220 <MX_DAC1_Init>
  MX_TIM17_Init();
 80003e4:	f000 f9c8 	bl	8000778 <MX_TIM17_Init>
  /* USER CODE BEGIN 2 */
  HAL_TIM_Base_Start(&htim17);
 80003e8:	4b1e      	ldr	r3, [pc, #120]	; (8000464 <main+0x98>)
 80003ea:	0018      	movs	r0, r3
 80003ec:	f001 fa82 	bl	80018f4 <HAL_TIM_Base_Start>
  HAL_TIM_PWM_Start(&htim1, TIM_CHANNEL_1);
 80003f0:	4b1d      	ldr	r3, [pc, #116]	; (8000468 <main+0x9c>)
 80003f2:	2100      	movs	r1, #0
 80003f4:	0018      	movs	r0, r3
 80003f6:	f001 facb 	bl	8001990 <HAL_TIM_PWM_Start>
  HAL_TIM_PWM_Start(&htim1, TIM_CHANNEL_2);
 80003fa:	4b1b      	ldr	r3, [pc, #108]	; (8000468 <main+0x9c>)
 80003fc:	2104      	movs	r1, #4
 80003fe:	0018      	movs	r0, r3
 8000400:	f001 fac6 	bl	8001990 <HAL_TIM_PWM_Start>
  HAL_TIM_PWM_Start(&htim1, TIM_CHANNEL_3);
 8000404:	4b18      	ldr	r3, [pc, #96]	; (8000468 <main+0x9c>)
 8000406:	2108      	movs	r1, #8
 8000408:	0018      	movs	r0, r3
 800040a:	f001 fac1 	bl	8001990 <HAL_TIM_PWM_Start>
  HAL_TIM_PWM_Start(&htim1, TIM_CHANNEL_4);
 800040e:	4b16      	ldr	r3, [pc, #88]	; (8000468 <main+0x9c>)
 8000410:	210c      	movs	r1, #12
 8000412:	0018      	movs	r0, r3
 8000414:	f001 fabc 	bl	8001990 <HAL_TIM_PWM_Start>

  TIM1->ARR = 0x40;
 8000418:	4b14      	ldr	r3, [pc, #80]	; (800046c <main+0xa0>)
 800041a:	2240      	movs	r2, #64	; 0x40
 800041c:	62da      	str	r2, [r3, #44]	; 0x2c
  TIM1->CCR1 = 0x00;
 800041e:	4b13      	ldr	r3, [pc, #76]	; (800046c <main+0xa0>)
 8000420:	2200      	movs	r2, #0
 8000422:	635a      	str	r2, [r3, #52]	; 0x34
  TIM1->CCR2 = 0x00;
 8000424:	4b11      	ldr	r3, [pc, #68]	; (800046c <main+0xa0>)
 8000426:	2200      	movs	r2, #0
 8000428:	639a      	str	r2, [r3, #56]	; 0x38
  TIM1->CCR3 = 0x00;
 800042a:	4b10      	ldr	r3, [pc, #64]	; (800046c <main+0xa0>)
 800042c:	2200      	movs	r2, #0
 800042e:	63da      	str	r2, [r3, #60]	; 0x3c
  TIM1->CCR4 = 0x00;
 8000430:	4b0e      	ldr	r3, [pc, #56]	; (800046c <main+0xa0>)
 8000432:	2200      	movs	r2, #0
 8000434:	641a      	str	r2, [r3, #64]	; 0x40

  HAL_GPIO_WritePin(GPIOA, STATUS_BLUE_Pin, GPIO_PIN_SET);
 8000436:	2390      	movs	r3, #144	; 0x90
 8000438:	05db      	lsls	r3, r3, #23
 800043a:	2201      	movs	r2, #1
 800043c:	2101      	movs	r1, #1
 800043e:	0018      	movs	r0, r3
 8000440:	f000 fd80 	bl	8000f44 <HAL_GPIO_WritePin>
  HAL_GPIO_WritePin(GPIOA, STATUS_RED_Pin, GPIO_PIN_RESET);
 8000444:	2390      	movs	r3, #144	; 0x90
 8000446:	05db      	lsls	r3, r3, #23
 8000448:	2200      	movs	r2, #0
 800044a:	2104      	movs	r1, #4
 800044c:	0018      	movs	r0, r3
 800044e:	f000 fd79 	bl	8000f44 <HAL_GPIO_WritePin>
  HAL_GPIO_WritePin(GPIOA, STATUS_GREEN_Pin, GPIO_PIN_SET);
 8000452:	2390      	movs	r3, #144	; 0x90
 8000454:	05db      	lsls	r3, r3, #23
 8000456:	2201      	movs	r2, #1
 8000458:	2102      	movs	r1, #2
 800045a:	0018      	movs	r0, r3
 800045c:	f000 fd72 	bl	8000f44 <HAL_GPIO_WritePin>
  /* USER CODE END 2 */

  /* Infinite loop */
  /* USER CODE BEGIN WHILE */
  while (1)
 8000460:	e7fe      	b.n	8000460 <main+0x94>
 8000462:	46c0      	nop			; (mov r8, r8)
 8000464:	20000040 	.word	0x20000040
 8000468:	20000080 	.word	0x20000080
 800046c:	40012c00 	.word	0x40012c00

08000470 <SystemClock_Config>:
/**
  * @brief System Clock Configuration
  * @retval None
  */
void SystemClock_Config(void)
{
 8000470:	b590      	push	{r4, r7, lr}
 8000472:	b091      	sub	sp, #68	; 0x44
 8000474:	af00      	add	r7, sp, #0
  RCC_OscInitTypeDef RCC_OscInitStruct = {0};
 8000476:	2410      	movs	r4, #16
 8000478:	193b      	adds	r3, r7, r4
 800047a:	0018      	movs	r0, r3
 800047c:	2330      	movs	r3, #48	; 0x30
 800047e:	001a      	movs	r2, r3
 8000480:	2100      	movs	r1, #0
 8000482:	f001 ff09 	bl	8002298 <memset>
  RCC_ClkInitTypeDef RCC_ClkInitStruct = {0};
 8000486:	003b      	movs	r3, r7
 8000488:	0018      	movs	r0, r3
 800048a:	2310      	movs	r3, #16
 800048c:	001a      	movs	r2, r3
 800048e:	2100      	movs	r1, #0
 8000490:	f001 ff02 	bl	8002298 <memset>

  /** Initializes the CPU, AHB and APB busses clocks 
  */
  RCC_OscInitStruct.OscillatorType = RCC_OSCILLATORTYPE_HSI;
 8000494:	0021      	movs	r1, r4
 8000496:	187b      	adds	r3, r7, r1
 8000498:	2202      	movs	r2, #2
 800049a:	601a      	str	r2, [r3, #0]
  RCC_OscInitStruct.HSIState = RCC_HSI_ON;
 800049c:	187b      	adds	r3, r7, r1
 800049e:	2201      	movs	r2, #1
 80004a0:	60da      	str	r2, [r3, #12]
  RCC_OscInitStruct.HSICalibrationValue = RCC_HSICALIBRATION_DEFAULT;
 80004a2:	187b      	adds	r3, r7, r1
 80004a4:	2210      	movs	r2, #16
 80004a6:	611a      	str	r2, [r3, #16]
  RCC_OscInitStruct.PLL.PLLState = RCC_PLL_NONE;
 80004a8:	187b      	adds	r3, r7, r1
 80004aa:	2200      	movs	r2, #0
 80004ac:	621a      	str	r2, [r3, #32]
  if (HAL_RCC_OscConfig(&RCC_OscInitStruct) != HAL_OK)
 80004ae:	187b      	adds	r3, r7, r1
 80004b0:	0018      	movs	r0, r3
 80004b2:	f000 fda5 	bl	8001000 <HAL_RCC_OscConfig>
 80004b6:	1e03      	subs	r3, r0, #0
 80004b8:	d001      	beq.n	80004be <SystemClock_Config+0x4e>
  {
    Error_Handler();
 80004ba:	f000 f819 	bl	80004f0 <Error_Handler>
  }
  /** Initializes the CPU, AHB and APB busses clocks 
  */
  RCC_ClkInitStruct.ClockType = RCC_CLOCKTYPE_HCLK|RCC_CLOCKTYPE_SYSCLK
 80004be:	003b      	movs	r3, r7
 80004c0:	2207      	movs	r2, #7
 80004c2:	601a      	str	r2, [r3, #0]
                              |RCC_CLOCKTYPE_PCLK1;
  RCC_ClkInitStruct.SYSCLKSource = RCC_SYSCLKSOURCE_HSI;
 80004c4:	003b      	movs	r3, r7
 80004c6:	2200      	movs	r2, #0
 80004c8:	605a      	str	r2, [r3, #4]
  RCC_ClkInitStruct.AHBCLKDivider = RCC_SYSCLK_DIV1;
 80004ca:	003b      	movs	r3, r7
 80004cc:	2200      	movs	r2, #0
 80004ce:	609a      	str	r2, [r3, #8]
  RCC_ClkInitStruct.APB1CLKDivider = RCC_HCLK_DIV1;
 80004d0:	003b      	movs	r3, r7
 80004d2:	2200      	movs	r2, #0
 80004d4:	60da      	str	r2, [r3, #12]

  if (HAL_RCC_ClockConfig(&RCC_ClkInitStruct, FLASH_LATENCY_0) != HAL_OK)
 80004d6:	003b      	movs	r3, r7
 80004d8:	2100      	movs	r1, #0
 80004da:	0018      	movs	r0, r3
 80004dc:	f001 f8ac 	bl	8001638 <HAL_RCC_ClockConfig>
 80004e0:	1e03      	subs	r3, r0, #0
 80004e2:	d001      	beq.n	80004e8 <SystemClock_Config+0x78>
  {
    Error_Handler();
 80004e4:	f000 f804 	bl	80004f0 <Error_Handler>
  }
}
 80004e8:	46c0      	nop			; (mov r8, r8)
 80004ea:	46bd      	mov	sp, r7
 80004ec:	b011      	add	sp, #68	; 0x44
 80004ee:	bd90      	pop	{r4, r7, pc}

080004f0 <Error_Handler>:
/**
  * @brief  This function is executed in case of error occurrence.
  * @retval None
  */
void Error_Handler(void)
{
 80004f0:	b580      	push	{r7, lr}
 80004f2:	af00      	add	r7, sp, #0
  /* USER CODE BEGIN Error_Handler_Debug */
  /* User can add his own implementation to report the HAL error return state */

  /* USER CODE END Error_Handler_Debug */
}
 80004f4:	46c0      	nop			; (mov r8, r8)
 80004f6:	46bd      	mov	sp, r7
 80004f8:	bd80      	pop	{r7, pc}
	...

080004fc <HAL_MspInit>:
/* USER CODE END 0 */
/**
  * Initializes the Global MSP.
  */
void HAL_MspInit(void)
{
 80004fc:	b580      	push	{r7, lr}
 80004fe:	b082      	sub	sp, #8
 8000500:	af00      	add	r7, sp, #0
  /* USER CODE BEGIN MspInit 0 */

  /* USER CODE END MspInit 0 */

  __HAL_RCC_SYSCFG_CLK_ENABLE();
 8000502:	4b0f      	ldr	r3, [pc, #60]	; (8000540 <HAL_MspInit+0x44>)
 8000504:	699a      	ldr	r2, [r3, #24]
 8000506:	4b0e      	ldr	r3, [pc, #56]	; (8000540 <HAL_MspInit+0x44>)
 8000508:	2101      	movs	r1, #1
 800050a:	430a      	orrs	r2, r1
 800050c:	619a      	str	r2, [r3, #24]
 800050e:	4b0c      	ldr	r3, [pc, #48]	; (8000540 <HAL_MspInit+0x44>)
 8000510:	699b      	ldr	r3, [r3, #24]
 8000512:	2201      	movs	r2, #1
 8000514:	4013      	ands	r3, r2
 8000516:	607b      	str	r3, [r7, #4]
 8000518:	687b      	ldr	r3, [r7, #4]
  __HAL_RCC_PWR_CLK_ENABLE();
 800051a:	4b09      	ldr	r3, [pc, #36]	; (8000540 <HAL_MspInit+0x44>)
 800051c:	69da      	ldr	r2, [r3, #28]
 800051e:	4b08      	ldr	r3, [pc, #32]	; (8000540 <HAL_MspInit+0x44>)
 8000520:	2180      	movs	r1, #128	; 0x80
 8000522:	0549      	lsls	r1, r1, #21
 8000524:	430a      	orrs	r2, r1
 8000526:	61da      	str	r2, [r3, #28]
 8000528:	4b05      	ldr	r3, [pc, #20]	; (8000540 <HAL_MspInit+0x44>)
 800052a:	69da      	ldr	r2, [r3, #28]
 800052c:	2380      	movs	r3, #128	; 0x80
 800052e:	055b      	lsls	r3, r3, #21
 8000530:	4013      	ands	r3, r2
 8000532:	603b      	str	r3, [r7, #0]
 8000534:	683b      	ldr	r3, [r7, #0]
  /* System interrupt init*/

  /* USER CODE BEGIN MspInit 1 */

  /* USER CODE END MspInit 1 */
}
 8000536:	46c0      	nop			; (mov r8, r8)
 8000538:	46bd      	mov	sp, r7
 800053a:	b002      	add	sp, #8
 800053c:	bd80      	pop	{r7, pc}
 800053e:	46c0      	nop			; (mov r8, r8)
 8000540:	40021000 	.word	0x40021000

08000544 <NMI_Handler>:
/******************************************************************************/
/**
  * @brief This function handles Non maskable interrupt.
  */
void NMI_Handler(void)
{
 8000544:	b580      	push	{r7, lr}
 8000546:	af00      	add	r7, sp, #0

  /* USER CODE END NonMaskableInt_IRQn 0 */
  /* USER CODE BEGIN NonMaskableInt_IRQn 1 */

  /* USER CODE END NonMaskableInt_IRQn 1 */
}
 8000548:	46c0      	nop			; (mov r8, r8)
 800054a:	46bd      	mov	sp, r7
 800054c:	bd80      	pop	{r7, pc}

0800054e <HardFault_Handler>:

/**
  * @brief This function handles Hard fault interrupt.
  */
void HardFault_Handler(void)
{
 800054e:	b580      	push	{r7, lr}
 8000550:	af00      	add	r7, sp, #0
  /* USER CODE BEGIN HardFault_IRQn 0 */

  /* USER CODE END HardFault_IRQn 0 */
  while (1)
 8000552:	e7fe      	b.n	8000552 <HardFault_Handler+0x4>

08000554 <SVC_Handler>:

/**
  * @brief This function handles System service call via SWI instruction.
  */
void SVC_Handler(void)
{
 8000554:	b580      	push	{r7, lr}
 8000556:	af00      	add	r7, sp, #0

  /* USER CODE END SVC_IRQn 0 */
  /* USER CODE BEGIN SVC_IRQn 1 */

  /* USER CODE END SVC_IRQn 1 */
}
 8000558:	46c0      	nop			; (mov r8, r8)
 800055a:	46bd      	mov	sp, r7
 800055c:	bd80      	pop	{r7, pc}

0800055e <PendSV_Handler>:

/**
  * @brief This function handles Pendable request for system service.
  */
void PendSV_Handler(void)
{
 800055e:	b580      	push	{r7, lr}
 8000560:	af00      	add	r7, sp, #0

  /* USER CODE END PendSV_IRQn 0 */
  /* USER CODE BEGIN PendSV_IRQn 1 */

  /* USER CODE END PendSV_IRQn 1 */
}
 8000562:	46c0      	nop			; (mov r8, r8)
 8000564:	46bd      	mov	sp, r7
 8000566:	bd80      	pop	{r7, pc}

08000568 <SysTick_Handler>:

/**
  * @brief This function handles System tick timer.
  */
void SysTick_Handler(void)
{
 8000568:	b580      	push	{r7, lr}
 800056a:	af00      	add	r7, sp, #0
  /* USER CODE BEGIN SysTick_IRQn 0 */

  /* USER CODE END SysTick_IRQn 0 */
  HAL_IncTick();
 800056c:	f000 fa1e 	bl	80009ac <HAL_IncTick>
  /* USER CODE BEGIN SysTick_IRQn 1 */

  /* USER CODE END SysTick_IRQn 1 */
}
 8000570:	46c0      	nop			; (mov r8, r8)
 8000572:	46bd      	mov	sp, r7
 8000574:	bd80      	pop	{r7, pc}
	...

08000578 <EXTI0_1_IRQHandler>:

/**
  * @brief This function handles EXTI line 0 and 1 interrupts.
  */
void EXTI0_1_IRQHandler(void)
{
 8000578:	b580      	push	{r7, lr}
 800057a:	b082      	sub	sp, #8
 800057c:	af00      	add	r7, sp, #0
  /* USER CODE BEGIN EXTI0_1_IRQn 0 */
	uint16_t interrupt_time = TIM17->CNT;
 800057e:	4b1d      	ldr	r3, [pc, #116]	; (80005f4 <EXTI0_1_IRQHandler+0x7c>)
 8000580:	6a5a      	ldr	r2, [r3, #36]	; 0x24
 8000582:	1dbb      	adds	r3, r7, #6
 8000584:	801a      	strh	r2, [r3, #0]
	if ((interrupt_time - last_interrupt_time) > MAX_DEBOUNCE_DELAY)
 8000586:	1dbb      	adds	r3, r7, #6
 8000588:	881b      	ldrh	r3, [r3, #0]
 800058a:	4a1b      	ldr	r2, [pc, #108]	; (80005f8 <EXTI0_1_IRQHandler+0x80>)
 800058c:	8812      	ldrh	r2, [r2, #0]
 800058e:	1a9b      	subs	r3, r3, r2
 8000590:	2baf      	cmp	r3, #175	; 0xaf
 8000592:	dd23      	ble.n	80005dc <EXTI0_1_IRQHandler+0x64>
	{
		HAL_GPIO_TogglePin(GPIOA, STATUS_GREEN_Pin);
 8000594:	2390      	movs	r3, #144	; 0x90
 8000596:	05db      	lsls	r3, r3, #23
 8000598:	2102      	movs	r1, #2
 800059a:	0018      	movs	r0, r3
 800059c:	f000 fcef 	bl	8000f7e <HAL_GPIO_TogglePin>
		HAL_GPIO_TogglePin(GPIOA, STATUS_RED_Pin);
 80005a0:	2390      	movs	r3, #144	; 0x90
 80005a2:	05db      	lsls	r3, r3, #23
 80005a4:	2104      	movs	r1, #4
 80005a6:	0018      	movs	r0, r3
 80005a8:	f000 fce9 	bl	8000f7e <HAL_GPIO_TogglePin>
		TIM1->CCR1 ^= 0x80;
 80005ac:	4b13      	ldr	r3, [pc, #76]	; (80005fc <EXTI0_1_IRQHandler+0x84>)
 80005ae:	6b5a      	ldr	r2, [r3, #52]	; 0x34
 80005b0:	4b12      	ldr	r3, [pc, #72]	; (80005fc <EXTI0_1_IRQHandler+0x84>)
 80005b2:	2180      	movs	r1, #128	; 0x80
 80005b4:	404a      	eors	r2, r1
 80005b6:	635a      	str	r2, [r3, #52]	; 0x34
		TIM1->CCR2 ^= 0x80;
 80005b8:	4b10      	ldr	r3, [pc, #64]	; (80005fc <EXTI0_1_IRQHandler+0x84>)
 80005ba:	6b9a      	ldr	r2, [r3, #56]	; 0x38
 80005bc:	4b0f      	ldr	r3, [pc, #60]	; (80005fc <EXTI0_1_IRQHandler+0x84>)
 80005be:	2180      	movs	r1, #128	; 0x80
 80005c0:	404a      	eors	r2, r1
 80005c2:	639a      	str	r2, [r3, #56]	; 0x38
		TIM1->CCR3 ^= 0x80;
 80005c4:	4b0d      	ldr	r3, [pc, #52]	; (80005fc <EXTI0_1_IRQHandler+0x84>)
 80005c6:	6bda      	ldr	r2, [r3, #60]	; 0x3c
 80005c8:	4b0c      	ldr	r3, [pc, #48]	; (80005fc <EXTI0_1_IRQHandler+0x84>)
 80005ca:	2180      	movs	r1, #128	; 0x80
 80005cc:	404a      	eors	r2, r1
 80005ce:	63da      	str	r2, [r3, #60]	; 0x3c
		TIM1->CCR4 ^= 0x80;
 80005d0:	4b0a      	ldr	r3, [pc, #40]	; (80005fc <EXTI0_1_IRQHandler+0x84>)
 80005d2:	6c1a      	ldr	r2, [r3, #64]	; 0x40
 80005d4:	4b09      	ldr	r3, [pc, #36]	; (80005fc <EXTI0_1_IRQHandler+0x84>)
 80005d6:	2180      	movs	r1, #128	; 0x80
 80005d8:	404a      	eors	r2, r1
 80005da:	641a      	str	r2, [r3, #64]	; 0x40
	}
	last_interrupt_time = interrupt_time;
 80005dc:	4b06      	ldr	r3, [pc, #24]	; (80005f8 <EXTI0_1_IRQHandler+0x80>)
 80005de:	1dba      	adds	r2, r7, #6
 80005e0:	8812      	ldrh	r2, [r2, #0]
 80005e2:	801a      	strh	r2, [r3, #0]
  /* USER CODE END EXTI0_1_IRQn 0 */
  HAL_GPIO_EXTI_IRQHandler(GPIO_PIN_1);
 80005e4:	2002      	movs	r0, #2
 80005e6:	f000 fce5 	bl	8000fb4 <HAL_GPIO_EXTI_IRQHandler>
  /* USER CODE BEGIN EXTI0_1_IRQn 1 */

  /* USER CODE END EXTI0_1_IRQn 1 */
}
 80005ea:	46c0      	nop			; (mov r8, r8)
 80005ec:	46bd      	mov	sp, r7
 80005ee:	b002      	add	sp, #8
 80005f0:	bd80      	pop	{r7, pc}
 80005f2:	46c0      	nop			; (mov r8, r8)
 80005f4:	40014800 	.word	0x40014800
 80005f8:	20000028 	.word	0x20000028
 80005fc:	40012c00 	.word	0x40012c00

08000600 <SystemInit>:
  * @brief  Setup the microcontroller system.
  * @param  None
  * @retval None
  */
void SystemInit(void)
{
 8000600:	b580      	push	{r7, lr}
 8000602:	af00      	add	r7, sp, #0
                         before branch to main program. This call is made inside
                         the "startup_stm32f0xx.s" file.
                         User can setups the default system clock (System clock source, PLL Multiplier
                         and Divider factors, AHB/APBx prescalers and Flash settings).
   */
}
 8000604:	46c0      	nop			; (mov r8, r8)
 8000606:	46bd      	mov	sp, r7
 8000608:	bd80      	pop	{r7, pc}
	...

0800060c <MX_TIM1_Init>:
TIM_HandleTypeDef htim1;
TIM_HandleTypeDef htim17;

/* TIM1 init function */
void MX_TIM1_Init(void)
{
 800060c:	b580      	push	{r7, lr}
 800060e:	b092      	sub	sp, #72	; 0x48
 8000610:	af00      	add	r7, sp, #0
  TIM_MasterConfigTypeDef sMasterConfig = {0};
 8000612:	2340      	movs	r3, #64	; 0x40
 8000614:	18fb      	adds	r3, r7, r3
 8000616:	0018      	movs	r0, r3
 8000618:	2308      	movs	r3, #8
 800061a:	001a      	movs	r2, r3
 800061c:	2100      	movs	r1, #0
 800061e:	f001 fe3b 	bl	8002298 <memset>
  TIM_OC_InitTypeDef sConfigOC = {0};
 8000622:	2324      	movs	r3, #36	; 0x24
 8000624:	18fb      	adds	r3, r7, r3
 8000626:	0018      	movs	r0, r3
 8000628:	231c      	movs	r3, #28
 800062a:	001a      	movs	r2, r3
 800062c:	2100      	movs	r1, #0
 800062e:	f001 fe33 	bl	8002298 <memset>
  TIM_BreakDeadTimeConfigTypeDef sBreakDeadTimeConfig = {0};
 8000632:	1d3b      	adds	r3, r7, #4
 8000634:	0018      	movs	r0, r3
 8000636:	2320      	movs	r3, #32
 8000638:	001a      	movs	r2, r3
 800063a:	2100      	movs	r1, #0
 800063c:	f001 fe2c 	bl	8002298 <memset>

  htim1.Instance = TIM1;
 8000640:	4b4b      	ldr	r3, [pc, #300]	; (8000770 <MX_TIM1_Init+0x164>)
 8000642:	4a4c      	ldr	r2, [pc, #304]	; (8000774 <MX_TIM1_Init+0x168>)
 8000644:	601a      	str	r2, [r3, #0]
  htim1.Init.Prescaler = 0;
 8000646:	4b4a      	ldr	r3, [pc, #296]	; (8000770 <MX_TIM1_Init+0x164>)
 8000648:	2200      	movs	r2, #0
 800064a:	605a      	str	r2, [r3, #4]
  htim1.Init.CounterMode = TIM_COUNTERMODE_UP;
 800064c:	4b48      	ldr	r3, [pc, #288]	; (8000770 <MX_TIM1_Init+0x164>)
 800064e:	2200      	movs	r2, #0
 8000650:	609a      	str	r2, [r3, #8]
  htim1.Init.Period = 64;
 8000652:	4b47      	ldr	r3, [pc, #284]	; (8000770 <MX_TIM1_Init+0x164>)
 8000654:	2240      	movs	r2, #64	; 0x40
 8000656:	60da      	str	r2, [r3, #12]
  htim1.Init.ClockDivision = TIM_CLOCKDIVISION_DIV1;
 8000658:	4b45      	ldr	r3, [pc, #276]	; (8000770 <MX_TIM1_Init+0x164>)
 800065a:	2200      	movs	r2, #0
 800065c:	611a      	str	r2, [r3, #16]
  htim1.Init.RepetitionCounter = 0;
 800065e:	4b44      	ldr	r3, [pc, #272]	; (8000770 <MX_TIM1_Init+0x164>)
 8000660:	2200      	movs	r2, #0
 8000662:	615a      	str	r2, [r3, #20]
  htim1.Init.AutoReloadPreload = TIM_AUTORELOAD_PRELOAD_DISABLE;
 8000664:	4b42      	ldr	r3, [pc, #264]	; (8000770 <MX_TIM1_Init+0x164>)
 8000666:	2200      	movs	r2, #0
 8000668:	619a      	str	r2, [r3, #24]
  if (HAL_TIM_PWM_Init(&htim1) != HAL_OK)
 800066a:	4b41      	ldr	r3, [pc, #260]	; (8000770 <MX_TIM1_Init+0x164>)
 800066c:	0018      	movs	r0, r3
 800066e:	f001 f963 	bl	8001938 <HAL_TIM_PWM_Init>
 8000672:	1e03      	subs	r3, r0, #0
 8000674:	d001      	beq.n	800067a <MX_TIM1_Init+0x6e>
  {
    Error_Handler();
 8000676:	f7ff ff3b 	bl	80004f0 <Error_Handler>
  }
  sMasterConfig.MasterOutputTrigger = TIM_TRGO_RESET;
 800067a:	2140      	movs	r1, #64	; 0x40
 800067c:	187b      	adds	r3, r7, r1
 800067e:	2200      	movs	r2, #0
 8000680:	601a      	str	r2, [r3, #0]
  sMasterConfig.MasterSlaveMode = TIM_MASTERSLAVEMODE_DISABLE;
 8000682:	187b      	adds	r3, r7, r1
 8000684:	2200      	movs	r2, #0
 8000686:	605a      	str	r2, [r3, #4]
  if (HAL_TIMEx_MasterConfigSynchronization(&htim1, &sMasterConfig) != HAL_OK)
 8000688:	187a      	adds	r2, r7, r1
 800068a:	4b39      	ldr	r3, [pc, #228]	; (8000770 <MX_TIM1_Init+0x164>)
 800068c:	0011      	movs	r1, r2
 800068e:	0018      	movs	r0, r3
 8000690:	f001 fd22 	bl	80020d8 <HAL_TIMEx_MasterConfigSynchronization>
 8000694:	1e03      	subs	r3, r0, #0
 8000696:	d001      	beq.n	800069c <MX_TIM1_Init+0x90>
  {
    Error_Handler();
 8000698:	f7ff ff2a 	bl	80004f0 <Error_Handler>
  }
  sConfigOC.OCMode = TIM_OCMODE_PWM1;
 800069c:	2124      	movs	r1, #36	; 0x24
 800069e:	187b      	adds	r3, r7, r1
 80006a0:	2260      	movs	r2, #96	; 0x60
 80006a2:	601a      	str	r2, [r3, #0]
  sConfigOC.Pulse = 0;
 80006a4:	187b      	adds	r3, r7, r1
 80006a6:	2200      	movs	r2, #0
 80006a8:	605a      	str	r2, [r3, #4]
  sConfigOC.OCPolarity = TIM_OCPOLARITY_HIGH;
 80006aa:	187b      	adds	r3, r7, r1
 80006ac:	2200      	movs	r2, #0
 80006ae:	609a      	str	r2, [r3, #8]
  sConfigOC.OCNPolarity = TIM_OCNPOLARITY_HIGH;
 80006b0:	187b      	adds	r3, r7, r1
 80006b2:	2200      	movs	r2, #0
 80006b4:	60da      	str	r2, [r3, #12]
  sConfigOC.OCFastMode = TIM_OCFAST_DISABLE;
 80006b6:	187b      	adds	r3, r7, r1
 80006b8:	2200      	movs	r2, #0
 80006ba:	611a      	str	r2, [r3, #16]
  sConfigOC.OCIdleState = TIM_OCIDLESTATE_RESET;
 80006bc:	187b      	adds	r3, r7, r1
 80006be:	2200      	movs	r2, #0
 80006c0:	615a      	str	r2, [r3, #20]
  sConfigOC.OCNIdleState = TIM_OCNIDLESTATE_RESET;
 80006c2:	187b      	adds	r3, r7, r1
 80006c4:	2200      	movs	r2, #0
 80006c6:	619a      	str	r2, [r3, #24]
  if (HAL_TIM_PWM_ConfigChannel(&htim1, &sConfigOC, TIM_CHANNEL_1) != HAL_OK)
 80006c8:	1879      	adds	r1, r7, r1
 80006ca:	4b29      	ldr	r3, [pc, #164]	; (8000770 <MX_TIM1_Init+0x164>)
 80006cc:	2200      	movs	r2, #0
 80006ce:	0018      	movs	r0, r3
 80006d0:	f001 f9aa 	bl	8001a28 <HAL_TIM_PWM_ConfigChannel>
 80006d4:	1e03      	subs	r3, r0, #0
 80006d6:	d001      	beq.n	80006dc <MX_TIM1_Init+0xd0>
  {
    Error_Handler();
 80006d8:	f7ff ff0a 	bl	80004f0 <Error_Handler>
  }
  if (HAL_TIM_PWM_ConfigChannel(&htim1, &sConfigOC, TIM_CHANNEL_2) != HAL_OK)
 80006dc:	2324      	movs	r3, #36	; 0x24
 80006de:	18f9      	adds	r1, r7, r3
 80006e0:	4b23      	ldr	r3, [pc, #140]	; (8000770 <MX_TIM1_Init+0x164>)
 80006e2:	2204      	movs	r2, #4
 80006e4:	0018      	movs	r0, r3
 80006e6:	f001 f99f 	bl	8001a28 <HAL_TIM_PWM_ConfigChannel>
 80006ea:	1e03      	subs	r3, r0, #0
 80006ec:	d001      	beq.n	80006f2 <MX_TIM1_Init+0xe6>
  {
    Error_Handler();
 80006ee:	f7ff feff 	bl	80004f0 <Error_Handler>
  }
  if (HAL_TIM_PWM_ConfigChannel(&htim1, &sConfigOC, TIM_CHANNEL_3) != HAL_OK)
 80006f2:	2324      	movs	r3, #36	; 0x24
 80006f4:	18f9      	adds	r1, r7, r3
 80006f6:	4b1e      	ldr	r3, [pc, #120]	; (8000770 <MX_TIM1_Init+0x164>)
 80006f8:	2208      	movs	r2, #8
 80006fa:	0018      	movs	r0, r3
 80006fc:	f001 f994 	bl	8001a28 <HAL_TIM_PWM_ConfigChannel>
 8000700:	1e03      	subs	r3, r0, #0
 8000702:	d001      	beq.n	8000708 <MX_TIM1_Init+0xfc>
  {
    Error_Handler();
 8000704:	f7ff fef4 	bl	80004f0 <Error_Handler>
  }
  if (HAL_TIM_PWM_ConfigChannel(&htim1, &sConfigOC, TIM_CHANNEL_4) != HAL_OK)
 8000708:	2324      	movs	r3, #36	; 0x24
 800070a:	18f9      	adds	r1, r7, r3
 800070c:	4b18      	ldr	r3, [pc, #96]	; (8000770 <MX_TIM1_Init+0x164>)
 800070e:	220c      	movs	r2, #12
 8000710:	0018      	movs	r0, r3
 8000712:	f001 f989 	bl	8001a28 <HAL_TIM_PWM_ConfigChannel>
 8000716:	1e03      	subs	r3, r0, #0
 8000718:	d001      	beq.n	800071e <MX_TIM1_Init+0x112>
  {
    Error_Handler();
 800071a:	f7ff fee9 	bl	80004f0 <Error_Handler>
  }
  sBreakDeadTimeConfig.OffStateRunMode = TIM_OSSR_DISABLE;
 800071e:	1d3b      	adds	r3, r7, #4
 8000720:	2200      	movs	r2, #0
 8000722:	601a      	str	r2, [r3, #0]
  sBreakDeadTimeConfig.OffStateIDLEMode = TIM_OSSI_DISABLE;
 8000724:	1d3b      	adds	r3, r7, #4
 8000726:	2200      	movs	r2, #0
 8000728:	605a      	str	r2, [r3, #4]
  sBreakDeadTimeConfig.LockLevel = TIM_LOCKLEVEL_OFF;
 800072a:	1d3b      	adds	r3, r7, #4
 800072c:	2200      	movs	r2, #0
 800072e:	609a      	str	r2, [r3, #8]
  sBreakDeadTimeConfig.DeadTime = 0;
 8000730:	1d3b      	adds	r3, r7, #4
 8000732:	2200      	movs	r2, #0
 8000734:	60da      	str	r2, [r3, #12]
  sBreakDeadTimeConfig.BreakState = TIM_BREAK_DISABLE;
 8000736:	1d3b      	adds	r3, r7, #4
 8000738:	2200      	movs	r2, #0
 800073a:	611a      	str	r2, [r3, #16]
  sBreakDeadTimeConfig.BreakPolarity = TIM_BREAKPOLARITY_HIGH;
 800073c:	1d3b      	adds	r3, r7, #4
 800073e:	2280      	movs	r2, #128	; 0x80
 8000740:	0192      	lsls	r2, r2, #6
 8000742:	615a      	str	r2, [r3, #20]
  sBreakDeadTimeConfig.AutomaticOutput = TIM_AUTOMATICOUTPUT_DISABLE;
 8000744:	1d3b      	adds	r3, r7, #4
 8000746:	2200      	movs	r2, #0
 8000748:	61da      	str	r2, [r3, #28]
  if (HAL_TIMEx_ConfigBreakDeadTime(&htim1, &sBreakDeadTimeConfig) != HAL_OK)
 800074a:	1d3a      	adds	r2, r7, #4
 800074c:	4b08      	ldr	r3, [pc, #32]	; (8000770 <MX_TIM1_Init+0x164>)
 800074e:	0011      	movs	r1, r2
 8000750:	0018      	movs	r0, r3
 8000752:	f001 fd1f 	bl	8002194 <HAL_TIMEx_ConfigBreakDeadTime>
 8000756:	1e03      	subs	r3, r0, #0
 8000758:	d001      	beq.n	800075e <MX_TIM1_Init+0x152>
  {
    Error_Handler();
 800075a:	f7ff fec9 	bl	80004f0 <Error_Handler>
  }
  HAL_TIM_MspPostInit(&htim1);
 800075e:	4b04      	ldr	r3, [pc, #16]	; (8000770 <MX_TIM1_Init+0x164>)
 8000760:	0018      	movs	r0, r3
 8000762:	f000 f871 	bl	8000848 <HAL_TIM_MspPostInit>

}
 8000766:	46c0      	nop			; (mov r8, r8)
 8000768:	46bd      	mov	sp, r7
 800076a:	b012      	add	sp, #72	; 0x48
 800076c:	bd80      	pop	{r7, pc}
 800076e:	46c0      	nop			; (mov r8, r8)
 8000770:	20000080 	.word	0x20000080
 8000774:	40012c00 	.word	0x40012c00

08000778 <MX_TIM17_Init>:
/* TIM17 init function */
void MX_TIM17_Init(void)
{
 8000778:	b580      	push	{r7, lr}
 800077a:	af00      	add	r7, sp, #0

  htim17.Instance = TIM17;
 800077c:	4b0f      	ldr	r3, [pc, #60]	; (80007bc <MX_TIM17_Init+0x44>)
 800077e:	4a10      	ldr	r2, [pc, #64]	; (80007c0 <MX_TIM17_Init+0x48>)
 8000780:	601a      	str	r2, [r3, #0]
  htim17.Init.Prescaler = 65535;
 8000782:	4b0e      	ldr	r3, [pc, #56]	; (80007bc <MX_TIM17_Init+0x44>)
 8000784:	4a0f      	ldr	r2, [pc, #60]	; (80007c4 <MX_TIM17_Init+0x4c>)
 8000786:	605a      	str	r2, [r3, #4]
  htim17.Init.CounterMode = TIM_COUNTERMODE_UP;
 8000788:	4b0c      	ldr	r3, [pc, #48]	; (80007bc <MX_TIM17_Init+0x44>)
 800078a:	2200      	movs	r2, #0
 800078c:	609a      	str	r2, [r3, #8]
  htim17.Init.Period = 65535;
 800078e:	4b0b      	ldr	r3, [pc, #44]	; (80007bc <MX_TIM17_Init+0x44>)
 8000790:	4a0c      	ldr	r2, [pc, #48]	; (80007c4 <MX_TIM17_Init+0x4c>)
 8000792:	60da      	str	r2, [r3, #12]
  htim17.Init.ClockDivision = TIM_CLOCKDIVISION_DIV1;
 8000794:	4b09      	ldr	r3, [pc, #36]	; (80007bc <MX_TIM17_Init+0x44>)
 8000796:	2200      	movs	r2, #0
 8000798:	611a      	str	r2, [r3, #16]
  htim17.Init.RepetitionCounter = 0;
 800079a:	4b08      	ldr	r3, [pc, #32]	; (80007bc <MX_TIM17_Init+0x44>)
 800079c:	2200      	movs	r2, #0
 800079e:	615a      	str	r2, [r3, #20]
  htim17.Init.AutoReloadPreload = TIM_AUTORELOAD_PRELOAD_DISABLE;
 80007a0:	4b06      	ldr	r3, [pc, #24]	; (80007bc <MX_TIM17_Init+0x44>)
 80007a2:	2200      	movs	r2, #0
 80007a4:	619a      	str	r2, [r3, #24]
  if (HAL_TIM_Base_Init(&htim17) != HAL_OK)
 80007a6:	4b05      	ldr	r3, [pc, #20]	; (80007bc <MX_TIM17_Init+0x44>)
 80007a8:	0018      	movs	r0, r3
 80007aa:	f001 f877 	bl	800189c <HAL_TIM_Base_Init>
 80007ae:	1e03      	subs	r3, r0, #0
 80007b0:	d001      	beq.n	80007b6 <MX_TIM17_Init+0x3e>
  {
    Error_Handler();
 80007b2:	f7ff fe9d 	bl	80004f0 <Error_Handler>
  }

}
 80007b6:	46c0      	nop			; (mov r8, r8)
 80007b8:	46bd      	mov	sp, r7
 80007ba:	bd80      	pop	{r7, pc}
 80007bc:	20000040 	.word	0x20000040
 80007c0:	40014800 	.word	0x40014800
 80007c4:	0000ffff 	.word	0x0000ffff

080007c8 <HAL_TIM_PWM_MspInit>:

void HAL_TIM_PWM_MspInit(TIM_HandleTypeDef* tim_pwmHandle)
{
 80007c8:	b580      	push	{r7, lr}
 80007ca:	b084      	sub	sp, #16
 80007cc:	af00      	add	r7, sp, #0
 80007ce:	6078      	str	r0, [r7, #4]

  if(tim_pwmHandle->Instance==TIM1)
 80007d0:	687b      	ldr	r3, [r7, #4]
 80007d2:	681b      	ldr	r3, [r3, #0]
 80007d4:	4a0a      	ldr	r2, [pc, #40]	; (8000800 <HAL_TIM_PWM_MspInit+0x38>)
 80007d6:	4293      	cmp	r3, r2
 80007d8:	d10d      	bne.n	80007f6 <HAL_TIM_PWM_MspInit+0x2e>
  {
  /* USER CODE BEGIN TIM1_MspInit 0 */

  /* USER CODE END TIM1_MspInit 0 */
    /* TIM1 clock enable */
    __HAL_RCC_TIM1_CLK_ENABLE();
 80007da:	4b0a      	ldr	r3, [pc, #40]	; (8000804 <HAL_TIM_PWM_MspInit+0x3c>)
 80007dc:	699a      	ldr	r2, [r3, #24]
 80007de:	4b09      	ldr	r3, [pc, #36]	; (8000804 <HAL_TIM_PWM_MspInit+0x3c>)
 80007e0:	2180      	movs	r1, #128	; 0x80
 80007e2:	0109      	lsls	r1, r1, #4
 80007e4:	430a      	orrs	r2, r1
 80007e6:	619a      	str	r2, [r3, #24]
 80007e8:	4b06      	ldr	r3, [pc, #24]	; (8000804 <HAL_TIM_PWM_MspInit+0x3c>)
 80007ea:	699a      	ldr	r2, [r3, #24]
 80007ec:	2380      	movs	r3, #128	; 0x80
 80007ee:	011b      	lsls	r3, r3, #4
 80007f0:	4013      	ands	r3, r2
 80007f2:	60fb      	str	r3, [r7, #12]
 80007f4:	68fb      	ldr	r3, [r7, #12]
  /* USER CODE BEGIN TIM1_MspInit 1 */

  /* USER CODE END TIM1_MspInit 1 */
  }
}
 80007f6:	46c0      	nop			; (mov r8, r8)
 80007f8:	46bd      	mov	sp, r7
 80007fa:	b004      	add	sp, #16
 80007fc:	bd80      	pop	{r7, pc}
 80007fe:	46c0      	nop			; (mov r8, r8)
 8000800:	40012c00 	.word	0x40012c00
 8000804:	40021000 	.word	0x40021000

08000808 <HAL_TIM_Base_MspInit>:

void HAL_TIM_Base_MspInit(TIM_HandleTypeDef* tim_baseHandle)
{
 8000808:	b580      	push	{r7, lr}
 800080a:	b084      	sub	sp, #16
 800080c:	af00      	add	r7, sp, #0
 800080e:	6078      	str	r0, [r7, #4]

  if(tim_baseHandle->Instance==TIM17)
 8000810:	687b      	ldr	r3, [r7, #4]
 8000812:	681b      	ldr	r3, [r3, #0]
 8000814:	4a0a      	ldr	r2, [pc, #40]	; (8000840 <HAL_TIM_Base_MspInit+0x38>)
 8000816:	4293      	cmp	r3, r2
 8000818:	d10d      	bne.n	8000836 <HAL_TIM_Base_MspInit+0x2e>
  {
  /* USER CODE BEGIN TIM17_MspInit 0 */

  /* USER CODE END TIM17_MspInit 0 */
    /* TIM17 clock enable */
    __HAL_RCC_TIM17_CLK_ENABLE();
 800081a:	4b0a      	ldr	r3, [pc, #40]	; (8000844 <HAL_TIM_Base_MspInit+0x3c>)
 800081c:	699a      	ldr	r2, [r3, #24]
 800081e:	4b09      	ldr	r3, [pc, #36]	; (8000844 <HAL_TIM_Base_MspInit+0x3c>)
 8000820:	2180      	movs	r1, #128	; 0x80
 8000822:	02c9      	lsls	r1, r1, #11
 8000824:	430a      	orrs	r2, r1
 8000826:	619a      	str	r2, [r3, #24]
 8000828:	4b06      	ldr	r3, [pc, #24]	; (8000844 <HAL_TIM_Base_MspInit+0x3c>)
 800082a:	699a      	ldr	r2, [r3, #24]
 800082c:	2380      	movs	r3, #128	; 0x80
 800082e:	02db      	lsls	r3, r3, #11
 8000830:	4013      	ands	r3, r2
 8000832:	60fb      	str	r3, [r7, #12]
 8000834:	68fb      	ldr	r3, [r7, #12]
  /* USER CODE BEGIN TIM17_MspInit 1 */

  /* USER CODE END TIM17_MspInit 1 */
  }
}
 8000836:	46c0      	nop			; (mov r8, r8)
 8000838:	46bd      	mov	sp, r7
 800083a:	b004      	add	sp, #16
 800083c:	bd80      	pop	{r7, pc}
 800083e:	46c0      	nop			; (mov r8, r8)
 8000840:	40014800 	.word	0x40014800
 8000844:	40021000 	.word	0x40021000

08000848 <HAL_TIM_MspPostInit>:
void HAL_TIM_MspPostInit(TIM_HandleTypeDef* timHandle)
{
 8000848:	b580      	push	{r7, lr}
 800084a:	b088      	sub	sp, #32
 800084c:	af00      	add	r7, sp, #0
 800084e:	6078      	str	r0, [r7, #4]

  GPIO_InitTypeDef GPIO_InitStruct = {0};
 8000850:	230c      	movs	r3, #12
 8000852:	18fb      	adds	r3, r7, r3
 8000854:	0018      	movs	r0, r3
 8000856:	2314      	movs	r3, #20
 8000858:	001a      	movs	r2, r3
 800085a:	2100      	movs	r1, #0
 800085c:	f001 fd1c 	bl	8002298 <memset>
  if(timHandle->Instance==TIM1)
 8000860:	687b      	ldr	r3, [r7, #4]
 8000862:	681b      	ldr	r3, [r3, #0]
 8000864:	4a16      	ldr	r2, [pc, #88]	; (80008c0 <HAL_TIM_MspPostInit+0x78>)
 8000866:	4293      	cmp	r3, r2
 8000868:	d125      	bne.n	80008b6 <HAL_TIM_MspPostInit+0x6e>
  {
  /* USER CODE BEGIN TIM1_MspPostInit 0 */

  /* USER CODE END TIM1_MspPostInit 0 */
  
    __HAL_RCC_GPIOA_CLK_ENABLE();
 800086a:	4b16      	ldr	r3, [pc, #88]	; (80008c4 <HAL_TIM_MspPostInit+0x7c>)
 800086c:	695a      	ldr	r2, [r3, #20]
 800086e:	4b15      	ldr	r3, [pc, #84]	; (80008c4 <HAL_TIM_MspPostInit+0x7c>)
 8000870:	2180      	movs	r1, #128	; 0x80
 8000872:	0289      	lsls	r1, r1, #10
 8000874:	430a      	orrs	r2, r1
 8000876:	615a      	str	r2, [r3, #20]
 8000878:	4b12      	ldr	r3, [pc, #72]	; (80008c4 <HAL_TIM_MspPostInit+0x7c>)
 800087a:	695a      	ldr	r2, [r3, #20]
 800087c:	2380      	movs	r3, #128	; 0x80
 800087e:	029b      	lsls	r3, r3, #10
 8000880:	4013      	ands	r3, r2
 8000882:	60bb      	str	r3, [r7, #8]
 8000884:	68bb      	ldr	r3, [r7, #8]
    PA8     ------> TIM1_CH1
    PA9     ------> TIM1_CH2
    PA10     ------> TIM1_CH3
    PA11     ------> TIM1_CH4 
    */
    GPIO_InitStruct.Pin = GPIO_PIN_8|GPIO_PIN_9|GPIO_PIN_10|GPIO_PIN_11;
 8000886:	210c      	movs	r1, #12
 8000888:	187b      	adds	r3, r7, r1
 800088a:	22f0      	movs	r2, #240	; 0xf0
 800088c:	0112      	lsls	r2, r2, #4
 800088e:	601a      	str	r2, [r3, #0]
    GPIO_InitStruct.Mode = GPIO_MODE_AF_PP;
 8000890:	187b      	adds	r3, r7, r1
 8000892:	2202      	movs	r2, #2
 8000894:	605a      	str	r2, [r3, #4]
    GPIO_InitStruct.Pull = GPIO_NOPULL;
 8000896:	187b      	adds	r3, r7, r1
 8000898:	2200      	movs	r2, #0
 800089a:	609a      	str	r2, [r3, #8]
    GPIO_InitStruct.Speed = GPIO_SPEED_FREQ_LOW;
 800089c:	187b      	adds	r3, r7, r1
 800089e:	2200      	movs	r2, #0
 80008a0:	60da      	str	r2, [r3, #12]
    GPIO_InitStruct.Alternate = GPIO_AF2_TIM1;
 80008a2:	187b      	adds	r3, r7, r1
 80008a4:	2202      	movs	r2, #2
 80008a6:	611a      	str	r2, [r3, #16]
    HAL_GPIO_Init(GPIOA, &GPIO_InitStruct);
 80008a8:	187a      	adds	r2, r7, r1
 80008aa:	2390      	movs	r3, #144	; 0x90
 80008ac:	05db      	lsls	r3, r3, #23
 80008ae:	0011      	movs	r1, r2
 80008b0:	0018      	movs	r0, r3
 80008b2:	f000 f9d7 	bl	8000c64 <HAL_GPIO_Init>
  /* USER CODE BEGIN TIM1_MspPostInit 1 */

  /* USER CODE END TIM1_MspPostInit 1 */
  }

}
 80008b6:	46c0      	nop			; (mov r8, r8)
 80008b8:	46bd      	mov	sp, r7
 80008ba:	b008      	add	sp, #32
 80008bc:	bd80      	pop	{r7, pc}
 80008be:	46c0      	nop			; (mov r8, r8)
 80008c0:	40012c00 	.word	0x40012c00
 80008c4:	40021000 	.word	0x40021000

080008c8 <Reset_Handler>:

  .section .text.Reset_Handler
  .weak Reset_Handler
  .type Reset_Handler, %function
Reset_Handler:
  ldr   r0, =_estack
 80008c8:	480d      	ldr	r0, [pc, #52]	; (8000900 <LoopForever+0x2>)
  mov   sp, r0          /* set stack pointer */
 80008ca:	4685      	mov	sp, r0

/* Copy the data segment initializers from flash to SRAM */
  ldr r0, =_sdata
 80008cc:	480d      	ldr	r0, [pc, #52]	; (8000904 <LoopForever+0x6>)
  ldr r1, =_edata
 80008ce:	490e      	ldr	r1, [pc, #56]	; (8000908 <LoopForever+0xa>)
  ldr r2, =_sidata
 80008d0:	4a0e      	ldr	r2, [pc, #56]	; (800090c <LoopForever+0xe>)
  movs r3, #0
 80008d2:	2300      	movs	r3, #0
  b LoopCopyDataInit
 80008d4:	e002      	b.n	80008dc <LoopCopyDataInit>

080008d6 <CopyDataInit>:

CopyDataInit:
  ldr r4, [r2, r3]
 80008d6:	58d4      	ldr	r4, [r2, r3]
  str r4, [r0, r3]
 80008d8:	50c4      	str	r4, [r0, r3]
  adds r3, r3, #4
 80008da:	3304      	adds	r3, #4

080008dc <LoopCopyDataInit>:

LoopCopyDataInit:
  adds r4, r0, r3
 80008dc:	18c4      	adds	r4, r0, r3
  cmp r4, r1
 80008de:	428c      	cmp	r4, r1
  bcc CopyDataInit
 80008e0:	d3f9      	bcc.n	80008d6 <CopyDataInit>
  
/* Zero fill the bss segment. */
  ldr r2, =_sbss
 80008e2:	4a0b      	ldr	r2, [pc, #44]	; (8000910 <LoopForever+0x12>)
  ldr r4, =_ebss
 80008e4:	4c0b      	ldr	r4, [pc, #44]	; (8000914 <LoopForever+0x16>)
  movs r3, #0
 80008e6:	2300      	movs	r3, #0
  b LoopFillZerobss
 80008e8:	e001      	b.n	80008ee <LoopFillZerobss>

080008ea <FillZerobss>:

FillZerobss:
  str  r3, [r2]
 80008ea:	6013      	str	r3, [r2, #0]
  adds r2, r2, #4
 80008ec:	3204      	adds	r2, #4

080008ee <LoopFillZerobss>:

LoopFillZerobss:
  cmp r2, r4
 80008ee:	42a2      	cmp	r2, r4
  bcc FillZerobss
 80008f0:	d3fb      	bcc.n	80008ea <FillZerobss>

/* Call the clock system intitialization function.*/
  bl  SystemInit
 80008f2:	f7ff fe85 	bl	8000600 <SystemInit>
/* Call static constructors */
  bl __libc_init_array
 80008f6:	f001 fcab 	bl	8002250 <__libc_init_array>
/* Call the application's entry point.*/
  bl main
 80008fa:	f7ff fd67 	bl	80003cc <main>

080008fe <LoopForever>:

LoopForever:
    b LoopForever
 80008fe:	e7fe      	b.n	80008fe <LoopForever>
  ldr   r0, =_estack
 8000900:	20002000 	.word	0x20002000
  ldr r0, =_sdata
 8000904:	20000000 	.word	0x20000000
  ldr r1, =_edata
 8000908:	2000000c 	.word	0x2000000c
  ldr r2, =_sidata
 800090c:	080022f8 	.word	0x080022f8
  ldr r2, =_sbss
 8000910:	2000000c 	.word	0x2000000c
  ldr r4, =_ebss
 8000914:	200000c4 	.word	0x200000c4

08000918 <ADC1_COMP_IRQHandler>:
 * @retval : None
*/
    .section .text.Default_Handler,"ax",%progbits
Default_Handler:
Infinite_Loop:
  b Infinite_Loop
 8000918:	e7fe      	b.n	8000918 <ADC1_COMP_IRQHandler>
	...

0800091c <HAL_Init>:
  *       In the default implementation,Systick is used as source of time base.
  *       The tick variable is incremented each 1ms in its ISR.
  * @retval HAL status
  */
HAL_StatusTypeDef HAL_Init(void)
{
 800091c:	b580      	push	{r7, lr}
 800091e:	af00      	add	r7, sp, #0
  /* Configure Flash prefetch */ 
#if (PREFETCH_ENABLE != 0)
  __HAL_FLASH_PREFETCH_BUFFER_ENABLE();
 8000920:	4b07      	ldr	r3, [pc, #28]	; (8000940 <HAL_Init+0x24>)
 8000922:	681a      	ldr	r2, [r3, #0]
 8000924:	4b06      	ldr	r3, [pc, #24]	; (8000940 <HAL_Init+0x24>)
 8000926:	2110      	movs	r1, #16
 8000928:	430a      	orrs	r2, r1
 800092a:	601a      	str	r2, [r3, #0]
#endif /* PREFETCH_ENABLE */

  /* Use systick as time base source and configure 1ms tick (default clock after Reset is HSI) */

  HAL_InitTick(TICK_INT_PRIORITY);
 800092c:	2000      	movs	r0, #0
 800092e:	f000 f809 	bl	8000944 <HAL_InitTick>

  /* Init the low level hardware */
  HAL_MspInit();
 8000932:	f7ff fde3 	bl	80004fc <HAL_MspInit>

  /* Return function status */
  return HAL_OK;
 8000936:	2300      	movs	r3, #0
}
 8000938:	0018      	movs	r0, r3
 800093a:	46bd      	mov	sp, r7
 800093c:	bd80      	pop	{r7, pc}
 800093e:	46c0      	nop			; (mov r8, r8)
 8000940:	40022000 	.word	0x40022000

08000944 <HAL_InitTick>:
  *       implementation  in user file.
  * @param TickPriority Tick interrupt priority.
  * @retval HAL status
  */
__weak HAL_StatusTypeDef HAL_InitTick(uint32_t TickPriority)
{
 8000944:	b590      	push	{r4, r7, lr}
 8000946:	b083      	sub	sp, #12
 8000948:	af00      	add	r7, sp, #0
 800094a:	6078      	str	r0, [r7, #4]
  /*Configure the SysTick to have interrupt in 1ms time basis*/
  if (HAL_SYSTICK_Config(SystemCoreClock / (1000U / uwTickFreq)) > 0U)
 800094c:	4b14      	ldr	r3, [pc, #80]	; (80009a0 <HAL_InitTick+0x5c>)
 800094e:	681c      	ldr	r4, [r3, #0]
 8000950:	4b14      	ldr	r3, [pc, #80]	; (80009a4 <HAL_InitTick+0x60>)
 8000952:	781b      	ldrb	r3, [r3, #0]
 8000954:	0019      	movs	r1, r3
 8000956:	23fa      	movs	r3, #250	; 0xfa
 8000958:	0098      	lsls	r0, r3, #2
 800095a:	f7ff fbd5 	bl	8000108 <__udivsi3>
 800095e:	0003      	movs	r3, r0
 8000960:	0019      	movs	r1, r3
 8000962:	0020      	movs	r0, r4
 8000964:	f7ff fbd0 	bl	8000108 <__udivsi3>
 8000968:	0003      	movs	r3, r0
 800096a:	0018      	movs	r0, r3
 800096c:	f000 f90b 	bl	8000b86 <HAL_SYSTICK_Config>
 8000970:	1e03      	subs	r3, r0, #0
 8000972:	d001      	beq.n	8000978 <HAL_InitTick+0x34>
  {
    return HAL_ERROR;
 8000974:	2301      	movs	r3, #1
 8000976:	e00f      	b.n	8000998 <HAL_InitTick+0x54>
  }

  /* Configure the SysTick IRQ priority */
  if (TickPriority < (1UL << __NVIC_PRIO_BITS))
 8000978:	687b      	ldr	r3, [r7, #4]
 800097a:	2b03      	cmp	r3, #3
 800097c:	d80b      	bhi.n	8000996 <HAL_InitTick+0x52>
  {
    HAL_NVIC_SetPriority(SysTick_IRQn, TickPriority, 0U);
 800097e:	6879      	ldr	r1, [r7, #4]
 8000980:	2301      	movs	r3, #1
 8000982:	425b      	negs	r3, r3
 8000984:	2200      	movs	r2, #0
 8000986:	0018      	movs	r0, r3
 8000988:	f000 f8d8 	bl	8000b3c <HAL_NVIC_SetPriority>
    uwTickPrio = TickPriority;
 800098c:	4b06      	ldr	r3, [pc, #24]	; (80009a8 <HAL_InitTick+0x64>)
 800098e:	687a      	ldr	r2, [r7, #4]
 8000990:	601a      	str	r2, [r3, #0]
  {
    return HAL_ERROR;
  }

   /* Return function status */
  return HAL_OK;
 8000992:	2300      	movs	r3, #0
 8000994:	e000      	b.n	8000998 <HAL_InitTick+0x54>
    return HAL_ERROR;
 8000996:	2301      	movs	r3, #1
}
 8000998:	0018      	movs	r0, r3
 800099a:	46bd      	mov	sp, r7
 800099c:	b003      	add	sp, #12
 800099e:	bd90      	pop	{r4, r7, pc}
 80009a0:	20000000 	.word	0x20000000
 80009a4:	20000008 	.word	0x20000008
 80009a8:	20000004 	.word	0x20000004

080009ac <HAL_IncTick>:
  * @note This function is declared as __weak to be overwritten in case of other 
  *       implementations in user file.
  * @retval None
  */
__weak void HAL_IncTick(void)
{
 80009ac:	b580      	push	{r7, lr}
 80009ae:	af00      	add	r7, sp, #0
  uwTick += uwTickFreq;
 80009b0:	4b05      	ldr	r3, [pc, #20]	; (80009c8 <HAL_IncTick+0x1c>)
 80009b2:	781b      	ldrb	r3, [r3, #0]
 80009b4:	001a      	movs	r2, r3
 80009b6:	4b05      	ldr	r3, [pc, #20]	; (80009cc <HAL_IncTick+0x20>)
 80009b8:	681b      	ldr	r3, [r3, #0]
 80009ba:	18d2      	adds	r2, r2, r3
 80009bc:	4b03      	ldr	r3, [pc, #12]	; (80009cc <HAL_IncTick+0x20>)
 80009be:	601a      	str	r2, [r3, #0]
}
 80009c0:	46c0      	nop			; (mov r8, r8)
 80009c2:	46bd      	mov	sp, r7
 80009c4:	bd80      	pop	{r7, pc}
 80009c6:	46c0      	nop			; (mov r8, r8)
 80009c8:	20000008 	.word	0x20000008
 80009cc:	200000c0 	.word	0x200000c0

080009d0 <HAL_GetTick>:
  * @note   This function is declared as __weak  to be overwritten  in case of other 
  *       implementations in user file.
  * @retval tick value
  */
__weak uint32_t HAL_GetTick(void)
{
 80009d0:	b580      	push	{r7, lr}
 80009d2:	af00      	add	r7, sp, #0
  return uwTick;
 80009d4:	4b02      	ldr	r3, [pc, #8]	; (80009e0 <HAL_GetTick+0x10>)
 80009d6:	681b      	ldr	r3, [r3, #0]
}
 80009d8:	0018      	movs	r0, r3
 80009da:	46bd      	mov	sp, r7
 80009dc:	bd80      	pop	{r7, pc}
 80009de:	46c0      	nop			; (mov r8, r8)
 80009e0:	200000c0 	.word	0x200000c0

080009e4 <__NVIC_EnableIRQ>:
  \details Enables a device specific interrupt in the NVIC interrupt controller.
  \param [in]      IRQn  Device specific interrupt number.
  \note    IRQn must not be negative.
 */
__STATIC_INLINE void __NVIC_EnableIRQ(IRQn_Type IRQn)
{
 80009e4:	b580      	push	{r7, lr}
 80009e6:	b082      	sub	sp, #8
 80009e8:	af00      	add	r7, sp, #0
 80009ea:	0002      	movs	r2, r0
 80009ec:	1dfb      	adds	r3, r7, #7
 80009ee:	701a      	strb	r2, [r3, #0]
  if ((int32_t)(IRQn) >= 0)
 80009f0:	1dfb      	adds	r3, r7, #7
 80009f2:	781b      	ldrb	r3, [r3, #0]
 80009f4:	2b7f      	cmp	r3, #127	; 0x7f
 80009f6:	d809      	bhi.n	8000a0c <__NVIC_EnableIRQ+0x28>
  {
    NVIC->ISER[0U] = (uint32_t)(1UL << (((uint32_t)IRQn) & 0x1FUL));
 80009f8:	1dfb      	adds	r3, r7, #7
 80009fa:	781b      	ldrb	r3, [r3, #0]
 80009fc:	001a      	movs	r2, r3
 80009fe:	231f      	movs	r3, #31
 8000a00:	401a      	ands	r2, r3
 8000a02:	4b04      	ldr	r3, [pc, #16]	; (8000a14 <__NVIC_EnableIRQ+0x30>)
 8000a04:	2101      	movs	r1, #1
 8000a06:	4091      	lsls	r1, r2
 8000a08:	000a      	movs	r2, r1
 8000a0a:	601a      	str	r2, [r3, #0]
  }
}
 8000a0c:	46c0      	nop			; (mov r8, r8)
 8000a0e:	46bd      	mov	sp, r7
 8000a10:	b002      	add	sp, #8
 8000a12:	bd80      	pop	{r7, pc}
 8000a14:	e000e100 	.word	0xe000e100

08000a18 <__NVIC_SetPriority>:
  \param [in]      IRQn  Interrupt number.
  \param [in]  priority  Priority to set.
  \note    The priority cannot be set for every processor exception.
 */
__STATIC_INLINE void __NVIC_SetPriority(IRQn_Type IRQn, uint32_t priority)
{
 8000a18:	b590      	push	{r4, r7, lr}
 8000a1a:	b083      	sub	sp, #12
 8000a1c:	af00      	add	r7, sp, #0
 8000a1e:	0002      	movs	r2, r0
 8000a20:	6039      	str	r1, [r7, #0]
 8000a22:	1dfb      	adds	r3, r7, #7
 8000a24:	701a      	strb	r2, [r3, #0]
  if ((int32_t)(IRQn) >= 0)
 8000a26:	1dfb      	adds	r3, r7, #7
 8000a28:	781b      	ldrb	r3, [r3, #0]
 8000a2a:	2b7f      	cmp	r3, #127	; 0x7f
 8000a2c:	d828      	bhi.n	8000a80 <__NVIC_SetPriority+0x68>
  {
    NVIC->IP[_IP_IDX(IRQn)]  = ((uint32_t)(NVIC->IP[_IP_IDX(IRQn)]  & ~(0xFFUL << _BIT_SHIFT(IRQn))) |
 8000a2e:	4a2f      	ldr	r2, [pc, #188]	; (8000aec <__NVIC_SetPriority+0xd4>)
 8000a30:	1dfb      	adds	r3, r7, #7
 8000a32:	781b      	ldrb	r3, [r3, #0]
 8000a34:	b25b      	sxtb	r3, r3
 8000a36:	089b      	lsrs	r3, r3, #2
 8000a38:	33c0      	adds	r3, #192	; 0xc0
 8000a3a:	009b      	lsls	r3, r3, #2
 8000a3c:	589b      	ldr	r3, [r3, r2]
 8000a3e:	1dfa      	adds	r2, r7, #7
 8000a40:	7812      	ldrb	r2, [r2, #0]
 8000a42:	0011      	movs	r1, r2
 8000a44:	2203      	movs	r2, #3
 8000a46:	400a      	ands	r2, r1
 8000a48:	00d2      	lsls	r2, r2, #3
 8000a4a:	21ff      	movs	r1, #255	; 0xff
 8000a4c:	4091      	lsls	r1, r2
 8000a4e:	000a      	movs	r2, r1
 8000a50:	43d2      	mvns	r2, r2
 8000a52:	401a      	ands	r2, r3
 8000a54:	0011      	movs	r1, r2
       (((priority << (8U - __NVIC_PRIO_BITS)) & (uint32_t)0xFFUL) << _BIT_SHIFT(IRQn)));
 8000a56:	683b      	ldr	r3, [r7, #0]
 8000a58:	019b      	lsls	r3, r3, #6
 8000a5a:	22ff      	movs	r2, #255	; 0xff
 8000a5c:	401a      	ands	r2, r3
 8000a5e:	1dfb      	adds	r3, r7, #7
 8000a60:	781b      	ldrb	r3, [r3, #0]
 8000a62:	0018      	movs	r0, r3
 8000a64:	2303      	movs	r3, #3
 8000a66:	4003      	ands	r3, r0
 8000a68:	00db      	lsls	r3, r3, #3
 8000a6a:	409a      	lsls	r2, r3
    NVIC->IP[_IP_IDX(IRQn)]  = ((uint32_t)(NVIC->IP[_IP_IDX(IRQn)]  & ~(0xFFUL << _BIT_SHIFT(IRQn))) |
 8000a6c:	481f      	ldr	r0, [pc, #124]	; (8000aec <__NVIC_SetPriority+0xd4>)
 8000a6e:	1dfb      	adds	r3, r7, #7
 8000a70:	781b      	ldrb	r3, [r3, #0]
 8000a72:	b25b      	sxtb	r3, r3
 8000a74:	089b      	lsrs	r3, r3, #2
 8000a76:	430a      	orrs	r2, r1
 8000a78:	33c0      	adds	r3, #192	; 0xc0
 8000a7a:	009b      	lsls	r3, r3, #2
 8000a7c:	501a      	str	r2, [r3, r0]
  else
  {
    SCB->SHP[_SHP_IDX(IRQn)] = ((uint32_t)(SCB->SHP[_SHP_IDX(IRQn)] & ~(0xFFUL << _BIT_SHIFT(IRQn))) |
       (((priority << (8U - __NVIC_PRIO_BITS)) & (uint32_t)0xFFUL) << _BIT_SHIFT(IRQn)));
  }
}
 8000a7e:	e031      	b.n	8000ae4 <__NVIC_SetPriority+0xcc>
    SCB->SHP[_SHP_IDX(IRQn)] = ((uint32_t)(SCB->SHP[_SHP_IDX(IRQn)] & ~(0xFFUL << _BIT_SHIFT(IRQn))) |
 8000a80:	4a1b      	ldr	r2, [pc, #108]	; (8000af0 <__NVIC_SetPriority+0xd8>)
 8000a82:	1dfb      	adds	r3, r7, #7
 8000a84:	781b      	ldrb	r3, [r3, #0]
 8000a86:	0019      	movs	r1, r3
 8000a88:	230f      	movs	r3, #15
 8000a8a:	400b      	ands	r3, r1
 8000a8c:	3b08      	subs	r3, #8
 8000a8e:	089b      	lsrs	r3, r3, #2
 8000a90:	3306      	adds	r3, #6
 8000a92:	009b      	lsls	r3, r3, #2
 8000a94:	18d3      	adds	r3, r2, r3
 8000a96:	3304      	adds	r3, #4
 8000a98:	681b      	ldr	r3, [r3, #0]
 8000a9a:	1dfa      	adds	r2, r7, #7
 8000a9c:	7812      	ldrb	r2, [r2, #0]
 8000a9e:	0011      	movs	r1, r2
 8000aa0:	2203      	movs	r2, #3
 8000aa2:	400a      	ands	r2, r1
 8000aa4:	00d2      	lsls	r2, r2, #3
 8000aa6:	21ff      	movs	r1, #255	; 0xff
 8000aa8:	4091      	lsls	r1, r2
 8000aaa:	000a      	movs	r2, r1
 8000aac:	43d2      	mvns	r2, r2
 8000aae:	401a      	ands	r2, r3
 8000ab0:	0011      	movs	r1, r2
       (((priority << (8U - __NVIC_PRIO_BITS)) & (uint32_t)0xFFUL) << _BIT_SHIFT(IRQn)));
 8000ab2:	683b      	ldr	r3, [r7, #0]
 8000ab4:	019b      	lsls	r3, r3, #6
 8000ab6:	22ff      	movs	r2, #255	; 0xff
 8000ab8:	401a      	ands	r2, r3
 8000aba:	1dfb      	adds	r3, r7, #7
 8000abc:	781b      	ldrb	r3, [r3, #0]
 8000abe:	0018      	movs	r0, r3
 8000ac0:	2303      	movs	r3, #3
 8000ac2:	4003      	ands	r3, r0
 8000ac4:	00db      	lsls	r3, r3, #3
 8000ac6:	409a      	lsls	r2, r3
    SCB->SHP[_SHP_IDX(IRQn)] = ((uint32_t)(SCB->SHP[_SHP_IDX(IRQn)] & ~(0xFFUL << _BIT_SHIFT(IRQn))) |
 8000ac8:	4809      	ldr	r0, [pc, #36]	; (8000af0 <__NVIC_SetPriority+0xd8>)
 8000aca:	1dfb      	adds	r3, r7, #7
 8000acc:	781b      	ldrb	r3, [r3, #0]
 8000ace:	001c      	movs	r4, r3
 8000ad0:	230f      	movs	r3, #15
 8000ad2:	4023      	ands	r3, r4
 8000ad4:	3b08      	subs	r3, #8
 8000ad6:	089b      	lsrs	r3, r3, #2
 8000ad8:	430a      	orrs	r2, r1
 8000ada:	3306      	adds	r3, #6
 8000adc:	009b      	lsls	r3, r3, #2
 8000ade:	18c3      	adds	r3, r0, r3
 8000ae0:	3304      	adds	r3, #4
 8000ae2:	601a      	str	r2, [r3, #0]
}
 8000ae4:	46c0      	nop			; (mov r8, r8)
 8000ae6:	46bd      	mov	sp, r7
 8000ae8:	b003      	add	sp, #12
 8000aea:	bd90      	pop	{r4, r7, pc}
 8000aec:	e000e100 	.word	0xe000e100
 8000af0:	e000ed00 	.word	0xe000ed00

08000af4 <SysTick_Config>:
  \note    When the variable <b>__Vendor_SysTickConfig</b> is set to 1, then the
           function <b>SysTick_Config</b> is not included. In this case, the file <b><i>device</i>.h</b>
           must contain a vendor-specific implementation of this function.
 */
__STATIC_INLINE uint32_t SysTick_Config(uint32_t ticks)
{
 8000af4:	b580      	push	{r7, lr}
 8000af6:	b082      	sub	sp, #8
 8000af8:	af00      	add	r7, sp, #0
 8000afa:	6078      	str	r0, [r7, #4]
  if ((ticks - 1UL) > SysTick_LOAD_RELOAD_Msk)
 8000afc:	687b      	ldr	r3, [r7, #4]
 8000afe:	3b01      	subs	r3, #1
 8000b00:	4a0c      	ldr	r2, [pc, #48]	; (8000b34 <SysTick_Config+0x40>)
 8000b02:	4293      	cmp	r3, r2
 8000b04:	d901      	bls.n	8000b0a <SysTick_Config+0x16>
  {
    return (1UL);                                                   /* Reload value impossible */
 8000b06:	2301      	movs	r3, #1
 8000b08:	e010      	b.n	8000b2c <SysTick_Config+0x38>
  }

  SysTick->LOAD  = (uint32_t)(ticks - 1UL);                         /* set reload register */
 8000b0a:	4b0b      	ldr	r3, [pc, #44]	; (8000b38 <SysTick_Config+0x44>)
 8000b0c:	687a      	ldr	r2, [r7, #4]
 8000b0e:	3a01      	subs	r2, #1
 8000b10:	605a      	str	r2, [r3, #4]
  NVIC_SetPriority (SysTick_IRQn, (1UL << __NVIC_PRIO_BITS) - 1UL); /* set Priority for Systick Interrupt */
 8000b12:	2301      	movs	r3, #1
 8000b14:	425b      	negs	r3, r3
 8000b16:	2103      	movs	r1, #3
 8000b18:	0018      	movs	r0, r3
 8000b1a:	f7ff ff7d 	bl	8000a18 <__NVIC_SetPriority>
  SysTick->VAL   = 0UL;                                             /* Load the SysTick Counter Value */
 8000b1e:	4b06      	ldr	r3, [pc, #24]	; (8000b38 <SysTick_Config+0x44>)
 8000b20:	2200      	movs	r2, #0
 8000b22:	609a      	str	r2, [r3, #8]
  SysTick->CTRL  = SysTick_CTRL_CLKSOURCE_Msk |
 8000b24:	4b04      	ldr	r3, [pc, #16]	; (8000b38 <SysTick_Config+0x44>)
 8000b26:	2207      	movs	r2, #7
 8000b28:	601a      	str	r2, [r3, #0]
                   SysTick_CTRL_TICKINT_Msk   |
                   SysTick_CTRL_ENABLE_Msk;                         /* Enable SysTick IRQ and SysTick Timer */
  return (0UL);                                                     /* Function successful */
 8000b2a:	2300      	movs	r3, #0
}
 8000b2c:	0018      	movs	r0, r3
 8000b2e:	46bd      	mov	sp, r7
 8000b30:	b002      	add	sp, #8
 8000b32:	bd80      	pop	{r7, pc}
 8000b34:	00ffffff 	.word	0x00ffffff
 8000b38:	e000e010 	.word	0xe000e010

08000b3c <HAL_NVIC_SetPriority>:
  *         with stm32f0xx devices, this parameter is a dummy value and it is ignored, because 
  *         no subpriority supported in Cortex M0 based products.   
  * @retval None
  */
void HAL_NVIC_SetPriority(IRQn_Type IRQn, uint32_t PreemptPriority, uint32_t SubPriority)
{ 
 8000b3c:	b580      	push	{r7, lr}
 8000b3e:	b084      	sub	sp, #16
 8000b40:	af00      	add	r7, sp, #0
 8000b42:	60b9      	str	r1, [r7, #8]
 8000b44:	607a      	str	r2, [r7, #4]
 8000b46:	210f      	movs	r1, #15
 8000b48:	187b      	adds	r3, r7, r1
 8000b4a:	1c02      	adds	r2, r0, #0
 8000b4c:	701a      	strb	r2, [r3, #0]
  /* Check the parameters */
  assert_param(IS_NVIC_PREEMPTION_PRIORITY(PreemptPriority));
  NVIC_SetPriority(IRQn,PreemptPriority);
 8000b4e:	68ba      	ldr	r2, [r7, #8]
 8000b50:	187b      	adds	r3, r7, r1
 8000b52:	781b      	ldrb	r3, [r3, #0]
 8000b54:	b25b      	sxtb	r3, r3
 8000b56:	0011      	movs	r1, r2
 8000b58:	0018      	movs	r0, r3
 8000b5a:	f7ff ff5d 	bl	8000a18 <__NVIC_SetPriority>
}
 8000b5e:	46c0      	nop			; (mov r8, r8)
 8000b60:	46bd      	mov	sp, r7
 8000b62:	b004      	add	sp, #16
 8000b64:	bd80      	pop	{r7, pc}

08000b66 <HAL_NVIC_EnableIRQ>:
  *         This parameter can be an enumerator of IRQn_Type enumeration
  *         (For the complete STM32 Devices IRQ Channels list, please refer to the appropriate CMSIS device file (stm32f0xxxx.h))
  * @retval None
  */
void HAL_NVIC_EnableIRQ(IRQn_Type IRQn)
{
 8000b66:	b580      	push	{r7, lr}
 8000b68:	b082      	sub	sp, #8
 8000b6a:	af00      	add	r7, sp, #0
 8000b6c:	0002      	movs	r2, r0
 8000b6e:	1dfb      	adds	r3, r7, #7
 8000b70:	701a      	strb	r2, [r3, #0]
  /* Check the parameters */
  assert_param(IS_NVIC_DEVICE_IRQ(IRQn));
  
  /* Enable interrupt */
  NVIC_EnableIRQ(IRQn);
 8000b72:	1dfb      	adds	r3, r7, #7
 8000b74:	781b      	ldrb	r3, [r3, #0]
 8000b76:	b25b      	sxtb	r3, r3
 8000b78:	0018      	movs	r0, r3
 8000b7a:	f7ff ff33 	bl	80009e4 <__NVIC_EnableIRQ>
}
 8000b7e:	46c0      	nop			; (mov r8, r8)
 8000b80:	46bd      	mov	sp, r7
 8000b82:	b002      	add	sp, #8
 8000b84:	bd80      	pop	{r7, pc}

08000b86 <HAL_SYSTICK_Config>:
  * @param  TicksNumb Specifies the ticks Number of ticks between two interrupts.
  * @retval status:  - 0  Function succeeded.
  *                  - 1  Function failed.
  */
uint32_t HAL_SYSTICK_Config(uint32_t TicksNumb)
{
 8000b86:	b580      	push	{r7, lr}
 8000b88:	b082      	sub	sp, #8
 8000b8a:	af00      	add	r7, sp, #0
 8000b8c:	6078      	str	r0, [r7, #4]
   return SysTick_Config(TicksNumb);
 8000b8e:	687b      	ldr	r3, [r7, #4]
 8000b90:	0018      	movs	r0, r3
 8000b92:	f7ff ffaf 	bl	8000af4 <SysTick_Config>
 8000b96:	0003      	movs	r3, r0
}
 8000b98:	0018      	movs	r0, r3
 8000b9a:	46bd      	mov	sp, r7
 8000b9c:	b002      	add	sp, #8
 8000b9e:	bd80      	pop	{r7, pc}

08000ba0 <HAL_DAC_Init>:
  * @param  hdac pointer to a DAC_HandleTypeDef structure that contains
  *         the configuration information for the specified DAC.
  * @retval HAL status
  */
HAL_StatusTypeDef HAL_DAC_Init(DAC_HandleTypeDef* hdac)
{ 
 8000ba0:	b580      	push	{r7, lr}
 8000ba2:	b082      	sub	sp, #8
 8000ba4:	af00      	add	r7, sp, #0
 8000ba6:	6078      	str	r0, [r7, #4]
  /* Check DAC handle */
  if(hdac == NULL)
 8000ba8:	687b      	ldr	r3, [r7, #4]
 8000baa:	2b00      	cmp	r3, #0
 8000bac:	d101      	bne.n	8000bb2 <HAL_DAC_Init+0x12>
  {
     return HAL_ERROR;
 8000bae:	2301      	movs	r3, #1
 8000bb0:	e015      	b.n	8000bde <HAL_DAC_Init+0x3e>
  }
  /* Check the parameters */
  assert_param(IS_DAC_ALL_INSTANCE(hdac->Instance));
  
  if (hdac->State == HAL_DAC_STATE_RESET)
 8000bb2:	687b      	ldr	r3, [r7, #4]
 8000bb4:	791b      	ldrb	r3, [r3, #4]
 8000bb6:	b2db      	uxtb	r3, r3
 8000bb8:	2b00      	cmp	r3, #0
 8000bba:	d106      	bne.n	8000bca <HAL_DAC_Init+0x2a>
      hdac->MspInitCallback             = HAL_DAC_MspInit;
    }
#endif /* USE_HAL_DAC_REGISTER_CALLBACKS */

    /* Allocate lock resource and initialize it */
    hdac->Lock = HAL_UNLOCKED;
 8000bbc:	687b      	ldr	r3, [r7, #4]
 8000bbe:	2200      	movs	r2, #0
 8000bc0:	715a      	strb	r2, [r3, #5]
#if (USE_HAL_DAC_REGISTER_CALLBACKS == 1)
    /* Init the low level hardware */
    hdac->MspInitCallback(hdac);
#else
    /* Init the low level hardware */
    HAL_DAC_MspInit(hdac);
 8000bc2:	687b      	ldr	r3, [r7, #4]
 8000bc4:	0018      	movs	r0, r3
 8000bc6:	f7ff fb59 	bl	800027c <HAL_DAC_MspInit>
#endif /* USE_HAL_DAC_REGISTER_CALLBACKS */
  }
  
  /* Initialize the DAC state*/
  hdac->State = HAL_DAC_STATE_BUSY;
 8000bca:	687b      	ldr	r3, [r7, #4]
 8000bcc:	2202      	movs	r2, #2
 8000bce:	711a      	strb	r2, [r3, #4]
  
  /* Set DAC error code to none */
  hdac->ErrorCode = HAL_DAC_ERROR_NONE;
 8000bd0:	687b      	ldr	r3, [r7, #4]
 8000bd2:	2200      	movs	r2, #0
 8000bd4:	611a      	str	r2, [r3, #16]
  
  /* Initialize the DAC state*/
  hdac->State = HAL_DAC_STATE_READY;
 8000bd6:	687b      	ldr	r3, [r7, #4]
 8000bd8:	2201      	movs	r2, #1
 8000bda:	711a      	strb	r2, [r3, #4]
  
  /* Return function status */
  return HAL_OK;
 8000bdc:	2300      	movs	r3, #0
}
 8000bde:	0018      	movs	r0, r3
 8000be0:	46bd      	mov	sp, r7
 8000be2:	b002      	add	sp, #8
 8000be4:	bd80      	pop	{r7, pc}

08000be6 <HAL_DAC_ConfigChannel>:
  *          This parameter can be one of the following values:
  *            @arg DAC_CHANNEL_1: DAC Channel1 selected
  * @retval HAL status
  */
HAL_StatusTypeDef HAL_DAC_ConfigChannel(DAC_HandleTypeDef* hdac, DAC_ChannelConfTypeDef* sConfig, uint32_t Channel)
{
 8000be6:	b580      	push	{r7, lr}
 8000be8:	b086      	sub	sp, #24
 8000bea:	af00      	add	r7, sp, #0
 8000bec:	60f8      	str	r0, [r7, #12]
 8000bee:	60b9      	str	r1, [r7, #8]
 8000bf0:	607a      	str	r2, [r7, #4]
  uint32_t tmpreg1 = 0U, tmpreg2 = 0U;
 8000bf2:	2300      	movs	r3, #0
 8000bf4:	617b      	str	r3, [r7, #20]
 8000bf6:	2300      	movs	r3, #0
 8000bf8:	613b      	str	r3, [r7, #16]
  assert_param(IS_DAC_OUTPUT_BUFFER_STATE(sConfig->DAC_OutputBuffer));
  assert_param(IS_DAC_TRIGGER(sConfig->DAC_Trigger));
  assert_param(IS_DAC_CHANNEL(Channel));
  
  /* Process locked */
  __HAL_LOCK(hdac);
 8000bfa:	68fb      	ldr	r3, [r7, #12]
 8000bfc:	795b      	ldrb	r3, [r3, #5]
 8000bfe:	2b01      	cmp	r3, #1
 8000c00:	d101      	bne.n	8000c06 <HAL_DAC_ConfigChannel+0x20>
 8000c02:	2302      	movs	r3, #2
 8000c04:	e029      	b.n	8000c5a <HAL_DAC_ConfigChannel+0x74>
 8000c06:	68fb      	ldr	r3, [r7, #12]
 8000c08:	2201      	movs	r2, #1
 8000c0a:	715a      	strb	r2, [r3, #5]
  
  /* Change DAC state */
  hdac->State = HAL_DAC_STATE_BUSY;
 8000c0c:	68fb      	ldr	r3, [r7, #12]
 8000c0e:	2202      	movs	r2, #2
 8000c10:	711a      	strb	r2, [r3, #4]
  
  /* Get the DAC CR value */
  tmpreg1 = hdac->Instance->CR;
 8000c12:	68fb      	ldr	r3, [r7, #12]
 8000c14:	681b      	ldr	r3, [r3, #0]
 8000c16:	681b      	ldr	r3, [r3, #0]
 8000c18:	617b      	str	r3, [r7, #20]
  /* Clear BOFFx, TENx, TSELx, WAVEx and MAMPx bits */
  tmpreg1 &= ~(((uint32_t)(DAC_CR_TSEL1 | DAC_CR_TEN1 | DAC_CR_BOFF1)) << Channel); 
 8000c1a:	223e      	movs	r2, #62	; 0x3e
 8000c1c:	687b      	ldr	r3, [r7, #4]
 8000c1e:	409a      	lsls	r2, r3
 8000c20:	0013      	movs	r3, r2
 8000c22:	43da      	mvns	r2, r3
 8000c24:	697b      	ldr	r3, [r7, #20]
 8000c26:	4013      	ands	r3, r2
 8000c28:	617b      	str	r3, [r7, #20]
  /* Configure for the selected DAC channel: buffer output, trigger */
  /* Set TSELx and TENx bits according to DAC_Trigger value */
  /* Set BOFFx bit according to DAC_OutputBuffer value */   
  tmpreg2 = (sConfig->DAC_Trigger | sConfig->DAC_OutputBuffer);
 8000c2a:	68bb      	ldr	r3, [r7, #8]
 8000c2c:	681a      	ldr	r2, [r3, #0]
 8000c2e:	68bb      	ldr	r3, [r7, #8]
 8000c30:	685b      	ldr	r3, [r3, #4]
 8000c32:	4313      	orrs	r3, r2
 8000c34:	613b      	str	r3, [r7, #16]
  /* Calculate CR register value depending on DAC_Channel */
  tmpreg1 |= tmpreg2 << Channel;
 8000c36:	693a      	ldr	r2, [r7, #16]
 8000c38:	687b      	ldr	r3, [r7, #4]
 8000c3a:	409a      	lsls	r2, r3
 8000c3c:	0013      	movs	r3, r2
 8000c3e:	697a      	ldr	r2, [r7, #20]
 8000c40:	4313      	orrs	r3, r2
 8000c42:	617b      	str	r3, [r7, #20]
  /* Write to DAC CR */
  hdac->Instance->CR = tmpreg1;
 8000c44:	68fb      	ldr	r3, [r7, #12]
 8000c46:	681b      	ldr	r3, [r3, #0]
 8000c48:	697a      	ldr	r2, [r7, #20]
 8000c4a:	601a      	str	r2, [r3, #0]
  
  /* Change DAC state */
  hdac->State = HAL_DAC_STATE_READY;
 8000c4c:	68fb      	ldr	r3, [r7, #12]
 8000c4e:	2201      	movs	r2, #1
 8000c50:	711a      	strb	r2, [r3, #4]
  
  /* Process unlocked */
  __HAL_UNLOCK(hdac);
 8000c52:	68fb      	ldr	r3, [r7, #12]
 8000c54:	2200      	movs	r2, #0
 8000c56:	715a      	strb	r2, [r3, #5]
  
  /* Return function status */
  return HAL_OK;
 8000c58:	2300      	movs	r3, #0
}
 8000c5a:	0018      	movs	r0, r3
 8000c5c:	46bd      	mov	sp, r7
 8000c5e:	b006      	add	sp, #24
 8000c60:	bd80      	pop	{r7, pc}
	...

08000c64 <HAL_GPIO_Init>:
  * @param  GPIO_Init pointer to a GPIO_InitTypeDef structure that contains
  *         the configuration information for the specified GPIO peripheral.
  * @retval None
  */
void HAL_GPIO_Init(GPIO_TypeDef  *GPIOx, GPIO_InitTypeDef *GPIO_Init)
{ 
 8000c64:	b580      	push	{r7, lr}
 8000c66:	b086      	sub	sp, #24
 8000c68:	af00      	add	r7, sp, #0
 8000c6a:	6078      	str	r0, [r7, #4]
 8000c6c:	6039      	str	r1, [r7, #0]
  uint32_t position = 0x00u;
 8000c6e:	2300      	movs	r3, #0
 8000c70:	617b      	str	r3, [r7, #20]
  assert_param(IS_GPIO_PIN(GPIO_Init->Pin));
  assert_param(IS_GPIO_MODE(GPIO_Init->Mode));
  assert_param(IS_GPIO_PULL(GPIO_Init->Pull));

  /* Configure the port pins */
  while (((GPIO_Init->Pin) >> position) != 0x00u)
 8000c72:	e14f      	b.n	8000f14 <HAL_GPIO_Init+0x2b0>
  {
    /* Get current io position */
    iocurrent = (GPIO_Init->Pin) & (1uL << position);
 8000c74:	683b      	ldr	r3, [r7, #0]
 8000c76:	681b      	ldr	r3, [r3, #0]
 8000c78:	2101      	movs	r1, #1
 8000c7a:	697a      	ldr	r2, [r7, #20]
 8000c7c:	4091      	lsls	r1, r2
 8000c7e:	000a      	movs	r2, r1
 8000c80:	4013      	ands	r3, r2
 8000c82:	60fb      	str	r3, [r7, #12]

    if (iocurrent != 0x00u)
 8000c84:	68fb      	ldr	r3, [r7, #12]
 8000c86:	2b00      	cmp	r3, #0
 8000c88:	d100      	bne.n	8000c8c <HAL_GPIO_Init+0x28>
 8000c8a:	e140      	b.n	8000f0e <HAL_GPIO_Init+0x2aa>
    {
      /*--------------------- GPIO Mode Configuration ------------------------*/
      /* In case of Alternate function mode selection */
      if((GPIO_Init->Mode == GPIO_MODE_AF_PP) || (GPIO_Init->Mode == GPIO_MODE_AF_OD))
 8000c8c:	683b      	ldr	r3, [r7, #0]
 8000c8e:	685b      	ldr	r3, [r3, #4]
 8000c90:	2b02      	cmp	r3, #2
 8000c92:	d003      	beq.n	8000c9c <HAL_GPIO_Init+0x38>
 8000c94:	683b      	ldr	r3, [r7, #0]
 8000c96:	685b      	ldr	r3, [r3, #4]
 8000c98:	2b12      	cmp	r3, #18
 8000c9a:	d123      	bne.n	8000ce4 <HAL_GPIO_Init+0x80>
        /* Check the Alternate function parameters */
        assert_param(IS_GPIO_AF_INSTANCE(GPIOx));
        assert_param(IS_GPIO_AF(GPIO_Init->Alternate));

        /* Configure Alternate function mapped with the current IO */
        temp = GPIOx->AFR[position >> 3u];
 8000c9c:	697b      	ldr	r3, [r7, #20]
 8000c9e:	08da      	lsrs	r2, r3, #3
 8000ca0:	687b      	ldr	r3, [r7, #4]
 8000ca2:	3208      	adds	r2, #8
 8000ca4:	0092      	lsls	r2, r2, #2
 8000ca6:	58d3      	ldr	r3, [r2, r3]
 8000ca8:	613b      	str	r3, [r7, #16]
        temp &= ~(0xFu << ((position & 0x07u) * 4u));
 8000caa:	697b      	ldr	r3, [r7, #20]
 8000cac:	2207      	movs	r2, #7
 8000cae:	4013      	ands	r3, r2
 8000cb0:	009b      	lsls	r3, r3, #2
 8000cb2:	220f      	movs	r2, #15
 8000cb4:	409a      	lsls	r2, r3
 8000cb6:	0013      	movs	r3, r2
 8000cb8:	43da      	mvns	r2, r3
 8000cba:	693b      	ldr	r3, [r7, #16]
 8000cbc:	4013      	ands	r3, r2
 8000cbe:	613b      	str	r3, [r7, #16]
        temp |= ((GPIO_Init->Alternate) << ((position & 0x07u) * 4u));
 8000cc0:	683b      	ldr	r3, [r7, #0]
 8000cc2:	691a      	ldr	r2, [r3, #16]
 8000cc4:	697b      	ldr	r3, [r7, #20]
 8000cc6:	2107      	movs	r1, #7
 8000cc8:	400b      	ands	r3, r1
 8000cca:	009b      	lsls	r3, r3, #2
 8000ccc:	409a      	lsls	r2, r3
 8000cce:	0013      	movs	r3, r2
 8000cd0:	693a      	ldr	r2, [r7, #16]
 8000cd2:	4313      	orrs	r3, r2
 8000cd4:	613b      	str	r3, [r7, #16]
        GPIOx->AFR[position >> 3u] = temp;
 8000cd6:	697b      	ldr	r3, [r7, #20]
 8000cd8:	08da      	lsrs	r2, r3, #3
 8000cda:	687b      	ldr	r3, [r7, #4]
 8000cdc:	3208      	adds	r2, #8
 8000cde:	0092      	lsls	r2, r2, #2
 8000ce0:	6939      	ldr	r1, [r7, #16]
 8000ce2:	50d1      	str	r1, [r2, r3]
      }

      /* Configure IO Direction mode (Input, Output, Alternate or Analog) */
      temp = GPIOx->MODER;
 8000ce4:	687b      	ldr	r3, [r7, #4]
 8000ce6:	681b      	ldr	r3, [r3, #0]
 8000ce8:	613b      	str	r3, [r7, #16]
      temp &= ~(GPIO_MODER_MODER0 << (position * 2u));
 8000cea:	697b      	ldr	r3, [r7, #20]
 8000cec:	005b      	lsls	r3, r3, #1
 8000cee:	2203      	movs	r2, #3
 8000cf0:	409a      	lsls	r2, r3
 8000cf2:	0013      	movs	r3, r2
 8000cf4:	43da      	mvns	r2, r3
 8000cf6:	693b      	ldr	r3, [r7, #16]
 8000cf8:	4013      	ands	r3, r2
 8000cfa:	613b      	str	r3, [r7, #16]
      temp |= ((GPIO_Init->Mode & GPIO_MODE) << (position * 2u));
 8000cfc:	683b      	ldr	r3, [r7, #0]
 8000cfe:	685b      	ldr	r3, [r3, #4]
 8000d00:	2203      	movs	r2, #3
 8000d02:	401a      	ands	r2, r3
 8000d04:	697b      	ldr	r3, [r7, #20]
 8000d06:	005b      	lsls	r3, r3, #1
 8000d08:	409a      	lsls	r2, r3
 8000d0a:	0013      	movs	r3, r2
 8000d0c:	693a      	ldr	r2, [r7, #16]
 8000d0e:	4313      	orrs	r3, r2
 8000d10:	613b      	str	r3, [r7, #16]
      GPIOx->MODER = temp;
 8000d12:	687b      	ldr	r3, [r7, #4]
 8000d14:	693a      	ldr	r2, [r7, #16]
 8000d16:	601a      	str	r2, [r3, #0]

      /* In case of Output or Alternate function mode selection */
      if((GPIO_Init->Mode == GPIO_MODE_OUTPUT_PP) || (GPIO_Init->Mode == GPIO_MODE_AF_PP) ||
 8000d18:	683b      	ldr	r3, [r7, #0]
 8000d1a:	685b      	ldr	r3, [r3, #4]
 8000d1c:	2b01      	cmp	r3, #1
 8000d1e:	d00b      	beq.n	8000d38 <HAL_GPIO_Init+0xd4>
 8000d20:	683b      	ldr	r3, [r7, #0]
 8000d22:	685b      	ldr	r3, [r3, #4]
 8000d24:	2b02      	cmp	r3, #2
 8000d26:	d007      	beq.n	8000d38 <HAL_GPIO_Init+0xd4>
         (GPIO_Init->Mode == GPIO_MODE_OUTPUT_OD) || (GPIO_Init->Mode == GPIO_MODE_AF_OD))
 8000d28:	683b      	ldr	r3, [r7, #0]
 8000d2a:	685b      	ldr	r3, [r3, #4]
      if((GPIO_Init->Mode == GPIO_MODE_OUTPUT_PP) || (GPIO_Init->Mode == GPIO_MODE_AF_PP) ||
 8000d2c:	2b11      	cmp	r3, #17
 8000d2e:	d003      	beq.n	8000d38 <HAL_GPIO_Init+0xd4>
         (GPIO_Init->Mode == GPIO_MODE_OUTPUT_OD) || (GPIO_Init->Mode == GPIO_MODE_AF_OD))
 8000d30:	683b      	ldr	r3, [r7, #0]
 8000d32:	685b      	ldr	r3, [r3, #4]
 8000d34:	2b12      	cmp	r3, #18
 8000d36:	d130      	bne.n	8000d9a <HAL_GPIO_Init+0x136>
      {
        /* Check the Speed parameter */
        assert_param(IS_GPIO_SPEED(GPIO_Init->Speed));
        /* Configure the IO Speed */
        temp = GPIOx->OSPEEDR;
 8000d38:	687b      	ldr	r3, [r7, #4]
 8000d3a:	689b      	ldr	r3, [r3, #8]
 8000d3c:	613b      	str	r3, [r7, #16]
        temp &= ~(GPIO_OSPEEDER_OSPEEDR0 << (position * 2u));
 8000d3e:	697b      	ldr	r3, [r7, #20]
 8000d40:	005b      	lsls	r3, r3, #1
 8000d42:	2203      	movs	r2, #3
 8000d44:	409a      	lsls	r2, r3
 8000d46:	0013      	movs	r3, r2
 8000d48:	43da      	mvns	r2, r3
 8000d4a:	693b      	ldr	r3, [r7, #16]
 8000d4c:	4013      	ands	r3, r2
 8000d4e:	613b      	str	r3, [r7, #16]
        temp |= (GPIO_Init->Speed << (position * 2u));
 8000d50:	683b      	ldr	r3, [r7, #0]
 8000d52:	68da      	ldr	r2, [r3, #12]
 8000d54:	697b      	ldr	r3, [r7, #20]
 8000d56:	005b      	lsls	r3, r3, #1
 8000d58:	409a      	lsls	r2, r3
 8000d5a:	0013      	movs	r3, r2
 8000d5c:	693a      	ldr	r2, [r7, #16]
 8000d5e:	4313      	orrs	r3, r2
 8000d60:	613b      	str	r3, [r7, #16]
        GPIOx->OSPEEDR = temp;
 8000d62:	687b      	ldr	r3, [r7, #4]
 8000d64:	693a      	ldr	r2, [r7, #16]
 8000d66:	609a      	str	r2, [r3, #8]

        /* Configure the IO Output Type */
        temp = GPIOx->OTYPER;
 8000d68:	687b      	ldr	r3, [r7, #4]
 8000d6a:	685b      	ldr	r3, [r3, #4]
 8000d6c:	613b      	str	r3, [r7, #16]
        temp &= ~(GPIO_OTYPER_OT_0 << position) ;
 8000d6e:	2201      	movs	r2, #1
 8000d70:	697b      	ldr	r3, [r7, #20]
 8000d72:	409a      	lsls	r2, r3
 8000d74:	0013      	movs	r3, r2
 8000d76:	43da      	mvns	r2, r3
 8000d78:	693b      	ldr	r3, [r7, #16]
 8000d7a:	4013      	ands	r3, r2
 8000d7c:	613b      	str	r3, [r7, #16]
        temp |= (((GPIO_Init->Mode & GPIO_OUTPUT_TYPE) >> 4u) << position);
 8000d7e:	683b      	ldr	r3, [r7, #0]
 8000d80:	685b      	ldr	r3, [r3, #4]
 8000d82:	091b      	lsrs	r3, r3, #4
 8000d84:	2201      	movs	r2, #1
 8000d86:	401a      	ands	r2, r3
 8000d88:	697b      	ldr	r3, [r7, #20]
 8000d8a:	409a      	lsls	r2, r3
 8000d8c:	0013      	movs	r3, r2
 8000d8e:	693a      	ldr	r2, [r7, #16]
 8000d90:	4313      	orrs	r3, r2
 8000d92:	613b      	str	r3, [r7, #16]
        GPIOx->OTYPER = temp;
 8000d94:	687b      	ldr	r3, [r7, #4]
 8000d96:	693a      	ldr	r2, [r7, #16]
 8000d98:	605a      	str	r2, [r3, #4]
      }

      /* Activate the Pull-up or Pull down resistor for the current IO */
      temp = GPIOx->PUPDR;
 8000d9a:	687b      	ldr	r3, [r7, #4]
 8000d9c:	68db      	ldr	r3, [r3, #12]
 8000d9e:	613b      	str	r3, [r7, #16]
      temp &= ~(GPIO_PUPDR_PUPDR0 << (position * 2u));
 8000da0:	697b      	ldr	r3, [r7, #20]
 8000da2:	005b      	lsls	r3, r3, #1
 8000da4:	2203      	movs	r2, #3
 8000da6:	409a      	lsls	r2, r3
 8000da8:	0013      	movs	r3, r2
 8000daa:	43da      	mvns	r2, r3
 8000dac:	693b      	ldr	r3, [r7, #16]
 8000dae:	4013      	ands	r3, r2
 8000db0:	613b      	str	r3, [r7, #16]
      temp |= ((GPIO_Init->Pull) << (position * 2u));
 8000db2:	683b      	ldr	r3, [r7, #0]
 8000db4:	689a      	ldr	r2, [r3, #8]
 8000db6:	697b      	ldr	r3, [r7, #20]
 8000db8:	005b      	lsls	r3, r3, #1
 8000dba:	409a      	lsls	r2, r3
 8000dbc:	0013      	movs	r3, r2
 8000dbe:	693a      	ldr	r2, [r7, #16]
 8000dc0:	4313      	orrs	r3, r2
 8000dc2:	613b      	str	r3, [r7, #16]
      GPIOx->PUPDR = temp;
 8000dc4:	687b      	ldr	r3, [r7, #4]
 8000dc6:	693a      	ldr	r2, [r7, #16]
 8000dc8:	60da      	str	r2, [r3, #12]

      /*--------------------- EXTI Mode Configuration ------------------------*/
      /* Configure the External Interrupt or event for the current IO */
      if((GPIO_Init->Mode & EXTI_MODE) == EXTI_MODE)
 8000dca:	683b      	ldr	r3, [r7, #0]
 8000dcc:	685a      	ldr	r2, [r3, #4]
 8000dce:	2380      	movs	r3, #128	; 0x80
 8000dd0:	055b      	lsls	r3, r3, #21
 8000dd2:	4013      	ands	r3, r2
 8000dd4:	d100      	bne.n	8000dd8 <HAL_GPIO_Init+0x174>
 8000dd6:	e09a      	b.n	8000f0e <HAL_GPIO_Init+0x2aa>
      {
        /* Enable SYSCFG Clock */
        __HAL_RCC_SYSCFG_CLK_ENABLE();
 8000dd8:	4b54      	ldr	r3, [pc, #336]	; (8000f2c <HAL_GPIO_Init+0x2c8>)
 8000dda:	699a      	ldr	r2, [r3, #24]
 8000ddc:	4b53      	ldr	r3, [pc, #332]	; (8000f2c <HAL_GPIO_Init+0x2c8>)
 8000dde:	2101      	movs	r1, #1
 8000de0:	430a      	orrs	r2, r1
 8000de2:	619a      	str	r2, [r3, #24]
 8000de4:	4b51      	ldr	r3, [pc, #324]	; (8000f2c <HAL_GPIO_Init+0x2c8>)
 8000de6:	699b      	ldr	r3, [r3, #24]
 8000de8:	2201      	movs	r2, #1
 8000dea:	4013      	ands	r3, r2
 8000dec:	60bb      	str	r3, [r7, #8]
 8000dee:	68bb      	ldr	r3, [r7, #8]

        temp = SYSCFG->EXTICR[position >> 2u];
 8000df0:	4a4f      	ldr	r2, [pc, #316]	; (8000f30 <HAL_GPIO_Init+0x2cc>)
 8000df2:	697b      	ldr	r3, [r7, #20]
 8000df4:	089b      	lsrs	r3, r3, #2
 8000df6:	3302      	adds	r3, #2
 8000df8:	009b      	lsls	r3, r3, #2
 8000dfa:	589b      	ldr	r3, [r3, r2]
 8000dfc:	613b      	str	r3, [r7, #16]
        temp &= ~(0x0FuL << (4u * (position & 0x03u)));
 8000dfe:	697b      	ldr	r3, [r7, #20]
 8000e00:	2203      	movs	r2, #3
 8000e02:	4013      	ands	r3, r2
 8000e04:	009b      	lsls	r3, r3, #2
 8000e06:	220f      	movs	r2, #15
 8000e08:	409a      	lsls	r2, r3
 8000e0a:	0013      	movs	r3, r2
 8000e0c:	43da      	mvns	r2, r3
 8000e0e:	693b      	ldr	r3, [r7, #16]
 8000e10:	4013      	ands	r3, r2
 8000e12:	613b      	str	r3, [r7, #16]
        temp |= (GPIO_GET_INDEX(GPIOx) << (4u * (position & 0x03u)));
 8000e14:	687a      	ldr	r2, [r7, #4]
 8000e16:	2390      	movs	r3, #144	; 0x90
 8000e18:	05db      	lsls	r3, r3, #23
 8000e1a:	429a      	cmp	r2, r3
 8000e1c:	d013      	beq.n	8000e46 <HAL_GPIO_Init+0x1e2>
 8000e1e:	687b      	ldr	r3, [r7, #4]
 8000e20:	4a44      	ldr	r2, [pc, #272]	; (8000f34 <HAL_GPIO_Init+0x2d0>)
 8000e22:	4293      	cmp	r3, r2
 8000e24:	d00d      	beq.n	8000e42 <HAL_GPIO_Init+0x1de>
 8000e26:	687b      	ldr	r3, [r7, #4]
 8000e28:	4a43      	ldr	r2, [pc, #268]	; (8000f38 <HAL_GPIO_Init+0x2d4>)
 8000e2a:	4293      	cmp	r3, r2
 8000e2c:	d007      	beq.n	8000e3e <HAL_GPIO_Init+0x1da>
 8000e2e:	687b      	ldr	r3, [r7, #4]
 8000e30:	4a42      	ldr	r2, [pc, #264]	; (8000f3c <HAL_GPIO_Init+0x2d8>)
 8000e32:	4293      	cmp	r3, r2
 8000e34:	d101      	bne.n	8000e3a <HAL_GPIO_Init+0x1d6>
 8000e36:	2303      	movs	r3, #3
 8000e38:	e006      	b.n	8000e48 <HAL_GPIO_Init+0x1e4>
 8000e3a:	2305      	movs	r3, #5
 8000e3c:	e004      	b.n	8000e48 <HAL_GPIO_Init+0x1e4>
 8000e3e:	2302      	movs	r3, #2
 8000e40:	e002      	b.n	8000e48 <HAL_GPIO_Init+0x1e4>
 8000e42:	2301      	movs	r3, #1
 8000e44:	e000      	b.n	8000e48 <HAL_GPIO_Init+0x1e4>
 8000e46:	2300      	movs	r3, #0
 8000e48:	697a      	ldr	r2, [r7, #20]
 8000e4a:	2103      	movs	r1, #3
 8000e4c:	400a      	ands	r2, r1
 8000e4e:	0092      	lsls	r2, r2, #2
 8000e50:	4093      	lsls	r3, r2
 8000e52:	693a      	ldr	r2, [r7, #16]
 8000e54:	4313      	orrs	r3, r2
 8000e56:	613b      	str	r3, [r7, #16]
        SYSCFG->EXTICR[position >> 2u] = temp;
 8000e58:	4935      	ldr	r1, [pc, #212]	; (8000f30 <HAL_GPIO_Init+0x2cc>)
 8000e5a:	697b      	ldr	r3, [r7, #20]
 8000e5c:	089b      	lsrs	r3, r3, #2
 8000e5e:	3302      	adds	r3, #2
 8000e60:	009b      	lsls	r3, r3, #2
 8000e62:	693a      	ldr	r2, [r7, #16]
 8000e64:	505a      	str	r2, [r3, r1]

        /* Clear EXTI line configuration */
        temp = EXTI->IMR;
 8000e66:	4b36      	ldr	r3, [pc, #216]	; (8000f40 <HAL_GPIO_Init+0x2dc>)
 8000e68:	681b      	ldr	r3, [r3, #0]
 8000e6a:	613b      	str	r3, [r7, #16]
        temp &= ~(iocurrent);
 8000e6c:	68fb      	ldr	r3, [r7, #12]
 8000e6e:	43da      	mvns	r2, r3
 8000e70:	693b      	ldr	r3, [r7, #16]
 8000e72:	4013      	ands	r3, r2
 8000e74:	613b      	str	r3, [r7, #16]
        if((GPIO_Init->Mode & GPIO_MODE_IT) == GPIO_MODE_IT)
 8000e76:	683b      	ldr	r3, [r7, #0]
 8000e78:	685a      	ldr	r2, [r3, #4]
 8000e7a:	2380      	movs	r3, #128	; 0x80
 8000e7c:	025b      	lsls	r3, r3, #9
 8000e7e:	4013      	ands	r3, r2
 8000e80:	d003      	beq.n	8000e8a <HAL_GPIO_Init+0x226>
        {
          temp |= iocurrent;
 8000e82:	693a      	ldr	r2, [r7, #16]
 8000e84:	68fb      	ldr	r3, [r7, #12]
 8000e86:	4313      	orrs	r3, r2
 8000e88:	613b      	str	r3, [r7, #16]
        }
        EXTI->IMR = temp;
 8000e8a:	4b2d      	ldr	r3, [pc, #180]	; (8000f40 <HAL_GPIO_Init+0x2dc>)
 8000e8c:	693a      	ldr	r2, [r7, #16]
 8000e8e:	601a      	str	r2, [r3, #0]

        temp = EXTI->EMR;
 8000e90:	4b2b      	ldr	r3, [pc, #172]	; (8000f40 <HAL_GPIO_Init+0x2dc>)
 8000e92:	685b      	ldr	r3, [r3, #4]
 8000e94:	613b      	str	r3, [r7, #16]
        temp &= ~(iocurrent);
 8000e96:	68fb      	ldr	r3, [r7, #12]
 8000e98:	43da      	mvns	r2, r3
 8000e9a:	693b      	ldr	r3, [r7, #16]
 8000e9c:	4013      	ands	r3, r2
 8000e9e:	613b      	str	r3, [r7, #16]
        if((GPIO_Init->Mode & GPIO_MODE_EVT) == GPIO_MODE_EVT)
 8000ea0:	683b      	ldr	r3, [r7, #0]
 8000ea2:	685a      	ldr	r2, [r3, #4]
 8000ea4:	2380      	movs	r3, #128	; 0x80
 8000ea6:	029b      	lsls	r3, r3, #10
 8000ea8:	4013      	ands	r3, r2
 8000eaa:	d003      	beq.n	8000eb4 <HAL_GPIO_Init+0x250>
        {
          temp |= iocurrent;
 8000eac:	693a      	ldr	r2, [r7, #16]
 8000eae:	68fb      	ldr	r3, [r7, #12]
 8000eb0:	4313      	orrs	r3, r2
 8000eb2:	613b      	str	r3, [r7, #16]
        }
        EXTI->EMR = temp;
 8000eb4:	4b22      	ldr	r3, [pc, #136]	; (8000f40 <HAL_GPIO_Init+0x2dc>)
 8000eb6:	693a      	ldr	r2, [r7, #16]
 8000eb8:	605a      	str	r2, [r3, #4]

        /* Clear Rising Falling edge configuration */
        temp = EXTI->RTSR;
 8000eba:	4b21      	ldr	r3, [pc, #132]	; (8000f40 <HAL_GPIO_Init+0x2dc>)
 8000ebc:	689b      	ldr	r3, [r3, #8]
 8000ebe:	613b      	str	r3, [r7, #16]
        temp &= ~(iocurrent);
 8000ec0:	68fb      	ldr	r3, [r7, #12]
 8000ec2:	43da      	mvns	r2, r3
 8000ec4:	693b      	ldr	r3, [r7, #16]
 8000ec6:	4013      	ands	r3, r2
 8000ec8:	613b      	str	r3, [r7, #16]
        if((GPIO_Init->Mode & RISING_EDGE) == RISING_EDGE)
 8000eca:	683b      	ldr	r3, [r7, #0]
 8000ecc:	685a      	ldr	r2, [r3, #4]
 8000ece:	2380      	movs	r3, #128	; 0x80
 8000ed0:	035b      	lsls	r3, r3, #13
 8000ed2:	4013      	ands	r3, r2
 8000ed4:	d003      	beq.n	8000ede <HAL_GPIO_Init+0x27a>
        {
          temp |= iocurrent;
 8000ed6:	693a      	ldr	r2, [r7, #16]
 8000ed8:	68fb      	ldr	r3, [r7, #12]
 8000eda:	4313      	orrs	r3, r2
 8000edc:	613b      	str	r3, [r7, #16]
        }
        EXTI->RTSR = temp;
 8000ede:	4b18      	ldr	r3, [pc, #96]	; (8000f40 <HAL_GPIO_Init+0x2dc>)
 8000ee0:	693a      	ldr	r2, [r7, #16]
 8000ee2:	609a      	str	r2, [r3, #8]

        temp = EXTI->FTSR;
 8000ee4:	4b16      	ldr	r3, [pc, #88]	; (8000f40 <HAL_GPIO_Init+0x2dc>)
 8000ee6:	68db      	ldr	r3, [r3, #12]
 8000ee8:	613b      	str	r3, [r7, #16]
        temp &= ~(iocurrent);
 8000eea:	68fb      	ldr	r3, [r7, #12]
 8000eec:	43da      	mvns	r2, r3
 8000eee:	693b      	ldr	r3, [r7, #16]
 8000ef0:	4013      	ands	r3, r2
 8000ef2:	613b      	str	r3, [r7, #16]
        if((GPIO_Init->Mode & FALLING_EDGE) == FALLING_EDGE)
 8000ef4:	683b      	ldr	r3, [r7, #0]
 8000ef6:	685a      	ldr	r2, [r3, #4]
 8000ef8:	2380      	movs	r3, #128	; 0x80
 8000efa:	039b      	lsls	r3, r3, #14
 8000efc:	4013      	ands	r3, r2
 8000efe:	d003      	beq.n	8000f08 <HAL_GPIO_Init+0x2a4>
        {
          temp |= iocurrent;
 8000f00:	693a      	ldr	r2, [r7, #16]
 8000f02:	68fb      	ldr	r3, [r7, #12]
 8000f04:	4313      	orrs	r3, r2
 8000f06:	613b      	str	r3, [r7, #16]
        }
        EXTI->FTSR = temp;
 8000f08:	4b0d      	ldr	r3, [pc, #52]	; (8000f40 <HAL_GPIO_Init+0x2dc>)
 8000f0a:	693a      	ldr	r2, [r7, #16]
 8000f0c:	60da      	str	r2, [r3, #12]
      }
    }

    position++;
 8000f0e:	697b      	ldr	r3, [r7, #20]
 8000f10:	3301      	adds	r3, #1
 8000f12:	617b      	str	r3, [r7, #20]
  while (((GPIO_Init->Pin) >> position) != 0x00u)
 8000f14:	683b      	ldr	r3, [r7, #0]
 8000f16:	681a      	ldr	r2, [r3, #0]
 8000f18:	697b      	ldr	r3, [r7, #20]
 8000f1a:	40da      	lsrs	r2, r3
 8000f1c:	1e13      	subs	r3, r2, #0
 8000f1e:	d000      	beq.n	8000f22 <HAL_GPIO_Init+0x2be>
 8000f20:	e6a8      	b.n	8000c74 <HAL_GPIO_Init+0x10>
  } 
}
 8000f22:	46c0      	nop			; (mov r8, r8)
 8000f24:	46bd      	mov	sp, r7
 8000f26:	b006      	add	sp, #24
 8000f28:	bd80      	pop	{r7, pc}
 8000f2a:	46c0      	nop			; (mov r8, r8)
 8000f2c:	40021000 	.word	0x40021000
 8000f30:	40010000 	.word	0x40010000
 8000f34:	48000400 	.word	0x48000400
 8000f38:	48000800 	.word	0x48000800
 8000f3c:	48000c00 	.word	0x48000c00
 8000f40:	40010400 	.word	0x40010400

08000f44 <HAL_GPIO_WritePin>:
  *            @arg GPIO_PIN_RESET: to clear the port pin
  *            @arg GPIO_PIN_SET: to set the port pin
  * @retval None
  */
void HAL_GPIO_WritePin(GPIO_TypeDef* GPIOx, uint16_t GPIO_Pin, GPIO_PinState PinState)
{
 8000f44:	b580      	push	{r7, lr}
 8000f46:	b082      	sub	sp, #8
 8000f48:	af00      	add	r7, sp, #0
 8000f4a:	6078      	str	r0, [r7, #4]
 8000f4c:	0008      	movs	r0, r1
 8000f4e:	0011      	movs	r1, r2
 8000f50:	1cbb      	adds	r3, r7, #2
 8000f52:	1c02      	adds	r2, r0, #0
 8000f54:	801a      	strh	r2, [r3, #0]
 8000f56:	1c7b      	adds	r3, r7, #1
 8000f58:	1c0a      	adds	r2, r1, #0
 8000f5a:	701a      	strb	r2, [r3, #0]
  /* Check the parameters */
  assert_param(IS_GPIO_PIN(GPIO_Pin));
  assert_param(IS_GPIO_PIN_ACTION(PinState));

  if (PinState != GPIO_PIN_RESET)
 8000f5c:	1c7b      	adds	r3, r7, #1
 8000f5e:	781b      	ldrb	r3, [r3, #0]
 8000f60:	2b00      	cmp	r3, #0
 8000f62:	d004      	beq.n	8000f6e <HAL_GPIO_WritePin+0x2a>
  {
    GPIOx->BSRR = (uint32_t)GPIO_Pin;
 8000f64:	1cbb      	adds	r3, r7, #2
 8000f66:	881a      	ldrh	r2, [r3, #0]
 8000f68:	687b      	ldr	r3, [r7, #4]
 8000f6a:	619a      	str	r2, [r3, #24]
  }
  else
  {
    GPIOx->BRR = (uint32_t)GPIO_Pin;
  }
}
 8000f6c:	e003      	b.n	8000f76 <HAL_GPIO_WritePin+0x32>
    GPIOx->BRR = (uint32_t)GPIO_Pin;
 8000f6e:	1cbb      	adds	r3, r7, #2
 8000f70:	881a      	ldrh	r2, [r3, #0]
 8000f72:	687b      	ldr	r3, [r7, #4]
 8000f74:	629a      	str	r2, [r3, #40]	; 0x28
}
 8000f76:	46c0      	nop			; (mov r8, r8)
 8000f78:	46bd      	mov	sp, r7
 8000f7a:	b002      	add	sp, #8
 8000f7c:	bd80      	pop	{r7, pc}

08000f7e <HAL_GPIO_TogglePin>:
  * @param  GPIOx where x can be (A..F) to select the GPIO peripheral for STM32F0 family
  * @param  GPIO_Pin specifies the pin to be toggled.
  * @retval None
  */
void HAL_GPIO_TogglePin(GPIO_TypeDef* GPIOx, uint16_t GPIO_Pin)
{
 8000f7e:	b580      	push	{r7, lr}
 8000f80:	b082      	sub	sp, #8
 8000f82:	af00      	add	r7, sp, #0
 8000f84:	6078      	str	r0, [r7, #4]
 8000f86:	000a      	movs	r2, r1
 8000f88:	1cbb      	adds	r3, r7, #2
 8000f8a:	801a      	strh	r2, [r3, #0]
  /* Check the parameters */
  assert_param(IS_GPIO_PIN(GPIO_Pin));

  if ((GPIOx->ODR & GPIO_Pin) != 0X00u)
 8000f8c:	687b      	ldr	r3, [r7, #4]
 8000f8e:	695b      	ldr	r3, [r3, #20]
 8000f90:	1cba      	adds	r2, r7, #2
 8000f92:	8812      	ldrh	r2, [r2, #0]
 8000f94:	4013      	ands	r3, r2
 8000f96:	d005      	beq.n	8000fa4 <HAL_GPIO_TogglePin+0x26>
  {
    GPIOx->BSRR = (uint32_t)GPIO_Pin << GPIO_NUMBER;
 8000f98:	1cbb      	adds	r3, r7, #2
 8000f9a:	881b      	ldrh	r3, [r3, #0]
 8000f9c:	041a      	lsls	r2, r3, #16
 8000f9e:	687b      	ldr	r3, [r7, #4]
 8000fa0:	619a      	str	r2, [r3, #24]
  }
  else
  {
    GPIOx->BSRR = (uint32_t)GPIO_Pin;
  }
}
 8000fa2:	e003      	b.n	8000fac <HAL_GPIO_TogglePin+0x2e>
    GPIOx->BSRR = (uint32_t)GPIO_Pin;
 8000fa4:	1cbb      	adds	r3, r7, #2
 8000fa6:	881a      	ldrh	r2, [r3, #0]
 8000fa8:	687b      	ldr	r3, [r7, #4]
 8000faa:	619a      	str	r2, [r3, #24]
}
 8000fac:	46c0      	nop			; (mov r8, r8)
 8000fae:	46bd      	mov	sp, r7
 8000fb0:	b002      	add	sp, #8
 8000fb2:	bd80      	pop	{r7, pc}

08000fb4 <HAL_GPIO_EXTI_IRQHandler>:
  * @brief  Handle EXTI interrupt request.
  * @param  GPIO_Pin Specifies the port pin connected to corresponding EXTI line.
  * @retval None
  */
void HAL_GPIO_EXTI_IRQHandler(uint16_t GPIO_Pin)
{
 8000fb4:	b580      	push	{r7, lr}
 8000fb6:	b082      	sub	sp, #8
 8000fb8:	af00      	add	r7, sp, #0
 8000fba:	0002      	movs	r2, r0
 8000fbc:	1dbb      	adds	r3, r7, #6
 8000fbe:	801a      	strh	r2, [r3, #0]
  /* EXTI line interrupt detected */
  if(__HAL_GPIO_EXTI_GET_IT(GPIO_Pin) != 0x00u)
 8000fc0:	4b09      	ldr	r3, [pc, #36]	; (8000fe8 <HAL_GPIO_EXTI_IRQHandler+0x34>)
 8000fc2:	695b      	ldr	r3, [r3, #20]
 8000fc4:	1dba      	adds	r2, r7, #6
 8000fc6:	8812      	ldrh	r2, [r2, #0]
 8000fc8:	4013      	ands	r3, r2
 8000fca:	d008      	beq.n	8000fde <HAL_GPIO_EXTI_IRQHandler+0x2a>
  { 
    __HAL_GPIO_EXTI_CLEAR_IT(GPIO_Pin);
 8000fcc:	4b06      	ldr	r3, [pc, #24]	; (8000fe8 <HAL_GPIO_EXTI_IRQHandler+0x34>)
 8000fce:	1dba      	adds	r2, r7, #6
 8000fd0:	8812      	ldrh	r2, [r2, #0]
 8000fd2:	615a      	str	r2, [r3, #20]
    HAL_GPIO_EXTI_Callback(GPIO_Pin);
 8000fd4:	1dbb      	adds	r3, r7, #6
 8000fd6:	881b      	ldrh	r3, [r3, #0]
 8000fd8:	0018      	movs	r0, r3
 8000fda:	f000 f807 	bl	8000fec <HAL_GPIO_EXTI_Callback>
  }
}
 8000fde:	46c0      	nop			; (mov r8, r8)
 8000fe0:	46bd      	mov	sp, r7
 8000fe2:	b002      	add	sp, #8
 8000fe4:	bd80      	pop	{r7, pc}
 8000fe6:	46c0      	nop			; (mov r8, r8)
 8000fe8:	40010400 	.word	0x40010400

08000fec <HAL_GPIO_EXTI_Callback>:
  * @brief  EXTI line detection callback.
  * @param  GPIO_Pin Specifies the port pin connected to corresponding EXTI line.
  * @retval None
  */
__weak void HAL_GPIO_EXTI_Callback(uint16_t GPIO_Pin)
{
 8000fec:	b580      	push	{r7, lr}
 8000fee:	b082      	sub	sp, #8
 8000ff0:	af00      	add	r7, sp, #0
 8000ff2:	0002      	movs	r2, r0
 8000ff4:	1dbb      	adds	r3, r7, #6
 8000ff6:	801a      	strh	r2, [r3, #0]
  UNUSED(GPIO_Pin);

  /* NOTE: This function should not be modified, when the callback is needed,
            the HAL_GPIO_EXTI_Callback could be implemented in the user file
   */ 
}
 8000ff8:	46c0      	nop			; (mov r8, r8)
 8000ffa:	46bd      	mov	sp, r7
 8000ffc:	b002      	add	sp, #8
 8000ffe:	bd80      	pop	{r7, pc}

08001000 <HAL_RCC_OscConfig>:
  *         supported by this macro. User should request a transition to HSE Off
  *         first and then HSE On or HSE Bypass.
  * @retval HAL status
  */
HAL_StatusTypeDef HAL_RCC_OscConfig(RCC_OscInitTypeDef  *RCC_OscInitStruct)
{
 8001000:	b580      	push	{r7, lr}
 8001002:	b088      	sub	sp, #32
 8001004:	af00      	add	r7, sp, #0
 8001006:	6078      	str	r0, [r7, #4]
  uint32_t tickstart;
  uint32_t pll_config;
  uint32_t pll_config2;

  /* Check Null pointer */
  if(RCC_OscInitStruct == NULL)
 8001008:	687b      	ldr	r3, [r7, #4]
 800100a:	2b00      	cmp	r3, #0
 800100c:	d101      	bne.n	8001012 <HAL_RCC_OscConfig+0x12>
  {
    return HAL_ERROR;
 800100e:	2301      	movs	r3, #1
 8001010:	e303      	b.n	800161a <HAL_RCC_OscConfig+0x61a>

  /* Check the parameters */
  assert_param(IS_RCC_OSCILLATORTYPE(RCC_OscInitStruct->OscillatorType));

  /*------------------------------- HSE Configuration ------------------------*/ 
  if(((RCC_OscInitStruct->OscillatorType) & RCC_OSCILLATORTYPE_HSE) == RCC_OSCILLATORTYPE_HSE)
 8001012:	687b      	ldr	r3, [r7, #4]
 8001014:	681b      	ldr	r3, [r3, #0]
 8001016:	2201      	movs	r2, #1
 8001018:	4013      	ands	r3, r2
 800101a:	d100      	bne.n	800101e <HAL_RCC_OscConfig+0x1e>
 800101c:	e08d      	b.n	800113a <HAL_RCC_OscConfig+0x13a>
  {
    /* Check the parameters */
    assert_param(IS_RCC_HSE(RCC_OscInitStruct->HSEState));

    /* When the HSE is used as system clock or clock source for PLL in these cases it is not allowed to be disabled */
    if((__HAL_RCC_GET_SYSCLK_SOURCE() == RCC_SYSCLKSOURCE_STATUS_HSE) 
 800101e:	4bc4      	ldr	r3, [pc, #784]	; (8001330 <HAL_RCC_OscConfig+0x330>)
 8001020:	685b      	ldr	r3, [r3, #4]
 8001022:	220c      	movs	r2, #12
 8001024:	4013      	ands	r3, r2
 8001026:	2b04      	cmp	r3, #4
 8001028:	d00e      	beq.n	8001048 <HAL_RCC_OscConfig+0x48>
       || ((__HAL_RCC_GET_SYSCLK_SOURCE() == RCC_SYSCLKSOURCE_STATUS_PLLCLK) && (__HAL_RCC_GET_PLL_OSCSOURCE() == RCC_PLLSOURCE_HSE)))
 800102a:	4bc1      	ldr	r3, [pc, #772]	; (8001330 <HAL_RCC_OscConfig+0x330>)
 800102c:	685b      	ldr	r3, [r3, #4]
 800102e:	220c      	movs	r2, #12
 8001030:	4013      	ands	r3, r2
 8001032:	2b08      	cmp	r3, #8
 8001034:	d116      	bne.n	8001064 <HAL_RCC_OscConfig+0x64>
 8001036:	4bbe      	ldr	r3, [pc, #760]	; (8001330 <HAL_RCC_OscConfig+0x330>)
 8001038:	685a      	ldr	r2, [r3, #4]
 800103a:	2380      	movs	r3, #128	; 0x80
 800103c:	025b      	lsls	r3, r3, #9
 800103e:	401a      	ands	r2, r3
 8001040:	2380      	movs	r3, #128	; 0x80
 8001042:	025b      	lsls	r3, r3, #9
 8001044:	429a      	cmp	r2, r3
 8001046:	d10d      	bne.n	8001064 <HAL_RCC_OscConfig+0x64>
    {
      if((__HAL_RCC_GET_FLAG(RCC_FLAG_HSERDY) != RESET) && (RCC_OscInitStruct->HSEState == RCC_HSE_OFF))
 8001048:	4bb9      	ldr	r3, [pc, #740]	; (8001330 <HAL_RCC_OscConfig+0x330>)
 800104a:	681a      	ldr	r2, [r3, #0]
 800104c:	2380      	movs	r3, #128	; 0x80
 800104e:	029b      	lsls	r3, r3, #10
 8001050:	4013      	ands	r3, r2
 8001052:	d100      	bne.n	8001056 <HAL_RCC_OscConfig+0x56>
 8001054:	e070      	b.n	8001138 <HAL_RCC_OscConfig+0x138>
 8001056:	687b      	ldr	r3, [r7, #4]
 8001058:	685b      	ldr	r3, [r3, #4]
 800105a:	2b00      	cmp	r3, #0
 800105c:	d000      	beq.n	8001060 <HAL_RCC_OscConfig+0x60>
 800105e:	e06b      	b.n	8001138 <HAL_RCC_OscConfig+0x138>
      {
        return HAL_ERROR;
 8001060:	2301      	movs	r3, #1
 8001062:	e2da      	b.n	800161a <HAL_RCC_OscConfig+0x61a>
      }
    }
    else
    {
      /* Set the new HSE configuration ---------------------------------------*/
      __HAL_RCC_HSE_CONFIG(RCC_OscInitStruct->HSEState);
 8001064:	687b      	ldr	r3, [r7, #4]
 8001066:	685b      	ldr	r3, [r3, #4]
 8001068:	2b01      	cmp	r3, #1
 800106a:	d107      	bne.n	800107c <HAL_RCC_OscConfig+0x7c>
 800106c:	4bb0      	ldr	r3, [pc, #704]	; (8001330 <HAL_RCC_OscConfig+0x330>)
 800106e:	681a      	ldr	r2, [r3, #0]
 8001070:	4baf      	ldr	r3, [pc, #700]	; (8001330 <HAL_RCC_OscConfig+0x330>)
 8001072:	2180      	movs	r1, #128	; 0x80
 8001074:	0249      	lsls	r1, r1, #9
 8001076:	430a      	orrs	r2, r1
 8001078:	601a      	str	r2, [r3, #0]
 800107a:	e02f      	b.n	80010dc <HAL_RCC_OscConfig+0xdc>
 800107c:	687b      	ldr	r3, [r7, #4]
 800107e:	685b      	ldr	r3, [r3, #4]
 8001080:	2b00      	cmp	r3, #0
 8001082:	d10c      	bne.n	800109e <HAL_RCC_OscConfig+0x9e>
 8001084:	4baa      	ldr	r3, [pc, #680]	; (8001330 <HAL_RCC_OscConfig+0x330>)
 8001086:	681a      	ldr	r2, [r3, #0]
 8001088:	4ba9      	ldr	r3, [pc, #676]	; (8001330 <HAL_RCC_OscConfig+0x330>)
 800108a:	49aa      	ldr	r1, [pc, #680]	; (8001334 <HAL_RCC_OscConfig+0x334>)
 800108c:	400a      	ands	r2, r1
 800108e:	601a      	str	r2, [r3, #0]
 8001090:	4ba7      	ldr	r3, [pc, #668]	; (8001330 <HAL_RCC_OscConfig+0x330>)
 8001092:	681a      	ldr	r2, [r3, #0]
 8001094:	4ba6      	ldr	r3, [pc, #664]	; (8001330 <HAL_RCC_OscConfig+0x330>)
 8001096:	49a8      	ldr	r1, [pc, #672]	; (8001338 <HAL_RCC_OscConfig+0x338>)
 8001098:	400a      	ands	r2, r1
 800109a:	601a      	str	r2, [r3, #0]
 800109c:	e01e      	b.n	80010dc <HAL_RCC_OscConfig+0xdc>
 800109e:	687b      	ldr	r3, [r7, #4]
 80010a0:	685b      	ldr	r3, [r3, #4]
 80010a2:	2b05      	cmp	r3, #5
 80010a4:	d10e      	bne.n	80010c4 <HAL_RCC_OscConfig+0xc4>
 80010a6:	4ba2      	ldr	r3, [pc, #648]	; (8001330 <HAL_RCC_OscConfig+0x330>)
 80010a8:	681a      	ldr	r2, [r3, #0]
 80010aa:	4ba1      	ldr	r3, [pc, #644]	; (8001330 <HAL_RCC_OscConfig+0x330>)
 80010ac:	2180      	movs	r1, #128	; 0x80
 80010ae:	02c9      	lsls	r1, r1, #11
 80010b0:	430a      	orrs	r2, r1
 80010b2:	601a      	str	r2, [r3, #0]
 80010b4:	4b9e      	ldr	r3, [pc, #632]	; (8001330 <HAL_RCC_OscConfig+0x330>)
 80010b6:	681a      	ldr	r2, [r3, #0]
 80010b8:	4b9d      	ldr	r3, [pc, #628]	; (8001330 <HAL_RCC_OscConfig+0x330>)
 80010ba:	2180      	movs	r1, #128	; 0x80
 80010bc:	0249      	lsls	r1, r1, #9
 80010be:	430a      	orrs	r2, r1
 80010c0:	601a      	str	r2, [r3, #0]
 80010c2:	e00b      	b.n	80010dc <HAL_RCC_OscConfig+0xdc>
 80010c4:	4b9a      	ldr	r3, [pc, #616]	; (8001330 <HAL_RCC_OscConfig+0x330>)
 80010c6:	681a      	ldr	r2, [r3, #0]
 80010c8:	4b99      	ldr	r3, [pc, #612]	; (8001330 <HAL_RCC_OscConfig+0x330>)
 80010ca:	499a      	ldr	r1, [pc, #616]	; (8001334 <HAL_RCC_OscConfig+0x334>)
 80010cc:	400a      	ands	r2, r1
 80010ce:	601a      	str	r2, [r3, #0]
 80010d0:	4b97      	ldr	r3, [pc, #604]	; (8001330 <HAL_RCC_OscConfig+0x330>)
 80010d2:	681a      	ldr	r2, [r3, #0]
 80010d4:	4b96      	ldr	r3, [pc, #600]	; (8001330 <HAL_RCC_OscConfig+0x330>)
 80010d6:	4998      	ldr	r1, [pc, #608]	; (8001338 <HAL_RCC_OscConfig+0x338>)
 80010d8:	400a      	ands	r2, r1
 80010da:	601a      	str	r2, [r3, #0]
      

       /* Check the HSE State */
      if(RCC_OscInitStruct->HSEState != RCC_HSE_OFF)
 80010dc:	687b      	ldr	r3, [r7, #4]
 80010de:	685b      	ldr	r3, [r3, #4]
 80010e0:	2b00      	cmp	r3, #0
 80010e2:	d014      	beq.n	800110e <HAL_RCC_OscConfig+0x10e>
      {
        /* Get Start Tick */
        tickstart = HAL_GetTick();
 80010e4:	f7ff fc74 	bl	80009d0 <HAL_GetTick>
 80010e8:	0003      	movs	r3, r0
 80010ea:	61bb      	str	r3, [r7, #24]
        
        /* Wait till HSE is ready */
        while(__HAL_RCC_GET_FLAG(RCC_FLAG_HSERDY) == RESET)
 80010ec:	e008      	b.n	8001100 <HAL_RCC_OscConfig+0x100>
        {
          if((HAL_GetTick() - tickstart ) > HSE_TIMEOUT_VALUE)
 80010ee:	f7ff fc6f 	bl	80009d0 <HAL_GetTick>
 80010f2:	0002      	movs	r2, r0
 80010f4:	69bb      	ldr	r3, [r7, #24]
 80010f6:	1ad3      	subs	r3, r2, r3
 80010f8:	2b64      	cmp	r3, #100	; 0x64
 80010fa:	d901      	bls.n	8001100 <HAL_RCC_OscConfig+0x100>
          {
            return HAL_TIMEOUT;
 80010fc:	2303      	movs	r3, #3
 80010fe:	e28c      	b.n	800161a <HAL_RCC_OscConfig+0x61a>
        while(__HAL_RCC_GET_FLAG(RCC_FLAG_HSERDY) == RESET)
 8001100:	4b8b      	ldr	r3, [pc, #556]	; (8001330 <HAL_RCC_OscConfig+0x330>)
 8001102:	681a      	ldr	r2, [r3, #0]
 8001104:	2380      	movs	r3, #128	; 0x80
 8001106:	029b      	lsls	r3, r3, #10
 8001108:	4013      	ands	r3, r2
 800110a:	d0f0      	beq.n	80010ee <HAL_RCC_OscConfig+0xee>
 800110c:	e015      	b.n	800113a <HAL_RCC_OscConfig+0x13a>
        }
      }
      else
      {
        /* Get Start Tick */
        tickstart = HAL_GetTick();
 800110e:	f7ff fc5f 	bl	80009d0 <HAL_GetTick>
 8001112:	0003      	movs	r3, r0
 8001114:	61bb      	str	r3, [r7, #24]
        
        /* Wait till HSE is disabled */
        while(__HAL_RCC_GET_FLAG(RCC_FLAG_HSERDY) != RESET)
 8001116:	e008      	b.n	800112a <HAL_RCC_OscConfig+0x12a>
        {
           if((HAL_GetTick() - tickstart ) > HSE_TIMEOUT_VALUE)
 8001118:	f7ff fc5a 	bl	80009d0 <HAL_GetTick>
 800111c:	0002      	movs	r2, r0
 800111e:	69bb      	ldr	r3, [r7, #24]
 8001120:	1ad3      	subs	r3, r2, r3
 8001122:	2b64      	cmp	r3, #100	; 0x64
 8001124:	d901      	bls.n	800112a <HAL_RCC_OscConfig+0x12a>
          {
            return HAL_TIMEOUT;
 8001126:	2303      	movs	r3, #3
 8001128:	e277      	b.n	800161a <HAL_RCC_OscConfig+0x61a>
        while(__HAL_RCC_GET_FLAG(RCC_FLAG_HSERDY) != RESET)
 800112a:	4b81      	ldr	r3, [pc, #516]	; (8001330 <HAL_RCC_OscConfig+0x330>)
 800112c:	681a      	ldr	r2, [r3, #0]
 800112e:	2380      	movs	r3, #128	; 0x80
 8001130:	029b      	lsls	r3, r3, #10
 8001132:	4013      	ands	r3, r2
 8001134:	d1f0      	bne.n	8001118 <HAL_RCC_OscConfig+0x118>
 8001136:	e000      	b.n	800113a <HAL_RCC_OscConfig+0x13a>
      if((__HAL_RCC_GET_FLAG(RCC_FLAG_HSERDY) != RESET) && (RCC_OscInitStruct->HSEState == RCC_HSE_OFF))
 8001138:	46c0      	nop			; (mov r8, r8)
        }
      }
    }
  }
  /*----------------------------- HSI Configuration --------------------------*/ 
  if(((RCC_OscInitStruct->OscillatorType) & RCC_OSCILLATORTYPE_HSI) == RCC_OSCILLATORTYPE_HSI)
 800113a:	687b      	ldr	r3, [r7, #4]
 800113c:	681b      	ldr	r3, [r3, #0]
 800113e:	2202      	movs	r2, #2
 8001140:	4013      	ands	r3, r2
 8001142:	d100      	bne.n	8001146 <HAL_RCC_OscConfig+0x146>
 8001144:	e069      	b.n	800121a <HAL_RCC_OscConfig+0x21a>
    /* Check the parameters */
    assert_param(IS_RCC_HSI(RCC_OscInitStruct->HSIState));
    assert_param(IS_RCC_CALIBRATION_VALUE(RCC_OscInitStruct->HSICalibrationValue));
    
    /* Check if HSI is used as system clock or as PLL source when PLL is selected as system clock */ 
    if((__HAL_RCC_GET_SYSCLK_SOURCE() == RCC_SYSCLKSOURCE_STATUS_HSI) 
 8001146:	4b7a      	ldr	r3, [pc, #488]	; (8001330 <HAL_RCC_OscConfig+0x330>)
 8001148:	685b      	ldr	r3, [r3, #4]
 800114a:	220c      	movs	r2, #12
 800114c:	4013      	ands	r3, r2
 800114e:	d00b      	beq.n	8001168 <HAL_RCC_OscConfig+0x168>
       || ((__HAL_RCC_GET_SYSCLK_SOURCE() == RCC_SYSCLKSOURCE_STATUS_PLLCLK) && (__HAL_RCC_GET_PLL_OSCSOURCE() == RCC_PLLSOURCE_HSI)))
 8001150:	4b77      	ldr	r3, [pc, #476]	; (8001330 <HAL_RCC_OscConfig+0x330>)
 8001152:	685b      	ldr	r3, [r3, #4]
 8001154:	220c      	movs	r2, #12
 8001156:	4013      	ands	r3, r2
 8001158:	2b08      	cmp	r3, #8
 800115a:	d11c      	bne.n	8001196 <HAL_RCC_OscConfig+0x196>
 800115c:	4b74      	ldr	r3, [pc, #464]	; (8001330 <HAL_RCC_OscConfig+0x330>)
 800115e:	685a      	ldr	r2, [r3, #4]
 8001160:	2380      	movs	r3, #128	; 0x80
 8001162:	025b      	lsls	r3, r3, #9
 8001164:	4013      	ands	r3, r2
 8001166:	d116      	bne.n	8001196 <HAL_RCC_OscConfig+0x196>
    {
      /* When HSI is used as system clock it will not disabled */
      if((__HAL_RCC_GET_FLAG(RCC_FLAG_HSIRDY) != RESET) && (RCC_OscInitStruct->HSIState != RCC_HSI_ON))
 8001168:	4b71      	ldr	r3, [pc, #452]	; (8001330 <HAL_RCC_OscConfig+0x330>)
 800116a:	681b      	ldr	r3, [r3, #0]
 800116c:	2202      	movs	r2, #2
 800116e:	4013      	ands	r3, r2
 8001170:	d005      	beq.n	800117e <HAL_RCC_OscConfig+0x17e>
 8001172:	687b      	ldr	r3, [r7, #4]
 8001174:	68db      	ldr	r3, [r3, #12]
 8001176:	2b01      	cmp	r3, #1
 8001178:	d001      	beq.n	800117e <HAL_RCC_OscConfig+0x17e>
      {
        return HAL_ERROR;
 800117a:	2301      	movs	r3, #1
 800117c:	e24d      	b.n	800161a <HAL_RCC_OscConfig+0x61a>
      }
      /* Otherwise, just the calibration is allowed */
      else
      {
        /* Adjusts the Internal High Speed oscillator (HSI) calibration value.*/
        __HAL_RCC_HSI_CALIBRATIONVALUE_ADJUST(RCC_OscInitStruct->HSICalibrationValue);
 800117e:	4b6c      	ldr	r3, [pc, #432]	; (8001330 <HAL_RCC_OscConfig+0x330>)
 8001180:	681b      	ldr	r3, [r3, #0]
 8001182:	22f8      	movs	r2, #248	; 0xf8
 8001184:	4393      	bics	r3, r2
 8001186:	0019      	movs	r1, r3
 8001188:	687b      	ldr	r3, [r7, #4]
 800118a:	691b      	ldr	r3, [r3, #16]
 800118c:	00da      	lsls	r2, r3, #3
 800118e:	4b68      	ldr	r3, [pc, #416]	; (8001330 <HAL_RCC_OscConfig+0x330>)
 8001190:	430a      	orrs	r2, r1
 8001192:	601a      	str	r2, [r3, #0]
      if((__HAL_RCC_GET_FLAG(RCC_FLAG_HSIRDY) != RESET) && (RCC_OscInitStruct->HSIState != RCC_HSI_ON))
 8001194:	e041      	b.n	800121a <HAL_RCC_OscConfig+0x21a>
      }
    }
    else
    {
      /* Check the HSI State */
      if(RCC_OscInitStruct->HSIState != RCC_HSI_OFF)
 8001196:	687b      	ldr	r3, [r7, #4]
 8001198:	68db      	ldr	r3, [r3, #12]
 800119a:	2b00      	cmp	r3, #0
 800119c:	d024      	beq.n	80011e8 <HAL_RCC_OscConfig+0x1e8>
      {
       /* Enable the Internal High Speed oscillator (HSI). */
        __HAL_RCC_HSI_ENABLE();
 800119e:	4b64      	ldr	r3, [pc, #400]	; (8001330 <HAL_RCC_OscConfig+0x330>)
 80011a0:	681a      	ldr	r2, [r3, #0]
 80011a2:	4b63      	ldr	r3, [pc, #396]	; (8001330 <HAL_RCC_OscConfig+0x330>)
 80011a4:	2101      	movs	r1, #1
 80011a6:	430a      	orrs	r2, r1
 80011a8:	601a      	str	r2, [r3, #0]
        
        /* Get Start Tick */
        tickstart = HAL_GetTick();
 80011aa:	f7ff fc11 	bl	80009d0 <HAL_GetTick>
 80011ae:	0003      	movs	r3, r0
 80011b0:	61bb      	str	r3, [r7, #24]
        
        /* Wait till HSI is ready */
        while(__HAL_RCC_GET_FLAG(RCC_FLAG_HSIRDY) == RESET)
 80011b2:	e008      	b.n	80011c6 <HAL_RCC_OscConfig+0x1c6>
        {
          if((HAL_GetTick() - tickstart ) > HSI_TIMEOUT_VALUE)
 80011b4:	f7ff fc0c 	bl	80009d0 <HAL_GetTick>
 80011b8:	0002      	movs	r2, r0
 80011ba:	69bb      	ldr	r3, [r7, #24]
 80011bc:	1ad3      	subs	r3, r2, r3
 80011be:	2b02      	cmp	r3, #2
 80011c0:	d901      	bls.n	80011c6 <HAL_RCC_OscConfig+0x1c6>
          {
            return HAL_TIMEOUT;
 80011c2:	2303      	movs	r3, #3
 80011c4:	e229      	b.n	800161a <HAL_RCC_OscConfig+0x61a>
        while(__HAL_RCC_GET_FLAG(RCC_FLAG_HSIRDY) == RESET)
 80011c6:	4b5a      	ldr	r3, [pc, #360]	; (8001330 <HAL_RCC_OscConfig+0x330>)
 80011c8:	681b      	ldr	r3, [r3, #0]
 80011ca:	2202      	movs	r2, #2
 80011cc:	4013      	ands	r3, r2
 80011ce:	d0f1      	beq.n	80011b4 <HAL_RCC_OscConfig+0x1b4>
          }
        }
                
        /* Adjusts the Internal High Speed oscillator (HSI) calibration value.*/
        __HAL_RCC_HSI_CALIBRATIONVALUE_ADJUST(RCC_OscInitStruct->HSICalibrationValue);
 80011d0:	4b57      	ldr	r3, [pc, #348]	; (8001330 <HAL_RCC_OscConfig+0x330>)
 80011d2:	681b      	ldr	r3, [r3, #0]
 80011d4:	22f8      	movs	r2, #248	; 0xf8
 80011d6:	4393      	bics	r3, r2
 80011d8:	0019      	movs	r1, r3
 80011da:	687b      	ldr	r3, [r7, #4]
 80011dc:	691b      	ldr	r3, [r3, #16]
 80011de:	00da      	lsls	r2, r3, #3
 80011e0:	4b53      	ldr	r3, [pc, #332]	; (8001330 <HAL_RCC_OscConfig+0x330>)
 80011e2:	430a      	orrs	r2, r1
 80011e4:	601a      	str	r2, [r3, #0]
 80011e6:	e018      	b.n	800121a <HAL_RCC_OscConfig+0x21a>
      }
      else
      {
        /* Disable the Internal High Speed oscillator (HSI). */
        __HAL_RCC_HSI_DISABLE();
 80011e8:	4b51      	ldr	r3, [pc, #324]	; (8001330 <HAL_RCC_OscConfig+0x330>)
 80011ea:	681a      	ldr	r2, [r3, #0]
 80011ec:	4b50      	ldr	r3, [pc, #320]	; (8001330 <HAL_RCC_OscConfig+0x330>)
 80011ee:	2101      	movs	r1, #1
 80011f0:	438a      	bics	r2, r1
 80011f2:	601a      	str	r2, [r3, #0]
        
        /* Get Start Tick */
        tickstart = HAL_GetTick();
 80011f4:	f7ff fbec 	bl	80009d0 <HAL_GetTick>
 80011f8:	0003      	movs	r3, r0
 80011fa:	61bb      	str	r3, [r7, #24]
        
        /* Wait till HSI is disabled */
        while(__HAL_RCC_GET_FLAG(RCC_FLAG_HSIRDY) != RESET)
 80011fc:	e008      	b.n	8001210 <HAL_RCC_OscConfig+0x210>
        {
          if((HAL_GetTick() - tickstart ) > HSI_TIMEOUT_VALUE)
 80011fe:	f7ff fbe7 	bl	80009d0 <HAL_GetTick>
 8001202:	0002      	movs	r2, r0
 8001204:	69bb      	ldr	r3, [r7, #24]
 8001206:	1ad3      	subs	r3, r2, r3
 8001208:	2b02      	cmp	r3, #2
 800120a:	d901      	bls.n	8001210 <HAL_RCC_OscConfig+0x210>
          {
            return HAL_TIMEOUT;
 800120c:	2303      	movs	r3, #3
 800120e:	e204      	b.n	800161a <HAL_RCC_OscConfig+0x61a>
        while(__HAL_RCC_GET_FLAG(RCC_FLAG_HSIRDY) != RESET)
 8001210:	4b47      	ldr	r3, [pc, #284]	; (8001330 <HAL_RCC_OscConfig+0x330>)
 8001212:	681b      	ldr	r3, [r3, #0]
 8001214:	2202      	movs	r2, #2
 8001216:	4013      	ands	r3, r2
 8001218:	d1f1      	bne.n	80011fe <HAL_RCC_OscConfig+0x1fe>
        }
      }
    }
  }
  /*------------------------------ LSI Configuration -------------------------*/ 
  if(((RCC_OscInitStruct->OscillatorType) & RCC_OSCILLATORTYPE_LSI) == RCC_OSCILLATORTYPE_LSI)
 800121a:	687b      	ldr	r3, [r7, #4]
 800121c:	681b      	ldr	r3, [r3, #0]
 800121e:	2208      	movs	r2, #8
 8001220:	4013      	ands	r3, r2
 8001222:	d036      	beq.n	8001292 <HAL_RCC_OscConfig+0x292>
  {
    /* Check the parameters */
    assert_param(IS_RCC_LSI(RCC_OscInitStruct->LSIState));
    
    /* Check the LSI State */
    if(RCC_OscInitStruct->LSIState != RCC_LSI_OFF)
 8001224:	687b      	ldr	r3, [r7, #4]
 8001226:	69db      	ldr	r3, [r3, #28]
 8001228:	2b00      	cmp	r3, #0
 800122a:	d019      	beq.n	8001260 <HAL_RCC_OscConfig+0x260>
    {
      /* Enable the Internal Low Speed oscillator (LSI). */
      __HAL_RCC_LSI_ENABLE();
 800122c:	4b40      	ldr	r3, [pc, #256]	; (8001330 <HAL_RCC_OscConfig+0x330>)
 800122e:	6a5a      	ldr	r2, [r3, #36]	; 0x24
 8001230:	4b3f      	ldr	r3, [pc, #252]	; (8001330 <HAL_RCC_OscConfig+0x330>)
 8001232:	2101      	movs	r1, #1
 8001234:	430a      	orrs	r2, r1
 8001236:	625a      	str	r2, [r3, #36]	; 0x24
      
      /* Get Start Tick */
      tickstart = HAL_GetTick();
 8001238:	f7ff fbca 	bl	80009d0 <HAL_GetTick>
 800123c:	0003      	movs	r3, r0
 800123e:	61bb      	str	r3, [r7, #24]
      
      /* Wait till LSI is ready */  
      while(__HAL_RCC_GET_FLAG(RCC_FLAG_LSIRDY) == RESET)
 8001240:	e008      	b.n	8001254 <HAL_RCC_OscConfig+0x254>
      {
        if((HAL_GetTick() - tickstart ) > LSI_TIMEOUT_VALUE)
 8001242:	f7ff fbc5 	bl	80009d0 <HAL_GetTick>
 8001246:	0002      	movs	r2, r0
 8001248:	69bb      	ldr	r3, [r7, #24]
 800124a:	1ad3      	subs	r3, r2, r3
 800124c:	2b02      	cmp	r3, #2
 800124e:	d901      	bls.n	8001254 <HAL_RCC_OscConfig+0x254>
        {
          return HAL_TIMEOUT;
 8001250:	2303      	movs	r3, #3
 8001252:	e1e2      	b.n	800161a <HAL_RCC_OscConfig+0x61a>
      while(__HAL_RCC_GET_FLAG(RCC_FLAG_LSIRDY) == RESET)
 8001254:	4b36      	ldr	r3, [pc, #216]	; (8001330 <HAL_RCC_OscConfig+0x330>)
 8001256:	6a5b      	ldr	r3, [r3, #36]	; 0x24
 8001258:	2202      	movs	r2, #2
 800125a:	4013      	ands	r3, r2
 800125c:	d0f1      	beq.n	8001242 <HAL_RCC_OscConfig+0x242>
 800125e:	e018      	b.n	8001292 <HAL_RCC_OscConfig+0x292>
      }
    }
    else
    {
      /* Disable the Internal Low Speed oscillator (LSI). */
      __HAL_RCC_LSI_DISABLE();
 8001260:	4b33      	ldr	r3, [pc, #204]	; (8001330 <HAL_RCC_OscConfig+0x330>)
 8001262:	6a5a      	ldr	r2, [r3, #36]	; 0x24
 8001264:	4b32      	ldr	r3, [pc, #200]	; (8001330 <HAL_RCC_OscConfig+0x330>)
 8001266:	2101      	movs	r1, #1
 8001268:	438a      	bics	r2, r1
 800126a:	625a      	str	r2, [r3, #36]	; 0x24
      
      /* Get Start Tick */
      tickstart = HAL_GetTick();
 800126c:	f7ff fbb0 	bl	80009d0 <HAL_GetTick>
 8001270:	0003      	movs	r3, r0
 8001272:	61bb      	str	r3, [r7, #24]
      
      /* Wait till LSI is disabled */  
      while(__HAL_RCC_GET_FLAG(RCC_FLAG_LSIRDY) != RESET)
 8001274:	e008      	b.n	8001288 <HAL_RCC_OscConfig+0x288>
      {
        if((HAL_GetTick() - tickstart ) > LSI_TIMEOUT_VALUE)
 8001276:	f7ff fbab 	bl	80009d0 <HAL_GetTick>
 800127a:	0002      	movs	r2, r0
 800127c:	69bb      	ldr	r3, [r7, #24]
 800127e:	1ad3      	subs	r3, r2, r3
 8001280:	2b02      	cmp	r3, #2
 8001282:	d901      	bls.n	8001288 <HAL_RCC_OscConfig+0x288>
        {
          return HAL_TIMEOUT;
 8001284:	2303      	movs	r3, #3
 8001286:	e1c8      	b.n	800161a <HAL_RCC_OscConfig+0x61a>
      while(__HAL_RCC_GET_FLAG(RCC_FLAG_LSIRDY) != RESET)
 8001288:	4b29      	ldr	r3, [pc, #164]	; (8001330 <HAL_RCC_OscConfig+0x330>)
 800128a:	6a5b      	ldr	r3, [r3, #36]	; 0x24
 800128c:	2202      	movs	r2, #2
 800128e:	4013      	ands	r3, r2
 8001290:	d1f1      	bne.n	8001276 <HAL_RCC_OscConfig+0x276>
        }
      }
    }
  }
  /*------------------------------ LSE Configuration -------------------------*/ 
  if(((RCC_OscInitStruct->OscillatorType) & RCC_OSCILLATORTYPE_LSE) == RCC_OSCILLATORTYPE_LSE)
 8001292:	687b      	ldr	r3, [r7, #4]
 8001294:	681b      	ldr	r3, [r3, #0]
 8001296:	2204      	movs	r2, #4
 8001298:	4013      	ands	r3, r2
 800129a:	d100      	bne.n	800129e <HAL_RCC_OscConfig+0x29e>
 800129c:	e0b6      	b.n	800140c <HAL_RCC_OscConfig+0x40c>
  {
    FlagStatus       pwrclkchanged = RESET;
 800129e:	231f      	movs	r3, #31
 80012a0:	18fb      	adds	r3, r7, r3
 80012a2:	2200      	movs	r2, #0
 80012a4:	701a      	strb	r2, [r3, #0]
    /* Check the parameters */
    assert_param(IS_RCC_LSE(RCC_OscInitStruct->LSEState));

    /* Update LSE configuration in Backup Domain control register    */
    /* Requires to enable write access to Backup Domain of necessary */
    if(__HAL_RCC_PWR_IS_CLK_DISABLED())
 80012a6:	4b22      	ldr	r3, [pc, #136]	; (8001330 <HAL_RCC_OscConfig+0x330>)
 80012a8:	69da      	ldr	r2, [r3, #28]
 80012aa:	2380      	movs	r3, #128	; 0x80
 80012ac:	055b      	lsls	r3, r3, #21
 80012ae:	4013      	ands	r3, r2
 80012b0:	d111      	bne.n	80012d6 <HAL_RCC_OscConfig+0x2d6>
    {
      __HAL_RCC_PWR_CLK_ENABLE();
 80012b2:	4b1f      	ldr	r3, [pc, #124]	; (8001330 <HAL_RCC_OscConfig+0x330>)
 80012b4:	69da      	ldr	r2, [r3, #28]
 80012b6:	4b1e      	ldr	r3, [pc, #120]	; (8001330 <HAL_RCC_OscConfig+0x330>)
 80012b8:	2180      	movs	r1, #128	; 0x80
 80012ba:	0549      	lsls	r1, r1, #21
 80012bc:	430a      	orrs	r2, r1
 80012be:	61da      	str	r2, [r3, #28]
 80012c0:	4b1b      	ldr	r3, [pc, #108]	; (8001330 <HAL_RCC_OscConfig+0x330>)
 80012c2:	69da      	ldr	r2, [r3, #28]
 80012c4:	2380      	movs	r3, #128	; 0x80
 80012c6:	055b      	lsls	r3, r3, #21
 80012c8:	4013      	ands	r3, r2
 80012ca:	60fb      	str	r3, [r7, #12]
 80012cc:	68fb      	ldr	r3, [r7, #12]
      pwrclkchanged = SET;
 80012ce:	231f      	movs	r3, #31
 80012d0:	18fb      	adds	r3, r7, r3
 80012d2:	2201      	movs	r2, #1
 80012d4:	701a      	strb	r2, [r3, #0]
    }
    
    if(HAL_IS_BIT_CLR(PWR->CR, PWR_CR_DBP))
 80012d6:	4b19      	ldr	r3, [pc, #100]	; (800133c <HAL_RCC_OscConfig+0x33c>)
 80012d8:	681a      	ldr	r2, [r3, #0]
 80012da:	2380      	movs	r3, #128	; 0x80
 80012dc:	005b      	lsls	r3, r3, #1
 80012de:	4013      	ands	r3, r2
 80012e0:	d11a      	bne.n	8001318 <HAL_RCC_OscConfig+0x318>
    {
      /* Enable write access to Backup domain */
      SET_BIT(PWR->CR, PWR_CR_DBP);
 80012e2:	4b16      	ldr	r3, [pc, #88]	; (800133c <HAL_RCC_OscConfig+0x33c>)
 80012e4:	681a      	ldr	r2, [r3, #0]
 80012e6:	4b15      	ldr	r3, [pc, #84]	; (800133c <HAL_RCC_OscConfig+0x33c>)
 80012e8:	2180      	movs	r1, #128	; 0x80
 80012ea:	0049      	lsls	r1, r1, #1
 80012ec:	430a      	orrs	r2, r1
 80012ee:	601a      	str	r2, [r3, #0]
      
      /* Wait for Backup domain Write protection disable */
      tickstart = HAL_GetTick();
 80012f0:	f7ff fb6e 	bl	80009d0 <HAL_GetTick>
 80012f4:	0003      	movs	r3, r0
 80012f6:	61bb      	str	r3, [r7, #24]

      while(HAL_IS_BIT_CLR(PWR->CR, PWR_CR_DBP))
 80012f8:	e008      	b.n	800130c <HAL_RCC_OscConfig+0x30c>
      {
        if((HAL_GetTick() - tickstart) > RCC_DBP_TIMEOUT_VALUE)
 80012fa:	f7ff fb69 	bl	80009d0 <HAL_GetTick>
 80012fe:	0002      	movs	r2, r0
 8001300:	69bb      	ldr	r3, [r7, #24]
 8001302:	1ad3      	subs	r3, r2, r3
 8001304:	2b64      	cmp	r3, #100	; 0x64
 8001306:	d901      	bls.n	800130c <HAL_RCC_OscConfig+0x30c>
        {
          return HAL_TIMEOUT;
 8001308:	2303      	movs	r3, #3
 800130a:	e186      	b.n	800161a <HAL_RCC_OscConfig+0x61a>
      while(HAL_IS_BIT_CLR(PWR->CR, PWR_CR_DBP))
 800130c:	4b0b      	ldr	r3, [pc, #44]	; (800133c <HAL_RCC_OscConfig+0x33c>)
 800130e:	681a      	ldr	r2, [r3, #0]
 8001310:	2380      	movs	r3, #128	; 0x80
 8001312:	005b      	lsls	r3, r3, #1
 8001314:	4013      	ands	r3, r2
 8001316:	d0f0      	beq.n	80012fa <HAL_RCC_OscConfig+0x2fa>
        }
      }
    }

    /* Set the new LSE configuration -----------------------------------------*/
    __HAL_RCC_LSE_CONFIG(RCC_OscInitStruct->LSEState);
 8001318:	687b      	ldr	r3, [r7, #4]
 800131a:	689b      	ldr	r3, [r3, #8]
 800131c:	2b01      	cmp	r3, #1
 800131e:	d10f      	bne.n	8001340 <HAL_RCC_OscConfig+0x340>
 8001320:	4b03      	ldr	r3, [pc, #12]	; (8001330 <HAL_RCC_OscConfig+0x330>)
 8001322:	6a1a      	ldr	r2, [r3, #32]
 8001324:	4b02      	ldr	r3, [pc, #8]	; (8001330 <HAL_RCC_OscConfig+0x330>)
 8001326:	2101      	movs	r1, #1
 8001328:	430a      	orrs	r2, r1
 800132a:	621a      	str	r2, [r3, #32]
 800132c:	e036      	b.n	800139c <HAL_RCC_OscConfig+0x39c>
 800132e:	46c0      	nop			; (mov r8, r8)
 8001330:	40021000 	.word	0x40021000
 8001334:	fffeffff 	.word	0xfffeffff
 8001338:	fffbffff 	.word	0xfffbffff
 800133c:	40007000 	.word	0x40007000
 8001340:	687b      	ldr	r3, [r7, #4]
 8001342:	689b      	ldr	r3, [r3, #8]
 8001344:	2b00      	cmp	r3, #0
 8001346:	d10c      	bne.n	8001362 <HAL_RCC_OscConfig+0x362>
 8001348:	4bb6      	ldr	r3, [pc, #728]	; (8001624 <HAL_RCC_OscConfig+0x624>)
 800134a:	6a1a      	ldr	r2, [r3, #32]
 800134c:	4bb5      	ldr	r3, [pc, #724]	; (8001624 <HAL_RCC_OscConfig+0x624>)
 800134e:	2101      	movs	r1, #1
 8001350:	438a      	bics	r2, r1
 8001352:	621a      	str	r2, [r3, #32]
 8001354:	4bb3      	ldr	r3, [pc, #716]	; (8001624 <HAL_RCC_OscConfig+0x624>)
 8001356:	6a1a      	ldr	r2, [r3, #32]
 8001358:	4bb2      	ldr	r3, [pc, #712]	; (8001624 <HAL_RCC_OscConfig+0x624>)
 800135a:	2104      	movs	r1, #4
 800135c:	438a      	bics	r2, r1
 800135e:	621a      	str	r2, [r3, #32]
 8001360:	e01c      	b.n	800139c <HAL_RCC_OscConfig+0x39c>
 8001362:	687b      	ldr	r3, [r7, #4]
 8001364:	689b      	ldr	r3, [r3, #8]
 8001366:	2b05      	cmp	r3, #5
 8001368:	d10c      	bne.n	8001384 <HAL_RCC_OscConfig+0x384>
 800136a:	4bae      	ldr	r3, [pc, #696]	; (8001624 <HAL_RCC_OscConfig+0x624>)
 800136c:	6a1a      	ldr	r2, [r3, #32]
 800136e:	4bad      	ldr	r3, [pc, #692]	; (8001624 <HAL_RCC_OscConfig+0x624>)
 8001370:	2104      	movs	r1, #4
 8001372:	430a      	orrs	r2, r1
 8001374:	621a      	str	r2, [r3, #32]
 8001376:	4bab      	ldr	r3, [pc, #684]	; (8001624 <HAL_RCC_OscConfig+0x624>)
 8001378:	6a1a      	ldr	r2, [r3, #32]
 800137a:	4baa      	ldr	r3, [pc, #680]	; (8001624 <HAL_RCC_OscConfig+0x624>)
 800137c:	2101      	movs	r1, #1
 800137e:	430a      	orrs	r2, r1
 8001380:	621a      	str	r2, [r3, #32]
 8001382:	e00b      	b.n	800139c <HAL_RCC_OscConfig+0x39c>
 8001384:	4ba7      	ldr	r3, [pc, #668]	; (8001624 <HAL_RCC_OscConfig+0x624>)
 8001386:	6a1a      	ldr	r2, [r3, #32]
 8001388:	4ba6      	ldr	r3, [pc, #664]	; (8001624 <HAL_RCC_OscConfig+0x624>)
 800138a:	2101      	movs	r1, #1
 800138c:	438a      	bics	r2, r1
 800138e:	621a      	str	r2, [r3, #32]
 8001390:	4ba4      	ldr	r3, [pc, #656]	; (8001624 <HAL_RCC_OscConfig+0x624>)
 8001392:	6a1a      	ldr	r2, [r3, #32]
 8001394:	4ba3      	ldr	r3, [pc, #652]	; (8001624 <HAL_RCC_OscConfig+0x624>)
 8001396:	2104      	movs	r1, #4
 8001398:	438a      	bics	r2, r1
 800139a:	621a      	str	r2, [r3, #32]
    /* Check the LSE State */
    if(RCC_OscInitStruct->LSEState != RCC_LSE_OFF)
 800139c:	687b      	ldr	r3, [r7, #4]
 800139e:	689b      	ldr	r3, [r3, #8]
 80013a0:	2b00      	cmp	r3, #0
 80013a2:	d014      	beq.n	80013ce <HAL_RCC_OscConfig+0x3ce>
    {
      /* Get Start Tick */
      tickstart = HAL_GetTick();
 80013a4:	f7ff fb14 	bl	80009d0 <HAL_GetTick>
 80013a8:	0003      	movs	r3, r0
 80013aa:	61bb      	str	r3, [r7, #24]
      
      /* Wait till LSE is ready */  
      while(__HAL_RCC_GET_FLAG(RCC_FLAG_LSERDY) == RESET)
 80013ac:	e009      	b.n	80013c2 <HAL_RCC_OscConfig+0x3c2>
      {
        if((HAL_GetTick() - tickstart ) > RCC_LSE_TIMEOUT_VALUE)
 80013ae:	f7ff fb0f 	bl	80009d0 <HAL_GetTick>
 80013b2:	0002      	movs	r2, r0
 80013b4:	69bb      	ldr	r3, [r7, #24]
 80013b6:	1ad3      	subs	r3, r2, r3
 80013b8:	4a9b      	ldr	r2, [pc, #620]	; (8001628 <HAL_RCC_OscConfig+0x628>)
 80013ba:	4293      	cmp	r3, r2
 80013bc:	d901      	bls.n	80013c2 <HAL_RCC_OscConfig+0x3c2>
        {
          return HAL_TIMEOUT;
 80013be:	2303      	movs	r3, #3
 80013c0:	e12b      	b.n	800161a <HAL_RCC_OscConfig+0x61a>
      while(__HAL_RCC_GET_FLAG(RCC_FLAG_LSERDY) == RESET)
 80013c2:	4b98      	ldr	r3, [pc, #608]	; (8001624 <HAL_RCC_OscConfig+0x624>)
 80013c4:	6a1b      	ldr	r3, [r3, #32]
 80013c6:	2202      	movs	r2, #2
 80013c8:	4013      	ands	r3, r2
 80013ca:	d0f0      	beq.n	80013ae <HAL_RCC_OscConfig+0x3ae>
 80013cc:	e013      	b.n	80013f6 <HAL_RCC_OscConfig+0x3f6>
      }
    }
    else
    {
      /* Get Start Tick */
      tickstart = HAL_GetTick();
 80013ce:	f7ff faff 	bl	80009d0 <HAL_GetTick>
 80013d2:	0003      	movs	r3, r0
 80013d4:	61bb      	str	r3, [r7, #24]
      
      /* Wait till LSE is disabled */  
      while(__HAL_RCC_GET_FLAG(RCC_FLAG_LSERDY) != RESET)
 80013d6:	e009      	b.n	80013ec <HAL_RCC_OscConfig+0x3ec>
      {
        if((HAL_GetTick() - tickstart ) > RCC_LSE_TIMEOUT_VALUE)
 80013d8:	f7ff fafa 	bl	80009d0 <HAL_GetTick>
 80013dc:	0002      	movs	r2, r0
 80013de:	69bb      	ldr	r3, [r7, #24]
 80013e0:	1ad3      	subs	r3, r2, r3
 80013e2:	4a91      	ldr	r2, [pc, #580]	; (8001628 <HAL_RCC_OscConfig+0x628>)
 80013e4:	4293      	cmp	r3, r2
 80013e6:	d901      	bls.n	80013ec <HAL_RCC_OscConfig+0x3ec>
        {
          return HAL_TIMEOUT;
 80013e8:	2303      	movs	r3, #3
 80013ea:	e116      	b.n	800161a <HAL_RCC_OscConfig+0x61a>
      while(__HAL_RCC_GET_FLAG(RCC_FLAG_LSERDY) != RESET)
 80013ec:	4b8d      	ldr	r3, [pc, #564]	; (8001624 <HAL_RCC_OscConfig+0x624>)
 80013ee:	6a1b      	ldr	r3, [r3, #32]
 80013f0:	2202      	movs	r2, #2
 80013f2:	4013      	ands	r3, r2
 80013f4:	d1f0      	bne.n	80013d8 <HAL_RCC_OscConfig+0x3d8>
        }
      }
    }

    /* Require to disable power clock if necessary */
    if(pwrclkchanged == SET)
 80013f6:	231f      	movs	r3, #31
 80013f8:	18fb      	adds	r3, r7, r3
 80013fa:	781b      	ldrb	r3, [r3, #0]
 80013fc:	2b01      	cmp	r3, #1
 80013fe:	d105      	bne.n	800140c <HAL_RCC_OscConfig+0x40c>
    {
      __HAL_RCC_PWR_CLK_DISABLE();
 8001400:	4b88      	ldr	r3, [pc, #544]	; (8001624 <HAL_RCC_OscConfig+0x624>)
 8001402:	69da      	ldr	r2, [r3, #28]
 8001404:	4b87      	ldr	r3, [pc, #540]	; (8001624 <HAL_RCC_OscConfig+0x624>)
 8001406:	4989      	ldr	r1, [pc, #548]	; (800162c <HAL_RCC_OscConfig+0x62c>)
 8001408:	400a      	ands	r2, r1
 800140a:	61da      	str	r2, [r3, #28]
    }
  }

  /*----------------------------- HSI14 Configuration --------------------------*/
  if(((RCC_OscInitStruct->OscillatorType) & RCC_OSCILLATORTYPE_HSI14) == RCC_OSCILLATORTYPE_HSI14)
 800140c:	687b      	ldr	r3, [r7, #4]
 800140e:	681b      	ldr	r3, [r3, #0]
 8001410:	2210      	movs	r2, #16
 8001412:	4013      	ands	r3, r2
 8001414:	d063      	beq.n	80014de <HAL_RCC_OscConfig+0x4de>
    /* Check the parameters */
    assert_param(IS_RCC_HSI14(RCC_OscInitStruct->HSI14State));
    assert_param(IS_RCC_CALIBRATION_VALUE(RCC_OscInitStruct->HSI14CalibrationValue));

    /* Check the HSI14 State */
    if(RCC_OscInitStruct->HSI14State == RCC_HSI14_ON)
 8001416:	687b      	ldr	r3, [r7, #4]
 8001418:	695b      	ldr	r3, [r3, #20]
 800141a:	2b01      	cmp	r3, #1
 800141c:	d12a      	bne.n	8001474 <HAL_RCC_OscConfig+0x474>
    {
      /* Disable ADC control of the Internal High Speed oscillator HSI14 */
      __HAL_RCC_HSI14ADC_DISABLE();
 800141e:	4b81      	ldr	r3, [pc, #516]	; (8001624 <HAL_RCC_OscConfig+0x624>)
 8001420:	6b5a      	ldr	r2, [r3, #52]	; 0x34
 8001422:	4b80      	ldr	r3, [pc, #512]	; (8001624 <HAL_RCC_OscConfig+0x624>)
 8001424:	2104      	movs	r1, #4
 8001426:	430a      	orrs	r2, r1
 8001428:	635a      	str	r2, [r3, #52]	; 0x34

      /* Enable the Internal High Speed oscillator (HSI). */
      __HAL_RCC_HSI14_ENABLE();
 800142a:	4b7e      	ldr	r3, [pc, #504]	; (8001624 <HAL_RCC_OscConfig+0x624>)
 800142c:	6b5a      	ldr	r2, [r3, #52]	; 0x34
 800142e:	4b7d      	ldr	r3, [pc, #500]	; (8001624 <HAL_RCC_OscConfig+0x624>)
 8001430:	2101      	movs	r1, #1
 8001432:	430a      	orrs	r2, r1
 8001434:	635a      	str	r2, [r3, #52]	; 0x34

      /* Get Start Tick */
      tickstart = HAL_GetTick();
 8001436:	f7ff facb 	bl	80009d0 <HAL_GetTick>
 800143a:	0003      	movs	r3, r0
 800143c:	61bb      	str	r3, [r7, #24]
      
      /* Wait till HSI is ready */  
      while(__HAL_RCC_GET_FLAG(RCC_FLAG_HSI14RDY) == RESET)
 800143e:	e008      	b.n	8001452 <HAL_RCC_OscConfig+0x452>
      {
        if((HAL_GetTick() - tickstart) > HSI14_TIMEOUT_VALUE)
 8001440:	f7ff fac6 	bl	80009d0 <HAL_GetTick>
 8001444:	0002      	movs	r2, r0
 8001446:	69bb      	ldr	r3, [r7, #24]
 8001448:	1ad3      	subs	r3, r2, r3
 800144a:	2b02      	cmp	r3, #2
 800144c:	d901      	bls.n	8001452 <HAL_RCC_OscConfig+0x452>
        {
          return HAL_TIMEOUT;
 800144e:	2303      	movs	r3, #3
 8001450:	e0e3      	b.n	800161a <HAL_RCC_OscConfig+0x61a>
      while(__HAL_RCC_GET_FLAG(RCC_FLAG_HSI14RDY) == RESET)
 8001452:	4b74      	ldr	r3, [pc, #464]	; (8001624 <HAL_RCC_OscConfig+0x624>)
 8001454:	6b5b      	ldr	r3, [r3, #52]	; 0x34
 8001456:	2202      	movs	r2, #2
 8001458:	4013      	ands	r3, r2
 800145a:	d0f1      	beq.n	8001440 <HAL_RCC_OscConfig+0x440>
        }      
      } 

      /* Adjusts the Internal High Speed oscillator 14Mhz (HSI14) calibration value. */
      __HAL_RCC_HSI14_CALIBRATIONVALUE_ADJUST(RCC_OscInitStruct->HSI14CalibrationValue);
 800145c:	4b71      	ldr	r3, [pc, #452]	; (8001624 <HAL_RCC_OscConfig+0x624>)
 800145e:	6b5b      	ldr	r3, [r3, #52]	; 0x34
 8001460:	22f8      	movs	r2, #248	; 0xf8
 8001462:	4393      	bics	r3, r2
 8001464:	0019      	movs	r1, r3
 8001466:	687b      	ldr	r3, [r7, #4]
 8001468:	699b      	ldr	r3, [r3, #24]
 800146a:	00da      	lsls	r2, r3, #3
 800146c:	4b6d      	ldr	r3, [pc, #436]	; (8001624 <HAL_RCC_OscConfig+0x624>)
 800146e:	430a      	orrs	r2, r1
 8001470:	635a      	str	r2, [r3, #52]	; 0x34
 8001472:	e034      	b.n	80014de <HAL_RCC_OscConfig+0x4de>
    }
    else if(RCC_OscInitStruct->HSI14State == RCC_HSI14_ADC_CONTROL)
 8001474:	687b      	ldr	r3, [r7, #4]
 8001476:	695b      	ldr	r3, [r3, #20]
 8001478:	3305      	adds	r3, #5
 800147a:	d111      	bne.n	80014a0 <HAL_RCC_OscConfig+0x4a0>
    {
      /* Enable ADC control of the Internal High Speed oscillator HSI14 */
      __HAL_RCC_HSI14ADC_ENABLE();
 800147c:	4b69      	ldr	r3, [pc, #420]	; (8001624 <HAL_RCC_OscConfig+0x624>)
 800147e:	6b5a      	ldr	r2, [r3, #52]	; 0x34
 8001480:	4b68      	ldr	r3, [pc, #416]	; (8001624 <HAL_RCC_OscConfig+0x624>)
 8001482:	2104      	movs	r1, #4
 8001484:	438a      	bics	r2, r1
 8001486:	635a      	str	r2, [r3, #52]	; 0x34

      /* Adjusts the Internal High Speed oscillator 14Mhz (HSI14) calibration value. */
      __HAL_RCC_HSI14_CALIBRATIONVALUE_ADJUST(RCC_OscInitStruct->HSI14CalibrationValue);
 8001488:	4b66      	ldr	r3, [pc, #408]	; (8001624 <HAL_RCC_OscConfig+0x624>)
 800148a:	6b5b      	ldr	r3, [r3, #52]	; 0x34
 800148c:	22f8      	movs	r2, #248	; 0xf8
 800148e:	4393      	bics	r3, r2
 8001490:	0019      	movs	r1, r3
 8001492:	687b      	ldr	r3, [r7, #4]
 8001494:	699b      	ldr	r3, [r3, #24]
 8001496:	00da      	lsls	r2, r3, #3
 8001498:	4b62      	ldr	r3, [pc, #392]	; (8001624 <HAL_RCC_OscConfig+0x624>)
 800149a:	430a      	orrs	r2, r1
 800149c:	635a      	str	r2, [r3, #52]	; 0x34
 800149e:	e01e      	b.n	80014de <HAL_RCC_OscConfig+0x4de>
    }
    else
    {
      /* Disable ADC control of the Internal High Speed oscillator HSI14 */
      __HAL_RCC_HSI14ADC_DISABLE();
 80014a0:	4b60      	ldr	r3, [pc, #384]	; (8001624 <HAL_RCC_OscConfig+0x624>)
 80014a2:	6b5a      	ldr	r2, [r3, #52]	; 0x34
 80014a4:	4b5f      	ldr	r3, [pc, #380]	; (8001624 <HAL_RCC_OscConfig+0x624>)
 80014a6:	2104      	movs	r1, #4
 80014a8:	430a      	orrs	r2, r1
 80014aa:	635a      	str	r2, [r3, #52]	; 0x34

      /* Disable the Internal High Speed oscillator (HSI). */
      __HAL_RCC_HSI14_DISABLE();
 80014ac:	4b5d      	ldr	r3, [pc, #372]	; (8001624 <HAL_RCC_OscConfig+0x624>)
 80014ae:	6b5a      	ldr	r2, [r3, #52]	; 0x34
 80014b0:	4b5c      	ldr	r3, [pc, #368]	; (8001624 <HAL_RCC_OscConfig+0x624>)
 80014b2:	2101      	movs	r1, #1
 80014b4:	438a      	bics	r2, r1
 80014b6:	635a      	str	r2, [r3, #52]	; 0x34

      /* Get Start Tick */
      tickstart = HAL_GetTick();
 80014b8:	f7ff fa8a 	bl	80009d0 <HAL_GetTick>
 80014bc:	0003      	movs	r3, r0
 80014be:	61bb      	str	r3, [r7, #24]
      
      /* Wait till HSI is ready */  
      while(__HAL_RCC_GET_FLAG(RCC_FLAG_HSI14RDY) != RESET)
 80014c0:	e008      	b.n	80014d4 <HAL_RCC_OscConfig+0x4d4>
      {
        if((HAL_GetTick() - tickstart) > HSI14_TIMEOUT_VALUE)
 80014c2:	f7ff fa85 	bl	80009d0 <HAL_GetTick>
 80014c6:	0002      	movs	r2, r0
 80014c8:	69bb      	ldr	r3, [r7, #24]
 80014ca:	1ad3      	subs	r3, r2, r3
 80014cc:	2b02      	cmp	r3, #2
 80014ce:	d901      	bls.n	80014d4 <HAL_RCC_OscConfig+0x4d4>
        {
          return HAL_TIMEOUT;
 80014d0:	2303      	movs	r3, #3
 80014d2:	e0a2      	b.n	800161a <HAL_RCC_OscConfig+0x61a>
      while(__HAL_RCC_GET_FLAG(RCC_FLAG_HSI14RDY) != RESET)
 80014d4:	4b53      	ldr	r3, [pc, #332]	; (8001624 <HAL_RCC_OscConfig+0x624>)
 80014d6:	6b5b      	ldr	r3, [r3, #52]	; 0x34
 80014d8:	2202      	movs	r2, #2
 80014da:	4013      	ands	r3, r2
 80014dc:	d1f1      	bne.n	80014c2 <HAL_RCC_OscConfig+0x4c2>
#endif /* RCC_HSI48_SUPPORT */
       
  /*-------------------------------- PLL Configuration -----------------------*/
  /* Check the parameters */
  assert_param(IS_RCC_PLL(RCC_OscInitStruct->PLL.PLLState));
  if ((RCC_OscInitStruct->PLL.PLLState) != RCC_PLL_NONE)
 80014de:	687b      	ldr	r3, [r7, #4]
 80014e0:	6a1b      	ldr	r3, [r3, #32]
 80014e2:	2b00      	cmp	r3, #0
 80014e4:	d100      	bne.n	80014e8 <HAL_RCC_OscConfig+0x4e8>
 80014e6:	e097      	b.n	8001618 <HAL_RCC_OscConfig+0x618>
  {
    /* Check if the PLL is used as system clock or not */
    if(__HAL_RCC_GET_SYSCLK_SOURCE() != RCC_SYSCLKSOURCE_STATUS_PLLCLK)
 80014e8:	4b4e      	ldr	r3, [pc, #312]	; (8001624 <HAL_RCC_OscConfig+0x624>)
 80014ea:	685b      	ldr	r3, [r3, #4]
 80014ec:	220c      	movs	r2, #12
 80014ee:	4013      	ands	r3, r2
 80014f0:	2b08      	cmp	r3, #8
 80014f2:	d100      	bne.n	80014f6 <HAL_RCC_OscConfig+0x4f6>
 80014f4:	e06b      	b.n	80015ce <HAL_RCC_OscConfig+0x5ce>
    { 
      if((RCC_OscInitStruct->PLL.PLLState) == RCC_PLL_ON)
 80014f6:	687b      	ldr	r3, [r7, #4]
 80014f8:	6a1b      	ldr	r3, [r3, #32]
 80014fa:	2b02      	cmp	r3, #2
 80014fc:	d14c      	bne.n	8001598 <HAL_RCC_OscConfig+0x598>
        assert_param(IS_RCC_PLLSOURCE(RCC_OscInitStruct->PLL.PLLSource));
        assert_param(IS_RCC_PLL_MUL(RCC_OscInitStruct->PLL.PLLMUL));
        assert_param(IS_RCC_PREDIV(RCC_OscInitStruct->PLL.PREDIV));
  
        /* Disable the main PLL. */
        __HAL_RCC_PLL_DISABLE();
 80014fe:	4b49      	ldr	r3, [pc, #292]	; (8001624 <HAL_RCC_OscConfig+0x624>)
 8001500:	681a      	ldr	r2, [r3, #0]
 8001502:	4b48      	ldr	r3, [pc, #288]	; (8001624 <HAL_RCC_OscConfig+0x624>)
 8001504:	494a      	ldr	r1, [pc, #296]	; (8001630 <HAL_RCC_OscConfig+0x630>)
 8001506:	400a      	ands	r2, r1
 8001508:	601a      	str	r2, [r3, #0]
        
        /* Get Start Tick */
        tickstart = HAL_GetTick();
 800150a:	f7ff fa61 	bl	80009d0 <HAL_GetTick>
 800150e:	0003      	movs	r3, r0
 8001510:	61bb      	str	r3, [r7, #24]
        
        /* Wait till PLL is disabled */
        while(__HAL_RCC_GET_FLAG(RCC_FLAG_PLLRDY)  != RESET)
 8001512:	e008      	b.n	8001526 <HAL_RCC_OscConfig+0x526>
        {
          if((HAL_GetTick() - tickstart ) > PLL_TIMEOUT_VALUE)
 8001514:	f7ff fa5c 	bl	80009d0 <HAL_GetTick>
 8001518:	0002      	movs	r2, r0
 800151a:	69bb      	ldr	r3, [r7, #24]
 800151c:	1ad3      	subs	r3, r2, r3
 800151e:	2b02      	cmp	r3, #2
 8001520:	d901      	bls.n	8001526 <HAL_RCC_OscConfig+0x526>
          {
            return HAL_TIMEOUT;
 8001522:	2303      	movs	r3, #3
 8001524:	e079      	b.n	800161a <HAL_RCC_OscConfig+0x61a>
        while(__HAL_RCC_GET_FLAG(RCC_FLAG_PLLRDY)  != RESET)
 8001526:	4b3f      	ldr	r3, [pc, #252]	; (8001624 <HAL_RCC_OscConfig+0x624>)
 8001528:	681a      	ldr	r2, [r3, #0]
 800152a:	2380      	movs	r3, #128	; 0x80
 800152c:	049b      	lsls	r3, r3, #18
 800152e:	4013      	ands	r3, r2
 8001530:	d1f0      	bne.n	8001514 <HAL_RCC_OscConfig+0x514>
          }
        }

        /* Configure the main PLL clock source, predivider and multiplication factor. */
        __HAL_RCC_PLL_CONFIG(RCC_OscInitStruct->PLL.PLLSource,
 8001532:	4b3c      	ldr	r3, [pc, #240]	; (8001624 <HAL_RCC_OscConfig+0x624>)
 8001534:	6adb      	ldr	r3, [r3, #44]	; 0x2c
 8001536:	220f      	movs	r2, #15
 8001538:	4393      	bics	r3, r2
 800153a:	0019      	movs	r1, r3
 800153c:	687b      	ldr	r3, [r7, #4]
 800153e:	6ada      	ldr	r2, [r3, #44]	; 0x2c
 8001540:	4b38      	ldr	r3, [pc, #224]	; (8001624 <HAL_RCC_OscConfig+0x624>)
 8001542:	430a      	orrs	r2, r1
 8001544:	62da      	str	r2, [r3, #44]	; 0x2c
 8001546:	4b37      	ldr	r3, [pc, #220]	; (8001624 <HAL_RCC_OscConfig+0x624>)
 8001548:	685b      	ldr	r3, [r3, #4]
 800154a:	4a3a      	ldr	r2, [pc, #232]	; (8001634 <HAL_RCC_OscConfig+0x634>)
 800154c:	4013      	ands	r3, r2
 800154e:	0019      	movs	r1, r3
 8001550:	687b      	ldr	r3, [r7, #4]
 8001552:	6a9a      	ldr	r2, [r3, #40]	; 0x28
 8001554:	687b      	ldr	r3, [r7, #4]
 8001556:	6a5b      	ldr	r3, [r3, #36]	; 0x24
 8001558:	431a      	orrs	r2, r3
 800155a:	4b32      	ldr	r3, [pc, #200]	; (8001624 <HAL_RCC_OscConfig+0x624>)
 800155c:	430a      	orrs	r2, r1
 800155e:	605a      	str	r2, [r3, #4]
                             RCC_OscInitStruct->PLL.PREDIV,
                             RCC_OscInitStruct->PLL.PLLMUL);
        /* Enable the main PLL. */
        __HAL_RCC_PLL_ENABLE();
 8001560:	4b30      	ldr	r3, [pc, #192]	; (8001624 <HAL_RCC_OscConfig+0x624>)
 8001562:	681a      	ldr	r2, [r3, #0]
 8001564:	4b2f      	ldr	r3, [pc, #188]	; (8001624 <HAL_RCC_OscConfig+0x624>)
 8001566:	2180      	movs	r1, #128	; 0x80
 8001568:	0449      	lsls	r1, r1, #17
 800156a:	430a      	orrs	r2, r1
 800156c:	601a      	str	r2, [r3, #0]
        
        /* Get Start Tick */
        tickstart = HAL_GetTick();
 800156e:	f7ff fa2f 	bl	80009d0 <HAL_GetTick>
 8001572:	0003      	movs	r3, r0
 8001574:	61bb      	str	r3, [r7, #24]
        
        /* Wait till PLL is ready */
        while(__HAL_RCC_GET_FLAG(RCC_FLAG_PLLRDY)  == RESET)
 8001576:	e008      	b.n	800158a <HAL_RCC_OscConfig+0x58a>
        {
          if((HAL_GetTick() - tickstart ) > PLL_TIMEOUT_VALUE)
 8001578:	f7ff fa2a 	bl	80009d0 <HAL_GetTick>
 800157c:	0002      	movs	r2, r0
 800157e:	69bb      	ldr	r3, [r7, #24]
 8001580:	1ad3      	subs	r3, r2, r3
 8001582:	2b02      	cmp	r3, #2
 8001584:	d901      	bls.n	800158a <HAL_RCC_OscConfig+0x58a>
          {
            return HAL_TIMEOUT;
 8001586:	2303      	movs	r3, #3
 8001588:	e047      	b.n	800161a <HAL_RCC_OscConfig+0x61a>
        while(__HAL_RCC_GET_FLAG(RCC_FLAG_PLLRDY)  == RESET)
 800158a:	4b26      	ldr	r3, [pc, #152]	; (8001624 <HAL_RCC_OscConfig+0x624>)
 800158c:	681a      	ldr	r2, [r3, #0]
 800158e:	2380      	movs	r3, #128	; 0x80
 8001590:	049b      	lsls	r3, r3, #18
 8001592:	4013      	ands	r3, r2
 8001594:	d0f0      	beq.n	8001578 <HAL_RCC_OscConfig+0x578>
 8001596:	e03f      	b.n	8001618 <HAL_RCC_OscConfig+0x618>
        }
      }
      else
      {
        /* Disable the main PLL. */
        __HAL_RCC_PLL_DISABLE();
 8001598:	4b22      	ldr	r3, [pc, #136]	; (8001624 <HAL_RCC_OscConfig+0x624>)
 800159a:	681a      	ldr	r2, [r3, #0]
 800159c:	4b21      	ldr	r3, [pc, #132]	; (8001624 <HAL_RCC_OscConfig+0x624>)
 800159e:	4924      	ldr	r1, [pc, #144]	; (8001630 <HAL_RCC_OscConfig+0x630>)
 80015a0:	400a      	ands	r2, r1
 80015a2:	601a      	str	r2, [r3, #0]
 
        /* Get Start Tick */
        tickstart = HAL_GetTick();
 80015a4:	f7ff fa14 	bl	80009d0 <HAL_GetTick>
 80015a8:	0003      	movs	r3, r0
 80015aa:	61bb      	str	r3, [r7, #24]
        
        /* Wait till PLL is disabled */  
        while(__HAL_RCC_GET_FLAG(RCC_FLAG_PLLRDY)  != RESET)
 80015ac:	e008      	b.n	80015c0 <HAL_RCC_OscConfig+0x5c0>
        {
          if((HAL_GetTick() - tickstart ) > PLL_TIMEOUT_VALUE)
 80015ae:	f7ff fa0f 	bl	80009d0 <HAL_GetTick>
 80015b2:	0002      	movs	r2, r0
 80015b4:	69bb      	ldr	r3, [r7, #24]
 80015b6:	1ad3      	subs	r3, r2, r3
 80015b8:	2b02      	cmp	r3, #2
 80015ba:	d901      	bls.n	80015c0 <HAL_RCC_OscConfig+0x5c0>
          {
            return HAL_TIMEOUT;
 80015bc:	2303      	movs	r3, #3
 80015be:	e02c      	b.n	800161a <HAL_RCC_OscConfig+0x61a>
        while(__HAL_RCC_GET_FLAG(RCC_FLAG_PLLRDY)  != RESET)
 80015c0:	4b18      	ldr	r3, [pc, #96]	; (8001624 <HAL_RCC_OscConfig+0x624>)
 80015c2:	681a      	ldr	r2, [r3, #0]
 80015c4:	2380      	movs	r3, #128	; 0x80
 80015c6:	049b      	lsls	r3, r3, #18
 80015c8:	4013      	ands	r3, r2
 80015ca:	d1f0      	bne.n	80015ae <HAL_RCC_OscConfig+0x5ae>
 80015cc:	e024      	b.n	8001618 <HAL_RCC_OscConfig+0x618>
      }
    }
    else
    {
      /* Check if there is a request to disable the PLL used as System clock source */
      if((RCC_OscInitStruct->PLL.PLLState) == RCC_PLL_OFF)
 80015ce:	687b      	ldr	r3, [r7, #4]
 80015d0:	6a1b      	ldr	r3, [r3, #32]
 80015d2:	2b01      	cmp	r3, #1
 80015d4:	d101      	bne.n	80015da <HAL_RCC_OscConfig+0x5da>
      {
        return HAL_ERROR;
 80015d6:	2301      	movs	r3, #1
 80015d8:	e01f      	b.n	800161a <HAL_RCC_OscConfig+0x61a>
      }
      else
      {
        /* Do not return HAL_ERROR if request repeats the current configuration */
        pll_config  = RCC->CFGR;
 80015da:	4b12      	ldr	r3, [pc, #72]	; (8001624 <HAL_RCC_OscConfig+0x624>)
 80015dc:	685b      	ldr	r3, [r3, #4]
 80015de:	617b      	str	r3, [r7, #20]
        pll_config2 = RCC->CFGR2;
 80015e0:	4b10      	ldr	r3, [pc, #64]	; (8001624 <HAL_RCC_OscConfig+0x624>)
 80015e2:	6adb      	ldr	r3, [r3, #44]	; 0x2c
 80015e4:	613b      	str	r3, [r7, #16]
        if((READ_BIT(pll_config,  RCC_CFGR_PLLSRC)  != RCC_OscInitStruct->PLL.PLLSource) ||
 80015e6:	697a      	ldr	r2, [r7, #20]
 80015e8:	2380      	movs	r3, #128	; 0x80
 80015ea:	025b      	lsls	r3, r3, #9
 80015ec:	401a      	ands	r2, r3
 80015ee:	687b      	ldr	r3, [r7, #4]
 80015f0:	6a5b      	ldr	r3, [r3, #36]	; 0x24
 80015f2:	429a      	cmp	r2, r3
 80015f4:	d10e      	bne.n	8001614 <HAL_RCC_OscConfig+0x614>
           (READ_BIT(pll_config2, RCC_CFGR2_PREDIV) != RCC_OscInitStruct->PLL.PREDIV)    ||
 80015f6:	693b      	ldr	r3, [r7, #16]
 80015f8:	220f      	movs	r2, #15
 80015fa:	401a      	ands	r2, r3
 80015fc:	687b      	ldr	r3, [r7, #4]
 80015fe:	6adb      	ldr	r3, [r3, #44]	; 0x2c
        if((READ_BIT(pll_config,  RCC_CFGR_PLLSRC)  != RCC_OscInitStruct->PLL.PLLSource) ||
 8001600:	429a      	cmp	r2, r3
 8001602:	d107      	bne.n	8001614 <HAL_RCC_OscConfig+0x614>
           (READ_BIT(pll_config,  RCC_CFGR_PLLMUL)  != RCC_OscInitStruct->PLL.PLLMUL))
 8001604:	697a      	ldr	r2, [r7, #20]
 8001606:	23f0      	movs	r3, #240	; 0xf0
 8001608:	039b      	lsls	r3, r3, #14
 800160a:	401a      	ands	r2, r3
 800160c:	687b      	ldr	r3, [r7, #4]
 800160e:	6a9b      	ldr	r3, [r3, #40]	; 0x28
           (READ_BIT(pll_config2, RCC_CFGR2_PREDIV) != RCC_OscInitStruct->PLL.PREDIV)    ||
 8001610:	429a      	cmp	r2, r3
 8001612:	d001      	beq.n	8001618 <HAL_RCC_OscConfig+0x618>
        {
          return HAL_ERROR;
 8001614:	2301      	movs	r3, #1
 8001616:	e000      	b.n	800161a <HAL_RCC_OscConfig+0x61a>
        }
      }
    }
  }

  return HAL_OK;
 8001618:	2300      	movs	r3, #0
}
 800161a:	0018      	movs	r0, r3
 800161c:	46bd      	mov	sp, r7
 800161e:	b008      	add	sp, #32
 8001620:	bd80      	pop	{r7, pc}
 8001622:	46c0      	nop			; (mov r8, r8)
 8001624:	40021000 	.word	0x40021000
 8001628:	00001388 	.word	0x00001388
 800162c:	efffffff 	.word	0xefffffff
 8001630:	feffffff 	.word	0xfeffffff
 8001634:	ffc2ffff 	.word	0xffc2ffff

08001638 <HAL_RCC_ClockConfig>:
  *         You can use @ref HAL_RCC_GetClockConfig() function to know which clock is
  *         currently used as system clock source.
  * @retval HAL status
  */
HAL_StatusTypeDef HAL_RCC_ClockConfig(RCC_ClkInitTypeDef  *RCC_ClkInitStruct, uint32_t FLatency)
{
 8001638:	b580      	push	{r7, lr}
 800163a:	b084      	sub	sp, #16
 800163c:	af00      	add	r7, sp, #0
 800163e:	6078      	str	r0, [r7, #4]
 8001640:	6039      	str	r1, [r7, #0]
  uint32_t tickstart;

  /* Check Null pointer */
  if(RCC_ClkInitStruct == NULL)
 8001642:	687b      	ldr	r3, [r7, #4]
 8001644:	2b00      	cmp	r3, #0
 8001646:	d101      	bne.n	800164c <HAL_RCC_ClockConfig+0x14>
  {
    return HAL_ERROR;
 8001648:	2301      	movs	r3, #1
 800164a:	e0b3      	b.n	80017b4 <HAL_RCC_ClockConfig+0x17c>
  /* To correctly read data from FLASH memory, the number of wait states (LATENCY) 
  must be correctly programmed according to the frequency of the CPU clock 
    (HCLK) of the device. */

  /* Increasing the number of wait states because of higher CPU frequency */
  if(FLatency > __HAL_FLASH_GET_LATENCY())
 800164c:	4b5b      	ldr	r3, [pc, #364]	; (80017bc <HAL_RCC_ClockConfig+0x184>)
 800164e:	681b      	ldr	r3, [r3, #0]
 8001650:	2201      	movs	r2, #1
 8001652:	4013      	ands	r3, r2
 8001654:	683a      	ldr	r2, [r7, #0]
 8001656:	429a      	cmp	r2, r3
 8001658:	d911      	bls.n	800167e <HAL_RCC_ClockConfig+0x46>
  {    
    /* Program the new number of wait states to the LATENCY bits in the FLASH_ACR register */
    __HAL_FLASH_SET_LATENCY(FLatency);
 800165a:	4b58      	ldr	r3, [pc, #352]	; (80017bc <HAL_RCC_ClockConfig+0x184>)
 800165c:	681b      	ldr	r3, [r3, #0]
 800165e:	2201      	movs	r2, #1
 8001660:	4393      	bics	r3, r2
 8001662:	0019      	movs	r1, r3
 8001664:	4b55      	ldr	r3, [pc, #340]	; (80017bc <HAL_RCC_ClockConfig+0x184>)
 8001666:	683a      	ldr	r2, [r7, #0]
 8001668:	430a      	orrs	r2, r1
 800166a:	601a      	str	r2, [r3, #0]
    
    /* Check that the new number of wait states is taken into account to access the Flash
    memory by reading the FLASH_ACR register */
    if(__HAL_FLASH_GET_LATENCY() != FLatency)
 800166c:	4b53      	ldr	r3, [pc, #332]	; (80017bc <HAL_RCC_ClockConfig+0x184>)
 800166e:	681b      	ldr	r3, [r3, #0]
 8001670:	2201      	movs	r2, #1
 8001672:	4013      	ands	r3, r2
 8001674:	683a      	ldr	r2, [r7, #0]
 8001676:	429a      	cmp	r2, r3
 8001678:	d001      	beq.n	800167e <HAL_RCC_ClockConfig+0x46>
    {
      return HAL_ERROR;
 800167a:	2301      	movs	r3, #1
 800167c:	e09a      	b.n	80017b4 <HAL_RCC_ClockConfig+0x17c>
    }
  }

  /*-------------------------- HCLK Configuration --------------------------*/
  if(((RCC_ClkInitStruct->ClockType) & RCC_CLOCKTYPE_HCLK) == RCC_CLOCKTYPE_HCLK)
 800167e:	687b      	ldr	r3, [r7, #4]
 8001680:	681b      	ldr	r3, [r3, #0]
 8001682:	2202      	movs	r2, #2
 8001684:	4013      	ands	r3, r2
 8001686:	d015      	beq.n	80016b4 <HAL_RCC_ClockConfig+0x7c>
  {
    /* Set the highest APB divider in order to ensure that we do not go through
       a non-spec phase whatever we decrease or increase HCLK. */
    if(((RCC_ClkInitStruct->ClockType) & RCC_CLOCKTYPE_PCLK1) == RCC_CLOCKTYPE_PCLK1)
 8001688:	687b      	ldr	r3, [r7, #4]
 800168a:	681b      	ldr	r3, [r3, #0]
 800168c:	2204      	movs	r2, #4
 800168e:	4013      	ands	r3, r2
 8001690:	d006      	beq.n	80016a0 <HAL_RCC_ClockConfig+0x68>
    {
      MODIFY_REG(RCC->CFGR, RCC_CFGR_PPRE, RCC_HCLK_DIV16);
 8001692:	4b4b      	ldr	r3, [pc, #300]	; (80017c0 <HAL_RCC_ClockConfig+0x188>)
 8001694:	685a      	ldr	r2, [r3, #4]
 8001696:	4b4a      	ldr	r3, [pc, #296]	; (80017c0 <HAL_RCC_ClockConfig+0x188>)
 8001698:	21e0      	movs	r1, #224	; 0xe0
 800169a:	00c9      	lsls	r1, r1, #3
 800169c:	430a      	orrs	r2, r1
 800169e:	605a      	str	r2, [r3, #4]
    }

    /* Set the new HCLK clock divider */
    assert_param(IS_RCC_HCLK(RCC_ClkInitStruct->AHBCLKDivider));
    MODIFY_REG(RCC->CFGR, RCC_CFGR_HPRE, RCC_ClkInitStruct->AHBCLKDivider);
 80016a0:	4b47      	ldr	r3, [pc, #284]	; (80017c0 <HAL_RCC_ClockConfig+0x188>)
 80016a2:	685b      	ldr	r3, [r3, #4]
 80016a4:	22f0      	movs	r2, #240	; 0xf0
 80016a6:	4393      	bics	r3, r2
 80016a8:	0019      	movs	r1, r3
 80016aa:	687b      	ldr	r3, [r7, #4]
 80016ac:	689a      	ldr	r2, [r3, #8]
 80016ae:	4b44      	ldr	r3, [pc, #272]	; (80017c0 <HAL_RCC_ClockConfig+0x188>)
 80016b0:	430a      	orrs	r2, r1
 80016b2:	605a      	str	r2, [r3, #4]
  }

  /*------------------------- SYSCLK Configuration ---------------------------*/ 
  if(((RCC_ClkInitStruct->ClockType) & RCC_CLOCKTYPE_SYSCLK) == RCC_CLOCKTYPE_SYSCLK)
 80016b4:	687b      	ldr	r3, [r7, #4]
 80016b6:	681b      	ldr	r3, [r3, #0]
 80016b8:	2201      	movs	r2, #1
 80016ba:	4013      	ands	r3, r2
 80016bc:	d040      	beq.n	8001740 <HAL_RCC_ClockConfig+0x108>
  {
    assert_param(IS_RCC_SYSCLKSOURCE(RCC_ClkInitStruct->SYSCLKSource));
    
    /* HSE is selected as System Clock Source */
    if(RCC_ClkInitStruct->SYSCLKSource == RCC_SYSCLKSOURCE_HSE)
 80016be:	687b      	ldr	r3, [r7, #4]
 80016c0:	685b      	ldr	r3, [r3, #4]
 80016c2:	2b01      	cmp	r3, #1
 80016c4:	d107      	bne.n	80016d6 <HAL_RCC_ClockConfig+0x9e>
    {
      /* Check the HSE ready flag */  
      if(__HAL_RCC_GET_FLAG(RCC_FLAG_HSERDY) == RESET)
 80016c6:	4b3e      	ldr	r3, [pc, #248]	; (80017c0 <HAL_RCC_ClockConfig+0x188>)
 80016c8:	681a      	ldr	r2, [r3, #0]
 80016ca:	2380      	movs	r3, #128	; 0x80
 80016cc:	029b      	lsls	r3, r3, #10
 80016ce:	4013      	ands	r3, r2
 80016d0:	d114      	bne.n	80016fc <HAL_RCC_ClockConfig+0xc4>
      {
        return HAL_ERROR;
 80016d2:	2301      	movs	r3, #1
 80016d4:	e06e      	b.n	80017b4 <HAL_RCC_ClockConfig+0x17c>
      }
    }
    /* PLL is selected as System Clock Source */
    else if(RCC_ClkInitStruct->SYSCLKSource == RCC_SYSCLKSOURCE_PLLCLK)
 80016d6:	687b      	ldr	r3, [r7, #4]
 80016d8:	685b      	ldr	r3, [r3, #4]
 80016da:	2b02      	cmp	r3, #2
 80016dc:	d107      	bne.n	80016ee <HAL_RCC_ClockConfig+0xb6>
    {
      /* Check the PLL ready flag */  
      if(__HAL_RCC_GET_FLAG(RCC_FLAG_PLLRDY) == RESET)
 80016de:	4b38      	ldr	r3, [pc, #224]	; (80017c0 <HAL_RCC_ClockConfig+0x188>)
 80016e0:	681a      	ldr	r2, [r3, #0]
 80016e2:	2380      	movs	r3, #128	; 0x80
 80016e4:	049b      	lsls	r3, r3, #18
 80016e6:	4013      	ands	r3, r2
 80016e8:	d108      	bne.n	80016fc <HAL_RCC_ClockConfig+0xc4>
      {
        return HAL_ERROR;
 80016ea:	2301      	movs	r3, #1
 80016ec:	e062      	b.n	80017b4 <HAL_RCC_ClockConfig+0x17c>
#endif /* RCC_CFGR_SWS_HSI48 */
    /* HSI is selected as System Clock Source */
    else
    {
      /* Check the HSI ready flag */  
      if(__HAL_RCC_GET_FLAG(RCC_FLAG_HSIRDY) == RESET)
 80016ee:	4b34      	ldr	r3, [pc, #208]	; (80017c0 <HAL_RCC_ClockConfig+0x188>)
 80016f0:	681b      	ldr	r3, [r3, #0]
 80016f2:	2202      	movs	r2, #2
 80016f4:	4013      	ands	r3, r2
 80016f6:	d101      	bne.n	80016fc <HAL_RCC_ClockConfig+0xc4>
      {
        return HAL_ERROR;
 80016f8:	2301      	movs	r3, #1
 80016fa:	e05b      	b.n	80017b4 <HAL_RCC_ClockConfig+0x17c>
      }
    }
    __HAL_RCC_SYSCLK_CONFIG(RCC_ClkInitStruct->SYSCLKSource);
 80016fc:	4b30      	ldr	r3, [pc, #192]	; (80017c0 <HAL_RCC_ClockConfig+0x188>)
 80016fe:	685b      	ldr	r3, [r3, #4]
 8001700:	2203      	movs	r2, #3
 8001702:	4393      	bics	r3, r2
 8001704:	0019      	movs	r1, r3
 8001706:	687b      	ldr	r3, [r7, #4]
 8001708:	685a      	ldr	r2, [r3, #4]
 800170a:	4b2d      	ldr	r3, [pc, #180]	; (80017c0 <HAL_RCC_ClockConfig+0x188>)
 800170c:	430a      	orrs	r2, r1
 800170e:	605a      	str	r2, [r3, #4]

    /* Get Start Tick */
    tickstart = HAL_GetTick();
 8001710:	f7ff f95e 	bl	80009d0 <HAL_GetTick>
 8001714:	0003      	movs	r3, r0
 8001716:	60fb      	str	r3, [r7, #12]
    
    while (__HAL_RCC_GET_SYSCLK_SOURCE() != (RCC_ClkInitStruct->SYSCLKSource << RCC_CFGR_SWS_Pos))
 8001718:	e009      	b.n	800172e <HAL_RCC_ClockConfig+0xf6>
    {
      if((HAL_GetTick() - tickstart ) > CLOCKSWITCH_TIMEOUT_VALUE)
 800171a:	f7ff f959 	bl	80009d0 <HAL_GetTick>
 800171e:	0002      	movs	r2, r0
 8001720:	68fb      	ldr	r3, [r7, #12]
 8001722:	1ad3      	subs	r3, r2, r3
 8001724:	4a27      	ldr	r2, [pc, #156]	; (80017c4 <HAL_RCC_ClockConfig+0x18c>)
 8001726:	4293      	cmp	r3, r2
 8001728:	d901      	bls.n	800172e <HAL_RCC_ClockConfig+0xf6>
      {
        return HAL_TIMEOUT;
 800172a:	2303      	movs	r3, #3
 800172c:	e042      	b.n	80017b4 <HAL_RCC_ClockConfig+0x17c>
    while (__HAL_RCC_GET_SYSCLK_SOURCE() != (RCC_ClkInitStruct->SYSCLKSource << RCC_CFGR_SWS_Pos))
 800172e:	4b24      	ldr	r3, [pc, #144]	; (80017c0 <HAL_RCC_ClockConfig+0x188>)
 8001730:	685b      	ldr	r3, [r3, #4]
 8001732:	220c      	movs	r2, #12
 8001734:	401a      	ands	r2, r3
 8001736:	687b      	ldr	r3, [r7, #4]
 8001738:	685b      	ldr	r3, [r3, #4]
 800173a:	009b      	lsls	r3, r3, #2
 800173c:	429a      	cmp	r2, r3
 800173e:	d1ec      	bne.n	800171a <HAL_RCC_ClockConfig+0xe2>
      }
    }
  }

  /* Decreasing the number of wait states because of lower CPU frequency */
  if(FLatency < __HAL_FLASH_GET_LATENCY())
 8001740:	4b1e      	ldr	r3, [pc, #120]	; (80017bc <HAL_RCC_ClockConfig+0x184>)
 8001742:	681b      	ldr	r3, [r3, #0]
 8001744:	2201      	movs	r2, #1
 8001746:	4013      	ands	r3, r2
 8001748:	683a      	ldr	r2, [r7, #0]
 800174a:	429a      	cmp	r2, r3
 800174c:	d211      	bcs.n	8001772 <HAL_RCC_ClockConfig+0x13a>
  {    
    /* Program the new number of wait states to the LATENCY bits in the FLASH_ACR register */
    __HAL_FLASH_SET_LATENCY(FLatency);
 800174e:	4b1b      	ldr	r3, [pc, #108]	; (80017bc <HAL_RCC_ClockConfig+0x184>)
 8001750:	681b      	ldr	r3, [r3, #0]
 8001752:	2201      	movs	r2, #1
 8001754:	4393      	bics	r3, r2
 8001756:	0019      	movs	r1, r3
 8001758:	4b18      	ldr	r3, [pc, #96]	; (80017bc <HAL_RCC_ClockConfig+0x184>)
 800175a:	683a      	ldr	r2, [r7, #0]
 800175c:	430a      	orrs	r2, r1
 800175e:	601a      	str	r2, [r3, #0]
    
    /* Check that the new number of wait states is taken into account to access the Flash
    memory by reading the FLASH_ACR register */
    if(__HAL_FLASH_GET_LATENCY() != FLatency)
 8001760:	4b16      	ldr	r3, [pc, #88]	; (80017bc <HAL_RCC_ClockConfig+0x184>)
 8001762:	681b      	ldr	r3, [r3, #0]
 8001764:	2201      	movs	r2, #1
 8001766:	4013      	ands	r3, r2
 8001768:	683a      	ldr	r2, [r7, #0]
 800176a:	429a      	cmp	r2, r3
 800176c:	d001      	beq.n	8001772 <HAL_RCC_ClockConfig+0x13a>
    {
      return HAL_ERROR;
 800176e:	2301      	movs	r3, #1
 8001770:	e020      	b.n	80017b4 <HAL_RCC_ClockConfig+0x17c>
    }
  }    

  /*-------------------------- PCLK1 Configuration ---------------------------*/ 
  if(((RCC_ClkInitStruct->ClockType) & RCC_CLOCKTYPE_PCLK1) == RCC_CLOCKTYPE_PCLK1)
 8001772:	687b      	ldr	r3, [r7, #4]
 8001774:	681b      	ldr	r3, [r3, #0]
 8001776:	2204      	movs	r2, #4
 8001778:	4013      	ands	r3, r2
 800177a:	d009      	beq.n	8001790 <HAL_RCC_ClockConfig+0x158>
  {
    assert_param(IS_RCC_PCLK(RCC_ClkInitStruct->APB1CLKDivider));
    MODIFY_REG(RCC->CFGR, RCC_CFGR_PPRE, RCC_ClkInitStruct->APB1CLKDivider);
 800177c:	4b10      	ldr	r3, [pc, #64]	; (80017c0 <HAL_RCC_ClockConfig+0x188>)
 800177e:	685b      	ldr	r3, [r3, #4]
 8001780:	4a11      	ldr	r2, [pc, #68]	; (80017c8 <HAL_RCC_ClockConfig+0x190>)
 8001782:	4013      	ands	r3, r2
 8001784:	0019      	movs	r1, r3
 8001786:	687b      	ldr	r3, [r7, #4]
 8001788:	68da      	ldr	r2, [r3, #12]
 800178a:	4b0d      	ldr	r3, [pc, #52]	; (80017c0 <HAL_RCC_ClockConfig+0x188>)
 800178c:	430a      	orrs	r2, r1
 800178e:	605a      	str	r2, [r3, #4]
  }
  
  /* Update the SystemCoreClock global variable */
  SystemCoreClock = HAL_RCC_GetSysClockFreq() >> AHBPrescTable[(RCC->CFGR & RCC_CFGR_HPRE)>> RCC_CFGR_HPRE_BITNUMBER];
 8001790:	f000 f820 	bl	80017d4 <HAL_RCC_GetSysClockFreq>
 8001794:	0001      	movs	r1, r0
 8001796:	4b0a      	ldr	r3, [pc, #40]	; (80017c0 <HAL_RCC_ClockConfig+0x188>)
 8001798:	685b      	ldr	r3, [r3, #4]
 800179a:	091b      	lsrs	r3, r3, #4
 800179c:	220f      	movs	r2, #15
 800179e:	4013      	ands	r3, r2
 80017a0:	4a0a      	ldr	r2, [pc, #40]	; (80017cc <HAL_RCC_ClockConfig+0x194>)
 80017a2:	5cd3      	ldrb	r3, [r2, r3]
 80017a4:	000a      	movs	r2, r1
 80017a6:	40da      	lsrs	r2, r3
 80017a8:	4b09      	ldr	r3, [pc, #36]	; (80017d0 <HAL_RCC_ClockConfig+0x198>)
 80017aa:	601a      	str	r2, [r3, #0]

  /* Configure the source of time base considering new system clocks settings*/
  HAL_InitTick (TICK_INT_PRIORITY);
 80017ac:	2000      	movs	r0, #0
 80017ae:	f7ff f8c9 	bl	8000944 <HAL_InitTick>
  
  return HAL_OK;
 80017b2:	2300      	movs	r3, #0
}
 80017b4:	0018      	movs	r0, r3
 80017b6:	46bd      	mov	sp, r7
 80017b8:	b004      	add	sp, #16
 80017ba:	bd80      	pop	{r7, pc}
 80017bc:	40022000 	.word	0x40022000
 80017c0:	40021000 	.word	0x40021000
 80017c4:	00001388 	.word	0x00001388
 80017c8:	fffff8ff 	.word	0xfffff8ff
 80017cc:	080022e0 	.word	0x080022e0
 80017d0:	20000000 	.word	0x20000000

080017d4 <HAL_RCC_GetSysClockFreq>:
  *         right SYSCLK value. Otherwise, any configuration based on this function will be incorrect.
  *         
  * @retval SYSCLK frequency
  */
uint32_t HAL_RCC_GetSysClockFreq(void)
{
 80017d4:	b590      	push	{r4, r7, lr}
 80017d6:	b08f      	sub	sp, #60	; 0x3c
 80017d8:	af00      	add	r7, sp, #0
  const uint8_t aPLLMULFactorTable[16] = { 2U,  3U,  4U,  5U,  6U,  7U,  8U,  9U,
 80017da:	2314      	movs	r3, #20
 80017dc:	18fb      	adds	r3, r7, r3
 80017de:	4a2b      	ldr	r2, [pc, #172]	; (800188c <HAL_RCC_GetSysClockFreq+0xb8>)
 80017e0:	ca13      	ldmia	r2!, {r0, r1, r4}
 80017e2:	c313      	stmia	r3!, {r0, r1, r4}
 80017e4:	6812      	ldr	r2, [r2, #0]
 80017e6:	601a      	str	r2, [r3, #0]
                                         10U, 11U, 12U, 13U, 14U, 15U, 16U, 16U};
  const uint8_t aPredivFactorTable[16] = { 1U, 2U,  3U,  4U,  5U,  6U,  7U,  8U,
 80017e8:	1d3b      	adds	r3, r7, #4
 80017ea:	4a29      	ldr	r2, [pc, #164]	; (8001890 <HAL_RCC_GetSysClockFreq+0xbc>)
 80017ec:	ca13      	ldmia	r2!, {r0, r1, r4}
 80017ee:	c313      	stmia	r3!, {r0, r1, r4}
 80017f0:	6812      	ldr	r2, [r2, #0]
 80017f2:	601a      	str	r2, [r3, #0]
                                           9U,10U, 11U, 12U, 13U, 14U, 15U, 16U};

  uint32_t tmpreg = 0U, prediv = 0U, pllclk = 0U, pllmul = 0U;
 80017f4:	2300      	movs	r3, #0
 80017f6:	62fb      	str	r3, [r7, #44]	; 0x2c
 80017f8:	2300      	movs	r3, #0
 80017fa:	62bb      	str	r3, [r7, #40]	; 0x28
 80017fc:	2300      	movs	r3, #0
 80017fe:	637b      	str	r3, [r7, #52]	; 0x34
 8001800:	2300      	movs	r3, #0
 8001802:	627b      	str	r3, [r7, #36]	; 0x24
  uint32_t sysclockfreq = 0U;
 8001804:	2300      	movs	r3, #0
 8001806:	633b      	str	r3, [r7, #48]	; 0x30
  
  tmpreg = RCC->CFGR;
 8001808:	4b22      	ldr	r3, [pc, #136]	; (8001894 <HAL_RCC_GetSysClockFreq+0xc0>)
 800180a:	685b      	ldr	r3, [r3, #4]
 800180c:	62fb      	str	r3, [r7, #44]	; 0x2c
  
  /* Get SYSCLK source -------------------------------------------------------*/
  switch (tmpreg & RCC_CFGR_SWS)
 800180e:	6afb      	ldr	r3, [r7, #44]	; 0x2c
 8001810:	220c      	movs	r2, #12
 8001812:	4013      	ands	r3, r2
 8001814:	2b04      	cmp	r3, #4
 8001816:	d002      	beq.n	800181e <HAL_RCC_GetSysClockFreq+0x4a>
 8001818:	2b08      	cmp	r3, #8
 800181a:	d003      	beq.n	8001824 <HAL_RCC_GetSysClockFreq+0x50>
 800181c:	e02d      	b.n	800187a <HAL_RCC_GetSysClockFreq+0xa6>
  {
    case RCC_SYSCLKSOURCE_STATUS_HSE:  /* HSE used as system clock */
    {
      sysclockfreq = HSE_VALUE;
 800181e:	4b1e      	ldr	r3, [pc, #120]	; (8001898 <HAL_RCC_GetSysClockFreq+0xc4>)
 8001820:	633b      	str	r3, [r7, #48]	; 0x30
      break;
 8001822:	e02d      	b.n	8001880 <HAL_RCC_GetSysClockFreq+0xac>
    }
    case RCC_SYSCLKSOURCE_STATUS_PLLCLK:  /* PLL used as system clock */
    {
      pllmul = aPLLMULFactorTable[(uint32_t)(tmpreg & RCC_CFGR_PLLMUL) >> RCC_CFGR_PLLMUL_BITNUMBER];
 8001824:	6afb      	ldr	r3, [r7, #44]	; 0x2c
 8001826:	0c9b      	lsrs	r3, r3, #18
 8001828:	220f      	movs	r2, #15
 800182a:	4013      	ands	r3, r2
 800182c:	2214      	movs	r2, #20
 800182e:	18ba      	adds	r2, r7, r2
 8001830:	5cd3      	ldrb	r3, [r2, r3]
 8001832:	627b      	str	r3, [r7, #36]	; 0x24
      prediv = aPredivFactorTable[(uint32_t)(RCC->CFGR2 & RCC_CFGR2_PREDIV) >> RCC_CFGR2_PREDIV_BITNUMBER];
 8001834:	4b17      	ldr	r3, [pc, #92]	; (8001894 <HAL_RCC_GetSysClockFreq+0xc0>)
 8001836:	6adb      	ldr	r3, [r3, #44]	; 0x2c
 8001838:	220f      	movs	r2, #15
 800183a:	4013      	ands	r3, r2
 800183c:	1d3a      	adds	r2, r7, #4
 800183e:	5cd3      	ldrb	r3, [r2, r3]
 8001840:	62bb      	str	r3, [r7, #40]	; 0x28
      if ((tmpreg & RCC_CFGR_PLLSRC) == RCC_PLLSOURCE_HSE)
 8001842:	6afa      	ldr	r2, [r7, #44]	; 0x2c
 8001844:	2380      	movs	r3, #128	; 0x80
 8001846:	025b      	lsls	r3, r3, #9
 8001848:	4013      	ands	r3, r2
 800184a:	d009      	beq.n	8001860 <HAL_RCC_GetSysClockFreq+0x8c>
      {
        /* HSE used as PLL clock source : PLLCLK = HSE/PREDIV * PLLMUL */
        pllclk = (uint32_t)((uint64_t) HSE_VALUE / (uint64_t) (prediv)) * ((uint64_t) pllmul);
 800184c:	6ab9      	ldr	r1, [r7, #40]	; 0x28
 800184e:	4812      	ldr	r0, [pc, #72]	; (8001898 <HAL_RCC_GetSysClockFreq+0xc4>)
 8001850:	f7fe fc5a 	bl	8000108 <__udivsi3>
 8001854:	0003      	movs	r3, r0
 8001856:	001a      	movs	r2, r3
 8001858:	6a7b      	ldr	r3, [r7, #36]	; 0x24
 800185a:	4353      	muls	r3, r2
 800185c:	637b      	str	r3, [r7, #52]	; 0x34
 800185e:	e009      	b.n	8001874 <HAL_RCC_GetSysClockFreq+0xa0>
#if  (defined(STM32F042x6) || defined(STM32F048xx) || defined(STM32F070x6) || defined(STM32F071xB) || defined(STM32F072xB) || defined(STM32F078xx) || defined(STM32F070xB) || defined(STM32F091xC) || defined(STM32F098xx) || defined(STM32F030xC))
        /* HSI used as PLL clock source : PLLCLK = HSI/PREDIV * PLLMUL */
        pllclk = (uint32_t)((uint64_t) HSI_VALUE / (uint64_t) (prediv)) * ((uint64_t) pllmul);
#else
        /* HSI used as PLL clock source : PLLCLK = HSI/2 * PLLMUL */
        pllclk = (uint32_t)((uint64_t) (HSI_VALUE >> 1U) * ((uint64_t) pllmul));
 8001860:	6a79      	ldr	r1, [r7, #36]	; 0x24
 8001862:	000a      	movs	r2, r1
 8001864:	0152      	lsls	r2, r2, #5
 8001866:	1a52      	subs	r2, r2, r1
 8001868:	0193      	lsls	r3, r2, #6
 800186a:	1a9b      	subs	r3, r3, r2
 800186c:	00db      	lsls	r3, r3, #3
 800186e:	185b      	adds	r3, r3, r1
 8001870:	021b      	lsls	r3, r3, #8
 8001872:	637b      	str	r3, [r7, #52]	; 0x34
#endif
      }
      sysclockfreq = pllclk;
 8001874:	6b7b      	ldr	r3, [r7, #52]	; 0x34
 8001876:	633b      	str	r3, [r7, #48]	; 0x30
      break;
 8001878:	e002      	b.n	8001880 <HAL_RCC_GetSysClockFreq+0xac>
    }
#endif /* RCC_CFGR_SWS_HSI48 */
    case RCC_SYSCLKSOURCE_STATUS_HSI:  /* HSI used as system clock source */
    default: /* HSI used as system clock */
    {
      sysclockfreq = HSI_VALUE;
 800187a:	4b07      	ldr	r3, [pc, #28]	; (8001898 <HAL_RCC_GetSysClockFreq+0xc4>)
 800187c:	633b      	str	r3, [r7, #48]	; 0x30
      break;
 800187e:	46c0      	nop			; (mov r8, r8)
    }
  }
  return sysclockfreq;
 8001880:	6b3b      	ldr	r3, [r7, #48]	; 0x30
}
 8001882:	0018      	movs	r0, r3
 8001884:	46bd      	mov	sp, r7
 8001886:	b00f      	add	sp, #60	; 0x3c
 8001888:	bd90      	pop	{r4, r7, pc}
 800188a:	46c0      	nop			; (mov r8, r8)
 800188c:	080022c0 	.word	0x080022c0
 8001890:	080022d0 	.word	0x080022d0
 8001894:	40021000 	.word	0x40021000
 8001898:	007a1200 	.word	0x007a1200

0800189c <HAL_TIM_Base_Init>:
  *         Ex: call @ref HAL_TIM_Base_DeInit() before HAL_TIM_Base_Init()
  * @param  htim TIM Base handle
  * @retval HAL status
  */
HAL_StatusTypeDef HAL_TIM_Base_Init(TIM_HandleTypeDef *htim)
{
 800189c:	b580      	push	{r7, lr}
 800189e:	b082      	sub	sp, #8
 80018a0:	af00      	add	r7, sp, #0
 80018a2:	6078      	str	r0, [r7, #4]
  /* Check the TIM handle allocation */
  if (htim == NULL)
 80018a4:	687b      	ldr	r3, [r7, #4]
 80018a6:	2b00      	cmp	r3, #0
 80018a8:	d101      	bne.n	80018ae <HAL_TIM_Base_Init+0x12>
  {
    return HAL_ERROR;
 80018aa:	2301      	movs	r3, #1
 80018ac:	e01e      	b.n	80018ec <HAL_TIM_Base_Init+0x50>
  assert_param(IS_TIM_INSTANCE(htim->Instance));
  assert_param(IS_TIM_COUNTER_MODE(htim->Init.CounterMode));
  assert_param(IS_TIM_CLOCKDIVISION_DIV(htim->Init.ClockDivision));
  assert_param(IS_TIM_AUTORELOAD_PRELOAD(htim->Init.AutoReloadPreload));

  if (htim->State == HAL_TIM_STATE_RESET)
 80018ae:	687b      	ldr	r3, [r7, #4]
 80018b0:	223d      	movs	r2, #61	; 0x3d
 80018b2:	5c9b      	ldrb	r3, [r3, r2]
 80018b4:	b2db      	uxtb	r3, r3
 80018b6:	2b00      	cmp	r3, #0
 80018b8:	d107      	bne.n	80018ca <HAL_TIM_Base_Init+0x2e>
  {
    /* Allocate lock resource and initialize it */
    htim->Lock = HAL_UNLOCKED;
 80018ba:	687b      	ldr	r3, [r7, #4]
 80018bc:	223c      	movs	r2, #60	; 0x3c
 80018be:	2100      	movs	r1, #0
 80018c0:	5499      	strb	r1, [r3, r2]
    }
    /* Init the low level hardware : GPIO, CLOCK, NVIC */
    htim->Base_MspInitCallback(htim);
#else
    /* Init the low level hardware : GPIO, CLOCK, NVIC */
    HAL_TIM_Base_MspInit(htim);
 80018c2:	687b      	ldr	r3, [r7, #4]
 80018c4:	0018      	movs	r0, r3
 80018c6:	f7fe ff9f 	bl	8000808 <HAL_TIM_Base_MspInit>
#endif /* USE_HAL_TIM_REGISTER_CALLBACKS */
  }

  /* Set the TIM state */
  htim->State = HAL_TIM_STATE_BUSY;
 80018ca:	687b      	ldr	r3, [r7, #4]
 80018cc:	223d      	movs	r2, #61	; 0x3d
 80018ce:	2102      	movs	r1, #2
 80018d0:	5499      	strb	r1, [r3, r2]

  /* Set the Time Base configuration */
  TIM_Base_SetConfig(htim->Instance, &htim->Init);
 80018d2:	687b      	ldr	r3, [r7, #4]
 80018d4:	681a      	ldr	r2, [r3, #0]
 80018d6:	687b      	ldr	r3, [r7, #4]
 80018d8:	3304      	adds	r3, #4
 80018da:	0019      	movs	r1, r3
 80018dc:	0010      	movs	r0, r2
 80018de:	f000 f95b 	bl	8001b98 <TIM_Base_SetConfig>

  /* Initialize the TIM state*/
  htim->State = HAL_TIM_STATE_READY;
 80018e2:	687b      	ldr	r3, [r7, #4]
 80018e4:	223d      	movs	r2, #61	; 0x3d
 80018e6:	2101      	movs	r1, #1
 80018e8:	5499      	strb	r1, [r3, r2]

  return HAL_OK;
 80018ea:	2300      	movs	r3, #0
}
 80018ec:	0018      	movs	r0, r3
 80018ee:	46bd      	mov	sp, r7
 80018f0:	b002      	add	sp, #8
 80018f2:	bd80      	pop	{r7, pc}

080018f4 <HAL_TIM_Base_Start>:
  * @brief  Starts the TIM Base generation.
  * @param  htim TIM Base handle
  * @retval HAL status
  */
HAL_StatusTypeDef HAL_TIM_Base_Start(TIM_HandleTypeDef *htim)
{
 80018f4:	b580      	push	{r7, lr}
 80018f6:	b084      	sub	sp, #16
 80018f8:	af00      	add	r7, sp, #0
 80018fa:	6078      	str	r0, [r7, #4]

  /* Check the parameters */
  assert_param(IS_TIM_INSTANCE(htim->Instance));

  /* Set the TIM state */
  htim->State = HAL_TIM_STATE_BUSY;
 80018fc:	687b      	ldr	r3, [r7, #4]
 80018fe:	223d      	movs	r2, #61	; 0x3d
 8001900:	2102      	movs	r1, #2
 8001902:	5499      	strb	r1, [r3, r2]

  /* Enable the Peripheral, except in trigger mode where enable is automatically done with trigger */
  tmpsmcr = htim->Instance->SMCR & TIM_SMCR_SMS;
 8001904:	687b      	ldr	r3, [r7, #4]
 8001906:	681b      	ldr	r3, [r3, #0]
 8001908:	689b      	ldr	r3, [r3, #8]
 800190a:	2207      	movs	r2, #7
 800190c:	4013      	ands	r3, r2
 800190e:	60fb      	str	r3, [r7, #12]
  if (!IS_TIM_SLAVEMODE_TRIGGER_ENABLED(tmpsmcr))
 8001910:	68fb      	ldr	r3, [r7, #12]
 8001912:	2b06      	cmp	r3, #6
 8001914:	d007      	beq.n	8001926 <HAL_TIM_Base_Start+0x32>
  {
    __HAL_TIM_ENABLE(htim);
 8001916:	687b      	ldr	r3, [r7, #4]
 8001918:	681b      	ldr	r3, [r3, #0]
 800191a:	681a      	ldr	r2, [r3, #0]
 800191c:	687b      	ldr	r3, [r7, #4]
 800191e:	681b      	ldr	r3, [r3, #0]
 8001920:	2101      	movs	r1, #1
 8001922:	430a      	orrs	r2, r1
 8001924:	601a      	str	r2, [r3, #0]
  }

  /* Change the TIM state*/
  htim->State = HAL_TIM_STATE_READY;
 8001926:	687b      	ldr	r3, [r7, #4]
 8001928:	223d      	movs	r2, #61	; 0x3d
 800192a:	2101      	movs	r1, #1
 800192c:	5499      	strb	r1, [r3, r2]

  /* Return function status */
  return HAL_OK;
 800192e:	2300      	movs	r3, #0
}
 8001930:	0018      	movs	r0, r3
 8001932:	46bd      	mov	sp, r7
 8001934:	b004      	add	sp, #16
 8001936:	bd80      	pop	{r7, pc}

08001938 <HAL_TIM_PWM_Init>:
  *         Ex: call @ref HAL_TIM_PWM_DeInit() before HAL_TIM_PWM_Init()
  * @param  htim TIM PWM handle
  * @retval HAL status
  */
HAL_StatusTypeDef HAL_TIM_PWM_Init(TIM_HandleTypeDef *htim)
{
 8001938:	b580      	push	{r7, lr}
 800193a:	b082      	sub	sp, #8
 800193c:	af00      	add	r7, sp, #0
 800193e:	6078      	str	r0, [r7, #4]
  /* Check the TIM handle allocation */
  if (htim == NULL)
 8001940:	687b      	ldr	r3, [r7, #4]
 8001942:	2b00      	cmp	r3, #0
 8001944:	d101      	bne.n	800194a <HAL_TIM_PWM_Init+0x12>
  {
    return HAL_ERROR;
 8001946:	2301      	movs	r3, #1
 8001948:	e01e      	b.n	8001988 <HAL_TIM_PWM_Init+0x50>
  assert_param(IS_TIM_INSTANCE(htim->Instance));
  assert_param(IS_TIM_COUNTER_MODE(htim->Init.CounterMode));
  assert_param(IS_TIM_CLOCKDIVISION_DIV(htim->Init.ClockDivision));
  assert_param(IS_TIM_AUTORELOAD_PRELOAD(htim->Init.AutoReloadPreload));

  if (htim->State == HAL_TIM_STATE_RESET)
 800194a:	687b      	ldr	r3, [r7, #4]
 800194c:	223d      	movs	r2, #61	; 0x3d
 800194e:	5c9b      	ldrb	r3, [r3, r2]
 8001950:	b2db      	uxtb	r3, r3
 8001952:	2b00      	cmp	r3, #0
 8001954:	d107      	bne.n	8001966 <HAL_TIM_PWM_Init+0x2e>
  {
    /* Allocate lock resource and initialize it */
    htim->Lock = HAL_UNLOCKED;
 8001956:	687b      	ldr	r3, [r7, #4]
 8001958:	223c      	movs	r2, #60	; 0x3c
 800195a:	2100      	movs	r1, #0
 800195c:	5499      	strb	r1, [r3, r2]
    }
    /* Init the low level hardware : GPIO, CLOCK, NVIC */
    htim->PWM_MspInitCallback(htim);
#else
    /* Init the low level hardware : GPIO, CLOCK, NVIC and DMA */
    HAL_TIM_PWM_MspInit(htim);
 800195e:	687b      	ldr	r3, [r7, #4]
 8001960:	0018      	movs	r0, r3
 8001962:	f7fe ff31 	bl	80007c8 <HAL_TIM_PWM_MspInit>
#endif /* USE_HAL_TIM_REGISTER_CALLBACKS */
  }

  /* Set the TIM state */
  htim->State = HAL_TIM_STATE_BUSY;
 8001966:	687b      	ldr	r3, [r7, #4]
 8001968:	223d      	movs	r2, #61	; 0x3d
 800196a:	2102      	movs	r1, #2
 800196c:	5499      	strb	r1, [r3, r2]

  /* Init the base time for the PWM */
  TIM_Base_SetConfig(htim->Instance, &htim->Init);
 800196e:	687b      	ldr	r3, [r7, #4]
 8001970:	681a      	ldr	r2, [r3, #0]
 8001972:	687b      	ldr	r3, [r7, #4]
 8001974:	3304      	adds	r3, #4
 8001976:	0019      	movs	r1, r3
 8001978:	0010      	movs	r0, r2
 800197a:	f000 f90d 	bl	8001b98 <TIM_Base_SetConfig>

  /* Initialize the TIM state*/
  htim->State = HAL_TIM_STATE_READY;
 800197e:	687b      	ldr	r3, [r7, #4]
 8001980:	223d      	movs	r2, #61	; 0x3d
 8001982:	2101      	movs	r1, #1
 8001984:	5499      	strb	r1, [r3, r2]

  return HAL_OK;
 8001986:	2300      	movs	r3, #0
}
 8001988:	0018      	movs	r0, r3
 800198a:	46bd      	mov	sp, r7
 800198c:	b002      	add	sp, #8
 800198e:	bd80      	pop	{r7, pc}

08001990 <HAL_TIM_PWM_Start>:
  *            @arg TIM_CHANNEL_3: TIM Channel 3 selected
  *            @arg TIM_CHANNEL_4: TIM Channel 4 selected
  * @retval HAL status
  */
HAL_StatusTypeDef HAL_TIM_PWM_Start(TIM_HandleTypeDef *htim, uint32_t Channel)
{
 8001990:	b580      	push	{r7, lr}
 8001992:	b084      	sub	sp, #16
 8001994:	af00      	add	r7, sp, #0
 8001996:	6078      	str	r0, [r7, #4]
 8001998:	6039      	str	r1, [r7, #0]

  /* Check the parameters */
  assert_param(IS_TIM_CCX_INSTANCE(htim->Instance, Channel));

  /* Enable the Capture compare channel */
  TIM_CCxChannelCmd(htim->Instance, Channel, TIM_CCx_ENABLE);
 800199a:	687b      	ldr	r3, [r7, #4]
 800199c:	681b      	ldr	r3, [r3, #0]
 800199e:	6839      	ldr	r1, [r7, #0]
 80019a0:	2201      	movs	r2, #1
 80019a2:	0018      	movs	r0, r3
 80019a4:	f000 fb74 	bl	8002090 <TIM_CCxChannelCmd>

  if (IS_TIM_BREAK_INSTANCE(htim->Instance) != RESET)
 80019a8:	687b      	ldr	r3, [r7, #4]
 80019aa:	681b      	ldr	r3, [r3, #0]
 80019ac:	4a1a      	ldr	r2, [pc, #104]	; (8001a18 <HAL_TIM_PWM_Start+0x88>)
 80019ae:	4293      	cmp	r3, r2
 80019b0:	d00e      	beq.n	80019d0 <HAL_TIM_PWM_Start+0x40>
 80019b2:	687b      	ldr	r3, [r7, #4]
 80019b4:	681b      	ldr	r3, [r3, #0]
 80019b6:	4a19      	ldr	r2, [pc, #100]	; (8001a1c <HAL_TIM_PWM_Start+0x8c>)
 80019b8:	4293      	cmp	r3, r2
 80019ba:	d009      	beq.n	80019d0 <HAL_TIM_PWM_Start+0x40>
 80019bc:	687b      	ldr	r3, [r7, #4]
 80019be:	681b      	ldr	r3, [r3, #0]
 80019c0:	4a17      	ldr	r2, [pc, #92]	; (8001a20 <HAL_TIM_PWM_Start+0x90>)
 80019c2:	4293      	cmp	r3, r2
 80019c4:	d004      	beq.n	80019d0 <HAL_TIM_PWM_Start+0x40>
 80019c6:	687b      	ldr	r3, [r7, #4]
 80019c8:	681b      	ldr	r3, [r3, #0]
 80019ca:	4a16      	ldr	r2, [pc, #88]	; (8001a24 <HAL_TIM_PWM_Start+0x94>)
 80019cc:	4293      	cmp	r3, r2
 80019ce:	d101      	bne.n	80019d4 <HAL_TIM_PWM_Start+0x44>
 80019d0:	2301      	movs	r3, #1
 80019d2:	e000      	b.n	80019d6 <HAL_TIM_PWM_Start+0x46>
 80019d4:	2300      	movs	r3, #0
 80019d6:	2b00      	cmp	r3, #0
 80019d8:	d008      	beq.n	80019ec <HAL_TIM_PWM_Start+0x5c>
  {
    /* Enable the main output */
    __HAL_TIM_MOE_ENABLE(htim);
 80019da:	687b      	ldr	r3, [r7, #4]
 80019dc:	681b      	ldr	r3, [r3, #0]
 80019de:	6c5a      	ldr	r2, [r3, #68]	; 0x44
 80019e0:	687b      	ldr	r3, [r7, #4]
 80019e2:	681b      	ldr	r3, [r3, #0]
 80019e4:	2180      	movs	r1, #128	; 0x80
 80019e6:	0209      	lsls	r1, r1, #8
 80019e8:	430a      	orrs	r2, r1
 80019ea:	645a      	str	r2, [r3, #68]	; 0x44
  }

  /* Enable the Peripheral, except in trigger mode where enable is automatically done with trigger */
  tmpsmcr = htim->Instance->SMCR & TIM_SMCR_SMS;
 80019ec:	687b      	ldr	r3, [r7, #4]
 80019ee:	681b      	ldr	r3, [r3, #0]
 80019f0:	689b      	ldr	r3, [r3, #8]
 80019f2:	2207      	movs	r2, #7
 80019f4:	4013      	ands	r3, r2
 80019f6:	60fb      	str	r3, [r7, #12]
  if (!IS_TIM_SLAVEMODE_TRIGGER_ENABLED(tmpsmcr))
 80019f8:	68fb      	ldr	r3, [r7, #12]
 80019fa:	2b06      	cmp	r3, #6
 80019fc:	d007      	beq.n	8001a0e <HAL_TIM_PWM_Start+0x7e>
  {
    __HAL_TIM_ENABLE(htim);
 80019fe:	687b      	ldr	r3, [r7, #4]
 8001a00:	681b      	ldr	r3, [r3, #0]
 8001a02:	681a      	ldr	r2, [r3, #0]
 8001a04:	687b      	ldr	r3, [r7, #4]
 8001a06:	681b      	ldr	r3, [r3, #0]
 8001a08:	2101      	movs	r1, #1
 8001a0a:	430a      	orrs	r2, r1
 8001a0c:	601a      	str	r2, [r3, #0]
  }

  /* Return function status */
  return HAL_OK;
 8001a0e:	2300      	movs	r3, #0
}
 8001a10:	0018      	movs	r0, r3
 8001a12:	46bd      	mov	sp, r7
 8001a14:	b004      	add	sp, #16
 8001a16:	bd80      	pop	{r7, pc}
 8001a18:	40012c00 	.word	0x40012c00
 8001a1c:	40014000 	.word	0x40014000
 8001a20:	40014400 	.word	0x40014400
 8001a24:	40014800 	.word	0x40014800

08001a28 <HAL_TIM_PWM_ConfigChannel>:
  * @retval HAL status
  */
HAL_StatusTypeDef HAL_TIM_PWM_ConfigChannel(TIM_HandleTypeDef *htim,
                                            TIM_OC_InitTypeDef *sConfig,
                                            uint32_t Channel)
{
 8001a28:	b580      	push	{r7, lr}
 8001a2a:	b084      	sub	sp, #16
 8001a2c:	af00      	add	r7, sp, #0
 8001a2e:	60f8      	str	r0, [r7, #12]
 8001a30:	60b9      	str	r1, [r7, #8]
 8001a32:	607a      	str	r2, [r7, #4]
  assert_param(IS_TIM_PWM_MODE(sConfig->OCMode));
  assert_param(IS_TIM_OC_POLARITY(sConfig->OCPolarity));
  assert_param(IS_TIM_FAST_STATE(sConfig->OCFastMode));

  /* Process Locked */
  __HAL_LOCK(htim);
 8001a34:	68fb      	ldr	r3, [r7, #12]
 8001a36:	223c      	movs	r2, #60	; 0x3c
 8001a38:	5c9b      	ldrb	r3, [r3, r2]
 8001a3a:	2b01      	cmp	r3, #1
 8001a3c:	d101      	bne.n	8001a42 <HAL_TIM_PWM_ConfigChannel+0x1a>
 8001a3e:	2302      	movs	r3, #2
 8001a40:	e0a4      	b.n	8001b8c <HAL_TIM_PWM_ConfigChannel+0x164>
 8001a42:	68fb      	ldr	r3, [r7, #12]
 8001a44:	223c      	movs	r2, #60	; 0x3c
 8001a46:	2101      	movs	r1, #1
 8001a48:	5499      	strb	r1, [r3, r2]

  htim->State = HAL_TIM_STATE_BUSY;
 8001a4a:	68fb      	ldr	r3, [r7, #12]
 8001a4c:	223d      	movs	r2, #61	; 0x3d
 8001a4e:	2102      	movs	r1, #2
 8001a50:	5499      	strb	r1, [r3, r2]

  switch (Channel)
 8001a52:	687b      	ldr	r3, [r7, #4]
 8001a54:	2b04      	cmp	r3, #4
 8001a56:	d029      	beq.n	8001aac <HAL_TIM_PWM_ConfigChannel+0x84>
 8001a58:	d802      	bhi.n	8001a60 <HAL_TIM_PWM_ConfigChannel+0x38>
 8001a5a:	2b00      	cmp	r3, #0
 8001a5c:	d005      	beq.n	8001a6a <HAL_TIM_PWM_ConfigChannel+0x42>
      htim->Instance->CCMR2 |= sConfig->OCFastMode << 8U;
      break;
    }

    default:
      break;
 8001a5e:	e08c      	b.n	8001b7a <HAL_TIM_PWM_ConfigChannel+0x152>
  switch (Channel)
 8001a60:	2b08      	cmp	r3, #8
 8001a62:	d046      	beq.n	8001af2 <HAL_TIM_PWM_ConfigChannel+0xca>
 8001a64:	2b0c      	cmp	r3, #12
 8001a66:	d065      	beq.n	8001b34 <HAL_TIM_PWM_ConfigChannel+0x10c>
      break;
 8001a68:	e087      	b.n	8001b7a <HAL_TIM_PWM_ConfigChannel+0x152>
      TIM_OC1_SetConfig(htim->Instance, sConfig);
 8001a6a:	68fb      	ldr	r3, [r7, #12]
 8001a6c:	681b      	ldr	r3, [r3, #0]
 8001a6e:	68ba      	ldr	r2, [r7, #8]
 8001a70:	0011      	movs	r1, r2
 8001a72:	0018      	movs	r0, r3
 8001a74:	f000 f910 	bl	8001c98 <TIM_OC1_SetConfig>
      htim->Instance->CCMR1 |= TIM_CCMR1_OC1PE;
 8001a78:	68fb      	ldr	r3, [r7, #12]
 8001a7a:	681b      	ldr	r3, [r3, #0]
 8001a7c:	699a      	ldr	r2, [r3, #24]
 8001a7e:	68fb      	ldr	r3, [r7, #12]
 8001a80:	681b      	ldr	r3, [r3, #0]
 8001a82:	2108      	movs	r1, #8
 8001a84:	430a      	orrs	r2, r1
 8001a86:	619a      	str	r2, [r3, #24]
      htim->Instance->CCMR1 &= ~TIM_CCMR1_OC1FE;
 8001a88:	68fb      	ldr	r3, [r7, #12]
 8001a8a:	681b      	ldr	r3, [r3, #0]
 8001a8c:	699a      	ldr	r2, [r3, #24]
 8001a8e:	68fb      	ldr	r3, [r7, #12]
 8001a90:	681b      	ldr	r3, [r3, #0]
 8001a92:	2104      	movs	r1, #4
 8001a94:	438a      	bics	r2, r1
 8001a96:	619a      	str	r2, [r3, #24]
      htim->Instance->CCMR1 |= sConfig->OCFastMode;
 8001a98:	68fb      	ldr	r3, [r7, #12]
 8001a9a:	681b      	ldr	r3, [r3, #0]
 8001a9c:	6999      	ldr	r1, [r3, #24]
 8001a9e:	68bb      	ldr	r3, [r7, #8]
 8001aa0:	691a      	ldr	r2, [r3, #16]
 8001aa2:	68fb      	ldr	r3, [r7, #12]
 8001aa4:	681b      	ldr	r3, [r3, #0]
 8001aa6:	430a      	orrs	r2, r1
 8001aa8:	619a      	str	r2, [r3, #24]
      break;
 8001aaa:	e066      	b.n	8001b7a <HAL_TIM_PWM_ConfigChannel+0x152>
      TIM_OC2_SetConfig(htim->Instance, sConfig);
 8001aac:	68fb      	ldr	r3, [r7, #12]
 8001aae:	681b      	ldr	r3, [r3, #0]
 8001ab0:	68ba      	ldr	r2, [r7, #8]
 8001ab2:	0011      	movs	r1, r2
 8001ab4:	0018      	movs	r0, r3
 8001ab6:	f000 f977 	bl	8001da8 <TIM_OC2_SetConfig>
      htim->Instance->CCMR1 |= TIM_CCMR1_OC2PE;
 8001aba:	68fb      	ldr	r3, [r7, #12]
 8001abc:	681b      	ldr	r3, [r3, #0]
 8001abe:	699a      	ldr	r2, [r3, #24]
 8001ac0:	68fb      	ldr	r3, [r7, #12]
 8001ac2:	681b      	ldr	r3, [r3, #0]
 8001ac4:	2180      	movs	r1, #128	; 0x80
 8001ac6:	0109      	lsls	r1, r1, #4
 8001ac8:	430a      	orrs	r2, r1
 8001aca:	619a      	str	r2, [r3, #24]
      htim->Instance->CCMR1 &= ~TIM_CCMR1_OC2FE;
 8001acc:	68fb      	ldr	r3, [r7, #12]
 8001ace:	681b      	ldr	r3, [r3, #0]
 8001ad0:	699a      	ldr	r2, [r3, #24]
 8001ad2:	68fb      	ldr	r3, [r7, #12]
 8001ad4:	681b      	ldr	r3, [r3, #0]
 8001ad6:	492f      	ldr	r1, [pc, #188]	; (8001b94 <HAL_TIM_PWM_ConfigChannel+0x16c>)
 8001ad8:	400a      	ands	r2, r1
 8001ada:	619a      	str	r2, [r3, #24]
      htim->Instance->CCMR1 |= sConfig->OCFastMode << 8U;
 8001adc:	68fb      	ldr	r3, [r7, #12]
 8001ade:	681b      	ldr	r3, [r3, #0]
 8001ae0:	6999      	ldr	r1, [r3, #24]
 8001ae2:	68bb      	ldr	r3, [r7, #8]
 8001ae4:	691b      	ldr	r3, [r3, #16]
 8001ae6:	021a      	lsls	r2, r3, #8
 8001ae8:	68fb      	ldr	r3, [r7, #12]
 8001aea:	681b      	ldr	r3, [r3, #0]
 8001aec:	430a      	orrs	r2, r1
 8001aee:	619a      	str	r2, [r3, #24]
      break;
 8001af0:	e043      	b.n	8001b7a <HAL_TIM_PWM_ConfigChannel+0x152>
      TIM_OC3_SetConfig(htim->Instance, sConfig);
 8001af2:	68fb      	ldr	r3, [r7, #12]
 8001af4:	681b      	ldr	r3, [r3, #0]
 8001af6:	68ba      	ldr	r2, [r7, #8]
 8001af8:	0011      	movs	r1, r2
 8001afa:	0018      	movs	r0, r3
 8001afc:	f000 f9d8 	bl	8001eb0 <TIM_OC3_SetConfig>
      htim->Instance->CCMR2 |= TIM_CCMR2_OC3PE;
 8001b00:	68fb      	ldr	r3, [r7, #12]
 8001b02:	681b      	ldr	r3, [r3, #0]
 8001b04:	69da      	ldr	r2, [r3, #28]
 8001b06:	68fb      	ldr	r3, [r7, #12]
 8001b08:	681b      	ldr	r3, [r3, #0]
 8001b0a:	2108      	movs	r1, #8
 8001b0c:	430a      	orrs	r2, r1
 8001b0e:	61da      	str	r2, [r3, #28]
      htim->Instance->CCMR2 &= ~TIM_CCMR2_OC3FE;
 8001b10:	68fb      	ldr	r3, [r7, #12]
 8001b12:	681b      	ldr	r3, [r3, #0]
 8001b14:	69da      	ldr	r2, [r3, #28]
 8001b16:	68fb      	ldr	r3, [r7, #12]
 8001b18:	681b      	ldr	r3, [r3, #0]
 8001b1a:	2104      	movs	r1, #4
 8001b1c:	438a      	bics	r2, r1
 8001b1e:	61da      	str	r2, [r3, #28]
      htim->Instance->CCMR2 |= sConfig->OCFastMode;
 8001b20:	68fb      	ldr	r3, [r7, #12]
 8001b22:	681b      	ldr	r3, [r3, #0]
 8001b24:	69d9      	ldr	r1, [r3, #28]
 8001b26:	68bb      	ldr	r3, [r7, #8]
 8001b28:	691a      	ldr	r2, [r3, #16]
 8001b2a:	68fb      	ldr	r3, [r7, #12]
 8001b2c:	681b      	ldr	r3, [r3, #0]
 8001b2e:	430a      	orrs	r2, r1
 8001b30:	61da      	str	r2, [r3, #28]
      break;
 8001b32:	e022      	b.n	8001b7a <HAL_TIM_PWM_ConfigChannel+0x152>
      TIM_OC4_SetConfig(htim->Instance, sConfig);
 8001b34:	68fb      	ldr	r3, [r7, #12]
 8001b36:	681b      	ldr	r3, [r3, #0]
 8001b38:	68ba      	ldr	r2, [r7, #8]
 8001b3a:	0011      	movs	r1, r2
 8001b3c:	0018      	movs	r0, r3
 8001b3e:	f000 fa3d 	bl	8001fbc <TIM_OC4_SetConfig>
      htim->Instance->CCMR2 |= TIM_CCMR2_OC4PE;
 8001b42:	68fb      	ldr	r3, [r7, #12]
 8001b44:	681b      	ldr	r3, [r3, #0]
 8001b46:	69da      	ldr	r2, [r3, #28]
 8001b48:	68fb      	ldr	r3, [r7, #12]
 8001b4a:	681b      	ldr	r3, [r3, #0]
 8001b4c:	2180      	movs	r1, #128	; 0x80
 8001b4e:	0109      	lsls	r1, r1, #4
 8001b50:	430a      	orrs	r2, r1
 8001b52:	61da      	str	r2, [r3, #28]
      htim->Instance->CCMR2 &= ~TIM_CCMR2_OC4FE;
 8001b54:	68fb      	ldr	r3, [r7, #12]
 8001b56:	681b      	ldr	r3, [r3, #0]
 8001b58:	69da      	ldr	r2, [r3, #28]
 8001b5a:	68fb      	ldr	r3, [r7, #12]
 8001b5c:	681b      	ldr	r3, [r3, #0]
 8001b5e:	490d      	ldr	r1, [pc, #52]	; (8001b94 <HAL_TIM_PWM_ConfigChannel+0x16c>)
 8001b60:	400a      	ands	r2, r1
 8001b62:	61da      	str	r2, [r3, #28]
      htim->Instance->CCMR2 |= sConfig->OCFastMode << 8U;
 8001b64:	68fb      	ldr	r3, [r7, #12]
 8001b66:	681b      	ldr	r3, [r3, #0]
 8001b68:	69d9      	ldr	r1, [r3, #28]
 8001b6a:	68bb      	ldr	r3, [r7, #8]
 8001b6c:	691b      	ldr	r3, [r3, #16]
 8001b6e:	021a      	lsls	r2, r3, #8
 8001b70:	68fb      	ldr	r3, [r7, #12]
 8001b72:	681b      	ldr	r3, [r3, #0]
 8001b74:	430a      	orrs	r2, r1
 8001b76:	61da      	str	r2, [r3, #28]
      break;
 8001b78:	46c0      	nop			; (mov r8, r8)
  }

  htim->State = HAL_TIM_STATE_READY;
 8001b7a:	68fb      	ldr	r3, [r7, #12]
 8001b7c:	223d      	movs	r2, #61	; 0x3d
 8001b7e:	2101      	movs	r1, #1
 8001b80:	5499      	strb	r1, [r3, r2]

  __HAL_UNLOCK(htim);
 8001b82:	68fb      	ldr	r3, [r7, #12]
 8001b84:	223c      	movs	r2, #60	; 0x3c
 8001b86:	2100      	movs	r1, #0
 8001b88:	5499      	strb	r1, [r3, r2]

  return HAL_OK;
 8001b8a:	2300      	movs	r3, #0
}
 8001b8c:	0018      	movs	r0, r3
 8001b8e:	46bd      	mov	sp, r7
 8001b90:	b004      	add	sp, #16
 8001b92:	bd80      	pop	{r7, pc}
 8001b94:	fffffbff 	.word	0xfffffbff

08001b98 <TIM_Base_SetConfig>:
  * @param  TIMx TIM peripheral
  * @param  Structure TIM Base configuration structure
  * @retval None
  */
void TIM_Base_SetConfig(TIM_TypeDef *TIMx, TIM_Base_InitTypeDef *Structure)
{
 8001b98:	b580      	push	{r7, lr}
 8001b9a:	b084      	sub	sp, #16
 8001b9c:	af00      	add	r7, sp, #0
 8001b9e:	6078      	str	r0, [r7, #4]
 8001ba0:	6039      	str	r1, [r7, #0]
  uint32_t tmpcr1;
  tmpcr1 = TIMx->CR1;
 8001ba2:	687b      	ldr	r3, [r7, #4]
 8001ba4:	681b      	ldr	r3, [r3, #0]
 8001ba6:	60fb      	str	r3, [r7, #12]

  /* Set TIM Time Base Unit parameters ---------------------------------------*/
  if (IS_TIM_COUNTER_MODE_SELECT_INSTANCE(TIMx))
 8001ba8:	687b      	ldr	r3, [r7, #4]
 8001baa:	4a34      	ldr	r2, [pc, #208]	; (8001c7c <TIM_Base_SetConfig+0xe4>)
 8001bac:	4293      	cmp	r3, r2
 8001bae:	d008      	beq.n	8001bc2 <TIM_Base_SetConfig+0x2a>
 8001bb0:	687a      	ldr	r2, [r7, #4]
 8001bb2:	2380      	movs	r3, #128	; 0x80
 8001bb4:	05db      	lsls	r3, r3, #23
 8001bb6:	429a      	cmp	r2, r3
 8001bb8:	d003      	beq.n	8001bc2 <TIM_Base_SetConfig+0x2a>
 8001bba:	687b      	ldr	r3, [r7, #4]
 8001bbc:	4a30      	ldr	r2, [pc, #192]	; (8001c80 <TIM_Base_SetConfig+0xe8>)
 8001bbe:	4293      	cmp	r3, r2
 8001bc0:	d108      	bne.n	8001bd4 <TIM_Base_SetConfig+0x3c>
  {
    /* Select the Counter Mode */
    tmpcr1 &= ~(TIM_CR1_DIR | TIM_CR1_CMS);
 8001bc2:	68fb      	ldr	r3, [r7, #12]
 8001bc4:	2270      	movs	r2, #112	; 0x70
 8001bc6:	4393      	bics	r3, r2
 8001bc8:	60fb      	str	r3, [r7, #12]
    tmpcr1 |= Structure->CounterMode;
 8001bca:	683b      	ldr	r3, [r7, #0]
 8001bcc:	685b      	ldr	r3, [r3, #4]
 8001bce:	68fa      	ldr	r2, [r7, #12]
 8001bd0:	4313      	orrs	r3, r2
 8001bd2:	60fb      	str	r3, [r7, #12]
  }

  if (IS_TIM_CLOCK_DIVISION_INSTANCE(TIMx))
 8001bd4:	687b      	ldr	r3, [r7, #4]
 8001bd6:	4a29      	ldr	r2, [pc, #164]	; (8001c7c <TIM_Base_SetConfig+0xe4>)
 8001bd8:	4293      	cmp	r3, r2
 8001bda:	d018      	beq.n	8001c0e <TIM_Base_SetConfig+0x76>
 8001bdc:	687a      	ldr	r2, [r7, #4]
 8001bde:	2380      	movs	r3, #128	; 0x80
 8001be0:	05db      	lsls	r3, r3, #23
 8001be2:	429a      	cmp	r2, r3
 8001be4:	d013      	beq.n	8001c0e <TIM_Base_SetConfig+0x76>
 8001be6:	687b      	ldr	r3, [r7, #4]
 8001be8:	4a25      	ldr	r2, [pc, #148]	; (8001c80 <TIM_Base_SetConfig+0xe8>)
 8001bea:	4293      	cmp	r3, r2
 8001bec:	d00f      	beq.n	8001c0e <TIM_Base_SetConfig+0x76>
 8001bee:	687b      	ldr	r3, [r7, #4]
 8001bf0:	4a24      	ldr	r2, [pc, #144]	; (8001c84 <TIM_Base_SetConfig+0xec>)
 8001bf2:	4293      	cmp	r3, r2
 8001bf4:	d00b      	beq.n	8001c0e <TIM_Base_SetConfig+0x76>
 8001bf6:	687b      	ldr	r3, [r7, #4]
 8001bf8:	4a23      	ldr	r2, [pc, #140]	; (8001c88 <TIM_Base_SetConfig+0xf0>)
 8001bfa:	4293      	cmp	r3, r2
 8001bfc:	d007      	beq.n	8001c0e <TIM_Base_SetConfig+0x76>
 8001bfe:	687b      	ldr	r3, [r7, #4]
 8001c00:	4a22      	ldr	r2, [pc, #136]	; (8001c8c <TIM_Base_SetConfig+0xf4>)
 8001c02:	4293      	cmp	r3, r2
 8001c04:	d003      	beq.n	8001c0e <TIM_Base_SetConfig+0x76>
 8001c06:	687b      	ldr	r3, [r7, #4]
 8001c08:	4a21      	ldr	r2, [pc, #132]	; (8001c90 <TIM_Base_SetConfig+0xf8>)
 8001c0a:	4293      	cmp	r3, r2
 8001c0c:	d108      	bne.n	8001c20 <TIM_Base_SetConfig+0x88>
  {
    /* Set the clock division */
    tmpcr1 &= ~TIM_CR1_CKD;
 8001c0e:	68fb      	ldr	r3, [r7, #12]
 8001c10:	4a20      	ldr	r2, [pc, #128]	; (8001c94 <TIM_Base_SetConfig+0xfc>)
 8001c12:	4013      	ands	r3, r2
 8001c14:	60fb      	str	r3, [r7, #12]
    tmpcr1 |= (uint32_t)Structure->ClockDivision;
 8001c16:	683b      	ldr	r3, [r7, #0]
 8001c18:	68db      	ldr	r3, [r3, #12]
 8001c1a:	68fa      	ldr	r2, [r7, #12]
 8001c1c:	4313      	orrs	r3, r2
 8001c1e:	60fb      	str	r3, [r7, #12]
  }

  /* Set the auto-reload preload */
  MODIFY_REG(tmpcr1, TIM_CR1_ARPE, Structure->AutoReloadPreload);
 8001c20:	68fb      	ldr	r3, [r7, #12]
 8001c22:	2280      	movs	r2, #128	; 0x80
 8001c24:	4393      	bics	r3, r2
 8001c26:	001a      	movs	r2, r3
 8001c28:	683b      	ldr	r3, [r7, #0]
 8001c2a:	695b      	ldr	r3, [r3, #20]
 8001c2c:	4313      	orrs	r3, r2
 8001c2e:	60fb      	str	r3, [r7, #12]

  TIMx->CR1 = tmpcr1;
 8001c30:	687b      	ldr	r3, [r7, #4]
 8001c32:	68fa      	ldr	r2, [r7, #12]
 8001c34:	601a      	str	r2, [r3, #0]

  /* Set the Autoreload value */
  TIMx->ARR = (uint32_t)Structure->Period ;
 8001c36:	683b      	ldr	r3, [r7, #0]
 8001c38:	689a      	ldr	r2, [r3, #8]
 8001c3a:	687b      	ldr	r3, [r7, #4]
 8001c3c:	62da      	str	r2, [r3, #44]	; 0x2c

  /* Set the Prescaler value */
  TIMx->PSC = Structure->Prescaler;
 8001c3e:	683b      	ldr	r3, [r7, #0]
 8001c40:	681a      	ldr	r2, [r3, #0]
 8001c42:	687b      	ldr	r3, [r7, #4]
 8001c44:	629a      	str	r2, [r3, #40]	; 0x28

  if (IS_TIM_REPETITION_COUNTER_INSTANCE(TIMx))
 8001c46:	687b      	ldr	r3, [r7, #4]
 8001c48:	4a0c      	ldr	r2, [pc, #48]	; (8001c7c <TIM_Base_SetConfig+0xe4>)
 8001c4a:	4293      	cmp	r3, r2
 8001c4c:	d00b      	beq.n	8001c66 <TIM_Base_SetConfig+0xce>
 8001c4e:	687b      	ldr	r3, [r7, #4]
 8001c50:	4a0d      	ldr	r2, [pc, #52]	; (8001c88 <TIM_Base_SetConfig+0xf0>)
 8001c52:	4293      	cmp	r3, r2
 8001c54:	d007      	beq.n	8001c66 <TIM_Base_SetConfig+0xce>
 8001c56:	687b      	ldr	r3, [r7, #4]
 8001c58:	4a0c      	ldr	r2, [pc, #48]	; (8001c8c <TIM_Base_SetConfig+0xf4>)
 8001c5a:	4293      	cmp	r3, r2
 8001c5c:	d003      	beq.n	8001c66 <TIM_Base_SetConfig+0xce>
 8001c5e:	687b      	ldr	r3, [r7, #4]
 8001c60:	4a0b      	ldr	r2, [pc, #44]	; (8001c90 <TIM_Base_SetConfig+0xf8>)
 8001c62:	4293      	cmp	r3, r2
 8001c64:	d103      	bne.n	8001c6e <TIM_Base_SetConfig+0xd6>
  {
    /* Set the Repetition Counter value */
    TIMx->RCR = Structure->RepetitionCounter;
 8001c66:	683b      	ldr	r3, [r7, #0]
 8001c68:	691a      	ldr	r2, [r3, #16]
 8001c6a:	687b      	ldr	r3, [r7, #4]
 8001c6c:	631a      	str	r2, [r3, #48]	; 0x30
  }

  /* Generate an update event to reload the Prescaler
     and the repetition counter (only for advanced timer) value immediately */
  TIMx->EGR = TIM_EGR_UG;
 8001c6e:	687b      	ldr	r3, [r7, #4]
 8001c70:	2201      	movs	r2, #1
 8001c72:	615a      	str	r2, [r3, #20]
}
 8001c74:	46c0      	nop			; (mov r8, r8)
 8001c76:	46bd      	mov	sp, r7
 8001c78:	b004      	add	sp, #16
 8001c7a:	bd80      	pop	{r7, pc}
 8001c7c:	40012c00 	.word	0x40012c00
 8001c80:	40000400 	.word	0x40000400
 8001c84:	40002000 	.word	0x40002000
 8001c88:	40014000 	.word	0x40014000
 8001c8c:	40014400 	.word	0x40014400
 8001c90:	40014800 	.word	0x40014800
 8001c94:	fffffcff 	.word	0xfffffcff

08001c98 <TIM_OC1_SetConfig>:
  * @param  TIMx to select the TIM peripheral
  * @param  OC_Config The ouput configuration structure
  * @retval None
  */
static void TIM_OC1_SetConfig(TIM_TypeDef *TIMx, TIM_OC_InitTypeDef *OC_Config)
{
 8001c98:	b580      	push	{r7, lr}
 8001c9a:	b086      	sub	sp, #24
 8001c9c:	af00      	add	r7, sp, #0
 8001c9e:	6078      	str	r0, [r7, #4]
 8001ca0:	6039      	str	r1, [r7, #0]
  uint32_t tmpccmrx;
  uint32_t tmpccer;
  uint32_t tmpcr2;

  /* Disable the Channel 1: Reset the CC1E Bit */
  TIMx->CCER &= ~TIM_CCER_CC1E;
 8001ca2:	687b      	ldr	r3, [r7, #4]
 8001ca4:	6a1b      	ldr	r3, [r3, #32]
 8001ca6:	2201      	movs	r2, #1
 8001ca8:	4393      	bics	r3, r2
 8001caa:	001a      	movs	r2, r3
 8001cac:	687b      	ldr	r3, [r7, #4]
 8001cae:	621a      	str	r2, [r3, #32]

  /* Get the TIMx CCER register value */
  tmpccer = TIMx->CCER;
 8001cb0:	687b      	ldr	r3, [r7, #4]
 8001cb2:	6a1b      	ldr	r3, [r3, #32]
 8001cb4:	617b      	str	r3, [r7, #20]
  /* Get the TIMx CR2 register value */
  tmpcr2 =  TIMx->CR2;
 8001cb6:	687b      	ldr	r3, [r7, #4]
 8001cb8:	685b      	ldr	r3, [r3, #4]
 8001cba:	613b      	str	r3, [r7, #16]

  /* Get the TIMx CCMR1 register value */
  tmpccmrx = TIMx->CCMR1;
 8001cbc:	687b      	ldr	r3, [r7, #4]
 8001cbe:	699b      	ldr	r3, [r3, #24]
 8001cc0:	60fb      	str	r3, [r7, #12]

  /* Reset the Output Compare Mode Bits */
  tmpccmrx &= ~TIM_CCMR1_OC1M;
 8001cc2:	68fb      	ldr	r3, [r7, #12]
 8001cc4:	2270      	movs	r2, #112	; 0x70
 8001cc6:	4393      	bics	r3, r2
 8001cc8:	60fb      	str	r3, [r7, #12]
  tmpccmrx &= ~TIM_CCMR1_CC1S;
 8001cca:	68fb      	ldr	r3, [r7, #12]
 8001ccc:	2203      	movs	r2, #3
 8001cce:	4393      	bics	r3, r2
 8001cd0:	60fb      	str	r3, [r7, #12]
  /* Select the Output Compare Mode */
  tmpccmrx |= OC_Config->OCMode;
 8001cd2:	683b      	ldr	r3, [r7, #0]
 8001cd4:	681b      	ldr	r3, [r3, #0]
 8001cd6:	68fa      	ldr	r2, [r7, #12]
 8001cd8:	4313      	orrs	r3, r2
 8001cda:	60fb      	str	r3, [r7, #12]

  /* Reset the Output Polarity level */
  tmpccer &= ~TIM_CCER_CC1P;
 8001cdc:	697b      	ldr	r3, [r7, #20]
 8001cde:	2202      	movs	r2, #2
 8001ce0:	4393      	bics	r3, r2
 8001ce2:	617b      	str	r3, [r7, #20]
  /* Set the Output Compare Polarity */
  tmpccer |= OC_Config->OCPolarity;
 8001ce4:	683b      	ldr	r3, [r7, #0]
 8001ce6:	689b      	ldr	r3, [r3, #8]
 8001ce8:	697a      	ldr	r2, [r7, #20]
 8001cea:	4313      	orrs	r3, r2
 8001cec:	617b      	str	r3, [r7, #20]

  if (IS_TIM_CCXN_INSTANCE(TIMx, TIM_CHANNEL_1))
 8001cee:	687b      	ldr	r3, [r7, #4]
 8001cf0:	4a27      	ldr	r2, [pc, #156]	; (8001d90 <TIM_OC1_SetConfig+0xf8>)
 8001cf2:	4293      	cmp	r3, r2
 8001cf4:	d00b      	beq.n	8001d0e <TIM_OC1_SetConfig+0x76>
 8001cf6:	687b      	ldr	r3, [r7, #4]
 8001cf8:	4a26      	ldr	r2, [pc, #152]	; (8001d94 <TIM_OC1_SetConfig+0xfc>)
 8001cfa:	4293      	cmp	r3, r2
 8001cfc:	d007      	beq.n	8001d0e <TIM_OC1_SetConfig+0x76>
 8001cfe:	687b      	ldr	r3, [r7, #4]
 8001d00:	4a25      	ldr	r2, [pc, #148]	; (8001d98 <TIM_OC1_SetConfig+0x100>)
 8001d02:	4293      	cmp	r3, r2
 8001d04:	d003      	beq.n	8001d0e <TIM_OC1_SetConfig+0x76>
 8001d06:	687b      	ldr	r3, [r7, #4]
 8001d08:	4a24      	ldr	r2, [pc, #144]	; (8001d9c <TIM_OC1_SetConfig+0x104>)
 8001d0a:	4293      	cmp	r3, r2
 8001d0c:	d10c      	bne.n	8001d28 <TIM_OC1_SetConfig+0x90>
  {
    /* Check parameters */
    assert_param(IS_TIM_OCN_POLARITY(OC_Config->OCNPolarity));

    /* Reset the Output N Polarity level */
    tmpccer &= ~TIM_CCER_CC1NP;
 8001d0e:	697b      	ldr	r3, [r7, #20]
 8001d10:	2208      	movs	r2, #8
 8001d12:	4393      	bics	r3, r2
 8001d14:	617b      	str	r3, [r7, #20]
    /* Set the Output N Polarity */
    tmpccer |= OC_Config->OCNPolarity;
 8001d16:	683b      	ldr	r3, [r7, #0]
 8001d18:	68db      	ldr	r3, [r3, #12]
 8001d1a:	697a      	ldr	r2, [r7, #20]
 8001d1c:	4313      	orrs	r3, r2
 8001d1e:	617b      	str	r3, [r7, #20]
    /* Reset the Output N State */
    tmpccer &= ~TIM_CCER_CC1NE;
 8001d20:	697b      	ldr	r3, [r7, #20]
 8001d22:	2204      	movs	r2, #4
 8001d24:	4393      	bics	r3, r2
 8001d26:	617b      	str	r3, [r7, #20]
  }

  if (IS_TIM_BREAK_INSTANCE(TIMx))
 8001d28:	687b      	ldr	r3, [r7, #4]
 8001d2a:	4a19      	ldr	r2, [pc, #100]	; (8001d90 <TIM_OC1_SetConfig+0xf8>)
 8001d2c:	4293      	cmp	r3, r2
 8001d2e:	d00b      	beq.n	8001d48 <TIM_OC1_SetConfig+0xb0>
 8001d30:	687b      	ldr	r3, [r7, #4]
 8001d32:	4a18      	ldr	r2, [pc, #96]	; (8001d94 <TIM_OC1_SetConfig+0xfc>)
 8001d34:	4293      	cmp	r3, r2
 8001d36:	d007      	beq.n	8001d48 <TIM_OC1_SetConfig+0xb0>
 8001d38:	687b      	ldr	r3, [r7, #4]
 8001d3a:	4a17      	ldr	r2, [pc, #92]	; (8001d98 <TIM_OC1_SetConfig+0x100>)
 8001d3c:	4293      	cmp	r3, r2
 8001d3e:	d003      	beq.n	8001d48 <TIM_OC1_SetConfig+0xb0>
 8001d40:	687b      	ldr	r3, [r7, #4]
 8001d42:	4a16      	ldr	r2, [pc, #88]	; (8001d9c <TIM_OC1_SetConfig+0x104>)
 8001d44:	4293      	cmp	r3, r2
 8001d46:	d111      	bne.n	8001d6c <TIM_OC1_SetConfig+0xd4>
    /* Check parameters */
    assert_param(IS_TIM_OCNIDLE_STATE(OC_Config->OCNIdleState));
    assert_param(IS_TIM_OCIDLE_STATE(OC_Config->OCIdleState));

    /* Reset the Output Compare and Output Compare N IDLE State */
    tmpcr2 &= ~TIM_CR2_OIS1;
 8001d48:	693b      	ldr	r3, [r7, #16]
 8001d4a:	4a15      	ldr	r2, [pc, #84]	; (8001da0 <TIM_OC1_SetConfig+0x108>)
 8001d4c:	4013      	ands	r3, r2
 8001d4e:	613b      	str	r3, [r7, #16]
    tmpcr2 &= ~TIM_CR2_OIS1N;
 8001d50:	693b      	ldr	r3, [r7, #16]
 8001d52:	4a14      	ldr	r2, [pc, #80]	; (8001da4 <TIM_OC1_SetConfig+0x10c>)
 8001d54:	4013      	ands	r3, r2
 8001d56:	613b      	str	r3, [r7, #16]
    /* Set the Output Idle state */
    tmpcr2 |= OC_Config->OCIdleState;
 8001d58:	683b      	ldr	r3, [r7, #0]
 8001d5a:	695b      	ldr	r3, [r3, #20]
 8001d5c:	693a      	ldr	r2, [r7, #16]
 8001d5e:	4313      	orrs	r3, r2
 8001d60:	613b      	str	r3, [r7, #16]
    /* Set the Output N Idle state */
    tmpcr2 |= OC_Config->OCNIdleState;
 8001d62:	683b      	ldr	r3, [r7, #0]
 8001d64:	699b      	ldr	r3, [r3, #24]
 8001d66:	693a      	ldr	r2, [r7, #16]
 8001d68:	4313      	orrs	r3, r2
 8001d6a:	613b      	str	r3, [r7, #16]
  }

  /* Write to TIMx CR2 */
  TIMx->CR2 = tmpcr2;
 8001d6c:	687b      	ldr	r3, [r7, #4]
 8001d6e:	693a      	ldr	r2, [r7, #16]
 8001d70:	605a      	str	r2, [r3, #4]

  /* Write to TIMx CCMR1 */
  TIMx->CCMR1 = tmpccmrx;
 8001d72:	687b      	ldr	r3, [r7, #4]
 8001d74:	68fa      	ldr	r2, [r7, #12]
 8001d76:	619a      	str	r2, [r3, #24]

  /* Set the Capture Compare Register value */
  TIMx->CCR1 = OC_Config->Pulse;
 8001d78:	683b      	ldr	r3, [r7, #0]
 8001d7a:	685a      	ldr	r2, [r3, #4]
 8001d7c:	687b      	ldr	r3, [r7, #4]
 8001d7e:	635a      	str	r2, [r3, #52]	; 0x34

  /* Write to TIMx CCER */
  TIMx->CCER = tmpccer;
 8001d80:	687b      	ldr	r3, [r7, #4]
 8001d82:	697a      	ldr	r2, [r7, #20]
 8001d84:	621a      	str	r2, [r3, #32]
}
 8001d86:	46c0      	nop			; (mov r8, r8)
 8001d88:	46bd      	mov	sp, r7
 8001d8a:	b006      	add	sp, #24
 8001d8c:	bd80      	pop	{r7, pc}
 8001d8e:	46c0      	nop			; (mov r8, r8)
 8001d90:	40012c00 	.word	0x40012c00
 8001d94:	40014000 	.word	0x40014000
 8001d98:	40014400 	.word	0x40014400
 8001d9c:	40014800 	.word	0x40014800
 8001da0:	fffffeff 	.word	0xfffffeff
 8001da4:	fffffdff 	.word	0xfffffdff

08001da8 <TIM_OC2_SetConfig>:
  * @param  TIMx to select the TIM peripheral
  * @param  OC_Config The ouput configuration structure
  * @retval None
  */
void TIM_OC2_SetConfig(TIM_TypeDef *TIMx, TIM_OC_InitTypeDef *OC_Config)
{
 8001da8:	b580      	push	{r7, lr}
 8001daa:	b086      	sub	sp, #24
 8001dac:	af00      	add	r7, sp, #0
 8001dae:	6078      	str	r0, [r7, #4]
 8001db0:	6039      	str	r1, [r7, #0]
  uint32_t tmpccmrx;
  uint32_t tmpccer;
  uint32_t tmpcr2;

  /* Disable the Channel 2: Reset the CC2E Bit */
  TIMx->CCER &= ~TIM_CCER_CC2E;
 8001db2:	687b      	ldr	r3, [r7, #4]
 8001db4:	6a1b      	ldr	r3, [r3, #32]
 8001db6:	2210      	movs	r2, #16
 8001db8:	4393      	bics	r3, r2
 8001dba:	001a      	movs	r2, r3
 8001dbc:	687b      	ldr	r3, [r7, #4]
 8001dbe:	621a      	str	r2, [r3, #32]

  /* Get the TIMx CCER register value */
  tmpccer = TIMx->CCER;
 8001dc0:	687b      	ldr	r3, [r7, #4]
 8001dc2:	6a1b      	ldr	r3, [r3, #32]
 8001dc4:	617b      	str	r3, [r7, #20]
  /* Get the TIMx CR2 register value */
  tmpcr2 =  TIMx->CR2;
 8001dc6:	687b      	ldr	r3, [r7, #4]
 8001dc8:	685b      	ldr	r3, [r3, #4]
 8001dca:	613b      	str	r3, [r7, #16]

  /* Get the TIMx CCMR1 register value */
  tmpccmrx = TIMx->CCMR1;
 8001dcc:	687b      	ldr	r3, [r7, #4]
 8001dce:	699b      	ldr	r3, [r3, #24]
 8001dd0:	60fb      	str	r3, [r7, #12]

  /* Reset the Output Compare mode and Capture/Compare selection Bits */
  tmpccmrx &= ~TIM_CCMR1_OC2M;
 8001dd2:	68fb      	ldr	r3, [r7, #12]
 8001dd4:	4a2e      	ldr	r2, [pc, #184]	; (8001e90 <TIM_OC2_SetConfig+0xe8>)
 8001dd6:	4013      	ands	r3, r2
 8001dd8:	60fb      	str	r3, [r7, #12]
  tmpccmrx &= ~TIM_CCMR1_CC2S;
 8001dda:	68fb      	ldr	r3, [r7, #12]
 8001ddc:	4a2d      	ldr	r2, [pc, #180]	; (8001e94 <TIM_OC2_SetConfig+0xec>)
 8001dde:	4013      	ands	r3, r2
 8001de0:	60fb      	str	r3, [r7, #12]

  /* Select the Output Compare Mode */
  tmpccmrx |= (OC_Config->OCMode << 8U);
 8001de2:	683b      	ldr	r3, [r7, #0]
 8001de4:	681b      	ldr	r3, [r3, #0]
 8001de6:	021b      	lsls	r3, r3, #8
 8001de8:	68fa      	ldr	r2, [r7, #12]
 8001dea:	4313      	orrs	r3, r2
 8001dec:	60fb      	str	r3, [r7, #12]

  /* Reset the Output Polarity level */
  tmpccer &= ~TIM_CCER_CC2P;
 8001dee:	697b      	ldr	r3, [r7, #20]
 8001df0:	2220      	movs	r2, #32
 8001df2:	4393      	bics	r3, r2
 8001df4:	617b      	str	r3, [r7, #20]
  /* Set the Output Compare Polarity */
  tmpccer |= (OC_Config->OCPolarity << 4U);
 8001df6:	683b      	ldr	r3, [r7, #0]
 8001df8:	689b      	ldr	r3, [r3, #8]
 8001dfa:	011b      	lsls	r3, r3, #4
 8001dfc:	697a      	ldr	r2, [r7, #20]
 8001dfe:	4313      	orrs	r3, r2
 8001e00:	617b      	str	r3, [r7, #20]

  if (IS_TIM_CCXN_INSTANCE(TIMx, TIM_CHANNEL_2))
 8001e02:	687b      	ldr	r3, [r7, #4]
 8001e04:	4a24      	ldr	r2, [pc, #144]	; (8001e98 <TIM_OC2_SetConfig+0xf0>)
 8001e06:	4293      	cmp	r3, r2
 8001e08:	d10d      	bne.n	8001e26 <TIM_OC2_SetConfig+0x7e>
  {
    assert_param(IS_TIM_OCN_POLARITY(OC_Config->OCNPolarity));

    /* Reset the Output N Polarity level */
    tmpccer &= ~TIM_CCER_CC2NP;
 8001e0a:	697b      	ldr	r3, [r7, #20]
 8001e0c:	2280      	movs	r2, #128	; 0x80
 8001e0e:	4393      	bics	r3, r2
 8001e10:	617b      	str	r3, [r7, #20]
    /* Set the Output N Polarity */
    tmpccer |= (OC_Config->OCNPolarity << 4U);
 8001e12:	683b      	ldr	r3, [r7, #0]
 8001e14:	68db      	ldr	r3, [r3, #12]
 8001e16:	011b      	lsls	r3, r3, #4
 8001e18:	697a      	ldr	r2, [r7, #20]
 8001e1a:	4313      	orrs	r3, r2
 8001e1c:	617b      	str	r3, [r7, #20]
    /* Reset the Output N State */
    tmpccer &= ~TIM_CCER_CC2NE;
 8001e1e:	697b      	ldr	r3, [r7, #20]
 8001e20:	2240      	movs	r2, #64	; 0x40
 8001e22:	4393      	bics	r3, r2
 8001e24:	617b      	str	r3, [r7, #20]

  }

  if (IS_TIM_BREAK_INSTANCE(TIMx))
 8001e26:	687b      	ldr	r3, [r7, #4]
 8001e28:	4a1b      	ldr	r2, [pc, #108]	; (8001e98 <TIM_OC2_SetConfig+0xf0>)
 8001e2a:	4293      	cmp	r3, r2
 8001e2c:	d00b      	beq.n	8001e46 <TIM_OC2_SetConfig+0x9e>
 8001e2e:	687b      	ldr	r3, [r7, #4]
 8001e30:	4a1a      	ldr	r2, [pc, #104]	; (8001e9c <TIM_OC2_SetConfig+0xf4>)
 8001e32:	4293      	cmp	r3, r2
 8001e34:	d007      	beq.n	8001e46 <TIM_OC2_SetConfig+0x9e>
 8001e36:	687b      	ldr	r3, [r7, #4]
 8001e38:	4a19      	ldr	r2, [pc, #100]	; (8001ea0 <TIM_OC2_SetConfig+0xf8>)
 8001e3a:	4293      	cmp	r3, r2
 8001e3c:	d003      	beq.n	8001e46 <TIM_OC2_SetConfig+0x9e>
 8001e3e:	687b      	ldr	r3, [r7, #4]
 8001e40:	4a18      	ldr	r2, [pc, #96]	; (8001ea4 <TIM_OC2_SetConfig+0xfc>)
 8001e42:	4293      	cmp	r3, r2
 8001e44:	d113      	bne.n	8001e6e <TIM_OC2_SetConfig+0xc6>
    /* Check parameters */
    assert_param(IS_TIM_OCNIDLE_STATE(OC_Config->OCNIdleState));
    assert_param(IS_TIM_OCIDLE_STATE(OC_Config->OCIdleState));

    /* Reset the Output Compare and Output Compare N IDLE State */
    tmpcr2 &= ~TIM_CR2_OIS2;
 8001e46:	693b      	ldr	r3, [r7, #16]
 8001e48:	4a17      	ldr	r2, [pc, #92]	; (8001ea8 <TIM_OC2_SetConfig+0x100>)
 8001e4a:	4013      	ands	r3, r2
 8001e4c:	613b      	str	r3, [r7, #16]
    tmpcr2 &= ~TIM_CR2_OIS2N;
 8001e4e:	693b      	ldr	r3, [r7, #16]
 8001e50:	4a16      	ldr	r2, [pc, #88]	; (8001eac <TIM_OC2_SetConfig+0x104>)
 8001e52:	4013      	ands	r3, r2
 8001e54:	613b      	str	r3, [r7, #16]
    /* Set the Output Idle state */
    tmpcr2 |= (OC_Config->OCIdleState << 2U);
 8001e56:	683b      	ldr	r3, [r7, #0]
 8001e58:	695b      	ldr	r3, [r3, #20]
 8001e5a:	009b      	lsls	r3, r3, #2
 8001e5c:	693a      	ldr	r2, [r7, #16]
 8001e5e:	4313      	orrs	r3, r2
 8001e60:	613b      	str	r3, [r7, #16]
    /* Set the Output N Idle state */
    tmpcr2 |= (OC_Config->OCNIdleState << 2U);
 8001e62:	683b      	ldr	r3, [r7, #0]
 8001e64:	699b      	ldr	r3, [r3, #24]
 8001e66:	009b      	lsls	r3, r3, #2
 8001e68:	693a      	ldr	r2, [r7, #16]
 8001e6a:	4313      	orrs	r3, r2
 8001e6c:	613b      	str	r3, [r7, #16]
  }

  /* Write to TIMx CR2 */
  TIMx->CR2 = tmpcr2;
 8001e6e:	687b      	ldr	r3, [r7, #4]
 8001e70:	693a      	ldr	r2, [r7, #16]
 8001e72:	605a      	str	r2, [r3, #4]

  /* Write to TIMx CCMR1 */
  TIMx->CCMR1 = tmpccmrx;
 8001e74:	687b      	ldr	r3, [r7, #4]
 8001e76:	68fa      	ldr	r2, [r7, #12]
 8001e78:	619a      	str	r2, [r3, #24]

  /* Set the Capture Compare Register value */
  TIMx->CCR2 = OC_Config->Pulse;
 8001e7a:	683b      	ldr	r3, [r7, #0]
 8001e7c:	685a      	ldr	r2, [r3, #4]
 8001e7e:	687b      	ldr	r3, [r7, #4]
 8001e80:	639a      	str	r2, [r3, #56]	; 0x38

  /* Write to TIMx CCER */
  TIMx->CCER = tmpccer;
 8001e82:	687b      	ldr	r3, [r7, #4]
 8001e84:	697a      	ldr	r2, [r7, #20]
 8001e86:	621a      	str	r2, [r3, #32]
}
 8001e88:	46c0      	nop			; (mov r8, r8)
 8001e8a:	46bd      	mov	sp, r7
 8001e8c:	b006      	add	sp, #24
 8001e8e:	bd80      	pop	{r7, pc}
 8001e90:	ffff8fff 	.word	0xffff8fff
 8001e94:	fffffcff 	.word	0xfffffcff
 8001e98:	40012c00 	.word	0x40012c00
 8001e9c:	40014000 	.word	0x40014000
 8001ea0:	40014400 	.word	0x40014400
 8001ea4:	40014800 	.word	0x40014800
 8001ea8:	fffffbff 	.word	0xfffffbff
 8001eac:	fffff7ff 	.word	0xfffff7ff

08001eb0 <TIM_OC3_SetConfig>:
  * @param  TIMx to select the TIM peripheral
  * @param  OC_Config The ouput configuration structure
  * @retval None
  */
static void TIM_OC3_SetConfig(TIM_TypeDef *TIMx, TIM_OC_InitTypeDef *OC_Config)
{
 8001eb0:	b580      	push	{r7, lr}
 8001eb2:	b086      	sub	sp, #24
 8001eb4:	af00      	add	r7, sp, #0
 8001eb6:	6078      	str	r0, [r7, #4]
 8001eb8:	6039      	str	r1, [r7, #0]
  uint32_t tmpccmrx;
  uint32_t tmpccer;
  uint32_t tmpcr2;

  /* Disable the Channel 3: Reset the CC2E Bit */
  TIMx->CCER &= ~TIM_CCER_CC3E;
 8001eba:	687b      	ldr	r3, [r7, #4]
 8001ebc:	6a1b      	ldr	r3, [r3, #32]
 8001ebe:	4a35      	ldr	r2, [pc, #212]	; (8001f94 <TIM_OC3_SetConfig+0xe4>)
 8001ec0:	401a      	ands	r2, r3
 8001ec2:	687b      	ldr	r3, [r7, #4]
 8001ec4:	621a      	str	r2, [r3, #32]

  /* Get the TIMx CCER register value */
  tmpccer = TIMx->CCER;
 8001ec6:	687b      	ldr	r3, [r7, #4]
 8001ec8:	6a1b      	ldr	r3, [r3, #32]
 8001eca:	617b      	str	r3, [r7, #20]
  /* Get the TIMx CR2 register value */
  tmpcr2 =  TIMx->CR2;
 8001ecc:	687b      	ldr	r3, [r7, #4]
 8001ece:	685b      	ldr	r3, [r3, #4]
 8001ed0:	613b      	str	r3, [r7, #16]

  /* Get the TIMx CCMR2 register value */
  tmpccmrx = TIMx->CCMR2;
 8001ed2:	687b      	ldr	r3, [r7, #4]
 8001ed4:	69db      	ldr	r3, [r3, #28]
 8001ed6:	60fb      	str	r3, [r7, #12]

  /* Reset the Output Compare mode and Capture/Compare selection Bits */
  tmpccmrx &= ~TIM_CCMR2_OC3M;
 8001ed8:	68fb      	ldr	r3, [r7, #12]
 8001eda:	2270      	movs	r2, #112	; 0x70
 8001edc:	4393      	bics	r3, r2
 8001ede:	60fb      	str	r3, [r7, #12]
  tmpccmrx &= ~TIM_CCMR2_CC3S;
 8001ee0:	68fb      	ldr	r3, [r7, #12]
 8001ee2:	2203      	movs	r2, #3
 8001ee4:	4393      	bics	r3, r2
 8001ee6:	60fb      	str	r3, [r7, #12]
  /* Select the Output Compare Mode */
  tmpccmrx |= OC_Config->OCMode;
 8001ee8:	683b      	ldr	r3, [r7, #0]
 8001eea:	681b      	ldr	r3, [r3, #0]
 8001eec:	68fa      	ldr	r2, [r7, #12]
 8001eee:	4313      	orrs	r3, r2
 8001ef0:	60fb      	str	r3, [r7, #12]

  /* Reset the Output Polarity level */
  tmpccer &= ~TIM_CCER_CC3P;
 8001ef2:	697b      	ldr	r3, [r7, #20]
 8001ef4:	4a28      	ldr	r2, [pc, #160]	; (8001f98 <TIM_OC3_SetConfig+0xe8>)
 8001ef6:	4013      	ands	r3, r2
 8001ef8:	617b      	str	r3, [r7, #20]
  /* Set the Output Compare Polarity */
  tmpccer |= (OC_Config->OCPolarity << 8U);
 8001efa:	683b      	ldr	r3, [r7, #0]
 8001efc:	689b      	ldr	r3, [r3, #8]
 8001efe:	021b      	lsls	r3, r3, #8
 8001f00:	697a      	ldr	r2, [r7, #20]
 8001f02:	4313      	orrs	r3, r2
 8001f04:	617b      	str	r3, [r7, #20]

  if (IS_TIM_CCXN_INSTANCE(TIMx, TIM_CHANNEL_3))
 8001f06:	687b      	ldr	r3, [r7, #4]
 8001f08:	4a24      	ldr	r2, [pc, #144]	; (8001f9c <TIM_OC3_SetConfig+0xec>)
 8001f0a:	4293      	cmp	r3, r2
 8001f0c:	d10d      	bne.n	8001f2a <TIM_OC3_SetConfig+0x7a>
  {
    assert_param(IS_TIM_OCN_POLARITY(OC_Config->OCNPolarity));

    /* Reset the Output N Polarity level */
    tmpccer &= ~TIM_CCER_CC3NP;
 8001f0e:	697b      	ldr	r3, [r7, #20]
 8001f10:	4a23      	ldr	r2, [pc, #140]	; (8001fa0 <TIM_OC3_SetConfig+0xf0>)
 8001f12:	4013      	ands	r3, r2
 8001f14:	617b      	str	r3, [r7, #20]
    /* Set the Output N Polarity */
    tmpccer |= (OC_Config->OCNPolarity << 8U);
 8001f16:	683b      	ldr	r3, [r7, #0]
 8001f18:	68db      	ldr	r3, [r3, #12]
 8001f1a:	021b      	lsls	r3, r3, #8
 8001f1c:	697a      	ldr	r2, [r7, #20]
 8001f1e:	4313      	orrs	r3, r2
 8001f20:	617b      	str	r3, [r7, #20]
    /* Reset the Output N State */
    tmpccer &= ~TIM_CCER_CC3NE;
 8001f22:	697b      	ldr	r3, [r7, #20]
 8001f24:	4a1f      	ldr	r2, [pc, #124]	; (8001fa4 <TIM_OC3_SetConfig+0xf4>)
 8001f26:	4013      	ands	r3, r2
 8001f28:	617b      	str	r3, [r7, #20]
  }

  if (IS_TIM_BREAK_INSTANCE(TIMx))
 8001f2a:	687b      	ldr	r3, [r7, #4]
 8001f2c:	4a1b      	ldr	r2, [pc, #108]	; (8001f9c <TIM_OC3_SetConfig+0xec>)
 8001f2e:	4293      	cmp	r3, r2
 8001f30:	d00b      	beq.n	8001f4a <TIM_OC3_SetConfig+0x9a>
 8001f32:	687b      	ldr	r3, [r7, #4]
 8001f34:	4a1c      	ldr	r2, [pc, #112]	; (8001fa8 <TIM_OC3_SetConfig+0xf8>)
 8001f36:	4293      	cmp	r3, r2
 8001f38:	d007      	beq.n	8001f4a <TIM_OC3_SetConfig+0x9a>
 8001f3a:	687b      	ldr	r3, [r7, #4]
 8001f3c:	4a1b      	ldr	r2, [pc, #108]	; (8001fac <TIM_OC3_SetConfig+0xfc>)
 8001f3e:	4293      	cmp	r3, r2
 8001f40:	d003      	beq.n	8001f4a <TIM_OC3_SetConfig+0x9a>
 8001f42:	687b      	ldr	r3, [r7, #4]
 8001f44:	4a1a      	ldr	r2, [pc, #104]	; (8001fb0 <TIM_OC3_SetConfig+0x100>)
 8001f46:	4293      	cmp	r3, r2
 8001f48:	d113      	bne.n	8001f72 <TIM_OC3_SetConfig+0xc2>
    /* Check parameters */
    assert_param(IS_TIM_OCNIDLE_STATE(OC_Config->OCNIdleState));
    assert_param(IS_TIM_OCIDLE_STATE(OC_Config->OCIdleState));

    /* Reset the Output Compare and Output Compare N IDLE State */
    tmpcr2 &= ~TIM_CR2_OIS3;
 8001f4a:	693b      	ldr	r3, [r7, #16]
 8001f4c:	4a19      	ldr	r2, [pc, #100]	; (8001fb4 <TIM_OC3_SetConfig+0x104>)
 8001f4e:	4013      	ands	r3, r2
 8001f50:	613b      	str	r3, [r7, #16]
    tmpcr2 &= ~TIM_CR2_OIS3N;
 8001f52:	693b      	ldr	r3, [r7, #16]
 8001f54:	4a18      	ldr	r2, [pc, #96]	; (8001fb8 <TIM_OC3_SetConfig+0x108>)
 8001f56:	4013      	ands	r3, r2
 8001f58:	613b      	str	r3, [r7, #16]
    /* Set the Output Idle state */
    tmpcr2 |= (OC_Config->OCIdleState << 4U);
 8001f5a:	683b      	ldr	r3, [r7, #0]
 8001f5c:	695b      	ldr	r3, [r3, #20]
 8001f5e:	011b      	lsls	r3, r3, #4
 8001f60:	693a      	ldr	r2, [r7, #16]
 8001f62:	4313      	orrs	r3, r2
 8001f64:	613b      	str	r3, [r7, #16]
    /* Set the Output N Idle state */
    tmpcr2 |= (OC_Config->OCNIdleState << 4U);
 8001f66:	683b      	ldr	r3, [r7, #0]
 8001f68:	699b      	ldr	r3, [r3, #24]
 8001f6a:	011b      	lsls	r3, r3, #4
 8001f6c:	693a      	ldr	r2, [r7, #16]
 8001f6e:	4313      	orrs	r3, r2
 8001f70:	613b      	str	r3, [r7, #16]
  }

  /* Write to TIMx CR2 */
  TIMx->CR2 = tmpcr2;
 8001f72:	687b      	ldr	r3, [r7, #4]
 8001f74:	693a      	ldr	r2, [r7, #16]
 8001f76:	605a      	str	r2, [r3, #4]

  /* Write to TIMx CCMR2 */
  TIMx->CCMR2 = tmpccmrx;
 8001f78:	687b      	ldr	r3, [r7, #4]
 8001f7a:	68fa      	ldr	r2, [r7, #12]
 8001f7c:	61da      	str	r2, [r3, #28]

  /* Set the Capture Compare Register value */
  TIMx->CCR3 = OC_Config->Pulse;
 8001f7e:	683b      	ldr	r3, [r7, #0]
 8001f80:	685a      	ldr	r2, [r3, #4]
 8001f82:	687b      	ldr	r3, [r7, #4]
 8001f84:	63da      	str	r2, [r3, #60]	; 0x3c

  /* Write to TIMx CCER */
  TIMx->CCER = tmpccer;
 8001f86:	687b      	ldr	r3, [r7, #4]
 8001f88:	697a      	ldr	r2, [r7, #20]
 8001f8a:	621a      	str	r2, [r3, #32]
}
 8001f8c:	46c0      	nop			; (mov r8, r8)
 8001f8e:	46bd      	mov	sp, r7
 8001f90:	b006      	add	sp, #24
 8001f92:	bd80      	pop	{r7, pc}
 8001f94:	fffffeff 	.word	0xfffffeff
 8001f98:	fffffdff 	.word	0xfffffdff
 8001f9c:	40012c00 	.word	0x40012c00
 8001fa0:	fffff7ff 	.word	0xfffff7ff
 8001fa4:	fffffbff 	.word	0xfffffbff
 8001fa8:	40014000 	.word	0x40014000
 8001fac:	40014400 	.word	0x40014400
 8001fb0:	40014800 	.word	0x40014800
 8001fb4:	ffffefff 	.word	0xffffefff
 8001fb8:	ffffdfff 	.word	0xffffdfff

08001fbc <TIM_OC4_SetConfig>:
  * @param  TIMx to select the TIM peripheral
  * @param  OC_Config The ouput configuration structure
  * @retval None
  */
static void TIM_OC4_SetConfig(TIM_TypeDef *TIMx, TIM_OC_InitTypeDef *OC_Config)
{
 8001fbc:	b580      	push	{r7, lr}
 8001fbe:	b086      	sub	sp, #24
 8001fc0:	af00      	add	r7, sp, #0
 8001fc2:	6078      	str	r0, [r7, #4]
 8001fc4:	6039      	str	r1, [r7, #0]
  uint32_t tmpccmrx;
  uint32_t tmpccer;
  uint32_t tmpcr2;

  /* Disable the Channel 4: Reset the CC4E Bit */
  TIMx->CCER &= ~TIM_CCER_CC4E;
 8001fc6:	687b      	ldr	r3, [r7, #4]
 8001fc8:	6a1b      	ldr	r3, [r3, #32]
 8001fca:	4a28      	ldr	r2, [pc, #160]	; (800206c <TIM_OC4_SetConfig+0xb0>)
 8001fcc:	401a      	ands	r2, r3
 8001fce:	687b      	ldr	r3, [r7, #4]
 8001fd0:	621a      	str	r2, [r3, #32]

  /* Get the TIMx CCER register value */
  tmpccer = TIMx->CCER;
 8001fd2:	687b      	ldr	r3, [r7, #4]
 8001fd4:	6a1b      	ldr	r3, [r3, #32]
 8001fd6:	613b      	str	r3, [r7, #16]
  /* Get the TIMx CR2 register value */
  tmpcr2 =  TIMx->CR2;
 8001fd8:	687b      	ldr	r3, [r7, #4]
 8001fda:	685b      	ldr	r3, [r3, #4]
 8001fdc:	617b      	str	r3, [r7, #20]

  /* Get the TIMx CCMR2 register value */
  tmpccmrx = TIMx->CCMR2;
 8001fde:	687b      	ldr	r3, [r7, #4]
 8001fe0:	69db      	ldr	r3, [r3, #28]
 8001fe2:	60fb      	str	r3, [r7, #12]

  /* Reset the Output Compare mode and Capture/Compare selection Bits */
  tmpccmrx &= ~TIM_CCMR2_OC4M;
 8001fe4:	68fb      	ldr	r3, [r7, #12]
 8001fe6:	4a22      	ldr	r2, [pc, #136]	; (8002070 <TIM_OC4_SetConfig+0xb4>)
 8001fe8:	4013      	ands	r3, r2
 8001fea:	60fb      	str	r3, [r7, #12]
  tmpccmrx &= ~TIM_CCMR2_CC4S;
 8001fec:	68fb      	ldr	r3, [r7, #12]
 8001fee:	4a21      	ldr	r2, [pc, #132]	; (8002074 <TIM_OC4_SetConfig+0xb8>)
 8001ff0:	4013      	ands	r3, r2
 8001ff2:	60fb      	str	r3, [r7, #12]

  /* Select the Output Compare Mode */
  tmpccmrx |= (OC_Config->OCMode << 8U);
 8001ff4:	683b      	ldr	r3, [r7, #0]
 8001ff6:	681b      	ldr	r3, [r3, #0]
 8001ff8:	021b      	lsls	r3, r3, #8
 8001ffa:	68fa      	ldr	r2, [r7, #12]
 8001ffc:	4313      	orrs	r3, r2
 8001ffe:	60fb      	str	r3, [r7, #12]

  /* Reset the Output Polarity level */
  tmpccer &= ~TIM_CCER_CC4P;
 8002000:	693b      	ldr	r3, [r7, #16]
 8002002:	4a1d      	ldr	r2, [pc, #116]	; (8002078 <TIM_OC4_SetConfig+0xbc>)
 8002004:	4013      	ands	r3, r2
 8002006:	613b      	str	r3, [r7, #16]
  /* Set the Output Compare Polarity */
  tmpccer |= (OC_Config->OCPolarity << 12U);
 8002008:	683b      	ldr	r3, [r7, #0]
 800200a:	689b      	ldr	r3, [r3, #8]
 800200c:	031b      	lsls	r3, r3, #12
 800200e:	693a      	ldr	r2, [r7, #16]
 8002010:	4313      	orrs	r3, r2
 8002012:	613b      	str	r3, [r7, #16]

  if (IS_TIM_BREAK_INSTANCE(TIMx))
 8002014:	687b      	ldr	r3, [r7, #4]
 8002016:	4a19      	ldr	r2, [pc, #100]	; (800207c <TIM_OC4_SetConfig+0xc0>)
 8002018:	4293      	cmp	r3, r2
 800201a:	d00b      	beq.n	8002034 <TIM_OC4_SetConfig+0x78>
 800201c:	687b      	ldr	r3, [r7, #4]
 800201e:	4a18      	ldr	r2, [pc, #96]	; (8002080 <TIM_OC4_SetConfig+0xc4>)
 8002020:	4293      	cmp	r3, r2
 8002022:	d007      	beq.n	8002034 <TIM_OC4_SetConfig+0x78>
 8002024:	687b      	ldr	r3, [r7, #4]
 8002026:	4a17      	ldr	r2, [pc, #92]	; (8002084 <TIM_OC4_SetConfig+0xc8>)
 8002028:	4293      	cmp	r3, r2
 800202a:	d003      	beq.n	8002034 <TIM_OC4_SetConfig+0x78>
 800202c:	687b      	ldr	r3, [r7, #4]
 800202e:	4a16      	ldr	r2, [pc, #88]	; (8002088 <TIM_OC4_SetConfig+0xcc>)
 8002030:	4293      	cmp	r3, r2
 8002032:	d109      	bne.n	8002048 <TIM_OC4_SetConfig+0x8c>
  {
    /* Check parameters */
    assert_param(IS_TIM_OCIDLE_STATE(OC_Config->OCIdleState));

    /* Reset the Output Compare IDLE State */
    tmpcr2 &= ~TIM_CR2_OIS4;
 8002034:	697b      	ldr	r3, [r7, #20]
 8002036:	4a15      	ldr	r2, [pc, #84]	; (800208c <TIM_OC4_SetConfig+0xd0>)
 8002038:	4013      	ands	r3, r2
 800203a:	617b      	str	r3, [r7, #20]

    /* Set the Output Idle state */
    tmpcr2 |= (OC_Config->OCIdleState << 6U);
 800203c:	683b      	ldr	r3, [r7, #0]
 800203e:	695b      	ldr	r3, [r3, #20]
 8002040:	019b      	lsls	r3, r3, #6
 8002042:	697a      	ldr	r2, [r7, #20]
 8002044:	4313      	orrs	r3, r2
 8002046:	617b      	str	r3, [r7, #20]
  }

  /* Write to TIMx CR2 */
  TIMx->CR2 = tmpcr2;
 8002048:	687b      	ldr	r3, [r7, #4]
 800204a:	697a      	ldr	r2, [r7, #20]
 800204c:	605a      	str	r2, [r3, #4]

  /* Write to TIMx CCMR2 */
  TIMx->CCMR2 = tmpccmrx;
 800204e:	687b      	ldr	r3, [r7, #4]
 8002050:	68fa      	ldr	r2, [r7, #12]
 8002052:	61da      	str	r2, [r3, #28]

  /* Set the Capture Compare Register value */
  TIMx->CCR4 = OC_Config->Pulse;
 8002054:	683b      	ldr	r3, [r7, #0]
 8002056:	685a      	ldr	r2, [r3, #4]
 8002058:	687b      	ldr	r3, [r7, #4]
 800205a:	641a      	str	r2, [r3, #64]	; 0x40

  /* Write to TIMx CCER */
  TIMx->CCER = tmpccer;
 800205c:	687b      	ldr	r3, [r7, #4]
 800205e:	693a      	ldr	r2, [r7, #16]
 8002060:	621a      	str	r2, [r3, #32]
}
 8002062:	46c0      	nop			; (mov r8, r8)
 8002064:	46bd      	mov	sp, r7
 8002066:	b006      	add	sp, #24
 8002068:	bd80      	pop	{r7, pc}
 800206a:	46c0      	nop			; (mov r8, r8)
 800206c:	ffffefff 	.word	0xffffefff
 8002070:	ffff8fff 	.word	0xffff8fff
 8002074:	fffffcff 	.word	0xfffffcff
 8002078:	ffffdfff 	.word	0xffffdfff
 800207c:	40012c00 	.word	0x40012c00
 8002080:	40014000 	.word	0x40014000
 8002084:	40014400 	.word	0x40014400
 8002088:	40014800 	.word	0x40014800
 800208c:	ffffbfff 	.word	0xffffbfff

08002090 <TIM_CCxChannelCmd>:
  * @param  ChannelState specifies the TIM Channel CCxE bit new state.
  *          This parameter can be: TIM_CCx_ENABLE or TIM_CCx_DISABLE.
  * @retval None
  */
void TIM_CCxChannelCmd(TIM_TypeDef *TIMx, uint32_t Channel, uint32_t ChannelState)
{
 8002090:	b580      	push	{r7, lr}
 8002092:	b086      	sub	sp, #24
 8002094:	af00      	add	r7, sp, #0
 8002096:	60f8      	str	r0, [r7, #12]
 8002098:	60b9      	str	r1, [r7, #8]
 800209a:	607a      	str	r2, [r7, #4]

  /* Check the parameters */
  assert_param(IS_TIM_CC1_INSTANCE(TIMx));
  assert_param(IS_TIM_CHANNELS(Channel));

  tmp = TIM_CCER_CC1E << (Channel & 0x1FU); /* 0x1FU = 31 bits max shift */
 800209c:	68bb      	ldr	r3, [r7, #8]
 800209e:	221f      	movs	r2, #31
 80020a0:	4013      	ands	r3, r2
 80020a2:	2201      	movs	r2, #1
 80020a4:	409a      	lsls	r2, r3
 80020a6:	0013      	movs	r3, r2
 80020a8:	617b      	str	r3, [r7, #20]

  /* Reset the CCxE Bit */
  TIMx->CCER &= ~tmp;
 80020aa:	68fb      	ldr	r3, [r7, #12]
 80020ac:	6a1b      	ldr	r3, [r3, #32]
 80020ae:	697a      	ldr	r2, [r7, #20]
 80020b0:	43d2      	mvns	r2, r2
 80020b2:	401a      	ands	r2, r3
 80020b4:	68fb      	ldr	r3, [r7, #12]
 80020b6:	621a      	str	r2, [r3, #32]

  /* Set or reset the CCxE Bit */
  TIMx->CCER |= (uint32_t)(ChannelState << (Channel & 0x1FU)); /* 0x1FU = 31 bits max shift */
 80020b8:	68fb      	ldr	r3, [r7, #12]
 80020ba:	6a1a      	ldr	r2, [r3, #32]
 80020bc:	68bb      	ldr	r3, [r7, #8]
 80020be:	211f      	movs	r1, #31
 80020c0:	400b      	ands	r3, r1
 80020c2:	6879      	ldr	r1, [r7, #4]
 80020c4:	4099      	lsls	r1, r3
 80020c6:	000b      	movs	r3, r1
 80020c8:	431a      	orrs	r2, r3
 80020ca:	68fb      	ldr	r3, [r7, #12]
 80020cc:	621a      	str	r2, [r3, #32]
}
 80020ce:	46c0      	nop			; (mov r8, r8)
 80020d0:	46bd      	mov	sp, r7
 80020d2:	b006      	add	sp, #24
 80020d4:	bd80      	pop	{r7, pc}
	...

080020d8 <HAL_TIMEx_MasterConfigSynchronization>:
  *         mode.
  * @retval HAL status
  */
HAL_StatusTypeDef HAL_TIMEx_MasterConfigSynchronization(TIM_HandleTypeDef *htim,
                                                        TIM_MasterConfigTypeDef *sMasterConfig)
{
 80020d8:	b580      	push	{r7, lr}
 80020da:	b084      	sub	sp, #16
 80020dc:	af00      	add	r7, sp, #0
 80020de:	6078      	str	r0, [r7, #4]
 80020e0:	6039      	str	r1, [r7, #0]
  assert_param(IS_TIM_MASTER_INSTANCE(htim->Instance));
  assert_param(IS_TIM_TRGO_SOURCE(sMasterConfig->MasterOutputTrigger));
  assert_param(IS_TIM_MSM_STATE(sMasterConfig->MasterSlaveMode));

  /* Check input state */
  __HAL_LOCK(htim);
 80020e2:	687b      	ldr	r3, [r7, #4]
 80020e4:	223c      	movs	r2, #60	; 0x3c
 80020e6:	5c9b      	ldrb	r3, [r3, r2]
 80020e8:	2b01      	cmp	r3, #1
 80020ea:	d101      	bne.n	80020f0 <HAL_TIMEx_MasterConfigSynchronization+0x18>
 80020ec:	2302      	movs	r3, #2
 80020ee:	e047      	b.n	8002180 <HAL_TIMEx_MasterConfigSynchronization+0xa8>
 80020f0:	687b      	ldr	r3, [r7, #4]
 80020f2:	223c      	movs	r2, #60	; 0x3c
 80020f4:	2101      	movs	r1, #1
 80020f6:	5499      	strb	r1, [r3, r2]

  /* Change the handler state */
  htim->State = HAL_TIM_STATE_BUSY;
 80020f8:	687b      	ldr	r3, [r7, #4]
 80020fa:	223d      	movs	r2, #61	; 0x3d
 80020fc:	2102      	movs	r1, #2
 80020fe:	5499      	strb	r1, [r3, r2]

  /* Get the TIMx CR2 register value */
  tmpcr2 = htim->Instance->CR2;
 8002100:	687b      	ldr	r3, [r7, #4]
 8002102:	681b      	ldr	r3, [r3, #0]
 8002104:	685b      	ldr	r3, [r3, #4]
 8002106:	60fb      	str	r3, [r7, #12]

  /* Get the TIMx SMCR register value */
  tmpsmcr = htim->Instance->SMCR;
 8002108:	687b      	ldr	r3, [r7, #4]
 800210a:	681b      	ldr	r3, [r3, #0]
 800210c:	689b      	ldr	r3, [r3, #8]
 800210e:	60bb      	str	r3, [r7, #8]

  /* Reset the MMS Bits */
  tmpcr2 &= ~TIM_CR2_MMS;
 8002110:	68fb      	ldr	r3, [r7, #12]
 8002112:	2270      	movs	r2, #112	; 0x70
 8002114:	4393      	bics	r3, r2
 8002116:	60fb      	str	r3, [r7, #12]
  /* Select the TRGO source */
  tmpcr2 |=  sMasterConfig->MasterOutputTrigger;
 8002118:	683b      	ldr	r3, [r7, #0]
 800211a:	681b      	ldr	r3, [r3, #0]
 800211c:	68fa      	ldr	r2, [r7, #12]
 800211e:	4313      	orrs	r3, r2
 8002120:	60fb      	str	r3, [r7, #12]

  /* Update TIMx CR2 */
  htim->Instance->CR2 = tmpcr2;
 8002122:	687b      	ldr	r3, [r7, #4]
 8002124:	681b      	ldr	r3, [r3, #0]
 8002126:	68fa      	ldr	r2, [r7, #12]
 8002128:	605a      	str	r2, [r3, #4]

  if (IS_TIM_SLAVE_INSTANCE(htim->Instance))
 800212a:	687b      	ldr	r3, [r7, #4]
 800212c:	681b      	ldr	r3, [r3, #0]
 800212e:	4a16      	ldr	r2, [pc, #88]	; (8002188 <HAL_TIMEx_MasterConfigSynchronization+0xb0>)
 8002130:	4293      	cmp	r3, r2
 8002132:	d00f      	beq.n	8002154 <HAL_TIMEx_MasterConfigSynchronization+0x7c>
 8002134:	687b      	ldr	r3, [r7, #4]
 8002136:	681a      	ldr	r2, [r3, #0]
 8002138:	2380      	movs	r3, #128	; 0x80
 800213a:	05db      	lsls	r3, r3, #23
 800213c:	429a      	cmp	r2, r3
 800213e:	d009      	beq.n	8002154 <HAL_TIMEx_MasterConfigSynchronization+0x7c>
 8002140:	687b      	ldr	r3, [r7, #4]
 8002142:	681b      	ldr	r3, [r3, #0]
 8002144:	4a11      	ldr	r2, [pc, #68]	; (800218c <HAL_TIMEx_MasterConfigSynchronization+0xb4>)
 8002146:	4293      	cmp	r3, r2
 8002148:	d004      	beq.n	8002154 <HAL_TIMEx_MasterConfigSynchronization+0x7c>
 800214a:	687b      	ldr	r3, [r7, #4]
 800214c:	681b      	ldr	r3, [r3, #0]
 800214e:	4a10      	ldr	r2, [pc, #64]	; (8002190 <HAL_TIMEx_MasterConfigSynchronization+0xb8>)
 8002150:	4293      	cmp	r3, r2
 8002152:	d10c      	bne.n	800216e <HAL_TIMEx_MasterConfigSynchronization+0x96>
  {
    /* Reset the MSM Bit */
    tmpsmcr &= ~TIM_SMCR_MSM;
 8002154:	68bb      	ldr	r3, [r7, #8]
 8002156:	2280      	movs	r2, #128	; 0x80
 8002158:	4393      	bics	r3, r2
 800215a:	60bb      	str	r3, [r7, #8]
    /* Set master mode */
    tmpsmcr |= sMasterConfig->MasterSlaveMode;
 800215c:	683b      	ldr	r3, [r7, #0]
 800215e:	685b      	ldr	r3, [r3, #4]
 8002160:	68ba      	ldr	r2, [r7, #8]
 8002162:	4313      	orrs	r3, r2
 8002164:	60bb      	str	r3, [r7, #8]

    /* Update TIMx SMCR */
    htim->Instance->SMCR = tmpsmcr;
 8002166:	687b      	ldr	r3, [r7, #4]
 8002168:	681b      	ldr	r3, [r3, #0]
 800216a:	68ba      	ldr	r2, [r7, #8]
 800216c:	609a      	str	r2, [r3, #8]
  }

  /* Change the htim state */
  htim->State = HAL_TIM_STATE_READY;
 800216e:	687b      	ldr	r3, [r7, #4]
 8002170:	223d      	movs	r2, #61	; 0x3d
 8002172:	2101      	movs	r1, #1
 8002174:	5499      	strb	r1, [r3, r2]

  __HAL_UNLOCK(htim);
 8002176:	687b      	ldr	r3, [r7, #4]
 8002178:	223c      	movs	r2, #60	; 0x3c
 800217a:	2100      	movs	r1, #0
 800217c:	5499      	strb	r1, [r3, r2]

  return HAL_OK;
 800217e:	2300      	movs	r3, #0
}
 8002180:	0018      	movs	r0, r3
 8002182:	46bd      	mov	sp, r7
 8002184:	b004      	add	sp, #16
 8002186:	bd80      	pop	{r7, pc}
 8002188:	40012c00 	.word	0x40012c00
 800218c:	40000400 	.word	0x40000400
 8002190:	40014000 	.word	0x40014000

08002194 <HAL_TIMEx_ConfigBreakDeadTime>:
  *         interrupt can be enabled by calling the @ref __HAL_TIM_ENABLE_IT macro.
  * @retval HAL status
  */
HAL_StatusTypeDef HAL_TIMEx_ConfigBreakDeadTime(TIM_HandleTypeDef *htim,
                                                TIM_BreakDeadTimeConfigTypeDef *sBreakDeadTimeConfig)
{
 8002194:	b580      	push	{r7, lr}
 8002196:	b084      	sub	sp, #16
 8002198:	af00      	add	r7, sp, #0
 800219a:	6078      	str	r0, [r7, #4]
 800219c:	6039      	str	r1, [r7, #0]
  /* Keep this variable initialized to 0 as it is used to configure BDTR register */
  uint32_t tmpbdtr = 0U;
 800219e:	2300      	movs	r3, #0
 80021a0:	60fb      	str	r3, [r7, #12]
  assert_param(IS_TIM_BREAK_STATE(sBreakDeadTimeConfig->BreakState));
  assert_param(IS_TIM_BREAK_POLARITY(sBreakDeadTimeConfig->BreakPolarity));
  assert_param(IS_TIM_AUTOMATIC_OUTPUT_STATE(sBreakDeadTimeConfig->AutomaticOutput));

  /* Check input state */
  __HAL_LOCK(htim);
 80021a2:	687b      	ldr	r3, [r7, #4]
 80021a4:	223c      	movs	r2, #60	; 0x3c
 80021a6:	5c9b      	ldrb	r3, [r3, r2]
 80021a8:	2b01      	cmp	r3, #1
 80021aa:	d101      	bne.n	80021b0 <HAL_TIMEx_ConfigBreakDeadTime+0x1c>
 80021ac:	2302      	movs	r3, #2
 80021ae:	e03e      	b.n	800222e <HAL_TIMEx_ConfigBreakDeadTime+0x9a>
 80021b0:	687b      	ldr	r3, [r7, #4]
 80021b2:	223c      	movs	r2, #60	; 0x3c
 80021b4:	2101      	movs	r1, #1
 80021b6:	5499      	strb	r1, [r3, r2]

  /* Set the Lock level, the Break enable Bit and the Polarity, the OSSR State,
     the OSSI State, the dead time value and the Automatic Output Enable Bit */

  /* Set the BDTR bits */
  MODIFY_REG(tmpbdtr, TIM_BDTR_DTG, sBreakDeadTimeConfig->DeadTime);
 80021b8:	68fb      	ldr	r3, [r7, #12]
 80021ba:	22ff      	movs	r2, #255	; 0xff
 80021bc:	4393      	bics	r3, r2
 80021be:	001a      	movs	r2, r3
 80021c0:	683b      	ldr	r3, [r7, #0]
 80021c2:	68db      	ldr	r3, [r3, #12]
 80021c4:	4313      	orrs	r3, r2
 80021c6:	60fb      	str	r3, [r7, #12]
  MODIFY_REG(tmpbdtr, TIM_BDTR_LOCK, sBreakDeadTimeConfig->LockLevel);
 80021c8:	68fb      	ldr	r3, [r7, #12]
 80021ca:	4a1b      	ldr	r2, [pc, #108]	; (8002238 <HAL_TIMEx_ConfigBreakDeadTime+0xa4>)
 80021cc:	401a      	ands	r2, r3
 80021ce:	683b      	ldr	r3, [r7, #0]
 80021d0:	689b      	ldr	r3, [r3, #8]
 80021d2:	4313      	orrs	r3, r2
 80021d4:	60fb      	str	r3, [r7, #12]
  MODIFY_REG(tmpbdtr, TIM_BDTR_OSSI, sBreakDeadTimeConfig->OffStateIDLEMode);
 80021d6:	68fb      	ldr	r3, [r7, #12]
 80021d8:	4a18      	ldr	r2, [pc, #96]	; (800223c <HAL_TIMEx_ConfigBreakDeadTime+0xa8>)
 80021da:	401a      	ands	r2, r3
 80021dc:	683b      	ldr	r3, [r7, #0]
 80021de:	685b      	ldr	r3, [r3, #4]
 80021e0:	4313      	orrs	r3, r2
 80021e2:	60fb      	str	r3, [r7, #12]
  MODIFY_REG(tmpbdtr, TIM_BDTR_OSSR, sBreakDeadTimeConfig->OffStateRunMode);
 80021e4:	68fb      	ldr	r3, [r7, #12]
 80021e6:	4a16      	ldr	r2, [pc, #88]	; (8002240 <HAL_TIMEx_ConfigBreakDeadTime+0xac>)
 80021e8:	401a      	ands	r2, r3
 80021ea:	683b      	ldr	r3, [r7, #0]
 80021ec:	681b      	ldr	r3, [r3, #0]
 80021ee:	4313      	orrs	r3, r2
 80021f0:	60fb      	str	r3, [r7, #12]
  MODIFY_REG(tmpbdtr, TIM_BDTR_BKE, sBreakDeadTimeConfig->BreakState);
 80021f2:	68fb      	ldr	r3, [r7, #12]
 80021f4:	4a13      	ldr	r2, [pc, #76]	; (8002244 <HAL_TIMEx_ConfigBreakDeadTime+0xb0>)
 80021f6:	401a      	ands	r2, r3
 80021f8:	683b      	ldr	r3, [r7, #0]
 80021fa:	691b      	ldr	r3, [r3, #16]
 80021fc:	4313      	orrs	r3, r2
 80021fe:	60fb      	str	r3, [r7, #12]
  MODIFY_REG(tmpbdtr, TIM_BDTR_BKP, sBreakDeadTimeConfig->BreakPolarity);
 8002200:	68fb      	ldr	r3, [r7, #12]
 8002202:	4a11      	ldr	r2, [pc, #68]	; (8002248 <HAL_TIMEx_ConfigBreakDeadTime+0xb4>)
 8002204:	401a      	ands	r2, r3
 8002206:	683b      	ldr	r3, [r7, #0]
 8002208:	695b      	ldr	r3, [r3, #20]
 800220a:	4313      	orrs	r3, r2
 800220c:	60fb      	str	r3, [r7, #12]
  MODIFY_REG(tmpbdtr, TIM_BDTR_AOE, sBreakDeadTimeConfig->AutomaticOutput);
 800220e:	68fb      	ldr	r3, [r7, #12]
 8002210:	4a0e      	ldr	r2, [pc, #56]	; (800224c <HAL_TIMEx_ConfigBreakDeadTime+0xb8>)
 8002212:	401a      	ands	r2, r3
 8002214:	683b      	ldr	r3, [r7, #0]
 8002216:	69db      	ldr	r3, [r3, #28]
 8002218:	4313      	orrs	r3, r2
 800221a:	60fb      	str	r3, [r7, #12]


  /* Set TIMx_BDTR */
  htim->Instance->BDTR = tmpbdtr;
 800221c:	687b      	ldr	r3, [r7, #4]
 800221e:	681b      	ldr	r3, [r3, #0]
 8002220:	68fa      	ldr	r2, [r7, #12]
 8002222:	645a      	str	r2, [r3, #68]	; 0x44

  __HAL_UNLOCK(htim);
 8002224:	687b      	ldr	r3, [r7, #4]
 8002226:	223c      	movs	r2, #60	; 0x3c
 8002228:	2100      	movs	r1, #0
 800222a:	5499      	strb	r1, [r3, r2]

  return HAL_OK;
 800222c:	2300      	movs	r3, #0
}
 800222e:	0018      	movs	r0, r3
 8002230:	46bd      	mov	sp, r7
 8002232:	b004      	add	sp, #16
 8002234:	bd80      	pop	{r7, pc}
 8002236:	46c0      	nop			; (mov r8, r8)
 8002238:	fffffcff 	.word	0xfffffcff
 800223c:	fffffbff 	.word	0xfffffbff
 8002240:	fffff7ff 	.word	0xfffff7ff
 8002244:	ffffefff 	.word	0xffffefff
 8002248:	ffffdfff 	.word	0xffffdfff
 800224c:	ffffbfff 	.word	0xffffbfff

08002250 <__libc_init_array>:
 8002250:	b570      	push	{r4, r5, r6, lr}
 8002252:	2600      	movs	r6, #0
 8002254:	4d0c      	ldr	r5, [pc, #48]	; (8002288 <__libc_init_array+0x38>)
 8002256:	4c0d      	ldr	r4, [pc, #52]	; (800228c <__libc_init_array+0x3c>)
 8002258:	1b64      	subs	r4, r4, r5
 800225a:	10a4      	asrs	r4, r4, #2
 800225c:	42a6      	cmp	r6, r4
 800225e:	d109      	bne.n	8002274 <__libc_init_array+0x24>
 8002260:	2600      	movs	r6, #0
 8002262:	f000 f821 	bl	80022a8 <_init>
 8002266:	4d0a      	ldr	r5, [pc, #40]	; (8002290 <__libc_init_array+0x40>)
 8002268:	4c0a      	ldr	r4, [pc, #40]	; (8002294 <__libc_init_array+0x44>)
 800226a:	1b64      	subs	r4, r4, r5
 800226c:	10a4      	asrs	r4, r4, #2
 800226e:	42a6      	cmp	r6, r4
 8002270:	d105      	bne.n	800227e <__libc_init_array+0x2e>
 8002272:	bd70      	pop	{r4, r5, r6, pc}
 8002274:	00b3      	lsls	r3, r6, #2
 8002276:	58eb      	ldr	r3, [r5, r3]
 8002278:	4798      	blx	r3
 800227a:	3601      	adds	r6, #1
 800227c:	e7ee      	b.n	800225c <__libc_init_array+0xc>
 800227e:	00b3      	lsls	r3, r6, #2
 8002280:	58eb      	ldr	r3, [r5, r3]
 8002282:	4798      	blx	r3
 8002284:	3601      	adds	r6, #1
 8002286:	e7f2      	b.n	800226e <__libc_init_array+0x1e>
 8002288:	080022f0 	.word	0x080022f0
 800228c:	080022f0 	.word	0x080022f0
 8002290:	080022f0 	.word	0x080022f0
 8002294:	080022f4 	.word	0x080022f4

08002298 <memset>:
 8002298:	0003      	movs	r3, r0
 800229a:	1812      	adds	r2, r2, r0
 800229c:	4293      	cmp	r3, r2
 800229e:	d100      	bne.n	80022a2 <memset+0xa>
 80022a0:	4770      	bx	lr
 80022a2:	7019      	strb	r1, [r3, #0]
 80022a4:	3301      	adds	r3, #1
 80022a6:	e7f9      	b.n	800229c <memset+0x4>

080022a8 <_init>:
 80022a8:	b5f8      	push	{r3, r4, r5, r6, r7, lr}
 80022aa:	46c0      	nop			; (mov r8, r8)
 80022ac:	bcf8      	pop	{r3, r4, r5, r6, r7}
 80022ae:	bc08      	pop	{r3}
 80022b0:	469e      	mov	lr, r3
 80022b2:	4770      	bx	lr

080022b4 <_fini>:
 80022b4:	b5f8      	push	{r3, r4, r5, r6, r7, lr}
 80022b6:	46c0      	nop			; (mov r8, r8)
 80022b8:	bcf8      	pop	{r3, r4, r5, r6, r7}
 80022ba:	bc08      	pop	{r3}
 80022bc:	469e      	mov	lr, r3
 80022be:	4770      	bx	lr
