
UV_LED_DRIVER_SW_STM32L051.elf:     file format elf32-littlearm

Sections:
Idx Name          Size      VMA       LMA       File off  Algn
  0 .isr_vector   000000c0  08000000  08000000  00010000  2**0
                  CONTENTS, ALLOC, LOAD, READONLY, DATA
  1 .text         0000282c  080000c0  080000c0  000100c0  2**2
                  CONTENTS, ALLOC, LOAD, READONLY, CODE
  2 .rodata       00000030  080028ec  080028ec  000128ec  2**2
                  CONTENTS, ALLOC, LOAD, READONLY, DATA
  3 .ARM.extab    00000000  0800291c  0800291c  0002000c  2**0
                  CONTENTS
  4 .ARM          00000000  0800291c  0800291c  0002000c  2**0
                  CONTENTS
  5 .preinit_array 00000000  0800291c  0800291c  0002000c  2**0
                  CONTENTS, ALLOC, LOAD, DATA
  6 .init_array   00000004  0800291c  0800291c  0001291c  2**2
                  CONTENTS, ALLOC, LOAD, DATA
  7 .fini_array   00000004  08002920  08002920  00012920  2**2
                  CONTENTS, ALLOC, LOAD, DATA
  8 .data         0000000c  20000000  08002924  00020000  2**2
                  CONTENTS, ALLOC, LOAD, DATA
  9 .bss          00000124  2000000c  08002930  0002000c  2**2
                  ALLOC
 10 ._user_heap_stack 00000600  20000130  08002930  00020130  2**0
                  ALLOC
 11 .ARM.attributes 00000028  00000000  00000000  0002000c  2**0
                  CONTENTS, READONLY
 12 .debug_info   0000792f  00000000  00000000  00020034  2**0
                  CONTENTS, READONLY, DEBUGGING
 13 .debug_abbrev 0000159a  00000000  00000000  00027963  2**0
                  CONTENTS, READONLY, DEBUGGING
 14 .debug_aranges 000008f0  00000000  00000000  00028f00  2**3
                  CONTENTS, READONLY, DEBUGGING
 15 .debug_ranges 00000828  00000000  00000000  000297f0  2**3
                  CONTENTS, READONLY, DEBUGGING
 16 .debug_macro  0000daff  00000000  00000000  0002a018  2**0
                  CONTENTS, READONLY, DEBUGGING
 17 .debug_line   000070ca  00000000  00000000  00037b17  2**0
                  CONTENTS, READONLY, DEBUGGING
 18 .debug_str    0004fa8a  00000000  00000000  0003ebe1  2**0
                  CONTENTS, READONLY, DEBUGGING
 19 .comment      0000007b  00000000  00000000  0008e66b  2**0
                  CONTENTS, READONLY
 20 .debug_frame  00001f34  00000000  00000000  0008e6e8  2**2
                  CONTENTS, READONLY, DEBUGGING

Disassembly of section .text:

080000c0 <__do_global_dtors_aux>:
 80000c0:	b510      	push	{r4, lr}
 80000c2:	4c06      	ldr	r4, [pc, #24]	; (80000dc <__do_global_dtors_aux+0x1c>)
 80000c4:	7823      	ldrb	r3, [r4, #0]
 80000c6:	2b00      	cmp	r3, #0
 80000c8:	d107      	bne.n	80000da <__do_global_dtors_aux+0x1a>
 80000ca:	4b05      	ldr	r3, [pc, #20]	; (80000e0 <__do_global_dtors_aux+0x20>)
 80000cc:	2b00      	cmp	r3, #0
 80000ce:	d002      	beq.n	80000d6 <__do_global_dtors_aux+0x16>
 80000d0:	4804      	ldr	r0, [pc, #16]	; (80000e4 <__do_global_dtors_aux+0x24>)
 80000d2:	e000      	b.n	80000d6 <__do_global_dtors_aux+0x16>
 80000d4:	bf00      	nop
 80000d6:	2301      	movs	r3, #1
 80000d8:	7023      	strb	r3, [r4, #0]
 80000da:	bd10      	pop	{r4, pc}
 80000dc:	2000000c 	.word	0x2000000c
 80000e0:	00000000 	.word	0x00000000
 80000e4:	080028d4 	.word	0x080028d4

080000e8 <frame_dummy>:
 80000e8:	4b04      	ldr	r3, [pc, #16]	; (80000fc <frame_dummy+0x14>)
 80000ea:	b510      	push	{r4, lr}
 80000ec:	2b00      	cmp	r3, #0
 80000ee:	d003      	beq.n	80000f8 <frame_dummy+0x10>
 80000f0:	4903      	ldr	r1, [pc, #12]	; (8000100 <frame_dummy+0x18>)
 80000f2:	4804      	ldr	r0, [pc, #16]	; (8000104 <frame_dummy+0x1c>)
 80000f4:	e000      	b.n	80000f8 <frame_dummy+0x10>
 80000f6:	bf00      	nop
 80000f8:	bd10      	pop	{r4, pc}
 80000fa:	46c0      	nop			; (mov r8, r8)
 80000fc:	00000000 	.word	0x00000000
 8000100:	20000010 	.word	0x20000010
 8000104:	080028d4 	.word	0x080028d4

08000108 <__udivsi3>:
 8000108:	2200      	movs	r2, #0
 800010a:	0843      	lsrs	r3, r0, #1
 800010c:	428b      	cmp	r3, r1
 800010e:	d374      	bcc.n	80001fa <__udivsi3+0xf2>
 8000110:	0903      	lsrs	r3, r0, #4
 8000112:	428b      	cmp	r3, r1
 8000114:	d35f      	bcc.n	80001d6 <__udivsi3+0xce>
 8000116:	0a03      	lsrs	r3, r0, #8
 8000118:	428b      	cmp	r3, r1
 800011a:	d344      	bcc.n	80001a6 <__udivsi3+0x9e>
 800011c:	0b03      	lsrs	r3, r0, #12
 800011e:	428b      	cmp	r3, r1
 8000120:	d328      	bcc.n	8000174 <__udivsi3+0x6c>
 8000122:	0c03      	lsrs	r3, r0, #16
 8000124:	428b      	cmp	r3, r1
 8000126:	d30d      	bcc.n	8000144 <__udivsi3+0x3c>
 8000128:	22ff      	movs	r2, #255	; 0xff
 800012a:	0209      	lsls	r1, r1, #8
 800012c:	ba12      	rev	r2, r2
 800012e:	0c03      	lsrs	r3, r0, #16
 8000130:	428b      	cmp	r3, r1
 8000132:	d302      	bcc.n	800013a <__udivsi3+0x32>
 8000134:	1212      	asrs	r2, r2, #8
 8000136:	0209      	lsls	r1, r1, #8
 8000138:	d065      	beq.n	8000206 <__udivsi3+0xfe>
 800013a:	0b03      	lsrs	r3, r0, #12
 800013c:	428b      	cmp	r3, r1
 800013e:	d319      	bcc.n	8000174 <__udivsi3+0x6c>
 8000140:	e000      	b.n	8000144 <__udivsi3+0x3c>
 8000142:	0a09      	lsrs	r1, r1, #8
 8000144:	0bc3      	lsrs	r3, r0, #15
 8000146:	428b      	cmp	r3, r1
 8000148:	d301      	bcc.n	800014e <__udivsi3+0x46>
 800014a:	03cb      	lsls	r3, r1, #15
 800014c:	1ac0      	subs	r0, r0, r3
 800014e:	4152      	adcs	r2, r2
 8000150:	0b83      	lsrs	r3, r0, #14
 8000152:	428b      	cmp	r3, r1
 8000154:	d301      	bcc.n	800015a <__udivsi3+0x52>
 8000156:	038b      	lsls	r3, r1, #14
 8000158:	1ac0      	subs	r0, r0, r3
 800015a:	4152      	adcs	r2, r2
 800015c:	0b43      	lsrs	r3, r0, #13
 800015e:	428b      	cmp	r3, r1
 8000160:	d301      	bcc.n	8000166 <__udivsi3+0x5e>
 8000162:	034b      	lsls	r3, r1, #13
 8000164:	1ac0      	subs	r0, r0, r3
 8000166:	4152      	adcs	r2, r2
 8000168:	0b03      	lsrs	r3, r0, #12
 800016a:	428b      	cmp	r3, r1
 800016c:	d301      	bcc.n	8000172 <__udivsi3+0x6a>
 800016e:	030b      	lsls	r3, r1, #12
 8000170:	1ac0      	subs	r0, r0, r3
 8000172:	4152      	adcs	r2, r2
 8000174:	0ac3      	lsrs	r3, r0, #11
 8000176:	428b      	cmp	r3, r1
 8000178:	d301      	bcc.n	800017e <__udivsi3+0x76>
 800017a:	02cb      	lsls	r3, r1, #11
 800017c:	1ac0      	subs	r0, r0, r3
 800017e:	4152      	adcs	r2, r2
 8000180:	0a83      	lsrs	r3, r0, #10
 8000182:	428b      	cmp	r3, r1
 8000184:	d301      	bcc.n	800018a <__udivsi3+0x82>
 8000186:	028b      	lsls	r3, r1, #10
 8000188:	1ac0      	subs	r0, r0, r3
 800018a:	4152      	adcs	r2, r2
 800018c:	0a43      	lsrs	r3, r0, #9
 800018e:	428b      	cmp	r3, r1
 8000190:	d301      	bcc.n	8000196 <__udivsi3+0x8e>
 8000192:	024b      	lsls	r3, r1, #9
 8000194:	1ac0      	subs	r0, r0, r3
 8000196:	4152      	adcs	r2, r2
 8000198:	0a03      	lsrs	r3, r0, #8
 800019a:	428b      	cmp	r3, r1
 800019c:	d301      	bcc.n	80001a2 <__udivsi3+0x9a>
 800019e:	020b      	lsls	r3, r1, #8
 80001a0:	1ac0      	subs	r0, r0, r3
 80001a2:	4152      	adcs	r2, r2
 80001a4:	d2cd      	bcs.n	8000142 <__udivsi3+0x3a>
 80001a6:	09c3      	lsrs	r3, r0, #7
 80001a8:	428b      	cmp	r3, r1
 80001aa:	d301      	bcc.n	80001b0 <__udivsi3+0xa8>
 80001ac:	01cb      	lsls	r3, r1, #7
 80001ae:	1ac0      	subs	r0, r0, r3
 80001b0:	4152      	adcs	r2, r2
 80001b2:	0983      	lsrs	r3, r0, #6
 80001b4:	428b      	cmp	r3, r1
 80001b6:	d301      	bcc.n	80001bc <__udivsi3+0xb4>
 80001b8:	018b      	lsls	r3, r1, #6
 80001ba:	1ac0      	subs	r0, r0, r3
 80001bc:	4152      	adcs	r2, r2
 80001be:	0943      	lsrs	r3, r0, #5
 80001c0:	428b      	cmp	r3, r1
 80001c2:	d301      	bcc.n	80001c8 <__udivsi3+0xc0>
 80001c4:	014b      	lsls	r3, r1, #5
 80001c6:	1ac0      	subs	r0, r0, r3
 80001c8:	4152      	adcs	r2, r2
 80001ca:	0903      	lsrs	r3, r0, #4
 80001cc:	428b      	cmp	r3, r1
 80001ce:	d301      	bcc.n	80001d4 <__udivsi3+0xcc>
 80001d0:	010b      	lsls	r3, r1, #4
 80001d2:	1ac0      	subs	r0, r0, r3
 80001d4:	4152      	adcs	r2, r2
 80001d6:	08c3      	lsrs	r3, r0, #3
 80001d8:	428b      	cmp	r3, r1
 80001da:	d301      	bcc.n	80001e0 <__udivsi3+0xd8>
 80001dc:	00cb      	lsls	r3, r1, #3
 80001de:	1ac0      	subs	r0, r0, r3
 80001e0:	4152      	adcs	r2, r2
 80001e2:	0883      	lsrs	r3, r0, #2
 80001e4:	428b      	cmp	r3, r1
 80001e6:	d301      	bcc.n	80001ec <__udivsi3+0xe4>
 80001e8:	008b      	lsls	r3, r1, #2
 80001ea:	1ac0      	subs	r0, r0, r3
 80001ec:	4152      	adcs	r2, r2
 80001ee:	0843      	lsrs	r3, r0, #1
 80001f0:	428b      	cmp	r3, r1
 80001f2:	d301      	bcc.n	80001f8 <__udivsi3+0xf0>
 80001f4:	004b      	lsls	r3, r1, #1
 80001f6:	1ac0      	subs	r0, r0, r3
 80001f8:	4152      	adcs	r2, r2
 80001fa:	1a41      	subs	r1, r0, r1
 80001fc:	d200      	bcs.n	8000200 <__udivsi3+0xf8>
 80001fe:	4601      	mov	r1, r0
 8000200:	4152      	adcs	r2, r2
 8000202:	4610      	mov	r0, r2
 8000204:	4770      	bx	lr
 8000206:	e7ff      	b.n	8000208 <__udivsi3+0x100>
 8000208:	b501      	push	{r0, lr}
 800020a:	2000      	movs	r0, #0
 800020c:	f000 f806 	bl	800021c <__aeabi_idiv0>
 8000210:	bd02      	pop	{r1, pc}
 8000212:	46c0      	nop			; (mov r8, r8)

08000214 <__aeabi_uidivmod>:
 8000214:	2900      	cmp	r1, #0
 8000216:	d0f7      	beq.n	8000208 <__udivsi3+0x100>
 8000218:	e776      	b.n	8000108 <__udivsi3>
 800021a:	4770      	bx	lr

0800021c <__aeabi_idiv0>:
 800021c:	4770      	bx	lr
 800021e:	46c0      	nop			; (mov r8, r8)

08000220 <MX_GPIO_Init>:
        * Output
        * EVENT_OUT
        * EXTI
*/
void MX_GPIO_Init(void)
{
 8000220:	b590      	push	{r4, r7, lr}
 8000222:	b089      	sub	sp, #36	; 0x24
 8000224:	af00      	add	r7, sp, #0

  GPIO_InitTypeDef GPIO_InitStruct = {0};
 8000226:	240c      	movs	r4, #12
 8000228:	193b      	adds	r3, r7, r4
 800022a:	0018      	movs	r0, r3
 800022c:	2314      	movs	r3, #20
 800022e:	001a      	movs	r2, r3
 8000230:	2100      	movs	r1, #0
 8000232:	f002 fb47 	bl	80028c4 <memset>

  /* GPIO Ports Clock Enable */
  __HAL_RCC_GPIOA_CLK_ENABLE();
 8000236:	4b28      	ldr	r3, [pc, #160]	; (80002d8 <MX_GPIO_Init+0xb8>)
 8000238:	695a      	ldr	r2, [r3, #20]
 800023a:	4b27      	ldr	r3, [pc, #156]	; (80002d8 <MX_GPIO_Init+0xb8>)
 800023c:	2180      	movs	r1, #128	; 0x80
 800023e:	0289      	lsls	r1, r1, #10
 8000240:	430a      	orrs	r2, r1
 8000242:	615a      	str	r2, [r3, #20]
 8000244:	4b24      	ldr	r3, [pc, #144]	; (80002d8 <MX_GPIO_Init+0xb8>)
 8000246:	695a      	ldr	r2, [r3, #20]
 8000248:	2380      	movs	r3, #128	; 0x80
 800024a:	029b      	lsls	r3, r3, #10
 800024c:	4013      	ands	r3, r2
 800024e:	60bb      	str	r3, [r7, #8]
 8000250:	68bb      	ldr	r3, [r7, #8]
  __HAL_RCC_GPIOB_CLK_ENABLE();
 8000252:	4b21      	ldr	r3, [pc, #132]	; (80002d8 <MX_GPIO_Init+0xb8>)
 8000254:	695a      	ldr	r2, [r3, #20]
 8000256:	4b20      	ldr	r3, [pc, #128]	; (80002d8 <MX_GPIO_Init+0xb8>)
 8000258:	2180      	movs	r1, #128	; 0x80
 800025a:	02c9      	lsls	r1, r1, #11
 800025c:	430a      	orrs	r2, r1
 800025e:	615a      	str	r2, [r3, #20]
 8000260:	4b1d      	ldr	r3, [pc, #116]	; (80002d8 <MX_GPIO_Init+0xb8>)
 8000262:	695a      	ldr	r2, [r3, #20]
 8000264:	2380      	movs	r3, #128	; 0x80
 8000266:	02db      	lsls	r3, r3, #11
 8000268:	4013      	ands	r3, r2
 800026a:	607b      	str	r3, [r7, #4]
 800026c:	687b      	ldr	r3, [r7, #4]

  /*Configure GPIO pin Output Level */
  HAL_GPIO_WritePin(GPIOA, STATUS_BLUE_Pin|STATUS_GREEN_Pin|STATUS_RED_Pin, GPIO_PIN_RESET);
 800026e:	2390      	movs	r3, #144	; 0x90
 8000270:	05db      	lsls	r3, r3, #23
 8000272:	2200      	movs	r2, #0
 8000274:	2107      	movs	r1, #7
 8000276:	0018      	movs	r0, r3
 8000278:	f000 ff98 	bl	80011ac <HAL_GPIO_WritePin>

  /*Configure GPIO pins : PAPin PAPin PAPin */
  GPIO_InitStruct.Pin = STATUS_BLUE_Pin|STATUS_GREEN_Pin|STATUS_RED_Pin;
 800027c:	193b      	adds	r3, r7, r4
 800027e:	2207      	movs	r2, #7
 8000280:	601a      	str	r2, [r3, #0]
  GPIO_InitStruct.Mode = GPIO_MODE_OUTPUT_PP;
 8000282:	193b      	adds	r3, r7, r4
 8000284:	2201      	movs	r2, #1
 8000286:	605a      	str	r2, [r3, #4]
  GPIO_InitStruct.Pull = GPIO_NOPULL;
 8000288:	193b      	adds	r3, r7, r4
 800028a:	2200      	movs	r2, #0
 800028c:	609a      	str	r2, [r3, #8]
  GPIO_InitStruct.Speed = GPIO_SPEED_FREQ_LOW;
 800028e:	193b      	adds	r3, r7, r4
 8000290:	2200      	movs	r2, #0
 8000292:	60da      	str	r2, [r3, #12]
  HAL_GPIO_Init(GPIOA, &GPIO_InitStruct);
 8000294:	193a      	adds	r2, r7, r4
 8000296:	2390      	movs	r3, #144	; 0x90
 8000298:	05db      	lsls	r3, r3, #23
 800029a:	0011      	movs	r1, r2
 800029c:	0018      	movs	r0, r3
 800029e:	f000 fe15 	bl	8000ecc <HAL_GPIO_Init>

  /*Configure GPIO pin : PtPin */
  GPIO_InitStruct.Pin = ENABLE_LED_Pin;
 80002a2:	193b      	adds	r3, r7, r4
 80002a4:	2201      	movs	r2, #1
 80002a6:	601a      	str	r2, [r3, #0]
  GPIO_InitStruct.Mode = GPIO_MODE_IT_FALLING;
 80002a8:	193b      	adds	r3, r7, r4
 80002aa:	4a0c      	ldr	r2, [pc, #48]	; (80002dc <MX_GPIO_Init+0xbc>)
 80002ac:	605a      	str	r2, [r3, #4]
  GPIO_InitStruct.Pull = GPIO_PULLUP;
 80002ae:	193b      	adds	r3, r7, r4
 80002b0:	2201      	movs	r2, #1
 80002b2:	609a      	str	r2, [r3, #8]
  HAL_GPIO_Init(ENABLE_LED_GPIO_Port, &GPIO_InitStruct);
 80002b4:	193b      	adds	r3, r7, r4
 80002b6:	4a0a      	ldr	r2, [pc, #40]	; (80002e0 <MX_GPIO_Init+0xc0>)
 80002b8:	0019      	movs	r1, r3
 80002ba:	0010      	movs	r0, r2
 80002bc:	f000 fe06 	bl	8000ecc <HAL_GPIO_Init>

  /* EXTI interrupt init*/
  HAL_NVIC_SetPriority(EXTI0_1_IRQn, 0, 0);
 80002c0:	2200      	movs	r2, #0
 80002c2:	2100      	movs	r1, #0
 80002c4:	2005      	movs	r0, #5
 80002c6:	f000 fdcf 	bl	8000e68 <HAL_NVIC_SetPriority>
  HAL_NVIC_EnableIRQ(EXTI0_1_IRQn);
 80002ca:	2005      	movs	r0, #5
 80002cc:	f000 fde1 	bl	8000e92 <HAL_NVIC_EnableIRQ>

}
 80002d0:	46c0      	nop			; (mov r8, r8)
 80002d2:	46bd      	mov	sp, r7
 80002d4:	b009      	add	sp, #36	; 0x24
 80002d6:	bd90      	pop	{r4, r7, pc}
 80002d8:	40021000 	.word	0x40021000
 80002dc:	10210000 	.word	0x10210000
 80002e0:	48000400 	.word	0x48000400

080002e4 <main>:
/**
  * @brief  The application entry point.
  * @retval int
  */
int main(void)
{
 80002e4:	b580      	push	{r7, lr}
 80002e6:	b082      	sub	sp, #8
 80002e8:	af00      	add	r7, sp, #0
  /* USER CODE END 1 */

  /* MCU Configuration--------------------------------------------------------*/

  /* Reset of all peripherals, Initializes the Flash interface and the Systick. */
  HAL_Init();
 80002ea:	f000 fcad 	bl	8000c48 <HAL_Init>
  /* USER CODE BEGIN Init */

  /* USER CODE END Init */

  /* Configure the system clock */
  SystemClock_Config();
 80002ee:	f000 f8cf 	bl	8000490 <SystemClock_Config>
  /* USER CODE BEGIN SysInit */

  /* USER CODE END SysInit */

  /* Initialize all configured peripherals */
  MX_GPIO_Init();
 80002f2:	f7ff ff95 	bl	8000220 <MX_GPIO_Init>
  MX_TIM1_Init();
 80002f6:	f000 f9b1 	bl	800065c <MX_TIM1_Init>
  MX_TIM17_Init();
 80002fa:	f000 fb15 	bl	8000928 <MX_TIM17_Init>
  MX_TIM14_Init();
 80002fe:	f000 fac5 	bl	800088c <MX_TIM14_Init>
  MX_TIM2_Init();
 8000302:	f000 fa61 	bl	80007c8 <MX_TIM2_Init>
  /* USER CODE BEGIN 2 */

  // PWM OUTPUTS
  HAL_TIM_Base_Start(&htim17);
 8000306:	4b5b      	ldr	r3, [pc, #364]	; (8000474 <main+0x190>)
 8000308:	0018      	movs	r0, r3
 800030a:	f001 fc27 	bl	8001b5c <HAL_TIM_Base_Start>
  HAL_TIM_PWM_Start(&htim1, TIM_CHANNEL_1);
 800030e:	4b5a      	ldr	r3, [pc, #360]	; (8000478 <main+0x194>)
 8000310:	2100      	movs	r1, #0
 8000312:	0018      	movs	r0, r3
 8000314:	f001 fc70 	bl	8001bf8 <HAL_TIM_PWM_Start>
  HAL_TIM_PWM_Start(&htim1, TIM_CHANNEL_2);
 8000318:	4b57      	ldr	r3, [pc, #348]	; (8000478 <main+0x194>)
 800031a:	2104      	movs	r1, #4
 800031c:	0018      	movs	r0, r3
 800031e:	f001 fc6b 	bl	8001bf8 <HAL_TIM_PWM_Start>
  HAL_TIM_PWM_Start(&htim1, TIM_CHANNEL_3);
 8000322:	4b55      	ldr	r3, [pc, #340]	; (8000478 <main+0x194>)
 8000324:	2108      	movs	r1, #8
 8000326:	0018      	movs	r0, r3
 8000328:	f001 fc66 	bl	8001bf8 <HAL_TIM_PWM_Start>
  HAL_TIM_PWM_Start(&htim1, TIM_CHANNEL_4);
 800032c:	4b52      	ldr	r3, [pc, #328]	; (8000478 <main+0x194>)
 800032e:	210c      	movs	r1, #12
 8000330:	0018      	movs	r0, r3
 8000332:	f001 fc61 	bl	8001bf8 <HAL_TIM_PWM_Start>
  HAL_TIM_PWM_Start(&htim14, TIM_CHANNEL_1);
 8000336:	4b51      	ldr	r3, [pc, #324]	; (800047c <main+0x198>)
 8000338:	2100      	movs	r1, #0
 800033a:	0018      	movs	r0, r3
 800033c:	f001 fc5c 	bl	8001bf8 <HAL_TIM_PWM_Start>

  TIM1->ARR = 0xFF;		// 	255
 8000340:	4b4f      	ldr	r3, [pc, #316]	; (8000480 <main+0x19c>)
 8000342:	22ff      	movs	r2, #255	; 0xff
 8000344:	62da      	str	r2, [r3, #44]	; 0x2c
  TIM1->CCR1 = 0x00;	// 	31	12.5%
 8000346:	4b4e      	ldr	r3, [pc, #312]	; (8000480 <main+0x19c>)
 8000348:	2200      	movs	r2, #0
 800034a:	635a      	str	r2, [r3, #52]	; 0x34
  TIM1->CCR2 = 0x00;	//	63	25%
 800034c:	4b4c      	ldr	r3, [pc, #304]	; (8000480 <main+0x19c>)
 800034e:	2200      	movs	r2, #0
 8000350:	639a      	str	r2, [r3, #56]	; 0x38
  TIM1->CCR3 = 0x00;	//	127 50%
 8000352:	4b4b      	ldr	r3, [pc, #300]	; (8000480 <main+0x19c>)
 8000354:	2200      	movs	r2, #0
 8000356:	63da      	str	r2, [r3, #60]	; 0x3c
  TIM1->CCR4 = 0x00;	//  191 75%
 8000358:	4b49      	ldr	r3, [pc, #292]	; (8000480 <main+0x19c>)
 800035a:	2200      	movs	r2, #0
 800035c:	641a      	str	r2, [r3, #64]	; 0x40

  TIM14->ARR = 0xFF;	// 	255
 800035e:	4b49      	ldr	r3, [pc, #292]	; (8000484 <main+0x1a0>)
 8000360:	22ff      	movs	r2, #255	; 0xff
 8000362:	62da      	str	r2, [r3, #44]	; 0x2c
  TIM14->CCR1 = MAX_ENCODER_LIMIT;	// 	31	12.5%
 8000364:	4b47      	ldr	r3, [pc, #284]	; (8000484 <main+0x1a0>)
 8000366:	22aa      	movs	r2, #170	; 0xaa
 8000368:	0092      	lsls	r2, r2, #2
 800036a:	635a      	str	r2, [r3, #52]	; 0x34

  // LED OUTPUT
  HAL_GPIO_WritePin(GPIOA, STATUS_BLUE_Pin, GPIO_PIN_SET);
 800036c:	2390      	movs	r3, #144	; 0x90
 800036e:	05db      	lsls	r3, r3, #23
 8000370:	2201      	movs	r2, #1
 8000372:	2101      	movs	r1, #1
 8000374:	0018      	movs	r0, r3
 8000376:	f000 ff19 	bl	80011ac <HAL_GPIO_WritePin>
  HAL_GPIO_WritePin(GPIOA, STATUS_RED_Pin, GPIO_PIN_RESET);
 800037a:	2390      	movs	r3, #144	; 0x90
 800037c:	05db      	lsls	r3, r3, #23
 800037e:	2200      	movs	r2, #0
 8000380:	2104      	movs	r1, #4
 8000382:	0018      	movs	r0, r3
 8000384:	f000 ff12 	bl	80011ac <HAL_GPIO_WritePin>
  HAL_GPIO_WritePin(GPIOA, STATUS_GREEN_Pin, GPIO_PIN_SET);
 8000388:	2390      	movs	r3, #144	; 0x90
 800038a:	05db      	lsls	r3, r3, #23
 800038c:	2201      	movs	r2, #1
 800038e:	2102      	movs	r1, #2
 8000390:	0018      	movs	r0, r3
 8000392:	f000 ff0b 	bl	80011ac <HAL_GPIO_WritePin>

  // rotary encoder
  HAL_TIM_Base_Start(&htim2);
 8000396:	4b3c      	ldr	r3, [pc, #240]	; (8000488 <main+0x1a4>)
 8000398:	0018      	movs	r0, r3
 800039a:	f001 fbdf 	bl	8001b5c <HAL_TIM_Base_Start>
  uint8_t previous_encoder_dir = (TIM2->CR1 & TIM_CR1_DIR);
 800039e:	2380      	movs	r3, #128	; 0x80
 80003a0:	05db      	lsls	r3, r3, #23
 80003a2:	681b      	ldr	r3, [r3, #0]
 80003a4:	b2da      	uxtb	r2, r3
 80003a6:	1dfb      	adds	r3, r7, #7
 80003a8:	2110      	movs	r1, #16
 80003aa:	400a      	ands	r2, r1
 80003ac:	701a      	strb	r2, [r3, #0]
  /* USER CODE BEGIN WHILE */
  while (1)
  {


	  	uint8_t new_encoder_dir = (TIM2->CR1 & TIM_CR1_DIR);
 80003ae:	2380      	movs	r3, #128	; 0x80
 80003b0:	05db      	lsls	r3, r3, #23
 80003b2:	681b      	ldr	r3, [r3, #0]
 80003b4:	b2da      	uxtb	r2, r3
 80003b6:	1dbb      	adds	r3, r7, #6
 80003b8:	2110      	movs	r1, #16
 80003ba:	400a      	ands	r2, r1
 80003bc:	701a      	strb	r2, [r3, #0]

	  	// encoder direction has changed from increasing to decreasing
		if( (previous_encoder_dir) && (!new_encoder_dir) )
 80003be:	1dfb      	adds	r3, r7, #7
 80003c0:	781b      	ldrb	r3, [r3, #0]
 80003c2:	2b00      	cmp	r3, #0
 80003c4:	d02b      	beq.n	800041e <main+0x13a>
 80003c6:	1dbb      	adds	r3, r7, #6
 80003c8:	781b      	ldrb	r3, [r3, #0]
 80003ca:	2b00      	cmp	r3, #0
 80003cc:	d127      	bne.n	800041e <main+0x13a>
		{
			// prevent the CCR registers from rolling around to value above MAX_ENCODER_LIMIT
			// This will prevent sudden output change from 0% to 100% duty cycle!
			if((TIM1->CCR1-ENCODER_MODIFY_VALUE) < MAX_ENCODER_LIMIT)
 80003ce:	4b2c      	ldr	r3, [pc, #176]	; (8000480 <main+0x19c>)
 80003d0:	6b5b      	ldr	r3, [r3, #52]	; 0x34
 80003d2:	3b01      	subs	r3, #1
 80003d4:	4a2d      	ldr	r2, [pc, #180]	; (800048c <main+0x1a8>)
 80003d6:	4293      	cmp	r3, r2
 80003d8:	d818      	bhi.n	800040c <main+0x128>
			{
				TIM1->CCR1 = TIM1->CCR1 - ENCODER_MODIFY_VALUE;
 80003da:	4b29      	ldr	r3, [pc, #164]	; (8000480 <main+0x19c>)
 80003dc:	6b5a      	ldr	r2, [r3, #52]	; 0x34
 80003de:	4b28      	ldr	r3, [pc, #160]	; (8000480 <main+0x19c>)
 80003e0:	3a01      	subs	r2, #1
 80003e2:	635a      	str	r2, [r3, #52]	; 0x34
				TIM1->CCR2 = TIM1->CCR1 - ENCODER_MODIFY_VALUE;
 80003e4:	4b26      	ldr	r3, [pc, #152]	; (8000480 <main+0x19c>)
 80003e6:	6b5a      	ldr	r2, [r3, #52]	; 0x34
 80003e8:	4b25      	ldr	r3, [pc, #148]	; (8000480 <main+0x19c>)
 80003ea:	3a01      	subs	r2, #1
 80003ec:	639a      	str	r2, [r3, #56]	; 0x38
				TIM1->CCR3 = TIM1->CCR3 - ENCODER_MODIFY_VALUE;
 80003ee:	4b24      	ldr	r3, [pc, #144]	; (8000480 <main+0x19c>)
 80003f0:	6bda      	ldr	r2, [r3, #60]	; 0x3c
 80003f2:	4b23      	ldr	r3, [pc, #140]	; (8000480 <main+0x19c>)
 80003f4:	3a01      	subs	r2, #1
 80003f6:	63da      	str	r2, [r3, #60]	; 0x3c
				TIM1->CCR4 = TIM1->CCR4 - ENCODER_MODIFY_VALUE;
 80003f8:	4b21      	ldr	r3, [pc, #132]	; (8000480 <main+0x19c>)
 80003fa:	6c1a      	ldr	r2, [r3, #64]	; 0x40
 80003fc:	4b20      	ldr	r3, [pc, #128]	; (8000480 <main+0x19c>)
 80003fe:	3a01      	subs	r2, #1
 8000400:	641a      	str	r2, [r3, #64]	; 0x40
				TIM14->CCR1 = TIM14->CCR1 - ENCODER_MODIFY_VALUE;
 8000402:	4b20      	ldr	r3, [pc, #128]	; (8000484 <main+0x1a0>)
 8000404:	6b5a      	ldr	r2, [r3, #52]	; 0x34
 8000406:	4b1f      	ldr	r3, [pc, #124]	; (8000484 <main+0x1a0>)
 8000408:	3a01      	subs	r2, #1
 800040a:	635a      	str	r2, [r3, #52]	; 0x34
			}
			previous_encoder_dir = (TIM2->CR1 & TIM_CR1_DIR);
 800040c:	2380      	movs	r3, #128	; 0x80
 800040e:	05db      	lsls	r3, r3, #23
 8000410:	681b      	ldr	r3, [r3, #0]
 8000412:	b2da      	uxtb	r2, r3
 8000414:	1dfb      	adds	r3, r7, #7
 8000416:	2110      	movs	r1, #16
 8000418:	400a      	ands	r2, r1
 800041a:	701a      	strb	r2, [r3, #0]
 800041c:	e028      	b.n	8000470 <main+0x18c>
		}
		// encoder direction has changed from decreasing to increasing
		else if( (!previous_encoder_dir) && (new_encoder_dir) )
 800041e:	1dfb      	adds	r3, r7, #7
 8000420:	781b      	ldrb	r3, [r3, #0]
 8000422:	2b00      	cmp	r3, #0
 8000424:	d1c3      	bne.n	80003ae <main+0xca>
 8000426:	1dbb      	adds	r3, r7, #6
 8000428:	781b      	ldrb	r3, [r3, #0]
 800042a:	2b00      	cmp	r3, #0
 800042c:	d0bf      	beq.n	80003ae <main+0xca>
		{
			TIM1->CCR1 = TIM1->CCR1 + ENCODER_MODIFY_VALUE;
 800042e:	4b14      	ldr	r3, [pc, #80]	; (8000480 <main+0x19c>)
 8000430:	6b5a      	ldr	r2, [r3, #52]	; 0x34
 8000432:	4b13      	ldr	r3, [pc, #76]	; (8000480 <main+0x19c>)
 8000434:	3201      	adds	r2, #1
 8000436:	635a      	str	r2, [r3, #52]	; 0x34
			TIM1->CCR2 = TIM1->CCR2 + ENCODER_MODIFY_VALUE;
 8000438:	4b11      	ldr	r3, [pc, #68]	; (8000480 <main+0x19c>)
 800043a:	6b9a      	ldr	r2, [r3, #56]	; 0x38
 800043c:	4b10      	ldr	r3, [pc, #64]	; (8000480 <main+0x19c>)
 800043e:	3201      	adds	r2, #1
 8000440:	639a      	str	r2, [r3, #56]	; 0x38
			TIM1->CCR3 = TIM1->CCR3 + ENCODER_MODIFY_VALUE;
 8000442:	4b0f      	ldr	r3, [pc, #60]	; (8000480 <main+0x19c>)
 8000444:	6bda      	ldr	r2, [r3, #60]	; 0x3c
 8000446:	4b0e      	ldr	r3, [pc, #56]	; (8000480 <main+0x19c>)
 8000448:	3201      	adds	r2, #1
 800044a:	63da      	str	r2, [r3, #60]	; 0x3c
			TIM1->CCR4 = TIM1->CCR4 + ENCODER_MODIFY_VALUE;
 800044c:	4b0c      	ldr	r3, [pc, #48]	; (8000480 <main+0x19c>)
 800044e:	6c1a      	ldr	r2, [r3, #64]	; 0x40
 8000450:	4b0b      	ldr	r3, [pc, #44]	; (8000480 <main+0x19c>)
 8000452:	3201      	adds	r2, #1
 8000454:	641a      	str	r2, [r3, #64]	; 0x40
			TIM14->CCR1 = TIM14->CCR1 + ENCODER_MODIFY_VALUE;
 8000456:	4b0b      	ldr	r3, [pc, #44]	; (8000484 <main+0x1a0>)
 8000458:	6b5a      	ldr	r2, [r3, #52]	; 0x34
 800045a:	4b0a      	ldr	r3, [pc, #40]	; (8000484 <main+0x1a0>)
 800045c:	3201      	adds	r2, #1
 800045e:	635a      	str	r2, [r3, #52]	; 0x34

			previous_encoder_dir = (TIM2->CR1 & TIM_CR1_DIR);
 8000460:	2380      	movs	r3, #128	; 0x80
 8000462:	05db      	lsls	r3, r3, #23
 8000464:	681b      	ldr	r3, [r3, #0]
 8000466:	b2da      	uxtb	r2, r3
 8000468:	1dfb      	adds	r3, r7, #7
 800046a:	2110      	movs	r1, #16
 800046c:	400a      	ands	r2, r1
 800046e:	701a      	strb	r2, [r3, #0]
  {
 8000470:	e79d      	b.n	80003ae <main+0xca>
 8000472:	46c0      	nop			; (mov r8, r8)
 8000474:	2000002c 	.word	0x2000002c
 8000478:	2000006c 	.word	0x2000006c
 800047c:	200000ec 	.word	0x200000ec
 8000480:	40012c00 	.word	0x40012c00
 8000484:	40002000 	.word	0x40002000
 8000488:	200000ac 	.word	0x200000ac
 800048c:	000002a7 	.word	0x000002a7

08000490 <SystemClock_Config>:
/**
  * @brief System Clock Configuration
  * @retval None
  */
void SystemClock_Config(void)
{
 8000490:	b590      	push	{r4, r7, lr}
 8000492:	b091      	sub	sp, #68	; 0x44
 8000494:	af00      	add	r7, sp, #0
  RCC_OscInitTypeDef RCC_OscInitStruct = {0};
 8000496:	2410      	movs	r4, #16
 8000498:	193b      	adds	r3, r7, r4
 800049a:	0018      	movs	r0, r3
 800049c:	2330      	movs	r3, #48	; 0x30
 800049e:	001a      	movs	r2, r3
 80004a0:	2100      	movs	r1, #0
 80004a2:	f002 fa0f 	bl	80028c4 <memset>
  RCC_ClkInitTypeDef RCC_ClkInitStruct = {0};
 80004a6:	003b      	movs	r3, r7
 80004a8:	0018      	movs	r0, r3
 80004aa:	2310      	movs	r3, #16
 80004ac:	001a      	movs	r2, r3
 80004ae:	2100      	movs	r1, #0
 80004b0:	f002 fa08 	bl	80028c4 <memset>

  /** Initializes the CPU, AHB and APB busses clocks 
  */
  RCC_OscInitStruct.OscillatorType = RCC_OSCILLATORTYPE_HSI;
 80004b4:	0021      	movs	r1, r4
 80004b6:	187b      	adds	r3, r7, r1
 80004b8:	2202      	movs	r2, #2
 80004ba:	601a      	str	r2, [r3, #0]
  RCC_OscInitStruct.HSIState = RCC_HSI_ON;
 80004bc:	187b      	adds	r3, r7, r1
 80004be:	2201      	movs	r2, #1
 80004c0:	60da      	str	r2, [r3, #12]
  RCC_OscInitStruct.HSICalibrationValue = RCC_HSICALIBRATION_DEFAULT;
 80004c2:	187b      	adds	r3, r7, r1
 80004c4:	2210      	movs	r2, #16
 80004c6:	611a      	str	r2, [r3, #16]
  RCC_OscInitStruct.PLL.PLLState = RCC_PLL_NONE;
 80004c8:	187b      	adds	r3, r7, r1
 80004ca:	2200      	movs	r2, #0
 80004cc:	621a      	str	r2, [r3, #32]
  if (HAL_RCC_OscConfig(&RCC_OscInitStruct) != HAL_OK)
 80004ce:	187b      	adds	r3, r7, r1
 80004d0:	0018      	movs	r0, r3
 80004d2:	f000 fec9 	bl	8001268 <HAL_RCC_OscConfig>
 80004d6:	1e03      	subs	r3, r0, #0
 80004d8:	d001      	beq.n	80004de <SystemClock_Config+0x4e>
  {
    Error_Handler();
 80004da:	f000 f819 	bl	8000510 <Error_Handler>
  }
  /** Initializes the CPU, AHB and APB busses clocks 
  */
  RCC_ClkInitStruct.ClockType = RCC_CLOCKTYPE_HCLK|RCC_CLOCKTYPE_SYSCLK
 80004de:	003b      	movs	r3, r7
 80004e0:	2207      	movs	r2, #7
 80004e2:	601a      	str	r2, [r3, #0]
                              |RCC_CLOCKTYPE_PCLK1;
  RCC_ClkInitStruct.SYSCLKSource = RCC_SYSCLKSOURCE_HSI;
 80004e4:	003b      	movs	r3, r7
 80004e6:	2200      	movs	r2, #0
 80004e8:	605a      	str	r2, [r3, #4]
  RCC_ClkInitStruct.AHBCLKDivider = RCC_SYSCLK_DIV1;
 80004ea:	003b      	movs	r3, r7
 80004ec:	2200      	movs	r2, #0
 80004ee:	609a      	str	r2, [r3, #8]
  RCC_ClkInitStruct.APB1CLKDivider = RCC_HCLK_DIV1;
 80004f0:	003b      	movs	r3, r7
 80004f2:	2200      	movs	r2, #0
 80004f4:	60da      	str	r2, [r3, #12]

  if (HAL_RCC_ClockConfig(&RCC_ClkInitStruct, FLASH_LATENCY_0) != HAL_OK)
 80004f6:	003b      	movs	r3, r7
 80004f8:	2100      	movs	r1, #0
 80004fa:	0018      	movs	r0, r3
 80004fc:	f001 f9d0 	bl	80018a0 <HAL_RCC_ClockConfig>
 8000500:	1e03      	subs	r3, r0, #0
 8000502:	d001      	beq.n	8000508 <SystemClock_Config+0x78>
  {
    Error_Handler();
 8000504:	f000 f804 	bl	8000510 <Error_Handler>
  }
}
 8000508:	46c0      	nop			; (mov r8, r8)
 800050a:	46bd      	mov	sp, r7
 800050c:	b011      	add	sp, #68	; 0x44
 800050e:	bd90      	pop	{r4, r7, pc}

08000510 <Error_Handler>:
/**
  * @brief  This function is executed in case of error occurrence.
  * @retval None
  */
void Error_Handler(void)
{
 8000510:	b580      	push	{r7, lr}
 8000512:	af00      	add	r7, sp, #0
  /* USER CODE BEGIN Error_Handler_Debug */
  /* User can add his own implementation to report the HAL error return state */

  /* USER CODE END Error_Handler_Debug */
}
 8000514:	46c0      	nop			; (mov r8, r8)
 8000516:	46bd      	mov	sp, r7
 8000518:	bd80      	pop	{r7, pc}
	...

0800051c <HAL_MspInit>:
/* USER CODE END 0 */
/**
  * Initializes the Global MSP.
  */
void HAL_MspInit(void)
{
 800051c:	b580      	push	{r7, lr}
 800051e:	b082      	sub	sp, #8
 8000520:	af00      	add	r7, sp, #0
  /* USER CODE BEGIN MspInit 0 */

  /* USER CODE END MspInit 0 */

  __HAL_RCC_SYSCFG_CLK_ENABLE();
 8000522:	4b0f      	ldr	r3, [pc, #60]	; (8000560 <HAL_MspInit+0x44>)
 8000524:	699a      	ldr	r2, [r3, #24]
 8000526:	4b0e      	ldr	r3, [pc, #56]	; (8000560 <HAL_MspInit+0x44>)
 8000528:	2101      	movs	r1, #1
 800052a:	430a      	orrs	r2, r1
 800052c:	619a      	str	r2, [r3, #24]
 800052e:	4b0c      	ldr	r3, [pc, #48]	; (8000560 <HAL_MspInit+0x44>)
 8000530:	699b      	ldr	r3, [r3, #24]
 8000532:	2201      	movs	r2, #1
 8000534:	4013      	ands	r3, r2
 8000536:	607b      	str	r3, [r7, #4]
 8000538:	687b      	ldr	r3, [r7, #4]
  __HAL_RCC_PWR_CLK_ENABLE();
 800053a:	4b09      	ldr	r3, [pc, #36]	; (8000560 <HAL_MspInit+0x44>)
 800053c:	69da      	ldr	r2, [r3, #28]
 800053e:	4b08      	ldr	r3, [pc, #32]	; (8000560 <HAL_MspInit+0x44>)
 8000540:	2180      	movs	r1, #128	; 0x80
 8000542:	0549      	lsls	r1, r1, #21
 8000544:	430a      	orrs	r2, r1
 8000546:	61da      	str	r2, [r3, #28]
 8000548:	4b05      	ldr	r3, [pc, #20]	; (8000560 <HAL_MspInit+0x44>)
 800054a:	69da      	ldr	r2, [r3, #28]
 800054c:	2380      	movs	r3, #128	; 0x80
 800054e:	055b      	lsls	r3, r3, #21
 8000550:	4013      	ands	r3, r2
 8000552:	603b      	str	r3, [r7, #0]
 8000554:	683b      	ldr	r3, [r7, #0]
  /* System interrupt init*/

  /* USER CODE BEGIN MspInit 1 */

  /* USER CODE END MspInit 1 */
}
 8000556:	46c0      	nop			; (mov r8, r8)
 8000558:	46bd      	mov	sp, r7
 800055a:	b002      	add	sp, #8
 800055c:	bd80      	pop	{r7, pc}
 800055e:	46c0      	nop			; (mov r8, r8)
 8000560:	40021000 	.word	0x40021000

08000564 <NMI_Handler>:
/******************************************************************************/
/**
  * @brief This function handles Non maskable interrupt.
  */
void NMI_Handler(void)
{
 8000564:	b580      	push	{r7, lr}
 8000566:	af00      	add	r7, sp, #0

  /* USER CODE END NonMaskableInt_IRQn 0 */
  /* USER CODE BEGIN NonMaskableInt_IRQn 1 */

  /* USER CODE END NonMaskableInt_IRQn 1 */
}
 8000568:	46c0      	nop			; (mov r8, r8)
 800056a:	46bd      	mov	sp, r7
 800056c:	bd80      	pop	{r7, pc}

0800056e <HardFault_Handler>:

/**
  * @brief This function handles Hard fault interrupt.
  */
void HardFault_Handler(void)
{
 800056e:	b580      	push	{r7, lr}
 8000570:	af00      	add	r7, sp, #0
  /* USER CODE BEGIN HardFault_IRQn 0 */

  /* USER CODE END HardFault_IRQn 0 */
  while (1)
 8000572:	e7fe      	b.n	8000572 <HardFault_Handler+0x4>

08000574 <SVC_Handler>:

/**
  * @brief This function handles System service call via SWI instruction.
  */
void SVC_Handler(void)
{
 8000574:	b580      	push	{r7, lr}
 8000576:	af00      	add	r7, sp, #0

  /* USER CODE END SVC_IRQn 0 */
  /* USER CODE BEGIN SVC_IRQn 1 */

  /* USER CODE END SVC_IRQn 1 */
}
 8000578:	46c0      	nop			; (mov r8, r8)
 800057a:	46bd      	mov	sp, r7
 800057c:	bd80      	pop	{r7, pc}

0800057e <PendSV_Handler>:

/**
  * @brief This function handles Pendable request for system service.
  */
void PendSV_Handler(void)
{
 800057e:	b580      	push	{r7, lr}
 8000580:	af00      	add	r7, sp, #0

  /* USER CODE END PendSV_IRQn 0 */
  /* USER CODE BEGIN PendSV_IRQn 1 */

  /* USER CODE END PendSV_IRQn 1 */
}
 8000582:	46c0      	nop			; (mov r8, r8)
 8000584:	46bd      	mov	sp, r7
 8000586:	bd80      	pop	{r7, pc}

08000588 <SysTick_Handler>:

/**
  * @brief This function handles System tick timer.
  */
void SysTick_Handler(void)
{
 8000588:	b580      	push	{r7, lr}
 800058a:	af00      	add	r7, sp, #0
  /* USER CODE BEGIN SysTick_IRQn 0 */

  /* USER CODE END SysTick_IRQn 0 */
  HAL_IncTick();
 800058c:	f000 fba4 	bl	8000cd8 <HAL_IncTick>
  /* USER CODE BEGIN SysTick_IRQn 1 */

  /* USER CODE END SysTick_IRQn 1 */
}
 8000590:	46c0      	nop			; (mov r8, r8)
 8000592:	46bd      	mov	sp, r7
 8000594:	bd80      	pop	{r7, pc}
	...

08000598 <EXTI0_1_IRQHandler>:

/**
  * @brief This function handles EXTI line 0 and 1 interrupts.
  */
void EXTI0_1_IRQHandler(void)
{
 8000598:	b580      	push	{r7, lr}
 800059a:	b082      	sub	sp, #8
 800059c:	af00      	add	r7, sp, #0
  /* USER CODE BEGIN EXTI0_1_IRQn 0 */
	uint16_t interrupt_time = TIM17->CNT;
 800059e:	4b22      	ldr	r3, [pc, #136]	; (8000628 <EXTI0_1_IRQHandler+0x90>)
 80005a0:	6a5a      	ldr	r2, [r3, #36]	; 0x24
 80005a2:	1dbb      	adds	r3, r7, #6
 80005a4:	801a      	strh	r2, [r3, #0]
	if ((interrupt_time - last_interrupt_time) > MAX_DEBOUNCE_DELAY)
 80005a6:	1dbb      	adds	r3, r7, #6
 80005a8:	881b      	ldrh	r3, [r3, #0]
 80005aa:	4a20      	ldr	r2, [pc, #128]	; (800062c <EXTI0_1_IRQHandler+0x94>)
 80005ac:	8812      	ldrh	r2, [r2, #0]
 80005ae:	1a9b      	subs	r3, r3, r2
 80005b0:	2baf      	cmp	r3, #175	; 0xaf
 80005b2:	dd2e      	ble.n	8000612 <EXTI0_1_IRQHandler+0x7a>
	{
		HAL_GPIO_TogglePin(GPIOA, STATUS_GREEN_Pin);
 80005b4:	2390      	movs	r3, #144	; 0x90
 80005b6:	05db      	lsls	r3, r3, #23
 80005b8:	2102      	movs	r1, #2
 80005ba:	0018      	movs	r0, r3
 80005bc:	f000 fe13 	bl	80011e6 <HAL_GPIO_TogglePin>
		HAL_GPIO_TogglePin(GPIOA, STATUS_RED_Pin);
 80005c0:	2390      	movs	r3, #144	; 0x90
 80005c2:	05db      	lsls	r3, r3, #23
 80005c4:	2104      	movs	r1, #4
 80005c6:	0018      	movs	r0, r3
 80005c8:	f000 fe0d 	bl	80011e6 <HAL_GPIO_TogglePin>
		TIM1->CCR1 ^= MAX_ENCODER_LIMIT;
 80005cc:	4b18      	ldr	r3, [pc, #96]	; (8000630 <EXTI0_1_IRQHandler+0x98>)
 80005ce:	6b5a      	ldr	r2, [r3, #52]	; 0x34
 80005d0:	4b17      	ldr	r3, [pc, #92]	; (8000630 <EXTI0_1_IRQHandler+0x98>)
 80005d2:	21aa      	movs	r1, #170	; 0xaa
 80005d4:	0089      	lsls	r1, r1, #2
 80005d6:	404a      	eors	r2, r1
 80005d8:	635a      	str	r2, [r3, #52]	; 0x34
		TIM1->CCR2 ^= MAX_ENCODER_LIMIT;
 80005da:	4b15      	ldr	r3, [pc, #84]	; (8000630 <EXTI0_1_IRQHandler+0x98>)
 80005dc:	6b9a      	ldr	r2, [r3, #56]	; 0x38
 80005de:	4b14      	ldr	r3, [pc, #80]	; (8000630 <EXTI0_1_IRQHandler+0x98>)
 80005e0:	21aa      	movs	r1, #170	; 0xaa
 80005e2:	0089      	lsls	r1, r1, #2
 80005e4:	404a      	eors	r2, r1
 80005e6:	639a      	str	r2, [r3, #56]	; 0x38
		TIM1->CCR3 ^= MAX_ENCODER_LIMIT;
 80005e8:	4b11      	ldr	r3, [pc, #68]	; (8000630 <EXTI0_1_IRQHandler+0x98>)
 80005ea:	6bda      	ldr	r2, [r3, #60]	; 0x3c
 80005ec:	4b10      	ldr	r3, [pc, #64]	; (8000630 <EXTI0_1_IRQHandler+0x98>)
 80005ee:	21aa      	movs	r1, #170	; 0xaa
 80005f0:	0089      	lsls	r1, r1, #2
 80005f2:	404a      	eors	r2, r1
 80005f4:	63da      	str	r2, [r3, #60]	; 0x3c
		TIM1->CCR4 ^= MAX_ENCODER_LIMIT;
 80005f6:	4b0e      	ldr	r3, [pc, #56]	; (8000630 <EXTI0_1_IRQHandler+0x98>)
 80005f8:	6c1a      	ldr	r2, [r3, #64]	; 0x40
 80005fa:	4b0d      	ldr	r3, [pc, #52]	; (8000630 <EXTI0_1_IRQHandler+0x98>)
 80005fc:	21aa      	movs	r1, #170	; 0xaa
 80005fe:	0089      	lsls	r1, r1, #2
 8000600:	404a      	eors	r2, r1
 8000602:	641a      	str	r2, [r3, #64]	; 0x40
		TIM14->CCR1 ^= MAX_ENCODER_LIMIT;
 8000604:	4b0b      	ldr	r3, [pc, #44]	; (8000634 <EXTI0_1_IRQHandler+0x9c>)
 8000606:	6b5a      	ldr	r2, [r3, #52]	; 0x34
 8000608:	4b0a      	ldr	r3, [pc, #40]	; (8000634 <EXTI0_1_IRQHandler+0x9c>)
 800060a:	21aa      	movs	r1, #170	; 0xaa
 800060c:	0089      	lsls	r1, r1, #2
 800060e:	404a      	eors	r2, r1
 8000610:	635a      	str	r2, [r3, #52]	; 0x34
	}
	last_interrupt_time = interrupt_time;
 8000612:	4b06      	ldr	r3, [pc, #24]	; (800062c <EXTI0_1_IRQHandler+0x94>)
 8000614:	1dba      	adds	r2, r7, #6
 8000616:	8812      	ldrh	r2, [r2, #0]
 8000618:	801a      	strh	r2, [r3, #0]
  /* USER CODE END EXTI0_1_IRQn 0 */
  HAL_GPIO_EXTI_IRQHandler(GPIO_PIN_0);
 800061a:	2001      	movs	r0, #1
 800061c:	f000 fdfe 	bl	800121c <HAL_GPIO_EXTI_IRQHandler>
  /* USER CODE BEGIN EXTI0_1_IRQn 1 */

  /* USER CODE END EXTI0_1_IRQn 1 */
}
 8000620:	46c0      	nop			; (mov r8, r8)
 8000622:	46bd      	mov	sp, r7
 8000624:	b002      	add	sp, #8
 8000626:	bd80      	pop	{r7, pc}
 8000628:	40014800 	.word	0x40014800
 800062c:	20000028 	.word	0x20000028
 8000630:	40012c00 	.word	0x40012c00
 8000634:	40002000 	.word	0x40002000

08000638 <TIM2_IRQHandler>:

/**
  * @brief This function handles TIM2 global interrupt.
  */
void TIM2_IRQHandler(void)
{
 8000638:	b580      	push	{r7, lr}
 800063a:	af00      	add	r7, sp, #0
  /* USER CODE BEGIN TIM2_IRQn 0 */

  /* USER CODE END TIM2_IRQn 0 */
  HAL_TIM_IRQHandler(&htim2);
 800063c:	4b03      	ldr	r3, [pc, #12]	; (800064c <TIM2_IRQHandler+0x14>)
 800063e:	0018      	movs	r0, r3
 8000640:	f001 fbba 	bl	8001db8 <HAL_TIM_IRQHandler>
  /* USER CODE BEGIN TIM2_IRQn 1 */

  /* USER CODE END TIM2_IRQn 1 */
}
 8000644:	46c0      	nop			; (mov r8, r8)
 8000646:	46bd      	mov	sp, r7
 8000648:	bd80      	pop	{r7, pc}
 800064a:	46c0      	nop			; (mov r8, r8)
 800064c:	200000ac 	.word	0x200000ac

08000650 <SystemInit>:
  * @brief  Setup the microcontroller system.
  * @param  None
  * @retval None
  */
void SystemInit(void)
{
 8000650:	b580      	push	{r7, lr}
 8000652:	af00      	add	r7, sp, #0
                         before branch to main program. This call is made inside
                         the "startup_stm32f0xx.s" file.
                         User can setups the default system clock (System clock source, PLL Multiplier
                         and Divider factors, AHB/APBx prescalers and Flash settings).
   */
}
 8000654:	46c0      	nop			; (mov r8, r8)
 8000656:	46bd      	mov	sp, r7
 8000658:	bd80      	pop	{r7, pc}
	...

0800065c <MX_TIM1_Init>:
TIM_HandleTypeDef htim14;
TIM_HandleTypeDef htim17;

/* TIM1 init function */
void MX_TIM1_Init(void)
{
 800065c:	b580      	push	{r7, lr}
 800065e:	b092      	sub	sp, #72	; 0x48
 8000660:	af00      	add	r7, sp, #0
  TIM_MasterConfigTypeDef sMasterConfig = {0};
 8000662:	2340      	movs	r3, #64	; 0x40
 8000664:	18fb      	adds	r3, r7, r3
 8000666:	0018      	movs	r0, r3
 8000668:	2308      	movs	r3, #8
 800066a:	001a      	movs	r2, r3
 800066c:	2100      	movs	r1, #0
 800066e:	f002 f929 	bl	80028c4 <memset>
  TIM_OC_InitTypeDef sConfigOC = {0};
 8000672:	2324      	movs	r3, #36	; 0x24
 8000674:	18fb      	adds	r3, r7, r3
 8000676:	0018      	movs	r0, r3
 8000678:	231c      	movs	r3, #28
 800067a:	001a      	movs	r2, r3
 800067c:	2100      	movs	r1, #0
 800067e:	f002 f921 	bl	80028c4 <memset>
  TIM_BreakDeadTimeConfigTypeDef sBreakDeadTimeConfig = {0};
 8000682:	1d3b      	adds	r3, r7, #4
 8000684:	0018      	movs	r0, r3
 8000686:	2320      	movs	r3, #32
 8000688:	001a      	movs	r2, r3
 800068a:	2100      	movs	r1, #0
 800068c:	f002 f91a 	bl	80028c4 <memset>

  htim1.Instance = TIM1;
 8000690:	4b4b      	ldr	r3, [pc, #300]	; (80007c0 <MX_TIM1_Init+0x164>)
 8000692:	4a4c      	ldr	r2, [pc, #304]	; (80007c4 <MX_TIM1_Init+0x168>)
 8000694:	601a      	str	r2, [r3, #0]
  htim1.Init.Prescaler = 0;
 8000696:	4b4a      	ldr	r3, [pc, #296]	; (80007c0 <MX_TIM1_Init+0x164>)
 8000698:	2200      	movs	r2, #0
 800069a:	605a      	str	r2, [r3, #4]
  htim1.Init.CounterMode = TIM_COUNTERMODE_UP;
 800069c:	4b48      	ldr	r3, [pc, #288]	; (80007c0 <MX_TIM1_Init+0x164>)
 800069e:	2200      	movs	r2, #0
 80006a0:	609a      	str	r2, [r3, #8]
  htim1.Init.Period = 64;
 80006a2:	4b47      	ldr	r3, [pc, #284]	; (80007c0 <MX_TIM1_Init+0x164>)
 80006a4:	2240      	movs	r2, #64	; 0x40
 80006a6:	60da      	str	r2, [r3, #12]
  htim1.Init.ClockDivision = TIM_CLOCKDIVISION_DIV1;
 80006a8:	4b45      	ldr	r3, [pc, #276]	; (80007c0 <MX_TIM1_Init+0x164>)
 80006aa:	2200      	movs	r2, #0
 80006ac:	611a      	str	r2, [r3, #16]
  htim1.Init.RepetitionCounter = 0;
 80006ae:	4b44      	ldr	r3, [pc, #272]	; (80007c0 <MX_TIM1_Init+0x164>)
 80006b0:	2200      	movs	r2, #0
 80006b2:	615a      	str	r2, [r3, #20]
  htim1.Init.AutoReloadPreload = TIM_AUTORELOAD_PRELOAD_DISABLE;
 80006b4:	4b42      	ldr	r3, [pc, #264]	; (80007c0 <MX_TIM1_Init+0x164>)
 80006b6:	2200      	movs	r2, #0
 80006b8:	619a      	str	r2, [r3, #24]
  if (HAL_TIM_PWM_Init(&htim1) != HAL_OK)
 80006ba:	4b41      	ldr	r3, [pc, #260]	; (80007c0 <MX_TIM1_Init+0x164>)
 80006bc:	0018      	movs	r0, r3
 80006be:	f001 fa6f 	bl	8001ba0 <HAL_TIM_PWM_Init>
 80006c2:	1e03      	subs	r3, r0, #0
 80006c4:	d001      	beq.n	80006ca <MX_TIM1_Init+0x6e>
  {
    Error_Handler();
 80006c6:	f7ff ff23 	bl	8000510 <Error_Handler>
  }
  sMasterConfig.MasterOutputTrigger = TIM_TRGO_RESET;
 80006ca:	2140      	movs	r1, #64	; 0x40
 80006cc:	187b      	adds	r3, r7, r1
 80006ce:	2200      	movs	r2, #0
 80006d0:	601a      	str	r2, [r3, #0]
  sMasterConfig.MasterSlaveMode = TIM_MASTERSLAVEMODE_DISABLE;
 80006d2:	187b      	adds	r3, r7, r1
 80006d4:	2200      	movs	r2, #0
 80006d6:	605a      	str	r2, [r3, #4]
  if (HAL_TIMEx_MasterConfigSynchronization(&htim1, &sMasterConfig) != HAL_OK)
 80006d8:	187a      	adds	r2, r7, r1
 80006da:	4b39      	ldr	r3, [pc, #228]	; (80007c0 <MX_TIM1_Init+0x164>)
 80006dc:	0011      	movs	r1, r2
 80006de:	0018      	movs	r0, r3
 80006e0:	f002 f800 	bl	80026e4 <HAL_TIMEx_MasterConfigSynchronization>
 80006e4:	1e03      	subs	r3, r0, #0
 80006e6:	d001      	beq.n	80006ec <MX_TIM1_Init+0x90>
  {
    Error_Handler();
 80006e8:	f7ff ff12 	bl	8000510 <Error_Handler>
  }
  sConfigOC.OCMode = TIM_OCMODE_PWM1;
 80006ec:	2124      	movs	r1, #36	; 0x24
 80006ee:	187b      	adds	r3, r7, r1
 80006f0:	2260      	movs	r2, #96	; 0x60
 80006f2:	601a      	str	r2, [r3, #0]
  sConfigOC.Pulse = 0;
 80006f4:	187b      	adds	r3, r7, r1
 80006f6:	2200      	movs	r2, #0
 80006f8:	605a      	str	r2, [r3, #4]
  sConfigOC.OCPolarity = TIM_OCPOLARITY_HIGH;
 80006fa:	187b      	adds	r3, r7, r1
 80006fc:	2200      	movs	r2, #0
 80006fe:	609a      	str	r2, [r3, #8]
  sConfigOC.OCNPolarity = TIM_OCNPOLARITY_HIGH;
 8000700:	187b      	adds	r3, r7, r1
 8000702:	2200      	movs	r2, #0
 8000704:	60da      	str	r2, [r3, #12]
  sConfigOC.OCFastMode = TIM_OCFAST_DISABLE;
 8000706:	187b      	adds	r3, r7, r1
 8000708:	2200      	movs	r2, #0
 800070a:	611a      	str	r2, [r3, #16]
  sConfigOC.OCIdleState = TIM_OCIDLESTATE_RESET;
 800070c:	187b      	adds	r3, r7, r1
 800070e:	2200      	movs	r2, #0
 8000710:	615a      	str	r2, [r3, #20]
  sConfigOC.OCNIdleState = TIM_OCNIDLESTATE_RESET;
 8000712:	187b      	adds	r3, r7, r1
 8000714:	2200      	movs	r2, #0
 8000716:	619a      	str	r2, [r3, #24]
  if (HAL_TIM_PWM_ConfigChannel(&htim1, &sConfigOC, TIM_CHANNEL_1) != HAL_OK)
 8000718:	1879      	adds	r1, r7, r1
 800071a:	4b29      	ldr	r3, [pc, #164]	; (80007c0 <MX_TIM1_Init+0x164>)
 800071c:	2200      	movs	r2, #0
 800071e:	0018      	movs	r0, r3
 8000720:	f001 fc60 	bl	8001fe4 <HAL_TIM_PWM_ConfigChannel>
 8000724:	1e03      	subs	r3, r0, #0
 8000726:	d001      	beq.n	800072c <MX_TIM1_Init+0xd0>
  {
    Error_Handler();
 8000728:	f7ff fef2 	bl	8000510 <Error_Handler>
  }
  if (HAL_TIM_PWM_ConfigChannel(&htim1, &sConfigOC, TIM_CHANNEL_2) != HAL_OK)
 800072c:	2324      	movs	r3, #36	; 0x24
 800072e:	18f9      	adds	r1, r7, r3
 8000730:	4b23      	ldr	r3, [pc, #140]	; (80007c0 <MX_TIM1_Init+0x164>)
 8000732:	2204      	movs	r2, #4
 8000734:	0018      	movs	r0, r3
 8000736:	f001 fc55 	bl	8001fe4 <HAL_TIM_PWM_ConfigChannel>
 800073a:	1e03      	subs	r3, r0, #0
 800073c:	d001      	beq.n	8000742 <MX_TIM1_Init+0xe6>
  {
    Error_Handler();
 800073e:	f7ff fee7 	bl	8000510 <Error_Handler>
  }
  if (HAL_TIM_PWM_ConfigChannel(&htim1, &sConfigOC, TIM_CHANNEL_3) != HAL_OK)
 8000742:	2324      	movs	r3, #36	; 0x24
 8000744:	18f9      	adds	r1, r7, r3
 8000746:	4b1e      	ldr	r3, [pc, #120]	; (80007c0 <MX_TIM1_Init+0x164>)
 8000748:	2208      	movs	r2, #8
 800074a:	0018      	movs	r0, r3
 800074c:	f001 fc4a 	bl	8001fe4 <HAL_TIM_PWM_ConfigChannel>
 8000750:	1e03      	subs	r3, r0, #0
 8000752:	d001      	beq.n	8000758 <MX_TIM1_Init+0xfc>
  {
    Error_Handler();
 8000754:	f7ff fedc 	bl	8000510 <Error_Handler>
  }
  if (HAL_TIM_PWM_ConfigChannel(&htim1, &sConfigOC, TIM_CHANNEL_4) != HAL_OK)
 8000758:	2324      	movs	r3, #36	; 0x24
 800075a:	18f9      	adds	r1, r7, r3
 800075c:	4b18      	ldr	r3, [pc, #96]	; (80007c0 <MX_TIM1_Init+0x164>)
 800075e:	220c      	movs	r2, #12
 8000760:	0018      	movs	r0, r3
 8000762:	f001 fc3f 	bl	8001fe4 <HAL_TIM_PWM_ConfigChannel>
 8000766:	1e03      	subs	r3, r0, #0
 8000768:	d001      	beq.n	800076e <MX_TIM1_Init+0x112>
  {
    Error_Handler();
 800076a:	f7ff fed1 	bl	8000510 <Error_Handler>
  }
  sBreakDeadTimeConfig.OffStateRunMode = TIM_OSSR_DISABLE;
 800076e:	1d3b      	adds	r3, r7, #4
 8000770:	2200      	movs	r2, #0
 8000772:	601a      	str	r2, [r3, #0]
  sBreakDeadTimeConfig.OffStateIDLEMode = TIM_OSSI_DISABLE;
 8000774:	1d3b      	adds	r3, r7, #4
 8000776:	2200      	movs	r2, #0
 8000778:	605a      	str	r2, [r3, #4]
  sBreakDeadTimeConfig.LockLevel = TIM_LOCKLEVEL_OFF;
 800077a:	1d3b      	adds	r3, r7, #4
 800077c:	2200      	movs	r2, #0
 800077e:	609a      	str	r2, [r3, #8]
  sBreakDeadTimeConfig.DeadTime = 0;
 8000780:	1d3b      	adds	r3, r7, #4
 8000782:	2200      	movs	r2, #0
 8000784:	60da      	str	r2, [r3, #12]
  sBreakDeadTimeConfig.BreakState = TIM_BREAK_DISABLE;
 8000786:	1d3b      	adds	r3, r7, #4
 8000788:	2200      	movs	r2, #0
 800078a:	611a      	str	r2, [r3, #16]
  sBreakDeadTimeConfig.BreakPolarity = TIM_BREAKPOLARITY_HIGH;
 800078c:	1d3b      	adds	r3, r7, #4
 800078e:	2280      	movs	r2, #128	; 0x80
 8000790:	0192      	lsls	r2, r2, #6
 8000792:	615a      	str	r2, [r3, #20]
  sBreakDeadTimeConfig.AutomaticOutput = TIM_AUTOMATICOUTPUT_DISABLE;
 8000794:	1d3b      	adds	r3, r7, #4
 8000796:	2200      	movs	r2, #0
 8000798:	61da      	str	r2, [r3, #28]
  if (HAL_TIMEx_ConfigBreakDeadTime(&htim1, &sBreakDeadTimeConfig) != HAL_OK)
 800079a:	1d3a      	adds	r2, r7, #4
 800079c:	4b08      	ldr	r3, [pc, #32]	; (80007c0 <MX_TIM1_Init+0x164>)
 800079e:	0011      	movs	r1, r2
 80007a0:	0018      	movs	r0, r3
 80007a2:	f001 fffd 	bl	80027a0 <HAL_TIMEx_ConfigBreakDeadTime>
 80007a6:	1e03      	subs	r3, r0, #0
 80007a8:	d001      	beq.n	80007ae <MX_TIM1_Init+0x152>
  {
    Error_Handler();
 80007aa:	f7ff feb1 	bl	8000510 <Error_Handler>
  }
  HAL_TIM_MspPostInit(&htim1);
 80007ae:	4b04      	ldr	r3, [pc, #16]	; (80007c0 <MX_TIM1_Init+0x164>)
 80007b0:	0018      	movs	r0, r3
 80007b2:	f000 f9b1 	bl	8000b18 <HAL_TIM_MspPostInit>

}
 80007b6:	46c0      	nop			; (mov r8, r8)
 80007b8:	46bd      	mov	sp, r7
 80007ba:	b012      	add	sp, #72	; 0x48
 80007bc:	bd80      	pop	{r7, pc}
 80007be:	46c0      	nop			; (mov r8, r8)
 80007c0:	2000006c 	.word	0x2000006c
 80007c4:	40012c00 	.word	0x40012c00

080007c8 <MX_TIM2_Init>:
/* TIM2 init function */
void MX_TIM2_Init(void)
{
 80007c8:	b590      	push	{r4, r7, lr}
 80007ca:	b08d      	sub	sp, #52	; 0x34
 80007cc:	af00      	add	r7, sp, #0
  TIM_Encoder_InitTypeDef sConfig = {0};
 80007ce:	240c      	movs	r4, #12
 80007d0:	193b      	adds	r3, r7, r4
 80007d2:	0018      	movs	r0, r3
 80007d4:	2324      	movs	r3, #36	; 0x24
 80007d6:	001a      	movs	r2, r3
 80007d8:	2100      	movs	r1, #0
 80007da:	f002 f873 	bl	80028c4 <memset>
  TIM_MasterConfigTypeDef sMasterConfig = {0};
 80007de:	1d3b      	adds	r3, r7, #4
 80007e0:	0018      	movs	r0, r3
 80007e2:	2308      	movs	r3, #8
 80007e4:	001a      	movs	r2, r3
 80007e6:	2100      	movs	r1, #0
 80007e8:	f002 f86c 	bl	80028c4 <memset>

  htim2.Instance = TIM2;
 80007ec:	4b26      	ldr	r3, [pc, #152]	; (8000888 <MX_TIM2_Init+0xc0>)
 80007ee:	2280      	movs	r2, #128	; 0x80
 80007f0:	05d2      	lsls	r2, r2, #23
 80007f2:	601a      	str	r2, [r3, #0]
  htim2.Init.Prescaler = 0;
 80007f4:	4b24      	ldr	r3, [pc, #144]	; (8000888 <MX_TIM2_Init+0xc0>)
 80007f6:	2200      	movs	r2, #0
 80007f8:	605a      	str	r2, [r3, #4]
  htim2.Init.CounterMode = TIM_COUNTERMODE_CENTERALIGNED3;
 80007fa:	4b23      	ldr	r3, [pc, #140]	; (8000888 <MX_TIM2_Init+0xc0>)
 80007fc:	2260      	movs	r2, #96	; 0x60
 80007fe:	609a      	str	r2, [r3, #8]
  htim2.Init.Period = 680;
 8000800:	4b21      	ldr	r3, [pc, #132]	; (8000888 <MX_TIM2_Init+0xc0>)
 8000802:	22aa      	movs	r2, #170	; 0xaa
 8000804:	0092      	lsls	r2, r2, #2
 8000806:	60da      	str	r2, [r3, #12]
  htim2.Init.ClockDivision = TIM_CLOCKDIVISION_DIV1;
 8000808:	4b1f      	ldr	r3, [pc, #124]	; (8000888 <MX_TIM2_Init+0xc0>)
 800080a:	2200      	movs	r2, #0
 800080c:	611a      	str	r2, [r3, #16]
  htim2.Init.AutoReloadPreload = TIM_AUTORELOAD_PRELOAD_DISABLE;
 800080e:	4b1e      	ldr	r3, [pc, #120]	; (8000888 <MX_TIM2_Init+0xc0>)
 8000810:	2200      	movs	r2, #0
 8000812:	619a      	str	r2, [r3, #24]
  sConfig.EncoderMode = TIM_ENCODERMODE_TI12;
 8000814:	0021      	movs	r1, r4
 8000816:	187b      	adds	r3, r7, r1
 8000818:	2203      	movs	r2, #3
 800081a:	601a      	str	r2, [r3, #0]
  sConfig.IC1Polarity = TIM_ICPOLARITY_RISING;
 800081c:	187b      	adds	r3, r7, r1
 800081e:	2200      	movs	r2, #0
 8000820:	605a      	str	r2, [r3, #4]
  sConfig.IC1Selection = TIM_ICSELECTION_DIRECTTI;
 8000822:	187b      	adds	r3, r7, r1
 8000824:	2201      	movs	r2, #1
 8000826:	609a      	str	r2, [r3, #8]
  sConfig.IC1Prescaler = TIM_ICPSC_DIV1;
 8000828:	187b      	adds	r3, r7, r1
 800082a:	2200      	movs	r2, #0
 800082c:	60da      	str	r2, [r3, #12]
  sConfig.IC1Filter = 0;
 800082e:	187b      	adds	r3, r7, r1
 8000830:	2200      	movs	r2, #0
 8000832:	611a      	str	r2, [r3, #16]
  sConfig.IC2Polarity = TIM_ICPOLARITY_RISING;
 8000834:	187b      	adds	r3, r7, r1
 8000836:	2200      	movs	r2, #0
 8000838:	615a      	str	r2, [r3, #20]
  sConfig.IC2Selection = TIM_ICSELECTION_DIRECTTI;
 800083a:	187b      	adds	r3, r7, r1
 800083c:	2201      	movs	r2, #1
 800083e:	619a      	str	r2, [r3, #24]
  sConfig.IC2Prescaler = TIM_ICPSC_DIV1;
 8000840:	187b      	adds	r3, r7, r1
 8000842:	2200      	movs	r2, #0
 8000844:	61da      	str	r2, [r3, #28]
  sConfig.IC2Filter = 0;
 8000846:	187b      	adds	r3, r7, r1
 8000848:	2200      	movs	r2, #0
 800084a:	621a      	str	r2, [r3, #32]
  if (HAL_TIM_Encoder_Init(&htim2, &sConfig) != HAL_OK)
 800084c:	187a      	adds	r2, r7, r1
 800084e:	4b0e      	ldr	r3, [pc, #56]	; (8000888 <MX_TIM2_Init+0xc0>)
 8000850:	0011      	movs	r1, r2
 8000852:	0018      	movs	r0, r3
 8000854:	f001 fa1c 	bl	8001c90 <HAL_TIM_Encoder_Init>
 8000858:	1e03      	subs	r3, r0, #0
 800085a:	d001      	beq.n	8000860 <MX_TIM2_Init+0x98>
  {
    Error_Handler();
 800085c:	f7ff fe58 	bl	8000510 <Error_Handler>
  }
  sMasterConfig.MasterOutputTrigger = TIM_TRGO_UPDATE;
 8000860:	1d3b      	adds	r3, r7, #4
 8000862:	2220      	movs	r2, #32
 8000864:	601a      	str	r2, [r3, #0]
  sMasterConfig.MasterSlaveMode = TIM_MASTERSLAVEMODE_DISABLE;
 8000866:	1d3b      	adds	r3, r7, #4
 8000868:	2200      	movs	r2, #0
 800086a:	605a      	str	r2, [r3, #4]
  if (HAL_TIMEx_MasterConfigSynchronization(&htim2, &sMasterConfig) != HAL_OK)
 800086c:	1d3a      	adds	r2, r7, #4
 800086e:	4b06      	ldr	r3, [pc, #24]	; (8000888 <MX_TIM2_Init+0xc0>)
 8000870:	0011      	movs	r1, r2
 8000872:	0018      	movs	r0, r3
 8000874:	f001 ff36 	bl	80026e4 <HAL_TIMEx_MasterConfigSynchronization>
 8000878:	1e03      	subs	r3, r0, #0
 800087a:	d001      	beq.n	8000880 <MX_TIM2_Init+0xb8>
  {
    Error_Handler();
 800087c:	f7ff fe48 	bl	8000510 <Error_Handler>
  }

}
 8000880:	46c0      	nop			; (mov r8, r8)
 8000882:	46bd      	mov	sp, r7
 8000884:	b00d      	add	sp, #52	; 0x34
 8000886:	bd90      	pop	{r4, r7, pc}
 8000888:	200000ac 	.word	0x200000ac

0800088c <MX_TIM14_Init>:
/* TIM14 init function */
void MX_TIM14_Init(void)
{
 800088c:	b580      	push	{r7, lr}
 800088e:	b088      	sub	sp, #32
 8000890:	af00      	add	r7, sp, #0
  TIM_OC_InitTypeDef sConfigOC = {0};
 8000892:	1d3b      	adds	r3, r7, #4
 8000894:	0018      	movs	r0, r3
 8000896:	231c      	movs	r3, #28
 8000898:	001a      	movs	r2, r3
 800089a:	2100      	movs	r1, #0
 800089c:	f002 f812 	bl	80028c4 <memset>

  htim14.Instance = TIM14;
 80008a0:	4b1f      	ldr	r3, [pc, #124]	; (8000920 <MX_TIM14_Init+0x94>)
 80008a2:	4a20      	ldr	r2, [pc, #128]	; (8000924 <MX_TIM14_Init+0x98>)
 80008a4:	601a      	str	r2, [r3, #0]
  htim14.Init.Prescaler = 0;
 80008a6:	4b1e      	ldr	r3, [pc, #120]	; (8000920 <MX_TIM14_Init+0x94>)
 80008a8:	2200      	movs	r2, #0
 80008aa:	605a      	str	r2, [r3, #4]
  htim14.Init.CounterMode = TIM_COUNTERMODE_UP;
 80008ac:	4b1c      	ldr	r3, [pc, #112]	; (8000920 <MX_TIM14_Init+0x94>)
 80008ae:	2200      	movs	r2, #0
 80008b0:	609a      	str	r2, [r3, #8]
  htim14.Init.Period = 64;
 80008b2:	4b1b      	ldr	r3, [pc, #108]	; (8000920 <MX_TIM14_Init+0x94>)
 80008b4:	2240      	movs	r2, #64	; 0x40
 80008b6:	60da      	str	r2, [r3, #12]
  htim14.Init.ClockDivision = TIM_CLOCKDIVISION_DIV1;
 80008b8:	4b19      	ldr	r3, [pc, #100]	; (8000920 <MX_TIM14_Init+0x94>)
 80008ba:	2200      	movs	r2, #0
 80008bc:	611a      	str	r2, [r3, #16]
  htim14.Init.AutoReloadPreload = TIM_AUTORELOAD_PRELOAD_DISABLE;
 80008be:	4b18      	ldr	r3, [pc, #96]	; (8000920 <MX_TIM14_Init+0x94>)
 80008c0:	2200      	movs	r2, #0
 80008c2:	619a      	str	r2, [r3, #24]
  if (HAL_TIM_Base_Init(&htim14) != HAL_OK)
 80008c4:	4b16      	ldr	r3, [pc, #88]	; (8000920 <MX_TIM14_Init+0x94>)
 80008c6:	0018      	movs	r0, r3
 80008c8:	f001 f91c 	bl	8001b04 <HAL_TIM_Base_Init>
 80008cc:	1e03      	subs	r3, r0, #0
 80008ce:	d001      	beq.n	80008d4 <MX_TIM14_Init+0x48>
  {
    Error_Handler();
 80008d0:	f7ff fe1e 	bl	8000510 <Error_Handler>
  }
  if (HAL_TIM_PWM_Init(&htim14) != HAL_OK)
 80008d4:	4b12      	ldr	r3, [pc, #72]	; (8000920 <MX_TIM14_Init+0x94>)
 80008d6:	0018      	movs	r0, r3
 80008d8:	f001 f962 	bl	8001ba0 <HAL_TIM_PWM_Init>
 80008dc:	1e03      	subs	r3, r0, #0
 80008de:	d001      	beq.n	80008e4 <MX_TIM14_Init+0x58>
  {
    Error_Handler();
 80008e0:	f7ff fe16 	bl	8000510 <Error_Handler>
  }
  sConfigOC.OCMode = TIM_OCMODE_PWM1;
 80008e4:	1d3b      	adds	r3, r7, #4
 80008e6:	2260      	movs	r2, #96	; 0x60
 80008e8:	601a      	str	r2, [r3, #0]
  sConfigOC.Pulse = 0;
 80008ea:	1d3b      	adds	r3, r7, #4
 80008ec:	2200      	movs	r2, #0
 80008ee:	605a      	str	r2, [r3, #4]
  sConfigOC.OCPolarity = TIM_OCPOLARITY_HIGH;
 80008f0:	1d3b      	adds	r3, r7, #4
 80008f2:	2200      	movs	r2, #0
 80008f4:	609a      	str	r2, [r3, #8]
  sConfigOC.OCFastMode = TIM_OCFAST_DISABLE;
 80008f6:	1d3b      	adds	r3, r7, #4
 80008f8:	2200      	movs	r2, #0
 80008fa:	611a      	str	r2, [r3, #16]
  if (HAL_TIM_PWM_ConfigChannel(&htim14, &sConfigOC, TIM_CHANNEL_1) != HAL_OK)
 80008fc:	1d39      	adds	r1, r7, #4
 80008fe:	4b08      	ldr	r3, [pc, #32]	; (8000920 <MX_TIM14_Init+0x94>)
 8000900:	2200      	movs	r2, #0
 8000902:	0018      	movs	r0, r3
 8000904:	f001 fb6e 	bl	8001fe4 <HAL_TIM_PWM_ConfigChannel>
 8000908:	1e03      	subs	r3, r0, #0
 800090a:	d001      	beq.n	8000910 <MX_TIM14_Init+0x84>
  {
    Error_Handler();
 800090c:	f7ff fe00 	bl	8000510 <Error_Handler>
  }
  HAL_TIM_MspPostInit(&htim14);
 8000910:	4b03      	ldr	r3, [pc, #12]	; (8000920 <MX_TIM14_Init+0x94>)
 8000912:	0018      	movs	r0, r3
 8000914:	f000 f900 	bl	8000b18 <HAL_TIM_MspPostInit>

}
 8000918:	46c0      	nop			; (mov r8, r8)
 800091a:	46bd      	mov	sp, r7
 800091c:	b008      	add	sp, #32
 800091e:	bd80      	pop	{r7, pc}
 8000920:	200000ec 	.word	0x200000ec
 8000924:	40002000 	.word	0x40002000

08000928 <MX_TIM17_Init>:
/* TIM17 init function */
void MX_TIM17_Init(void)
{
 8000928:	b580      	push	{r7, lr}
 800092a:	af00      	add	r7, sp, #0

  htim17.Instance = TIM17;
 800092c:	4b0f      	ldr	r3, [pc, #60]	; (800096c <MX_TIM17_Init+0x44>)
 800092e:	4a10      	ldr	r2, [pc, #64]	; (8000970 <MX_TIM17_Init+0x48>)
 8000930:	601a      	str	r2, [r3, #0]
  htim17.Init.Prescaler = 65535;
 8000932:	4b0e      	ldr	r3, [pc, #56]	; (800096c <MX_TIM17_Init+0x44>)
 8000934:	4a0f      	ldr	r2, [pc, #60]	; (8000974 <MX_TIM17_Init+0x4c>)
 8000936:	605a      	str	r2, [r3, #4]
  htim17.Init.CounterMode = TIM_COUNTERMODE_UP;
 8000938:	4b0c      	ldr	r3, [pc, #48]	; (800096c <MX_TIM17_Init+0x44>)
 800093a:	2200      	movs	r2, #0
 800093c:	609a      	str	r2, [r3, #8]
  htim17.Init.Period = 65535;
 800093e:	4b0b      	ldr	r3, [pc, #44]	; (800096c <MX_TIM17_Init+0x44>)
 8000940:	4a0c      	ldr	r2, [pc, #48]	; (8000974 <MX_TIM17_Init+0x4c>)
 8000942:	60da      	str	r2, [r3, #12]
  htim17.Init.ClockDivision = TIM_CLOCKDIVISION_DIV1;
 8000944:	4b09      	ldr	r3, [pc, #36]	; (800096c <MX_TIM17_Init+0x44>)
 8000946:	2200      	movs	r2, #0
 8000948:	611a      	str	r2, [r3, #16]
  htim17.Init.RepetitionCounter = 0;
 800094a:	4b08      	ldr	r3, [pc, #32]	; (800096c <MX_TIM17_Init+0x44>)
 800094c:	2200      	movs	r2, #0
 800094e:	615a      	str	r2, [r3, #20]
  htim17.Init.AutoReloadPreload = TIM_AUTORELOAD_PRELOAD_DISABLE;
 8000950:	4b06      	ldr	r3, [pc, #24]	; (800096c <MX_TIM17_Init+0x44>)
 8000952:	2200      	movs	r2, #0
 8000954:	619a      	str	r2, [r3, #24]
  if (HAL_TIM_Base_Init(&htim17) != HAL_OK)
 8000956:	4b05      	ldr	r3, [pc, #20]	; (800096c <MX_TIM17_Init+0x44>)
 8000958:	0018      	movs	r0, r3
 800095a:	f001 f8d3 	bl	8001b04 <HAL_TIM_Base_Init>
 800095e:	1e03      	subs	r3, r0, #0
 8000960:	d001      	beq.n	8000966 <MX_TIM17_Init+0x3e>
  {
    Error_Handler();
 8000962:	f7ff fdd5 	bl	8000510 <Error_Handler>
  }

}
 8000966:	46c0      	nop			; (mov r8, r8)
 8000968:	46bd      	mov	sp, r7
 800096a:	bd80      	pop	{r7, pc}
 800096c:	2000002c 	.word	0x2000002c
 8000970:	40014800 	.word	0x40014800
 8000974:	0000ffff 	.word	0x0000ffff

08000978 <HAL_TIM_PWM_MspInit>:

void HAL_TIM_PWM_MspInit(TIM_HandleTypeDef* tim_pwmHandle)
{
 8000978:	b580      	push	{r7, lr}
 800097a:	b084      	sub	sp, #16
 800097c:	af00      	add	r7, sp, #0
 800097e:	6078      	str	r0, [r7, #4]

  if(tim_pwmHandle->Instance==TIM1)
 8000980:	687b      	ldr	r3, [r7, #4]
 8000982:	681b      	ldr	r3, [r3, #0]
 8000984:	4a0a      	ldr	r2, [pc, #40]	; (80009b0 <HAL_TIM_PWM_MspInit+0x38>)
 8000986:	4293      	cmp	r3, r2
 8000988:	d10d      	bne.n	80009a6 <HAL_TIM_PWM_MspInit+0x2e>
  {
  /* USER CODE BEGIN TIM1_MspInit 0 */

  /* USER CODE END TIM1_MspInit 0 */
    /* TIM1 clock enable */
    __HAL_RCC_TIM1_CLK_ENABLE();
 800098a:	4b0a      	ldr	r3, [pc, #40]	; (80009b4 <HAL_TIM_PWM_MspInit+0x3c>)
 800098c:	699a      	ldr	r2, [r3, #24]
 800098e:	4b09      	ldr	r3, [pc, #36]	; (80009b4 <HAL_TIM_PWM_MspInit+0x3c>)
 8000990:	2180      	movs	r1, #128	; 0x80
 8000992:	0109      	lsls	r1, r1, #4
 8000994:	430a      	orrs	r2, r1
 8000996:	619a      	str	r2, [r3, #24]
 8000998:	4b06      	ldr	r3, [pc, #24]	; (80009b4 <HAL_TIM_PWM_MspInit+0x3c>)
 800099a:	699a      	ldr	r2, [r3, #24]
 800099c:	2380      	movs	r3, #128	; 0x80
 800099e:	011b      	lsls	r3, r3, #4
 80009a0:	4013      	ands	r3, r2
 80009a2:	60fb      	str	r3, [r7, #12]
 80009a4:	68fb      	ldr	r3, [r7, #12]
  /* USER CODE BEGIN TIM1_MspInit 1 */

  /* USER CODE END TIM1_MspInit 1 */
  }
}
 80009a6:	46c0      	nop			; (mov r8, r8)
 80009a8:	46bd      	mov	sp, r7
 80009aa:	b004      	add	sp, #16
 80009ac:	bd80      	pop	{r7, pc}
 80009ae:	46c0      	nop			; (mov r8, r8)
 80009b0:	40012c00 	.word	0x40012c00
 80009b4:	40021000 	.word	0x40021000

080009b8 <HAL_TIM_Encoder_MspInit>:

void HAL_TIM_Encoder_MspInit(TIM_HandleTypeDef* tim_encoderHandle)
{
 80009b8:	b590      	push	{r4, r7, lr}
 80009ba:	b08b      	sub	sp, #44	; 0x2c
 80009bc:	af00      	add	r7, sp, #0
 80009be:	6078      	str	r0, [r7, #4]

  GPIO_InitTypeDef GPIO_InitStruct = {0};
 80009c0:	2314      	movs	r3, #20
 80009c2:	18fb      	adds	r3, r7, r3
 80009c4:	0018      	movs	r0, r3
 80009c6:	2314      	movs	r3, #20
 80009c8:	001a      	movs	r2, r3
 80009ca:	2100      	movs	r1, #0
 80009cc:	f001 ff7a 	bl	80028c4 <memset>
  if(tim_encoderHandle->Instance==TIM2)
 80009d0:	687b      	ldr	r3, [r7, #4]
 80009d2:	681a      	ldr	r2, [r3, #0]
 80009d4:	2380      	movs	r3, #128	; 0x80
 80009d6:	05db      	lsls	r3, r3, #23
 80009d8:	429a      	cmp	r2, r3
 80009da:	d15e      	bne.n	8000a9a <HAL_TIM_Encoder_MspInit+0xe2>
  {
  /* USER CODE BEGIN TIM2_MspInit 0 */

  /* USER CODE END TIM2_MspInit 0 */
    /* TIM2 clock enable */
    __HAL_RCC_TIM2_CLK_ENABLE();
 80009dc:	4b31      	ldr	r3, [pc, #196]	; (8000aa4 <HAL_TIM_Encoder_MspInit+0xec>)
 80009de:	69da      	ldr	r2, [r3, #28]
 80009e0:	4b30      	ldr	r3, [pc, #192]	; (8000aa4 <HAL_TIM_Encoder_MspInit+0xec>)
 80009e2:	2101      	movs	r1, #1
 80009e4:	430a      	orrs	r2, r1
 80009e6:	61da      	str	r2, [r3, #28]
 80009e8:	4b2e      	ldr	r3, [pc, #184]	; (8000aa4 <HAL_TIM_Encoder_MspInit+0xec>)
 80009ea:	69db      	ldr	r3, [r3, #28]
 80009ec:	2201      	movs	r2, #1
 80009ee:	4013      	ands	r3, r2
 80009f0:	613b      	str	r3, [r7, #16]
 80009f2:	693b      	ldr	r3, [r7, #16]
  
    __HAL_RCC_GPIOA_CLK_ENABLE();
 80009f4:	4b2b      	ldr	r3, [pc, #172]	; (8000aa4 <HAL_TIM_Encoder_MspInit+0xec>)
 80009f6:	695a      	ldr	r2, [r3, #20]
 80009f8:	4b2a      	ldr	r3, [pc, #168]	; (8000aa4 <HAL_TIM_Encoder_MspInit+0xec>)
 80009fa:	2180      	movs	r1, #128	; 0x80
 80009fc:	0289      	lsls	r1, r1, #10
 80009fe:	430a      	orrs	r2, r1
 8000a00:	615a      	str	r2, [r3, #20]
 8000a02:	4b28      	ldr	r3, [pc, #160]	; (8000aa4 <HAL_TIM_Encoder_MspInit+0xec>)
 8000a04:	695a      	ldr	r2, [r3, #20]
 8000a06:	2380      	movs	r3, #128	; 0x80
 8000a08:	029b      	lsls	r3, r3, #10
 8000a0a:	4013      	ands	r3, r2
 8000a0c:	60fb      	str	r3, [r7, #12]
 8000a0e:	68fb      	ldr	r3, [r7, #12]
    __HAL_RCC_GPIOB_CLK_ENABLE();
 8000a10:	4b24      	ldr	r3, [pc, #144]	; (8000aa4 <HAL_TIM_Encoder_MspInit+0xec>)
 8000a12:	695a      	ldr	r2, [r3, #20]
 8000a14:	4b23      	ldr	r3, [pc, #140]	; (8000aa4 <HAL_TIM_Encoder_MspInit+0xec>)
 8000a16:	2180      	movs	r1, #128	; 0x80
 8000a18:	02c9      	lsls	r1, r1, #11
 8000a1a:	430a      	orrs	r2, r1
 8000a1c:	615a      	str	r2, [r3, #20]
 8000a1e:	4b21      	ldr	r3, [pc, #132]	; (8000aa4 <HAL_TIM_Encoder_MspInit+0xec>)
 8000a20:	695a      	ldr	r2, [r3, #20]
 8000a22:	2380      	movs	r3, #128	; 0x80
 8000a24:	02db      	lsls	r3, r3, #11
 8000a26:	4013      	ands	r3, r2
 8000a28:	60bb      	str	r3, [r7, #8]
 8000a2a:	68bb      	ldr	r3, [r7, #8]
    /**TIM2 GPIO Configuration    
    PA15     ------> TIM2_CH1
    PB3     ------> TIM2_CH2 
    */
    GPIO_InitStruct.Pin = GPIO_PIN_15;
 8000a2c:	2114      	movs	r1, #20
 8000a2e:	187b      	adds	r3, r7, r1
 8000a30:	2280      	movs	r2, #128	; 0x80
 8000a32:	0212      	lsls	r2, r2, #8
 8000a34:	601a      	str	r2, [r3, #0]
    GPIO_InitStruct.Mode = GPIO_MODE_AF_PP;
 8000a36:	000c      	movs	r4, r1
 8000a38:	193b      	adds	r3, r7, r4
 8000a3a:	2202      	movs	r2, #2
 8000a3c:	605a      	str	r2, [r3, #4]
    GPIO_InitStruct.Pull = GPIO_NOPULL;
 8000a3e:	193b      	adds	r3, r7, r4
 8000a40:	2200      	movs	r2, #0
 8000a42:	609a      	str	r2, [r3, #8]
    GPIO_InitStruct.Speed = GPIO_SPEED_FREQ_LOW;
 8000a44:	193b      	adds	r3, r7, r4
 8000a46:	2200      	movs	r2, #0
 8000a48:	60da      	str	r2, [r3, #12]
    GPIO_InitStruct.Alternate = GPIO_AF2_TIM2;
 8000a4a:	193b      	adds	r3, r7, r4
 8000a4c:	2202      	movs	r2, #2
 8000a4e:	611a      	str	r2, [r3, #16]
    HAL_GPIO_Init(GPIOA, &GPIO_InitStruct);
 8000a50:	193a      	adds	r2, r7, r4
 8000a52:	2390      	movs	r3, #144	; 0x90
 8000a54:	05db      	lsls	r3, r3, #23
 8000a56:	0011      	movs	r1, r2
 8000a58:	0018      	movs	r0, r3
 8000a5a:	f000 fa37 	bl	8000ecc <HAL_GPIO_Init>

    GPIO_InitStruct.Pin = GPIO_PIN_3;
 8000a5e:	0021      	movs	r1, r4
 8000a60:	187b      	adds	r3, r7, r1
 8000a62:	2208      	movs	r2, #8
 8000a64:	601a      	str	r2, [r3, #0]
    GPIO_InitStruct.Mode = GPIO_MODE_AF_PP;
 8000a66:	187b      	adds	r3, r7, r1
 8000a68:	2202      	movs	r2, #2
 8000a6a:	605a      	str	r2, [r3, #4]
    GPIO_InitStruct.Pull = GPIO_NOPULL;
 8000a6c:	187b      	adds	r3, r7, r1
 8000a6e:	2200      	movs	r2, #0
 8000a70:	609a      	str	r2, [r3, #8]
    GPIO_InitStruct.Speed = GPIO_SPEED_FREQ_LOW;
 8000a72:	187b      	adds	r3, r7, r1
 8000a74:	2200      	movs	r2, #0
 8000a76:	60da      	str	r2, [r3, #12]
    GPIO_InitStruct.Alternate = GPIO_AF2_TIM2;
 8000a78:	187b      	adds	r3, r7, r1
 8000a7a:	2202      	movs	r2, #2
 8000a7c:	611a      	str	r2, [r3, #16]
    HAL_GPIO_Init(GPIOB, &GPIO_InitStruct);
 8000a7e:	187b      	adds	r3, r7, r1
 8000a80:	4a09      	ldr	r2, [pc, #36]	; (8000aa8 <HAL_TIM_Encoder_MspInit+0xf0>)
 8000a82:	0019      	movs	r1, r3
 8000a84:	0010      	movs	r0, r2
 8000a86:	f000 fa21 	bl	8000ecc <HAL_GPIO_Init>

    /* TIM2 interrupt Init */
    HAL_NVIC_SetPriority(TIM2_IRQn, 0, 0);
 8000a8a:	2200      	movs	r2, #0
 8000a8c:	2100      	movs	r1, #0
 8000a8e:	200f      	movs	r0, #15
 8000a90:	f000 f9ea 	bl	8000e68 <HAL_NVIC_SetPriority>
    HAL_NVIC_EnableIRQ(TIM2_IRQn);
 8000a94:	200f      	movs	r0, #15
 8000a96:	f000 f9fc 	bl	8000e92 <HAL_NVIC_EnableIRQ>
  /* USER CODE BEGIN TIM2_MspInit 1 */

  /* USER CODE END TIM2_MspInit 1 */
  }
}
 8000a9a:	46c0      	nop			; (mov r8, r8)
 8000a9c:	46bd      	mov	sp, r7
 8000a9e:	b00b      	add	sp, #44	; 0x2c
 8000aa0:	bd90      	pop	{r4, r7, pc}
 8000aa2:	46c0      	nop			; (mov r8, r8)
 8000aa4:	40021000 	.word	0x40021000
 8000aa8:	48000400 	.word	0x48000400

08000aac <HAL_TIM_Base_MspInit>:

void HAL_TIM_Base_MspInit(TIM_HandleTypeDef* tim_baseHandle)
{
 8000aac:	b580      	push	{r7, lr}
 8000aae:	b084      	sub	sp, #16
 8000ab0:	af00      	add	r7, sp, #0
 8000ab2:	6078      	str	r0, [r7, #4]

  if(tim_baseHandle->Instance==TIM14)
 8000ab4:	687b      	ldr	r3, [r7, #4]
 8000ab6:	681b      	ldr	r3, [r3, #0]
 8000ab8:	4a14      	ldr	r2, [pc, #80]	; (8000b0c <HAL_TIM_Base_MspInit+0x60>)
 8000aba:	4293      	cmp	r3, r2
 8000abc:	d10e      	bne.n	8000adc <HAL_TIM_Base_MspInit+0x30>
  {
  /* USER CODE BEGIN TIM14_MspInit 0 */

  /* USER CODE END TIM14_MspInit 0 */
    /* TIM14 clock enable */
    __HAL_RCC_TIM14_CLK_ENABLE();
 8000abe:	4b14      	ldr	r3, [pc, #80]	; (8000b10 <HAL_TIM_Base_MspInit+0x64>)
 8000ac0:	69da      	ldr	r2, [r3, #28]
 8000ac2:	4b13      	ldr	r3, [pc, #76]	; (8000b10 <HAL_TIM_Base_MspInit+0x64>)
 8000ac4:	2180      	movs	r1, #128	; 0x80
 8000ac6:	0049      	lsls	r1, r1, #1
 8000ac8:	430a      	orrs	r2, r1
 8000aca:	61da      	str	r2, [r3, #28]
 8000acc:	4b10      	ldr	r3, [pc, #64]	; (8000b10 <HAL_TIM_Base_MspInit+0x64>)
 8000ace:	69da      	ldr	r2, [r3, #28]
 8000ad0:	2380      	movs	r3, #128	; 0x80
 8000ad2:	005b      	lsls	r3, r3, #1
 8000ad4:	4013      	ands	r3, r2
 8000ad6:	60fb      	str	r3, [r7, #12]
 8000ad8:	68fb      	ldr	r3, [r7, #12]
    __HAL_RCC_TIM17_CLK_ENABLE();
  /* USER CODE BEGIN TIM17_MspInit 1 */

  /* USER CODE END TIM17_MspInit 1 */
  }
}
 8000ada:	e012      	b.n	8000b02 <HAL_TIM_Base_MspInit+0x56>
  else if(tim_baseHandle->Instance==TIM17)
 8000adc:	687b      	ldr	r3, [r7, #4]
 8000ade:	681b      	ldr	r3, [r3, #0]
 8000ae0:	4a0c      	ldr	r2, [pc, #48]	; (8000b14 <HAL_TIM_Base_MspInit+0x68>)
 8000ae2:	4293      	cmp	r3, r2
 8000ae4:	d10d      	bne.n	8000b02 <HAL_TIM_Base_MspInit+0x56>
    __HAL_RCC_TIM17_CLK_ENABLE();
 8000ae6:	4b0a      	ldr	r3, [pc, #40]	; (8000b10 <HAL_TIM_Base_MspInit+0x64>)
 8000ae8:	699a      	ldr	r2, [r3, #24]
 8000aea:	4b09      	ldr	r3, [pc, #36]	; (8000b10 <HAL_TIM_Base_MspInit+0x64>)
 8000aec:	2180      	movs	r1, #128	; 0x80
 8000aee:	02c9      	lsls	r1, r1, #11
 8000af0:	430a      	orrs	r2, r1
 8000af2:	619a      	str	r2, [r3, #24]
 8000af4:	4b06      	ldr	r3, [pc, #24]	; (8000b10 <HAL_TIM_Base_MspInit+0x64>)
 8000af6:	699a      	ldr	r2, [r3, #24]
 8000af8:	2380      	movs	r3, #128	; 0x80
 8000afa:	02db      	lsls	r3, r3, #11
 8000afc:	4013      	ands	r3, r2
 8000afe:	60bb      	str	r3, [r7, #8]
 8000b00:	68bb      	ldr	r3, [r7, #8]
}
 8000b02:	46c0      	nop			; (mov r8, r8)
 8000b04:	46bd      	mov	sp, r7
 8000b06:	b004      	add	sp, #16
 8000b08:	bd80      	pop	{r7, pc}
 8000b0a:	46c0      	nop			; (mov r8, r8)
 8000b0c:	40002000 	.word	0x40002000
 8000b10:	40021000 	.word	0x40021000
 8000b14:	40014800 	.word	0x40014800

08000b18 <HAL_TIM_MspPostInit>:
void HAL_TIM_MspPostInit(TIM_HandleTypeDef* timHandle)
{
 8000b18:	b580      	push	{r7, lr}
 8000b1a:	b08a      	sub	sp, #40	; 0x28
 8000b1c:	af00      	add	r7, sp, #0
 8000b1e:	6078      	str	r0, [r7, #4]

  GPIO_InitTypeDef GPIO_InitStruct = {0};
 8000b20:	2314      	movs	r3, #20
 8000b22:	18fb      	adds	r3, r7, r3
 8000b24:	0018      	movs	r0, r3
 8000b26:	2314      	movs	r3, #20
 8000b28:	001a      	movs	r2, r3
 8000b2a:	2100      	movs	r1, #0
 8000b2c:	f001 feca 	bl	80028c4 <memset>
  if(timHandle->Instance==TIM1)
 8000b30:	687b      	ldr	r3, [r7, #4]
 8000b32:	681b      	ldr	r3, [r3, #0]
 8000b34:	4a2b      	ldr	r2, [pc, #172]	; (8000be4 <HAL_TIM_MspPostInit+0xcc>)
 8000b36:	4293      	cmp	r3, r2
 8000b38:	d126      	bne.n	8000b88 <HAL_TIM_MspPostInit+0x70>
  {
  /* USER CODE BEGIN TIM1_MspPostInit 0 */

  /* USER CODE END TIM1_MspPostInit 0 */
    __HAL_RCC_GPIOA_CLK_ENABLE();
 8000b3a:	4b2b      	ldr	r3, [pc, #172]	; (8000be8 <HAL_TIM_MspPostInit+0xd0>)
 8000b3c:	695a      	ldr	r2, [r3, #20]
 8000b3e:	4b2a      	ldr	r3, [pc, #168]	; (8000be8 <HAL_TIM_MspPostInit+0xd0>)
 8000b40:	2180      	movs	r1, #128	; 0x80
 8000b42:	0289      	lsls	r1, r1, #10
 8000b44:	430a      	orrs	r2, r1
 8000b46:	615a      	str	r2, [r3, #20]
 8000b48:	4b27      	ldr	r3, [pc, #156]	; (8000be8 <HAL_TIM_MspPostInit+0xd0>)
 8000b4a:	695a      	ldr	r2, [r3, #20]
 8000b4c:	2380      	movs	r3, #128	; 0x80
 8000b4e:	029b      	lsls	r3, r3, #10
 8000b50:	4013      	ands	r3, r2
 8000b52:	613b      	str	r3, [r7, #16]
 8000b54:	693b      	ldr	r3, [r7, #16]
    PA8     ------> TIM1_CH1
    PA9     ------> TIM1_CH2
    PA10     ------> TIM1_CH3
    PA11     ------> TIM1_CH4 
    */
    GPIO_InitStruct.Pin = GPIO_PIN_8|GPIO_PIN_9|GPIO_PIN_10|GPIO_PIN_11;
 8000b56:	2114      	movs	r1, #20
 8000b58:	187b      	adds	r3, r7, r1
 8000b5a:	22f0      	movs	r2, #240	; 0xf0
 8000b5c:	0112      	lsls	r2, r2, #4
 8000b5e:	601a      	str	r2, [r3, #0]
    GPIO_InitStruct.Mode = GPIO_MODE_AF_PP;
 8000b60:	187b      	adds	r3, r7, r1
 8000b62:	2202      	movs	r2, #2
 8000b64:	605a      	str	r2, [r3, #4]
    GPIO_InitStruct.Pull = GPIO_NOPULL;
 8000b66:	187b      	adds	r3, r7, r1
 8000b68:	2200      	movs	r2, #0
 8000b6a:	609a      	str	r2, [r3, #8]
    GPIO_InitStruct.Speed = GPIO_SPEED_FREQ_LOW;
 8000b6c:	187b      	adds	r3, r7, r1
 8000b6e:	2200      	movs	r2, #0
 8000b70:	60da      	str	r2, [r3, #12]
    GPIO_InitStruct.Alternate = GPIO_AF2_TIM1;
 8000b72:	187b      	adds	r3, r7, r1
 8000b74:	2202      	movs	r2, #2
 8000b76:	611a      	str	r2, [r3, #16]
    HAL_GPIO_Init(GPIOA, &GPIO_InitStruct);
 8000b78:	187a      	adds	r2, r7, r1
 8000b7a:	2390      	movs	r3, #144	; 0x90
 8000b7c:	05db      	lsls	r3, r3, #23
 8000b7e:	0011      	movs	r1, r2
 8000b80:	0018      	movs	r0, r3
 8000b82:	f000 f9a3 	bl	8000ecc <HAL_GPIO_Init>
  /* USER CODE BEGIN TIM14_MspPostInit 1 */

  /* USER CODE END TIM14_MspPostInit 1 */
  }

}
 8000b86:	e028      	b.n	8000bda <HAL_TIM_MspPostInit+0xc2>
  else if(timHandle->Instance==TIM14)
 8000b88:	687b      	ldr	r3, [r7, #4]
 8000b8a:	681b      	ldr	r3, [r3, #0]
 8000b8c:	4a17      	ldr	r2, [pc, #92]	; (8000bec <HAL_TIM_MspPostInit+0xd4>)
 8000b8e:	4293      	cmp	r3, r2
 8000b90:	d123      	bne.n	8000bda <HAL_TIM_MspPostInit+0xc2>
    __HAL_RCC_GPIOB_CLK_ENABLE();
 8000b92:	4b15      	ldr	r3, [pc, #84]	; (8000be8 <HAL_TIM_MspPostInit+0xd0>)
 8000b94:	695a      	ldr	r2, [r3, #20]
 8000b96:	4b14      	ldr	r3, [pc, #80]	; (8000be8 <HAL_TIM_MspPostInit+0xd0>)
 8000b98:	2180      	movs	r1, #128	; 0x80
 8000b9a:	02c9      	lsls	r1, r1, #11
 8000b9c:	430a      	orrs	r2, r1
 8000b9e:	615a      	str	r2, [r3, #20]
 8000ba0:	4b11      	ldr	r3, [pc, #68]	; (8000be8 <HAL_TIM_MspPostInit+0xd0>)
 8000ba2:	695a      	ldr	r2, [r3, #20]
 8000ba4:	2380      	movs	r3, #128	; 0x80
 8000ba6:	02db      	lsls	r3, r3, #11
 8000ba8:	4013      	ands	r3, r2
 8000baa:	60fb      	str	r3, [r7, #12]
 8000bac:	68fb      	ldr	r3, [r7, #12]
    GPIO_InitStruct.Pin = GPIO_PIN_1;
 8000bae:	2114      	movs	r1, #20
 8000bb0:	187b      	adds	r3, r7, r1
 8000bb2:	2202      	movs	r2, #2
 8000bb4:	601a      	str	r2, [r3, #0]
    GPIO_InitStruct.Mode = GPIO_MODE_AF_PP;
 8000bb6:	187b      	adds	r3, r7, r1
 8000bb8:	2202      	movs	r2, #2
 8000bba:	605a      	str	r2, [r3, #4]
    GPIO_InitStruct.Pull = GPIO_NOPULL;
 8000bbc:	187b      	adds	r3, r7, r1
 8000bbe:	2200      	movs	r2, #0
 8000bc0:	609a      	str	r2, [r3, #8]
    GPIO_InitStruct.Speed = GPIO_SPEED_FREQ_LOW;
 8000bc2:	187b      	adds	r3, r7, r1
 8000bc4:	2200      	movs	r2, #0
 8000bc6:	60da      	str	r2, [r3, #12]
    GPIO_InitStruct.Alternate = GPIO_AF0_TIM14;
 8000bc8:	187b      	adds	r3, r7, r1
 8000bca:	2200      	movs	r2, #0
 8000bcc:	611a      	str	r2, [r3, #16]
    HAL_GPIO_Init(GPIOB, &GPIO_InitStruct);
 8000bce:	187b      	adds	r3, r7, r1
 8000bd0:	4a07      	ldr	r2, [pc, #28]	; (8000bf0 <HAL_TIM_MspPostInit+0xd8>)
 8000bd2:	0019      	movs	r1, r3
 8000bd4:	0010      	movs	r0, r2
 8000bd6:	f000 f979 	bl	8000ecc <HAL_GPIO_Init>
}
 8000bda:	46c0      	nop			; (mov r8, r8)
 8000bdc:	46bd      	mov	sp, r7
 8000bde:	b00a      	add	sp, #40	; 0x28
 8000be0:	bd80      	pop	{r7, pc}
 8000be2:	46c0      	nop			; (mov r8, r8)
 8000be4:	40012c00 	.word	0x40012c00
 8000be8:	40021000 	.word	0x40021000
 8000bec:	40002000 	.word	0x40002000
 8000bf0:	48000400 	.word	0x48000400

08000bf4 <Reset_Handler>:

  .section .text.Reset_Handler
  .weak Reset_Handler
  .type Reset_Handler, %function
Reset_Handler:
  ldr   r0, =_estack
 8000bf4:	480d      	ldr	r0, [pc, #52]	; (8000c2c <LoopForever+0x2>)
  mov   sp, r0          /* set stack pointer */
 8000bf6:	4685      	mov	sp, r0

/* Copy the data segment initializers from flash to SRAM */
  ldr r0, =_sdata
 8000bf8:	480d      	ldr	r0, [pc, #52]	; (8000c30 <LoopForever+0x6>)
  ldr r1, =_edata
 8000bfa:	490e      	ldr	r1, [pc, #56]	; (8000c34 <LoopForever+0xa>)
  ldr r2, =_sidata
 8000bfc:	4a0e      	ldr	r2, [pc, #56]	; (8000c38 <LoopForever+0xe>)
  movs r3, #0
 8000bfe:	2300      	movs	r3, #0
  b LoopCopyDataInit
 8000c00:	e002      	b.n	8000c08 <LoopCopyDataInit>

08000c02 <CopyDataInit>:

CopyDataInit:
  ldr r4, [r2, r3]
 8000c02:	58d4      	ldr	r4, [r2, r3]
  str r4, [r0, r3]
 8000c04:	50c4      	str	r4, [r0, r3]
  adds r3, r3, #4
 8000c06:	3304      	adds	r3, #4

08000c08 <LoopCopyDataInit>:

LoopCopyDataInit:
  adds r4, r0, r3
 8000c08:	18c4      	adds	r4, r0, r3
  cmp r4, r1
 8000c0a:	428c      	cmp	r4, r1
  bcc CopyDataInit
 8000c0c:	d3f9      	bcc.n	8000c02 <CopyDataInit>
  
/* Zero fill the bss segment. */
  ldr r2, =_sbss
 8000c0e:	4a0b      	ldr	r2, [pc, #44]	; (8000c3c <LoopForever+0x12>)
  ldr r4, =_ebss
 8000c10:	4c0b      	ldr	r4, [pc, #44]	; (8000c40 <LoopForever+0x16>)
  movs r3, #0
 8000c12:	2300      	movs	r3, #0
  b LoopFillZerobss
 8000c14:	e001      	b.n	8000c1a <LoopFillZerobss>

08000c16 <FillZerobss>:

FillZerobss:
  str  r3, [r2]
 8000c16:	6013      	str	r3, [r2, #0]
  adds r2, r2, #4
 8000c18:	3204      	adds	r2, #4

08000c1a <LoopFillZerobss>:

LoopFillZerobss:
  cmp r2, r4
 8000c1a:	42a2      	cmp	r2, r4
  bcc FillZerobss
 8000c1c:	d3fb      	bcc.n	8000c16 <FillZerobss>

/* Call the clock system intitialization function.*/
  bl  SystemInit
 8000c1e:	f7ff fd17 	bl	8000650 <SystemInit>
/* Call static constructors */
  bl __libc_init_array
 8000c22:	f001 fe2b 	bl	800287c <__libc_init_array>
/* Call the application's entry point.*/
  bl main
 8000c26:	f7ff fb5d 	bl	80002e4 <main>

08000c2a <LoopForever>:

LoopForever:
    b LoopForever
 8000c2a:	e7fe      	b.n	8000c2a <LoopForever>
  ldr   r0, =_estack
 8000c2c:	20002000 	.word	0x20002000
  ldr r0, =_sdata
 8000c30:	20000000 	.word	0x20000000
  ldr r1, =_edata
 8000c34:	2000000c 	.word	0x2000000c
  ldr r2, =_sidata
 8000c38:	08002924 	.word	0x08002924
  ldr r2, =_sbss
 8000c3c:	2000000c 	.word	0x2000000c
  ldr r4, =_ebss
 8000c40:	20000130 	.word	0x20000130

08000c44 <ADC1_COMP_IRQHandler>:
 * @retval : None
*/
    .section .text.Default_Handler,"ax",%progbits
Default_Handler:
Infinite_Loop:
  b Infinite_Loop
 8000c44:	e7fe      	b.n	8000c44 <ADC1_COMP_IRQHandler>
	...

08000c48 <HAL_Init>:
  *       In the default implementation,Systick is used as source of time base.
  *       The tick variable is incremented each 1ms in its ISR.
  * @retval HAL status
  */
HAL_StatusTypeDef HAL_Init(void)
{
 8000c48:	b580      	push	{r7, lr}
 8000c4a:	af00      	add	r7, sp, #0
  /* Configure Flash prefetch */ 
#if (PREFETCH_ENABLE != 0)
  __HAL_FLASH_PREFETCH_BUFFER_ENABLE();
 8000c4c:	4b07      	ldr	r3, [pc, #28]	; (8000c6c <HAL_Init+0x24>)
 8000c4e:	681a      	ldr	r2, [r3, #0]
 8000c50:	4b06      	ldr	r3, [pc, #24]	; (8000c6c <HAL_Init+0x24>)
 8000c52:	2110      	movs	r1, #16
 8000c54:	430a      	orrs	r2, r1
 8000c56:	601a      	str	r2, [r3, #0]
#endif /* PREFETCH_ENABLE */

  /* Use systick as time base source and configure 1ms tick (default clock after Reset is HSI) */

  HAL_InitTick(TICK_INT_PRIORITY);
 8000c58:	2000      	movs	r0, #0
 8000c5a:	f000 f809 	bl	8000c70 <HAL_InitTick>

  /* Init the low level hardware */
  HAL_MspInit();
 8000c5e:	f7ff fc5d 	bl	800051c <HAL_MspInit>

  /* Return function status */
  return HAL_OK;
 8000c62:	2300      	movs	r3, #0
}
 8000c64:	0018      	movs	r0, r3
 8000c66:	46bd      	mov	sp, r7
 8000c68:	bd80      	pop	{r7, pc}
 8000c6a:	46c0      	nop			; (mov r8, r8)
 8000c6c:	40022000 	.word	0x40022000

08000c70 <HAL_InitTick>:
  *       implementation  in user file.
  * @param TickPriority Tick interrupt priority.
  * @retval HAL status
  */
__weak HAL_StatusTypeDef HAL_InitTick(uint32_t TickPriority)
{
 8000c70:	b590      	push	{r4, r7, lr}
 8000c72:	b083      	sub	sp, #12
 8000c74:	af00      	add	r7, sp, #0
 8000c76:	6078      	str	r0, [r7, #4]
  /*Configure the SysTick to have interrupt in 1ms time basis*/
  if (HAL_SYSTICK_Config(SystemCoreClock / (1000U / uwTickFreq)) > 0U)
 8000c78:	4b14      	ldr	r3, [pc, #80]	; (8000ccc <HAL_InitTick+0x5c>)
 8000c7a:	681c      	ldr	r4, [r3, #0]
 8000c7c:	4b14      	ldr	r3, [pc, #80]	; (8000cd0 <HAL_InitTick+0x60>)
 8000c7e:	781b      	ldrb	r3, [r3, #0]
 8000c80:	0019      	movs	r1, r3
 8000c82:	23fa      	movs	r3, #250	; 0xfa
 8000c84:	0098      	lsls	r0, r3, #2
 8000c86:	f7ff fa3f 	bl	8000108 <__udivsi3>
 8000c8a:	0003      	movs	r3, r0
 8000c8c:	0019      	movs	r1, r3
 8000c8e:	0020      	movs	r0, r4
 8000c90:	f7ff fa3a 	bl	8000108 <__udivsi3>
 8000c94:	0003      	movs	r3, r0
 8000c96:	0018      	movs	r0, r3
 8000c98:	f000 f90b 	bl	8000eb2 <HAL_SYSTICK_Config>
 8000c9c:	1e03      	subs	r3, r0, #0
 8000c9e:	d001      	beq.n	8000ca4 <HAL_InitTick+0x34>
  {
    return HAL_ERROR;
 8000ca0:	2301      	movs	r3, #1
 8000ca2:	e00f      	b.n	8000cc4 <HAL_InitTick+0x54>
  }

  /* Configure the SysTick IRQ priority */
  if (TickPriority < (1UL << __NVIC_PRIO_BITS))
 8000ca4:	687b      	ldr	r3, [r7, #4]
 8000ca6:	2b03      	cmp	r3, #3
 8000ca8:	d80b      	bhi.n	8000cc2 <HAL_InitTick+0x52>
  {
    HAL_NVIC_SetPriority(SysTick_IRQn, TickPriority, 0U);
 8000caa:	6879      	ldr	r1, [r7, #4]
 8000cac:	2301      	movs	r3, #1
 8000cae:	425b      	negs	r3, r3
 8000cb0:	2200      	movs	r2, #0
 8000cb2:	0018      	movs	r0, r3
 8000cb4:	f000 f8d8 	bl	8000e68 <HAL_NVIC_SetPriority>
    uwTickPrio = TickPriority;
 8000cb8:	4b06      	ldr	r3, [pc, #24]	; (8000cd4 <HAL_InitTick+0x64>)
 8000cba:	687a      	ldr	r2, [r7, #4]
 8000cbc:	601a      	str	r2, [r3, #0]
  {
    return HAL_ERROR;
  }

   /* Return function status */
  return HAL_OK;
 8000cbe:	2300      	movs	r3, #0
 8000cc0:	e000      	b.n	8000cc4 <HAL_InitTick+0x54>
    return HAL_ERROR;
 8000cc2:	2301      	movs	r3, #1
}
 8000cc4:	0018      	movs	r0, r3
 8000cc6:	46bd      	mov	sp, r7
 8000cc8:	b003      	add	sp, #12
 8000cca:	bd90      	pop	{r4, r7, pc}
 8000ccc:	20000000 	.word	0x20000000
 8000cd0:	20000008 	.word	0x20000008
 8000cd4:	20000004 	.word	0x20000004

08000cd8 <HAL_IncTick>:
  * @note This function is declared as __weak to be overwritten in case of other 
  *       implementations in user file.
  * @retval None
  */
__weak void HAL_IncTick(void)
{
 8000cd8:	b580      	push	{r7, lr}
 8000cda:	af00      	add	r7, sp, #0
  uwTick += uwTickFreq;
 8000cdc:	4b05      	ldr	r3, [pc, #20]	; (8000cf4 <HAL_IncTick+0x1c>)
 8000cde:	781b      	ldrb	r3, [r3, #0]
 8000ce0:	001a      	movs	r2, r3
 8000ce2:	4b05      	ldr	r3, [pc, #20]	; (8000cf8 <HAL_IncTick+0x20>)
 8000ce4:	681b      	ldr	r3, [r3, #0]
 8000ce6:	18d2      	adds	r2, r2, r3
 8000ce8:	4b03      	ldr	r3, [pc, #12]	; (8000cf8 <HAL_IncTick+0x20>)
 8000cea:	601a      	str	r2, [r3, #0]
}
 8000cec:	46c0      	nop			; (mov r8, r8)
 8000cee:	46bd      	mov	sp, r7
 8000cf0:	bd80      	pop	{r7, pc}
 8000cf2:	46c0      	nop			; (mov r8, r8)
 8000cf4:	20000008 	.word	0x20000008
 8000cf8:	2000012c 	.word	0x2000012c

08000cfc <HAL_GetTick>:
  * @note   This function is declared as __weak  to be overwritten  in case of other 
  *       implementations in user file.
  * @retval tick value
  */
__weak uint32_t HAL_GetTick(void)
{
 8000cfc:	b580      	push	{r7, lr}
 8000cfe:	af00      	add	r7, sp, #0
  return uwTick;
 8000d00:	4b02      	ldr	r3, [pc, #8]	; (8000d0c <HAL_GetTick+0x10>)
 8000d02:	681b      	ldr	r3, [r3, #0]
}
 8000d04:	0018      	movs	r0, r3
 8000d06:	46bd      	mov	sp, r7
 8000d08:	bd80      	pop	{r7, pc}
 8000d0a:	46c0      	nop			; (mov r8, r8)
 8000d0c:	2000012c 	.word	0x2000012c

08000d10 <__NVIC_EnableIRQ>:
  \details Enables a device specific interrupt in the NVIC interrupt controller.
  \param [in]      IRQn  Device specific interrupt number.
  \note    IRQn must not be negative.
 */
__STATIC_INLINE void __NVIC_EnableIRQ(IRQn_Type IRQn)
{
 8000d10:	b580      	push	{r7, lr}
 8000d12:	b082      	sub	sp, #8
 8000d14:	af00      	add	r7, sp, #0
 8000d16:	0002      	movs	r2, r0
 8000d18:	1dfb      	adds	r3, r7, #7
 8000d1a:	701a      	strb	r2, [r3, #0]
  if ((int32_t)(IRQn) >= 0)
 8000d1c:	1dfb      	adds	r3, r7, #7
 8000d1e:	781b      	ldrb	r3, [r3, #0]
 8000d20:	2b7f      	cmp	r3, #127	; 0x7f
 8000d22:	d809      	bhi.n	8000d38 <__NVIC_EnableIRQ+0x28>
  {
    NVIC->ISER[0U] = (uint32_t)(1UL << (((uint32_t)IRQn) & 0x1FUL));
 8000d24:	1dfb      	adds	r3, r7, #7
 8000d26:	781b      	ldrb	r3, [r3, #0]
 8000d28:	001a      	movs	r2, r3
 8000d2a:	231f      	movs	r3, #31
 8000d2c:	401a      	ands	r2, r3
 8000d2e:	4b04      	ldr	r3, [pc, #16]	; (8000d40 <__NVIC_EnableIRQ+0x30>)
 8000d30:	2101      	movs	r1, #1
 8000d32:	4091      	lsls	r1, r2
 8000d34:	000a      	movs	r2, r1
 8000d36:	601a      	str	r2, [r3, #0]
  }
}
 8000d38:	46c0      	nop			; (mov r8, r8)
 8000d3a:	46bd      	mov	sp, r7
 8000d3c:	b002      	add	sp, #8
 8000d3e:	bd80      	pop	{r7, pc}
 8000d40:	e000e100 	.word	0xe000e100

08000d44 <__NVIC_SetPriority>:
  \param [in]      IRQn  Interrupt number.
  \param [in]  priority  Priority to set.
  \note    The priority cannot be set for every processor exception.
 */
__STATIC_INLINE void __NVIC_SetPriority(IRQn_Type IRQn, uint32_t priority)
{
 8000d44:	b590      	push	{r4, r7, lr}
 8000d46:	b083      	sub	sp, #12
 8000d48:	af00      	add	r7, sp, #0
 8000d4a:	0002      	movs	r2, r0
 8000d4c:	6039      	str	r1, [r7, #0]
 8000d4e:	1dfb      	adds	r3, r7, #7
 8000d50:	701a      	strb	r2, [r3, #0]
  if ((int32_t)(IRQn) >= 0)
 8000d52:	1dfb      	adds	r3, r7, #7
 8000d54:	781b      	ldrb	r3, [r3, #0]
 8000d56:	2b7f      	cmp	r3, #127	; 0x7f
 8000d58:	d828      	bhi.n	8000dac <__NVIC_SetPriority+0x68>
  {
    NVIC->IP[_IP_IDX(IRQn)]  = ((uint32_t)(NVIC->IP[_IP_IDX(IRQn)]  & ~(0xFFUL << _BIT_SHIFT(IRQn))) |
 8000d5a:	4a2f      	ldr	r2, [pc, #188]	; (8000e18 <__NVIC_SetPriority+0xd4>)
 8000d5c:	1dfb      	adds	r3, r7, #7
 8000d5e:	781b      	ldrb	r3, [r3, #0]
 8000d60:	b25b      	sxtb	r3, r3
 8000d62:	089b      	lsrs	r3, r3, #2
 8000d64:	33c0      	adds	r3, #192	; 0xc0
 8000d66:	009b      	lsls	r3, r3, #2
 8000d68:	589b      	ldr	r3, [r3, r2]
 8000d6a:	1dfa      	adds	r2, r7, #7
 8000d6c:	7812      	ldrb	r2, [r2, #0]
 8000d6e:	0011      	movs	r1, r2
 8000d70:	2203      	movs	r2, #3
 8000d72:	400a      	ands	r2, r1
 8000d74:	00d2      	lsls	r2, r2, #3
 8000d76:	21ff      	movs	r1, #255	; 0xff
 8000d78:	4091      	lsls	r1, r2
 8000d7a:	000a      	movs	r2, r1
 8000d7c:	43d2      	mvns	r2, r2
 8000d7e:	401a      	ands	r2, r3
 8000d80:	0011      	movs	r1, r2
       (((priority << (8U - __NVIC_PRIO_BITS)) & (uint32_t)0xFFUL) << _BIT_SHIFT(IRQn)));
 8000d82:	683b      	ldr	r3, [r7, #0]
 8000d84:	019b      	lsls	r3, r3, #6
 8000d86:	22ff      	movs	r2, #255	; 0xff
 8000d88:	401a      	ands	r2, r3
 8000d8a:	1dfb      	adds	r3, r7, #7
 8000d8c:	781b      	ldrb	r3, [r3, #0]
 8000d8e:	0018      	movs	r0, r3
 8000d90:	2303      	movs	r3, #3
 8000d92:	4003      	ands	r3, r0
 8000d94:	00db      	lsls	r3, r3, #3
 8000d96:	409a      	lsls	r2, r3
    NVIC->IP[_IP_IDX(IRQn)]  = ((uint32_t)(NVIC->IP[_IP_IDX(IRQn)]  & ~(0xFFUL << _BIT_SHIFT(IRQn))) |
 8000d98:	481f      	ldr	r0, [pc, #124]	; (8000e18 <__NVIC_SetPriority+0xd4>)
 8000d9a:	1dfb      	adds	r3, r7, #7
 8000d9c:	781b      	ldrb	r3, [r3, #0]
 8000d9e:	b25b      	sxtb	r3, r3
 8000da0:	089b      	lsrs	r3, r3, #2
 8000da2:	430a      	orrs	r2, r1
 8000da4:	33c0      	adds	r3, #192	; 0xc0
 8000da6:	009b      	lsls	r3, r3, #2
 8000da8:	501a      	str	r2, [r3, r0]
  else
  {
    SCB->SHP[_SHP_IDX(IRQn)] = ((uint32_t)(SCB->SHP[_SHP_IDX(IRQn)] & ~(0xFFUL << _BIT_SHIFT(IRQn))) |
       (((priority << (8U - __NVIC_PRIO_BITS)) & (uint32_t)0xFFUL) << _BIT_SHIFT(IRQn)));
  }
}
 8000daa:	e031      	b.n	8000e10 <__NVIC_SetPriority+0xcc>
    SCB->SHP[_SHP_IDX(IRQn)] = ((uint32_t)(SCB->SHP[_SHP_IDX(IRQn)] & ~(0xFFUL << _BIT_SHIFT(IRQn))) |
 8000dac:	4a1b      	ldr	r2, [pc, #108]	; (8000e1c <__NVIC_SetPriority+0xd8>)
 8000dae:	1dfb      	adds	r3, r7, #7
 8000db0:	781b      	ldrb	r3, [r3, #0]
 8000db2:	0019      	movs	r1, r3
 8000db4:	230f      	movs	r3, #15
 8000db6:	400b      	ands	r3, r1
 8000db8:	3b08      	subs	r3, #8
 8000dba:	089b      	lsrs	r3, r3, #2
 8000dbc:	3306      	adds	r3, #6
 8000dbe:	009b      	lsls	r3, r3, #2
 8000dc0:	18d3      	adds	r3, r2, r3
 8000dc2:	3304      	adds	r3, #4
 8000dc4:	681b      	ldr	r3, [r3, #0]
 8000dc6:	1dfa      	adds	r2, r7, #7
 8000dc8:	7812      	ldrb	r2, [r2, #0]
 8000dca:	0011      	movs	r1, r2
 8000dcc:	2203      	movs	r2, #3
 8000dce:	400a      	ands	r2, r1
 8000dd0:	00d2      	lsls	r2, r2, #3
 8000dd2:	21ff      	movs	r1, #255	; 0xff
 8000dd4:	4091      	lsls	r1, r2
 8000dd6:	000a      	movs	r2, r1
 8000dd8:	43d2      	mvns	r2, r2
 8000dda:	401a      	ands	r2, r3
 8000ddc:	0011      	movs	r1, r2
       (((priority << (8U - __NVIC_PRIO_BITS)) & (uint32_t)0xFFUL) << _BIT_SHIFT(IRQn)));
 8000dde:	683b      	ldr	r3, [r7, #0]
 8000de0:	019b      	lsls	r3, r3, #6
 8000de2:	22ff      	movs	r2, #255	; 0xff
 8000de4:	401a      	ands	r2, r3
 8000de6:	1dfb      	adds	r3, r7, #7
 8000de8:	781b      	ldrb	r3, [r3, #0]
 8000dea:	0018      	movs	r0, r3
 8000dec:	2303      	movs	r3, #3
 8000dee:	4003      	ands	r3, r0
 8000df0:	00db      	lsls	r3, r3, #3
 8000df2:	409a      	lsls	r2, r3
    SCB->SHP[_SHP_IDX(IRQn)] = ((uint32_t)(SCB->SHP[_SHP_IDX(IRQn)] & ~(0xFFUL << _BIT_SHIFT(IRQn))) |
 8000df4:	4809      	ldr	r0, [pc, #36]	; (8000e1c <__NVIC_SetPriority+0xd8>)
 8000df6:	1dfb      	adds	r3, r7, #7
 8000df8:	781b      	ldrb	r3, [r3, #0]
 8000dfa:	001c      	movs	r4, r3
 8000dfc:	230f      	movs	r3, #15
 8000dfe:	4023      	ands	r3, r4
 8000e00:	3b08      	subs	r3, #8
 8000e02:	089b      	lsrs	r3, r3, #2
 8000e04:	430a      	orrs	r2, r1
 8000e06:	3306      	adds	r3, #6
 8000e08:	009b      	lsls	r3, r3, #2
 8000e0a:	18c3      	adds	r3, r0, r3
 8000e0c:	3304      	adds	r3, #4
 8000e0e:	601a      	str	r2, [r3, #0]
}
 8000e10:	46c0      	nop			; (mov r8, r8)
 8000e12:	46bd      	mov	sp, r7
 8000e14:	b003      	add	sp, #12
 8000e16:	bd90      	pop	{r4, r7, pc}
 8000e18:	e000e100 	.word	0xe000e100
 8000e1c:	e000ed00 	.word	0xe000ed00

08000e20 <SysTick_Config>:
  \note    When the variable <b>__Vendor_SysTickConfig</b> is set to 1, then the
           function <b>SysTick_Config</b> is not included. In this case, the file <b><i>device</i>.h</b>
           must contain a vendor-specific implementation of this function.
 */
__STATIC_INLINE uint32_t SysTick_Config(uint32_t ticks)
{
 8000e20:	b580      	push	{r7, lr}
 8000e22:	b082      	sub	sp, #8
 8000e24:	af00      	add	r7, sp, #0
 8000e26:	6078      	str	r0, [r7, #4]
  if ((ticks - 1UL) > SysTick_LOAD_RELOAD_Msk)
 8000e28:	687b      	ldr	r3, [r7, #4]
 8000e2a:	3b01      	subs	r3, #1
 8000e2c:	4a0c      	ldr	r2, [pc, #48]	; (8000e60 <SysTick_Config+0x40>)
 8000e2e:	4293      	cmp	r3, r2
 8000e30:	d901      	bls.n	8000e36 <SysTick_Config+0x16>
  {
    return (1UL);                                                   /* Reload value impossible */
 8000e32:	2301      	movs	r3, #1
 8000e34:	e010      	b.n	8000e58 <SysTick_Config+0x38>
  }

  SysTick->LOAD  = (uint32_t)(ticks - 1UL);                         /* set reload register */
 8000e36:	4b0b      	ldr	r3, [pc, #44]	; (8000e64 <SysTick_Config+0x44>)
 8000e38:	687a      	ldr	r2, [r7, #4]
 8000e3a:	3a01      	subs	r2, #1
 8000e3c:	605a      	str	r2, [r3, #4]
  NVIC_SetPriority (SysTick_IRQn, (1UL << __NVIC_PRIO_BITS) - 1UL); /* set Priority for Systick Interrupt */
 8000e3e:	2301      	movs	r3, #1
 8000e40:	425b      	negs	r3, r3
 8000e42:	2103      	movs	r1, #3
 8000e44:	0018      	movs	r0, r3
 8000e46:	f7ff ff7d 	bl	8000d44 <__NVIC_SetPriority>
  SysTick->VAL   = 0UL;                                             /* Load the SysTick Counter Value */
 8000e4a:	4b06      	ldr	r3, [pc, #24]	; (8000e64 <SysTick_Config+0x44>)
 8000e4c:	2200      	movs	r2, #0
 8000e4e:	609a      	str	r2, [r3, #8]
  SysTick->CTRL  = SysTick_CTRL_CLKSOURCE_Msk |
 8000e50:	4b04      	ldr	r3, [pc, #16]	; (8000e64 <SysTick_Config+0x44>)
 8000e52:	2207      	movs	r2, #7
 8000e54:	601a      	str	r2, [r3, #0]
                   SysTick_CTRL_TICKINT_Msk   |
                   SysTick_CTRL_ENABLE_Msk;                         /* Enable SysTick IRQ and SysTick Timer */
  return (0UL);                                                     /* Function successful */
 8000e56:	2300      	movs	r3, #0
}
 8000e58:	0018      	movs	r0, r3
 8000e5a:	46bd      	mov	sp, r7
 8000e5c:	b002      	add	sp, #8
 8000e5e:	bd80      	pop	{r7, pc}
 8000e60:	00ffffff 	.word	0x00ffffff
 8000e64:	e000e010 	.word	0xe000e010

08000e68 <HAL_NVIC_SetPriority>:
  *         with stm32f0xx devices, this parameter is a dummy value and it is ignored, because 
  *         no subpriority supported in Cortex M0 based products.   
  * @retval None
  */
void HAL_NVIC_SetPriority(IRQn_Type IRQn, uint32_t PreemptPriority, uint32_t SubPriority)
{ 
 8000e68:	b580      	push	{r7, lr}
 8000e6a:	b084      	sub	sp, #16
 8000e6c:	af00      	add	r7, sp, #0
 8000e6e:	60b9      	str	r1, [r7, #8]
 8000e70:	607a      	str	r2, [r7, #4]
 8000e72:	210f      	movs	r1, #15
 8000e74:	187b      	adds	r3, r7, r1
 8000e76:	1c02      	adds	r2, r0, #0
 8000e78:	701a      	strb	r2, [r3, #0]
  /* Check the parameters */
  assert_param(IS_NVIC_PREEMPTION_PRIORITY(PreemptPriority));
  NVIC_SetPriority(IRQn,PreemptPriority);
 8000e7a:	68ba      	ldr	r2, [r7, #8]
 8000e7c:	187b      	adds	r3, r7, r1
 8000e7e:	781b      	ldrb	r3, [r3, #0]
 8000e80:	b25b      	sxtb	r3, r3
 8000e82:	0011      	movs	r1, r2
 8000e84:	0018      	movs	r0, r3
 8000e86:	f7ff ff5d 	bl	8000d44 <__NVIC_SetPriority>
}
 8000e8a:	46c0      	nop			; (mov r8, r8)
 8000e8c:	46bd      	mov	sp, r7
 8000e8e:	b004      	add	sp, #16
 8000e90:	bd80      	pop	{r7, pc}

08000e92 <HAL_NVIC_EnableIRQ>:
  *         This parameter can be an enumerator of IRQn_Type enumeration
  *         (For the complete STM32 Devices IRQ Channels list, please refer to the appropriate CMSIS device file (stm32f0xxxx.h))
  * @retval None
  */
void HAL_NVIC_EnableIRQ(IRQn_Type IRQn)
{
 8000e92:	b580      	push	{r7, lr}
 8000e94:	b082      	sub	sp, #8
 8000e96:	af00      	add	r7, sp, #0
 8000e98:	0002      	movs	r2, r0
 8000e9a:	1dfb      	adds	r3, r7, #7
 8000e9c:	701a      	strb	r2, [r3, #0]
  /* Check the parameters */
  assert_param(IS_NVIC_DEVICE_IRQ(IRQn));
  
  /* Enable interrupt */
  NVIC_EnableIRQ(IRQn);
 8000e9e:	1dfb      	adds	r3, r7, #7
 8000ea0:	781b      	ldrb	r3, [r3, #0]
 8000ea2:	b25b      	sxtb	r3, r3
 8000ea4:	0018      	movs	r0, r3
 8000ea6:	f7ff ff33 	bl	8000d10 <__NVIC_EnableIRQ>
}
 8000eaa:	46c0      	nop			; (mov r8, r8)
 8000eac:	46bd      	mov	sp, r7
 8000eae:	b002      	add	sp, #8
 8000eb0:	bd80      	pop	{r7, pc}

08000eb2 <HAL_SYSTICK_Config>:
  * @param  TicksNumb Specifies the ticks Number of ticks between two interrupts.
  * @retval status:  - 0  Function succeeded.
  *                  - 1  Function failed.
  */
uint32_t HAL_SYSTICK_Config(uint32_t TicksNumb)
{
 8000eb2:	b580      	push	{r7, lr}
 8000eb4:	b082      	sub	sp, #8
 8000eb6:	af00      	add	r7, sp, #0
 8000eb8:	6078      	str	r0, [r7, #4]
   return SysTick_Config(TicksNumb);
 8000eba:	687b      	ldr	r3, [r7, #4]
 8000ebc:	0018      	movs	r0, r3
 8000ebe:	f7ff ffaf 	bl	8000e20 <SysTick_Config>
 8000ec2:	0003      	movs	r3, r0
}
 8000ec4:	0018      	movs	r0, r3
 8000ec6:	46bd      	mov	sp, r7
 8000ec8:	b002      	add	sp, #8
 8000eca:	bd80      	pop	{r7, pc}

08000ecc <HAL_GPIO_Init>:
  * @param  GPIO_Init pointer to a GPIO_InitTypeDef structure that contains
  *         the configuration information for the specified GPIO peripheral.
  * @retval None
  */
void HAL_GPIO_Init(GPIO_TypeDef  *GPIOx, GPIO_InitTypeDef *GPIO_Init)
{ 
 8000ecc:	b580      	push	{r7, lr}
 8000ece:	b086      	sub	sp, #24
 8000ed0:	af00      	add	r7, sp, #0
 8000ed2:	6078      	str	r0, [r7, #4]
 8000ed4:	6039      	str	r1, [r7, #0]
  uint32_t position = 0x00u;
 8000ed6:	2300      	movs	r3, #0
 8000ed8:	617b      	str	r3, [r7, #20]
  assert_param(IS_GPIO_PIN(GPIO_Init->Pin));
  assert_param(IS_GPIO_MODE(GPIO_Init->Mode));
  assert_param(IS_GPIO_PULL(GPIO_Init->Pull));

  /* Configure the port pins */
  while (((GPIO_Init->Pin) >> position) != 0x00u)
 8000eda:	e14f      	b.n	800117c <HAL_GPIO_Init+0x2b0>
  {
    /* Get current io position */
    iocurrent = (GPIO_Init->Pin) & (1uL << position);
 8000edc:	683b      	ldr	r3, [r7, #0]
 8000ede:	681b      	ldr	r3, [r3, #0]
 8000ee0:	2101      	movs	r1, #1
 8000ee2:	697a      	ldr	r2, [r7, #20]
 8000ee4:	4091      	lsls	r1, r2
 8000ee6:	000a      	movs	r2, r1
 8000ee8:	4013      	ands	r3, r2
 8000eea:	60fb      	str	r3, [r7, #12]

    if (iocurrent != 0x00u)
 8000eec:	68fb      	ldr	r3, [r7, #12]
 8000eee:	2b00      	cmp	r3, #0
 8000ef0:	d100      	bne.n	8000ef4 <HAL_GPIO_Init+0x28>
 8000ef2:	e140      	b.n	8001176 <HAL_GPIO_Init+0x2aa>
    {
      /*--------------------- GPIO Mode Configuration ------------------------*/
      /* In case of Alternate function mode selection */
      if((GPIO_Init->Mode == GPIO_MODE_AF_PP) || (GPIO_Init->Mode == GPIO_MODE_AF_OD))
 8000ef4:	683b      	ldr	r3, [r7, #0]
 8000ef6:	685b      	ldr	r3, [r3, #4]
 8000ef8:	2b02      	cmp	r3, #2
 8000efa:	d003      	beq.n	8000f04 <HAL_GPIO_Init+0x38>
 8000efc:	683b      	ldr	r3, [r7, #0]
 8000efe:	685b      	ldr	r3, [r3, #4]
 8000f00:	2b12      	cmp	r3, #18
 8000f02:	d123      	bne.n	8000f4c <HAL_GPIO_Init+0x80>
        /* Check the Alternate function parameters */
        assert_param(IS_GPIO_AF_INSTANCE(GPIOx));
        assert_param(IS_GPIO_AF(GPIO_Init->Alternate));

        /* Configure Alternate function mapped with the current IO */
        temp = GPIOx->AFR[position >> 3u];
 8000f04:	697b      	ldr	r3, [r7, #20]
 8000f06:	08da      	lsrs	r2, r3, #3
 8000f08:	687b      	ldr	r3, [r7, #4]
 8000f0a:	3208      	adds	r2, #8
 8000f0c:	0092      	lsls	r2, r2, #2
 8000f0e:	58d3      	ldr	r3, [r2, r3]
 8000f10:	613b      	str	r3, [r7, #16]
        temp &= ~(0xFu << ((position & 0x07u) * 4u));
 8000f12:	697b      	ldr	r3, [r7, #20]
 8000f14:	2207      	movs	r2, #7
 8000f16:	4013      	ands	r3, r2
 8000f18:	009b      	lsls	r3, r3, #2
 8000f1a:	220f      	movs	r2, #15
 8000f1c:	409a      	lsls	r2, r3
 8000f1e:	0013      	movs	r3, r2
 8000f20:	43da      	mvns	r2, r3
 8000f22:	693b      	ldr	r3, [r7, #16]
 8000f24:	4013      	ands	r3, r2
 8000f26:	613b      	str	r3, [r7, #16]
        temp |= ((GPIO_Init->Alternate) << ((position & 0x07u) * 4u));
 8000f28:	683b      	ldr	r3, [r7, #0]
 8000f2a:	691a      	ldr	r2, [r3, #16]
 8000f2c:	697b      	ldr	r3, [r7, #20]
 8000f2e:	2107      	movs	r1, #7
 8000f30:	400b      	ands	r3, r1
 8000f32:	009b      	lsls	r3, r3, #2
 8000f34:	409a      	lsls	r2, r3
 8000f36:	0013      	movs	r3, r2
 8000f38:	693a      	ldr	r2, [r7, #16]
 8000f3a:	4313      	orrs	r3, r2
 8000f3c:	613b      	str	r3, [r7, #16]
        GPIOx->AFR[position >> 3u] = temp;
 8000f3e:	697b      	ldr	r3, [r7, #20]
 8000f40:	08da      	lsrs	r2, r3, #3
 8000f42:	687b      	ldr	r3, [r7, #4]
 8000f44:	3208      	adds	r2, #8
 8000f46:	0092      	lsls	r2, r2, #2
 8000f48:	6939      	ldr	r1, [r7, #16]
 8000f4a:	50d1      	str	r1, [r2, r3]
      }

      /* Configure IO Direction mode (Input, Output, Alternate or Analog) */
      temp = GPIOx->MODER;
 8000f4c:	687b      	ldr	r3, [r7, #4]
 8000f4e:	681b      	ldr	r3, [r3, #0]
 8000f50:	613b      	str	r3, [r7, #16]
      temp &= ~(GPIO_MODER_MODER0 << (position * 2u));
 8000f52:	697b      	ldr	r3, [r7, #20]
 8000f54:	005b      	lsls	r3, r3, #1
 8000f56:	2203      	movs	r2, #3
 8000f58:	409a      	lsls	r2, r3
 8000f5a:	0013      	movs	r3, r2
 8000f5c:	43da      	mvns	r2, r3
 8000f5e:	693b      	ldr	r3, [r7, #16]
 8000f60:	4013      	ands	r3, r2
 8000f62:	613b      	str	r3, [r7, #16]
      temp |= ((GPIO_Init->Mode & GPIO_MODE) << (position * 2u));
 8000f64:	683b      	ldr	r3, [r7, #0]
 8000f66:	685b      	ldr	r3, [r3, #4]
 8000f68:	2203      	movs	r2, #3
 8000f6a:	401a      	ands	r2, r3
 8000f6c:	697b      	ldr	r3, [r7, #20]
 8000f6e:	005b      	lsls	r3, r3, #1
 8000f70:	409a      	lsls	r2, r3
 8000f72:	0013      	movs	r3, r2
 8000f74:	693a      	ldr	r2, [r7, #16]
 8000f76:	4313      	orrs	r3, r2
 8000f78:	613b      	str	r3, [r7, #16]
      GPIOx->MODER = temp;
 8000f7a:	687b      	ldr	r3, [r7, #4]
 8000f7c:	693a      	ldr	r2, [r7, #16]
 8000f7e:	601a      	str	r2, [r3, #0]

      /* In case of Output or Alternate function mode selection */
      if((GPIO_Init->Mode == GPIO_MODE_OUTPUT_PP) || (GPIO_Init->Mode == GPIO_MODE_AF_PP) ||
 8000f80:	683b      	ldr	r3, [r7, #0]
 8000f82:	685b      	ldr	r3, [r3, #4]
 8000f84:	2b01      	cmp	r3, #1
 8000f86:	d00b      	beq.n	8000fa0 <HAL_GPIO_Init+0xd4>
 8000f88:	683b      	ldr	r3, [r7, #0]
 8000f8a:	685b      	ldr	r3, [r3, #4]
 8000f8c:	2b02      	cmp	r3, #2
 8000f8e:	d007      	beq.n	8000fa0 <HAL_GPIO_Init+0xd4>
         (GPIO_Init->Mode == GPIO_MODE_OUTPUT_OD) || (GPIO_Init->Mode == GPIO_MODE_AF_OD))
 8000f90:	683b      	ldr	r3, [r7, #0]
 8000f92:	685b      	ldr	r3, [r3, #4]
      if((GPIO_Init->Mode == GPIO_MODE_OUTPUT_PP) || (GPIO_Init->Mode == GPIO_MODE_AF_PP) ||
 8000f94:	2b11      	cmp	r3, #17
 8000f96:	d003      	beq.n	8000fa0 <HAL_GPIO_Init+0xd4>
         (GPIO_Init->Mode == GPIO_MODE_OUTPUT_OD) || (GPIO_Init->Mode == GPIO_MODE_AF_OD))
 8000f98:	683b      	ldr	r3, [r7, #0]
 8000f9a:	685b      	ldr	r3, [r3, #4]
 8000f9c:	2b12      	cmp	r3, #18
 8000f9e:	d130      	bne.n	8001002 <HAL_GPIO_Init+0x136>
      {
        /* Check the Speed parameter */
        assert_param(IS_GPIO_SPEED(GPIO_Init->Speed));
        /* Configure the IO Speed */
        temp = GPIOx->OSPEEDR;
 8000fa0:	687b      	ldr	r3, [r7, #4]
 8000fa2:	689b      	ldr	r3, [r3, #8]
 8000fa4:	613b      	str	r3, [r7, #16]
        temp &= ~(GPIO_OSPEEDER_OSPEEDR0 << (position * 2u));
 8000fa6:	697b      	ldr	r3, [r7, #20]
 8000fa8:	005b      	lsls	r3, r3, #1
 8000faa:	2203      	movs	r2, #3
 8000fac:	409a      	lsls	r2, r3
 8000fae:	0013      	movs	r3, r2
 8000fb0:	43da      	mvns	r2, r3
 8000fb2:	693b      	ldr	r3, [r7, #16]
 8000fb4:	4013      	ands	r3, r2
 8000fb6:	613b      	str	r3, [r7, #16]
        temp |= (GPIO_Init->Speed << (position * 2u));
 8000fb8:	683b      	ldr	r3, [r7, #0]
 8000fba:	68da      	ldr	r2, [r3, #12]
 8000fbc:	697b      	ldr	r3, [r7, #20]
 8000fbe:	005b      	lsls	r3, r3, #1
 8000fc0:	409a      	lsls	r2, r3
 8000fc2:	0013      	movs	r3, r2
 8000fc4:	693a      	ldr	r2, [r7, #16]
 8000fc6:	4313      	orrs	r3, r2
 8000fc8:	613b      	str	r3, [r7, #16]
        GPIOx->OSPEEDR = temp;
 8000fca:	687b      	ldr	r3, [r7, #4]
 8000fcc:	693a      	ldr	r2, [r7, #16]
 8000fce:	609a      	str	r2, [r3, #8]

        /* Configure the IO Output Type */
        temp = GPIOx->OTYPER;
 8000fd0:	687b      	ldr	r3, [r7, #4]
 8000fd2:	685b      	ldr	r3, [r3, #4]
 8000fd4:	613b      	str	r3, [r7, #16]
        temp &= ~(GPIO_OTYPER_OT_0 << position) ;
 8000fd6:	2201      	movs	r2, #1
 8000fd8:	697b      	ldr	r3, [r7, #20]
 8000fda:	409a      	lsls	r2, r3
 8000fdc:	0013      	movs	r3, r2
 8000fde:	43da      	mvns	r2, r3
 8000fe0:	693b      	ldr	r3, [r7, #16]
 8000fe2:	4013      	ands	r3, r2
 8000fe4:	613b      	str	r3, [r7, #16]
        temp |= (((GPIO_Init->Mode & GPIO_OUTPUT_TYPE) >> 4u) << position);
 8000fe6:	683b      	ldr	r3, [r7, #0]
 8000fe8:	685b      	ldr	r3, [r3, #4]
 8000fea:	091b      	lsrs	r3, r3, #4
 8000fec:	2201      	movs	r2, #1
 8000fee:	401a      	ands	r2, r3
 8000ff0:	697b      	ldr	r3, [r7, #20]
 8000ff2:	409a      	lsls	r2, r3
 8000ff4:	0013      	movs	r3, r2
 8000ff6:	693a      	ldr	r2, [r7, #16]
 8000ff8:	4313      	orrs	r3, r2
 8000ffa:	613b      	str	r3, [r7, #16]
        GPIOx->OTYPER = temp;
 8000ffc:	687b      	ldr	r3, [r7, #4]
 8000ffe:	693a      	ldr	r2, [r7, #16]
 8001000:	605a      	str	r2, [r3, #4]
      }

      /* Activate the Pull-up or Pull down resistor for the current IO */
      temp = GPIOx->PUPDR;
 8001002:	687b      	ldr	r3, [r7, #4]
 8001004:	68db      	ldr	r3, [r3, #12]
 8001006:	613b      	str	r3, [r7, #16]
      temp &= ~(GPIO_PUPDR_PUPDR0 << (position * 2u));
 8001008:	697b      	ldr	r3, [r7, #20]
 800100a:	005b      	lsls	r3, r3, #1
 800100c:	2203      	movs	r2, #3
 800100e:	409a      	lsls	r2, r3
 8001010:	0013      	movs	r3, r2
 8001012:	43da      	mvns	r2, r3
 8001014:	693b      	ldr	r3, [r7, #16]
 8001016:	4013      	ands	r3, r2
 8001018:	613b      	str	r3, [r7, #16]
      temp |= ((GPIO_Init->Pull) << (position * 2u));
 800101a:	683b      	ldr	r3, [r7, #0]
 800101c:	689a      	ldr	r2, [r3, #8]
 800101e:	697b      	ldr	r3, [r7, #20]
 8001020:	005b      	lsls	r3, r3, #1
 8001022:	409a      	lsls	r2, r3
 8001024:	0013      	movs	r3, r2
 8001026:	693a      	ldr	r2, [r7, #16]
 8001028:	4313      	orrs	r3, r2
 800102a:	613b      	str	r3, [r7, #16]
      GPIOx->PUPDR = temp;
 800102c:	687b      	ldr	r3, [r7, #4]
 800102e:	693a      	ldr	r2, [r7, #16]
 8001030:	60da      	str	r2, [r3, #12]

      /*--------------------- EXTI Mode Configuration ------------------------*/
      /* Configure the External Interrupt or event for the current IO */
      if((GPIO_Init->Mode & EXTI_MODE) == EXTI_MODE)
 8001032:	683b      	ldr	r3, [r7, #0]
 8001034:	685a      	ldr	r2, [r3, #4]
 8001036:	2380      	movs	r3, #128	; 0x80
 8001038:	055b      	lsls	r3, r3, #21
 800103a:	4013      	ands	r3, r2
 800103c:	d100      	bne.n	8001040 <HAL_GPIO_Init+0x174>
 800103e:	e09a      	b.n	8001176 <HAL_GPIO_Init+0x2aa>
      {
        /* Enable SYSCFG Clock */
        __HAL_RCC_SYSCFG_CLK_ENABLE();
 8001040:	4b54      	ldr	r3, [pc, #336]	; (8001194 <HAL_GPIO_Init+0x2c8>)
 8001042:	699a      	ldr	r2, [r3, #24]
 8001044:	4b53      	ldr	r3, [pc, #332]	; (8001194 <HAL_GPIO_Init+0x2c8>)
 8001046:	2101      	movs	r1, #1
 8001048:	430a      	orrs	r2, r1
 800104a:	619a      	str	r2, [r3, #24]
 800104c:	4b51      	ldr	r3, [pc, #324]	; (8001194 <HAL_GPIO_Init+0x2c8>)
 800104e:	699b      	ldr	r3, [r3, #24]
 8001050:	2201      	movs	r2, #1
 8001052:	4013      	ands	r3, r2
 8001054:	60bb      	str	r3, [r7, #8]
 8001056:	68bb      	ldr	r3, [r7, #8]

        temp = SYSCFG->EXTICR[position >> 2u];
 8001058:	4a4f      	ldr	r2, [pc, #316]	; (8001198 <HAL_GPIO_Init+0x2cc>)
 800105a:	697b      	ldr	r3, [r7, #20]
 800105c:	089b      	lsrs	r3, r3, #2
 800105e:	3302      	adds	r3, #2
 8001060:	009b      	lsls	r3, r3, #2
 8001062:	589b      	ldr	r3, [r3, r2]
 8001064:	613b      	str	r3, [r7, #16]
        temp &= ~(0x0FuL << (4u * (position & 0x03u)));
 8001066:	697b      	ldr	r3, [r7, #20]
 8001068:	2203      	movs	r2, #3
 800106a:	4013      	ands	r3, r2
 800106c:	009b      	lsls	r3, r3, #2
 800106e:	220f      	movs	r2, #15
 8001070:	409a      	lsls	r2, r3
 8001072:	0013      	movs	r3, r2
 8001074:	43da      	mvns	r2, r3
 8001076:	693b      	ldr	r3, [r7, #16]
 8001078:	4013      	ands	r3, r2
 800107a:	613b      	str	r3, [r7, #16]
        temp |= (GPIO_GET_INDEX(GPIOx) << (4u * (position & 0x03u)));
 800107c:	687a      	ldr	r2, [r7, #4]
 800107e:	2390      	movs	r3, #144	; 0x90
 8001080:	05db      	lsls	r3, r3, #23
 8001082:	429a      	cmp	r2, r3
 8001084:	d013      	beq.n	80010ae <HAL_GPIO_Init+0x1e2>
 8001086:	687b      	ldr	r3, [r7, #4]
 8001088:	4a44      	ldr	r2, [pc, #272]	; (800119c <HAL_GPIO_Init+0x2d0>)
 800108a:	4293      	cmp	r3, r2
 800108c:	d00d      	beq.n	80010aa <HAL_GPIO_Init+0x1de>
 800108e:	687b      	ldr	r3, [r7, #4]
 8001090:	4a43      	ldr	r2, [pc, #268]	; (80011a0 <HAL_GPIO_Init+0x2d4>)
 8001092:	4293      	cmp	r3, r2
 8001094:	d007      	beq.n	80010a6 <HAL_GPIO_Init+0x1da>
 8001096:	687b      	ldr	r3, [r7, #4]
 8001098:	4a42      	ldr	r2, [pc, #264]	; (80011a4 <HAL_GPIO_Init+0x2d8>)
 800109a:	4293      	cmp	r3, r2
 800109c:	d101      	bne.n	80010a2 <HAL_GPIO_Init+0x1d6>
 800109e:	2303      	movs	r3, #3
 80010a0:	e006      	b.n	80010b0 <HAL_GPIO_Init+0x1e4>
 80010a2:	2305      	movs	r3, #5
 80010a4:	e004      	b.n	80010b0 <HAL_GPIO_Init+0x1e4>
 80010a6:	2302      	movs	r3, #2
 80010a8:	e002      	b.n	80010b0 <HAL_GPIO_Init+0x1e4>
 80010aa:	2301      	movs	r3, #1
 80010ac:	e000      	b.n	80010b0 <HAL_GPIO_Init+0x1e4>
 80010ae:	2300      	movs	r3, #0
 80010b0:	697a      	ldr	r2, [r7, #20]
 80010b2:	2103      	movs	r1, #3
 80010b4:	400a      	ands	r2, r1
 80010b6:	0092      	lsls	r2, r2, #2
 80010b8:	4093      	lsls	r3, r2
 80010ba:	693a      	ldr	r2, [r7, #16]
 80010bc:	4313      	orrs	r3, r2
 80010be:	613b      	str	r3, [r7, #16]
        SYSCFG->EXTICR[position >> 2u] = temp;
 80010c0:	4935      	ldr	r1, [pc, #212]	; (8001198 <HAL_GPIO_Init+0x2cc>)
 80010c2:	697b      	ldr	r3, [r7, #20]
 80010c4:	089b      	lsrs	r3, r3, #2
 80010c6:	3302      	adds	r3, #2
 80010c8:	009b      	lsls	r3, r3, #2
 80010ca:	693a      	ldr	r2, [r7, #16]
 80010cc:	505a      	str	r2, [r3, r1]

        /* Clear EXTI line configuration */
        temp = EXTI->IMR;
 80010ce:	4b36      	ldr	r3, [pc, #216]	; (80011a8 <HAL_GPIO_Init+0x2dc>)
 80010d0:	681b      	ldr	r3, [r3, #0]
 80010d2:	613b      	str	r3, [r7, #16]
        temp &= ~(iocurrent);
 80010d4:	68fb      	ldr	r3, [r7, #12]
 80010d6:	43da      	mvns	r2, r3
 80010d8:	693b      	ldr	r3, [r7, #16]
 80010da:	4013      	ands	r3, r2
 80010dc:	613b      	str	r3, [r7, #16]
        if((GPIO_Init->Mode & GPIO_MODE_IT) == GPIO_MODE_IT)
 80010de:	683b      	ldr	r3, [r7, #0]
 80010e0:	685a      	ldr	r2, [r3, #4]
 80010e2:	2380      	movs	r3, #128	; 0x80
 80010e4:	025b      	lsls	r3, r3, #9
 80010e6:	4013      	ands	r3, r2
 80010e8:	d003      	beq.n	80010f2 <HAL_GPIO_Init+0x226>
        {
          temp |= iocurrent;
 80010ea:	693a      	ldr	r2, [r7, #16]
 80010ec:	68fb      	ldr	r3, [r7, #12]
 80010ee:	4313      	orrs	r3, r2
 80010f0:	613b      	str	r3, [r7, #16]
        }
        EXTI->IMR = temp;
 80010f2:	4b2d      	ldr	r3, [pc, #180]	; (80011a8 <HAL_GPIO_Init+0x2dc>)
 80010f4:	693a      	ldr	r2, [r7, #16]
 80010f6:	601a      	str	r2, [r3, #0]

        temp = EXTI->EMR;
 80010f8:	4b2b      	ldr	r3, [pc, #172]	; (80011a8 <HAL_GPIO_Init+0x2dc>)
 80010fa:	685b      	ldr	r3, [r3, #4]
 80010fc:	613b      	str	r3, [r7, #16]
        temp &= ~(iocurrent);
 80010fe:	68fb      	ldr	r3, [r7, #12]
 8001100:	43da      	mvns	r2, r3
 8001102:	693b      	ldr	r3, [r7, #16]
 8001104:	4013      	ands	r3, r2
 8001106:	613b      	str	r3, [r7, #16]
        if((GPIO_Init->Mode & GPIO_MODE_EVT) == GPIO_MODE_EVT)
 8001108:	683b      	ldr	r3, [r7, #0]
 800110a:	685a      	ldr	r2, [r3, #4]
 800110c:	2380      	movs	r3, #128	; 0x80
 800110e:	029b      	lsls	r3, r3, #10
 8001110:	4013      	ands	r3, r2
 8001112:	d003      	beq.n	800111c <HAL_GPIO_Init+0x250>
        {
          temp |= iocurrent;
 8001114:	693a      	ldr	r2, [r7, #16]
 8001116:	68fb      	ldr	r3, [r7, #12]
 8001118:	4313      	orrs	r3, r2
 800111a:	613b      	str	r3, [r7, #16]
        }
        EXTI->EMR = temp;
 800111c:	4b22      	ldr	r3, [pc, #136]	; (80011a8 <HAL_GPIO_Init+0x2dc>)
 800111e:	693a      	ldr	r2, [r7, #16]
 8001120:	605a      	str	r2, [r3, #4]

        /* Clear Rising Falling edge configuration */
        temp = EXTI->RTSR;
 8001122:	4b21      	ldr	r3, [pc, #132]	; (80011a8 <HAL_GPIO_Init+0x2dc>)
 8001124:	689b      	ldr	r3, [r3, #8]
 8001126:	613b      	str	r3, [r7, #16]
        temp &= ~(iocurrent);
 8001128:	68fb      	ldr	r3, [r7, #12]
 800112a:	43da      	mvns	r2, r3
 800112c:	693b      	ldr	r3, [r7, #16]
 800112e:	4013      	ands	r3, r2
 8001130:	613b      	str	r3, [r7, #16]
        if((GPIO_Init->Mode & RISING_EDGE) == RISING_EDGE)
 8001132:	683b      	ldr	r3, [r7, #0]
 8001134:	685a      	ldr	r2, [r3, #4]
 8001136:	2380      	movs	r3, #128	; 0x80
 8001138:	035b      	lsls	r3, r3, #13
 800113a:	4013      	ands	r3, r2
 800113c:	d003      	beq.n	8001146 <HAL_GPIO_Init+0x27a>
        {
          temp |= iocurrent;
 800113e:	693a      	ldr	r2, [r7, #16]
 8001140:	68fb      	ldr	r3, [r7, #12]
 8001142:	4313      	orrs	r3, r2
 8001144:	613b      	str	r3, [r7, #16]
        }
        EXTI->RTSR = temp;
 8001146:	4b18      	ldr	r3, [pc, #96]	; (80011a8 <HAL_GPIO_Init+0x2dc>)
 8001148:	693a      	ldr	r2, [r7, #16]
 800114a:	609a      	str	r2, [r3, #8]

        temp = EXTI->FTSR;
 800114c:	4b16      	ldr	r3, [pc, #88]	; (80011a8 <HAL_GPIO_Init+0x2dc>)
 800114e:	68db      	ldr	r3, [r3, #12]
 8001150:	613b      	str	r3, [r7, #16]
        temp &= ~(iocurrent);
 8001152:	68fb      	ldr	r3, [r7, #12]
 8001154:	43da      	mvns	r2, r3
 8001156:	693b      	ldr	r3, [r7, #16]
 8001158:	4013      	ands	r3, r2
 800115a:	613b      	str	r3, [r7, #16]
        if((GPIO_Init->Mode & FALLING_EDGE) == FALLING_EDGE)
 800115c:	683b      	ldr	r3, [r7, #0]
 800115e:	685a      	ldr	r2, [r3, #4]
 8001160:	2380      	movs	r3, #128	; 0x80
 8001162:	039b      	lsls	r3, r3, #14
 8001164:	4013      	ands	r3, r2
 8001166:	d003      	beq.n	8001170 <HAL_GPIO_Init+0x2a4>
        {
          temp |= iocurrent;
 8001168:	693a      	ldr	r2, [r7, #16]
 800116a:	68fb      	ldr	r3, [r7, #12]
 800116c:	4313      	orrs	r3, r2
 800116e:	613b      	str	r3, [r7, #16]
        }
        EXTI->FTSR = temp;
 8001170:	4b0d      	ldr	r3, [pc, #52]	; (80011a8 <HAL_GPIO_Init+0x2dc>)
 8001172:	693a      	ldr	r2, [r7, #16]
 8001174:	60da      	str	r2, [r3, #12]
      }
    }

    position++;
 8001176:	697b      	ldr	r3, [r7, #20]
 8001178:	3301      	adds	r3, #1
 800117a:	617b      	str	r3, [r7, #20]
  while (((GPIO_Init->Pin) >> position) != 0x00u)
 800117c:	683b      	ldr	r3, [r7, #0]
 800117e:	681a      	ldr	r2, [r3, #0]
 8001180:	697b      	ldr	r3, [r7, #20]
 8001182:	40da      	lsrs	r2, r3
 8001184:	1e13      	subs	r3, r2, #0
 8001186:	d000      	beq.n	800118a <HAL_GPIO_Init+0x2be>
 8001188:	e6a8      	b.n	8000edc <HAL_GPIO_Init+0x10>
  } 
}
 800118a:	46c0      	nop			; (mov r8, r8)
 800118c:	46bd      	mov	sp, r7
 800118e:	b006      	add	sp, #24
 8001190:	bd80      	pop	{r7, pc}
 8001192:	46c0      	nop			; (mov r8, r8)
 8001194:	40021000 	.word	0x40021000
 8001198:	40010000 	.word	0x40010000
 800119c:	48000400 	.word	0x48000400
 80011a0:	48000800 	.word	0x48000800
 80011a4:	48000c00 	.word	0x48000c00
 80011a8:	40010400 	.word	0x40010400

080011ac <HAL_GPIO_WritePin>:
  *            @arg GPIO_PIN_RESET: to clear the port pin
  *            @arg GPIO_PIN_SET: to set the port pin
  * @retval None
  */
void HAL_GPIO_WritePin(GPIO_TypeDef* GPIOx, uint16_t GPIO_Pin, GPIO_PinState PinState)
{
 80011ac:	b580      	push	{r7, lr}
 80011ae:	b082      	sub	sp, #8
 80011b0:	af00      	add	r7, sp, #0
 80011b2:	6078      	str	r0, [r7, #4]
 80011b4:	0008      	movs	r0, r1
 80011b6:	0011      	movs	r1, r2
 80011b8:	1cbb      	adds	r3, r7, #2
 80011ba:	1c02      	adds	r2, r0, #0
 80011bc:	801a      	strh	r2, [r3, #0]
 80011be:	1c7b      	adds	r3, r7, #1
 80011c0:	1c0a      	adds	r2, r1, #0
 80011c2:	701a      	strb	r2, [r3, #0]
  /* Check the parameters */
  assert_param(IS_GPIO_PIN(GPIO_Pin));
  assert_param(IS_GPIO_PIN_ACTION(PinState));

  if (PinState != GPIO_PIN_RESET)
 80011c4:	1c7b      	adds	r3, r7, #1
 80011c6:	781b      	ldrb	r3, [r3, #0]
 80011c8:	2b00      	cmp	r3, #0
 80011ca:	d004      	beq.n	80011d6 <HAL_GPIO_WritePin+0x2a>
  {
    GPIOx->BSRR = (uint32_t)GPIO_Pin;
 80011cc:	1cbb      	adds	r3, r7, #2
 80011ce:	881a      	ldrh	r2, [r3, #0]
 80011d0:	687b      	ldr	r3, [r7, #4]
 80011d2:	619a      	str	r2, [r3, #24]
  }
  else
  {
    GPIOx->BRR = (uint32_t)GPIO_Pin;
  }
}
 80011d4:	e003      	b.n	80011de <HAL_GPIO_WritePin+0x32>
    GPIOx->BRR = (uint32_t)GPIO_Pin;
 80011d6:	1cbb      	adds	r3, r7, #2
 80011d8:	881a      	ldrh	r2, [r3, #0]
 80011da:	687b      	ldr	r3, [r7, #4]
 80011dc:	629a      	str	r2, [r3, #40]	; 0x28
}
 80011de:	46c0      	nop			; (mov r8, r8)
 80011e0:	46bd      	mov	sp, r7
 80011e2:	b002      	add	sp, #8
 80011e4:	bd80      	pop	{r7, pc}

080011e6 <HAL_GPIO_TogglePin>:
  * @param  GPIOx where x can be (A..F) to select the GPIO peripheral for STM32F0 family
  * @param  GPIO_Pin specifies the pin to be toggled.
  * @retval None
  */
void HAL_GPIO_TogglePin(GPIO_TypeDef* GPIOx, uint16_t GPIO_Pin)
{
 80011e6:	b580      	push	{r7, lr}
 80011e8:	b082      	sub	sp, #8
 80011ea:	af00      	add	r7, sp, #0
 80011ec:	6078      	str	r0, [r7, #4]
 80011ee:	000a      	movs	r2, r1
 80011f0:	1cbb      	adds	r3, r7, #2
 80011f2:	801a      	strh	r2, [r3, #0]
  /* Check the parameters */
  assert_param(IS_GPIO_PIN(GPIO_Pin));

  if ((GPIOx->ODR & GPIO_Pin) != 0X00u)
 80011f4:	687b      	ldr	r3, [r7, #4]
 80011f6:	695b      	ldr	r3, [r3, #20]
 80011f8:	1cba      	adds	r2, r7, #2
 80011fa:	8812      	ldrh	r2, [r2, #0]
 80011fc:	4013      	ands	r3, r2
 80011fe:	d005      	beq.n	800120c <HAL_GPIO_TogglePin+0x26>
  {
    GPIOx->BSRR = (uint32_t)GPIO_Pin << GPIO_NUMBER;
 8001200:	1cbb      	adds	r3, r7, #2
 8001202:	881b      	ldrh	r3, [r3, #0]
 8001204:	041a      	lsls	r2, r3, #16
 8001206:	687b      	ldr	r3, [r7, #4]
 8001208:	619a      	str	r2, [r3, #24]
  }
  else
  {
    GPIOx->BSRR = (uint32_t)GPIO_Pin;
  }
}
 800120a:	e003      	b.n	8001214 <HAL_GPIO_TogglePin+0x2e>
    GPIOx->BSRR = (uint32_t)GPIO_Pin;
 800120c:	1cbb      	adds	r3, r7, #2
 800120e:	881a      	ldrh	r2, [r3, #0]
 8001210:	687b      	ldr	r3, [r7, #4]
 8001212:	619a      	str	r2, [r3, #24]
}
 8001214:	46c0      	nop			; (mov r8, r8)
 8001216:	46bd      	mov	sp, r7
 8001218:	b002      	add	sp, #8
 800121a:	bd80      	pop	{r7, pc}

0800121c <HAL_GPIO_EXTI_IRQHandler>:
  * @brief  Handle EXTI interrupt request.
  * @param  GPIO_Pin Specifies the port pin connected to corresponding EXTI line.
  * @retval None
  */
void HAL_GPIO_EXTI_IRQHandler(uint16_t GPIO_Pin)
{
 800121c:	b580      	push	{r7, lr}
 800121e:	b082      	sub	sp, #8
 8001220:	af00      	add	r7, sp, #0
 8001222:	0002      	movs	r2, r0
 8001224:	1dbb      	adds	r3, r7, #6
 8001226:	801a      	strh	r2, [r3, #0]
  /* EXTI line interrupt detected */
  if(__HAL_GPIO_EXTI_GET_IT(GPIO_Pin) != 0x00u)
 8001228:	4b09      	ldr	r3, [pc, #36]	; (8001250 <HAL_GPIO_EXTI_IRQHandler+0x34>)
 800122a:	695b      	ldr	r3, [r3, #20]
 800122c:	1dba      	adds	r2, r7, #6
 800122e:	8812      	ldrh	r2, [r2, #0]
 8001230:	4013      	ands	r3, r2
 8001232:	d008      	beq.n	8001246 <HAL_GPIO_EXTI_IRQHandler+0x2a>
  { 
    __HAL_GPIO_EXTI_CLEAR_IT(GPIO_Pin);
 8001234:	4b06      	ldr	r3, [pc, #24]	; (8001250 <HAL_GPIO_EXTI_IRQHandler+0x34>)
 8001236:	1dba      	adds	r2, r7, #6
 8001238:	8812      	ldrh	r2, [r2, #0]
 800123a:	615a      	str	r2, [r3, #20]
    HAL_GPIO_EXTI_Callback(GPIO_Pin);
 800123c:	1dbb      	adds	r3, r7, #6
 800123e:	881b      	ldrh	r3, [r3, #0]
 8001240:	0018      	movs	r0, r3
 8001242:	f000 f807 	bl	8001254 <HAL_GPIO_EXTI_Callback>
  }
}
 8001246:	46c0      	nop			; (mov r8, r8)
 8001248:	46bd      	mov	sp, r7
 800124a:	b002      	add	sp, #8
 800124c:	bd80      	pop	{r7, pc}
 800124e:	46c0      	nop			; (mov r8, r8)
 8001250:	40010400 	.word	0x40010400

08001254 <HAL_GPIO_EXTI_Callback>:
  * @brief  EXTI line detection callback.
  * @param  GPIO_Pin Specifies the port pin connected to corresponding EXTI line.
  * @retval None
  */
__weak void HAL_GPIO_EXTI_Callback(uint16_t GPIO_Pin)
{
 8001254:	b580      	push	{r7, lr}
 8001256:	b082      	sub	sp, #8
 8001258:	af00      	add	r7, sp, #0
 800125a:	0002      	movs	r2, r0
 800125c:	1dbb      	adds	r3, r7, #6
 800125e:	801a      	strh	r2, [r3, #0]
  UNUSED(GPIO_Pin);

  /* NOTE: This function should not be modified, when the callback is needed,
            the HAL_GPIO_EXTI_Callback could be implemented in the user file
   */ 
}
 8001260:	46c0      	nop			; (mov r8, r8)
 8001262:	46bd      	mov	sp, r7
 8001264:	b002      	add	sp, #8
 8001266:	bd80      	pop	{r7, pc}

08001268 <HAL_RCC_OscConfig>:
  *         supported by this macro. User should request a transition to HSE Off
  *         first and then HSE On or HSE Bypass.
  * @retval HAL status
  */
HAL_StatusTypeDef HAL_RCC_OscConfig(RCC_OscInitTypeDef  *RCC_OscInitStruct)
{
 8001268:	b580      	push	{r7, lr}
 800126a:	b088      	sub	sp, #32
 800126c:	af00      	add	r7, sp, #0
 800126e:	6078      	str	r0, [r7, #4]
  uint32_t tickstart;
  uint32_t pll_config;
  uint32_t pll_config2;

  /* Check Null pointer */
  if(RCC_OscInitStruct == NULL)
 8001270:	687b      	ldr	r3, [r7, #4]
 8001272:	2b00      	cmp	r3, #0
 8001274:	d101      	bne.n	800127a <HAL_RCC_OscConfig+0x12>
  {
    return HAL_ERROR;
 8001276:	2301      	movs	r3, #1
 8001278:	e303      	b.n	8001882 <HAL_RCC_OscConfig+0x61a>

  /* Check the parameters */
  assert_param(IS_RCC_OSCILLATORTYPE(RCC_OscInitStruct->OscillatorType));

  /*------------------------------- HSE Configuration ------------------------*/ 
  if(((RCC_OscInitStruct->OscillatorType) & RCC_OSCILLATORTYPE_HSE) == RCC_OSCILLATORTYPE_HSE)
 800127a:	687b      	ldr	r3, [r7, #4]
 800127c:	681b      	ldr	r3, [r3, #0]
 800127e:	2201      	movs	r2, #1
 8001280:	4013      	ands	r3, r2
 8001282:	d100      	bne.n	8001286 <HAL_RCC_OscConfig+0x1e>
 8001284:	e08d      	b.n	80013a2 <HAL_RCC_OscConfig+0x13a>
  {
    /* Check the parameters */
    assert_param(IS_RCC_HSE(RCC_OscInitStruct->HSEState));

    /* When the HSE is used as system clock or clock source for PLL in these cases it is not allowed to be disabled */
    if((__HAL_RCC_GET_SYSCLK_SOURCE() == RCC_SYSCLKSOURCE_STATUS_HSE) 
 8001286:	4bc4      	ldr	r3, [pc, #784]	; (8001598 <HAL_RCC_OscConfig+0x330>)
 8001288:	685b      	ldr	r3, [r3, #4]
 800128a:	220c      	movs	r2, #12
 800128c:	4013      	ands	r3, r2
 800128e:	2b04      	cmp	r3, #4
 8001290:	d00e      	beq.n	80012b0 <HAL_RCC_OscConfig+0x48>
       || ((__HAL_RCC_GET_SYSCLK_SOURCE() == RCC_SYSCLKSOURCE_STATUS_PLLCLK) && (__HAL_RCC_GET_PLL_OSCSOURCE() == RCC_PLLSOURCE_HSE)))
 8001292:	4bc1      	ldr	r3, [pc, #772]	; (8001598 <HAL_RCC_OscConfig+0x330>)
 8001294:	685b      	ldr	r3, [r3, #4]
 8001296:	220c      	movs	r2, #12
 8001298:	4013      	ands	r3, r2
 800129a:	2b08      	cmp	r3, #8
 800129c:	d116      	bne.n	80012cc <HAL_RCC_OscConfig+0x64>
 800129e:	4bbe      	ldr	r3, [pc, #760]	; (8001598 <HAL_RCC_OscConfig+0x330>)
 80012a0:	685a      	ldr	r2, [r3, #4]
 80012a2:	2380      	movs	r3, #128	; 0x80
 80012a4:	025b      	lsls	r3, r3, #9
 80012a6:	401a      	ands	r2, r3
 80012a8:	2380      	movs	r3, #128	; 0x80
 80012aa:	025b      	lsls	r3, r3, #9
 80012ac:	429a      	cmp	r2, r3
 80012ae:	d10d      	bne.n	80012cc <HAL_RCC_OscConfig+0x64>
    {
      if((__HAL_RCC_GET_FLAG(RCC_FLAG_HSERDY) != RESET) && (RCC_OscInitStruct->HSEState == RCC_HSE_OFF))
 80012b0:	4bb9      	ldr	r3, [pc, #740]	; (8001598 <HAL_RCC_OscConfig+0x330>)
 80012b2:	681a      	ldr	r2, [r3, #0]
 80012b4:	2380      	movs	r3, #128	; 0x80
 80012b6:	029b      	lsls	r3, r3, #10
 80012b8:	4013      	ands	r3, r2
 80012ba:	d100      	bne.n	80012be <HAL_RCC_OscConfig+0x56>
 80012bc:	e070      	b.n	80013a0 <HAL_RCC_OscConfig+0x138>
 80012be:	687b      	ldr	r3, [r7, #4]
 80012c0:	685b      	ldr	r3, [r3, #4]
 80012c2:	2b00      	cmp	r3, #0
 80012c4:	d000      	beq.n	80012c8 <HAL_RCC_OscConfig+0x60>
 80012c6:	e06b      	b.n	80013a0 <HAL_RCC_OscConfig+0x138>
      {
        return HAL_ERROR;
 80012c8:	2301      	movs	r3, #1
 80012ca:	e2da      	b.n	8001882 <HAL_RCC_OscConfig+0x61a>
      }
    }
    else
    {
      /* Set the new HSE configuration ---------------------------------------*/
      __HAL_RCC_HSE_CONFIG(RCC_OscInitStruct->HSEState);
 80012cc:	687b      	ldr	r3, [r7, #4]
 80012ce:	685b      	ldr	r3, [r3, #4]
 80012d0:	2b01      	cmp	r3, #1
 80012d2:	d107      	bne.n	80012e4 <HAL_RCC_OscConfig+0x7c>
 80012d4:	4bb0      	ldr	r3, [pc, #704]	; (8001598 <HAL_RCC_OscConfig+0x330>)
 80012d6:	681a      	ldr	r2, [r3, #0]
 80012d8:	4baf      	ldr	r3, [pc, #700]	; (8001598 <HAL_RCC_OscConfig+0x330>)
 80012da:	2180      	movs	r1, #128	; 0x80
 80012dc:	0249      	lsls	r1, r1, #9
 80012de:	430a      	orrs	r2, r1
 80012e0:	601a      	str	r2, [r3, #0]
 80012e2:	e02f      	b.n	8001344 <HAL_RCC_OscConfig+0xdc>
 80012e4:	687b      	ldr	r3, [r7, #4]
 80012e6:	685b      	ldr	r3, [r3, #4]
 80012e8:	2b00      	cmp	r3, #0
 80012ea:	d10c      	bne.n	8001306 <HAL_RCC_OscConfig+0x9e>
 80012ec:	4baa      	ldr	r3, [pc, #680]	; (8001598 <HAL_RCC_OscConfig+0x330>)
 80012ee:	681a      	ldr	r2, [r3, #0]
 80012f0:	4ba9      	ldr	r3, [pc, #676]	; (8001598 <HAL_RCC_OscConfig+0x330>)
 80012f2:	49aa      	ldr	r1, [pc, #680]	; (800159c <HAL_RCC_OscConfig+0x334>)
 80012f4:	400a      	ands	r2, r1
 80012f6:	601a      	str	r2, [r3, #0]
 80012f8:	4ba7      	ldr	r3, [pc, #668]	; (8001598 <HAL_RCC_OscConfig+0x330>)
 80012fa:	681a      	ldr	r2, [r3, #0]
 80012fc:	4ba6      	ldr	r3, [pc, #664]	; (8001598 <HAL_RCC_OscConfig+0x330>)
 80012fe:	49a8      	ldr	r1, [pc, #672]	; (80015a0 <HAL_RCC_OscConfig+0x338>)
 8001300:	400a      	ands	r2, r1
 8001302:	601a      	str	r2, [r3, #0]
 8001304:	e01e      	b.n	8001344 <HAL_RCC_OscConfig+0xdc>
 8001306:	687b      	ldr	r3, [r7, #4]
 8001308:	685b      	ldr	r3, [r3, #4]
 800130a:	2b05      	cmp	r3, #5
 800130c:	d10e      	bne.n	800132c <HAL_RCC_OscConfig+0xc4>
 800130e:	4ba2      	ldr	r3, [pc, #648]	; (8001598 <HAL_RCC_OscConfig+0x330>)
 8001310:	681a      	ldr	r2, [r3, #0]
 8001312:	4ba1      	ldr	r3, [pc, #644]	; (8001598 <HAL_RCC_OscConfig+0x330>)
 8001314:	2180      	movs	r1, #128	; 0x80
 8001316:	02c9      	lsls	r1, r1, #11
 8001318:	430a      	orrs	r2, r1
 800131a:	601a      	str	r2, [r3, #0]
 800131c:	4b9e      	ldr	r3, [pc, #632]	; (8001598 <HAL_RCC_OscConfig+0x330>)
 800131e:	681a      	ldr	r2, [r3, #0]
 8001320:	4b9d      	ldr	r3, [pc, #628]	; (8001598 <HAL_RCC_OscConfig+0x330>)
 8001322:	2180      	movs	r1, #128	; 0x80
 8001324:	0249      	lsls	r1, r1, #9
 8001326:	430a      	orrs	r2, r1
 8001328:	601a      	str	r2, [r3, #0]
 800132a:	e00b      	b.n	8001344 <HAL_RCC_OscConfig+0xdc>
 800132c:	4b9a      	ldr	r3, [pc, #616]	; (8001598 <HAL_RCC_OscConfig+0x330>)
 800132e:	681a      	ldr	r2, [r3, #0]
 8001330:	4b99      	ldr	r3, [pc, #612]	; (8001598 <HAL_RCC_OscConfig+0x330>)
 8001332:	499a      	ldr	r1, [pc, #616]	; (800159c <HAL_RCC_OscConfig+0x334>)
 8001334:	400a      	ands	r2, r1
 8001336:	601a      	str	r2, [r3, #0]
 8001338:	4b97      	ldr	r3, [pc, #604]	; (8001598 <HAL_RCC_OscConfig+0x330>)
 800133a:	681a      	ldr	r2, [r3, #0]
 800133c:	4b96      	ldr	r3, [pc, #600]	; (8001598 <HAL_RCC_OscConfig+0x330>)
 800133e:	4998      	ldr	r1, [pc, #608]	; (80015a0 <HAL_RCC_OscConfig+0x338>)
 8001340:	400a      	ands	r2, r1
 8001342:	601a      	str	r2, [r3, #0]
      

       /* Check the HSE State */
      if(RCC_OscInitStruct->HSEState != RCC_HSE_OFF)
 8001344:	687b      	ldr	r3, [r7, #4]
 8001346:	685b      	ldr	r3, [r3, #4]
 8001348:	2b00      	cmp	r3, #0
 800134a:	d014      	beq.n	8001376 <HAL_RCC_OscConfig+0x10e>
      {
        /* Get Start Tick */
        tickstart = HAL_GetTick();
 800134c:	f7ff fcd6 	bl	8000cfc <HAL_GetTick>
 8001350:	0003      	movs	r3, r0
 8001352:	61bb      	str	r3, [r7, #24]
        
        /* Wait till HSE is ready */
        while(__HAL_RCC_GET_FLAG(RCC_FLAG_HSERDY) == RESET)
 8001354:	e008      	b.n	8001368 <HAL_RCC_OscConfig+0x100>
        {
          if((HAL_GetTick() - tickstart ) > HSE_TIMEOUT_VALUE)
 8001356:	f7ff fcd1 	bl	8000cfc <HAL_GetTick>
 800135a:	0002      	movs	r2, r0
 800135c:	69bb      	ldr	r3, [r7, #24]
 800135e:	1ad3      	subs	r3, r2, r3
 8001360:	2b64      	cmp	r3, #100	; 0x64
 8001362:	d901      	bls.n	8001368 <HAL_RCC_OscConfig+0x100>
          {
            return HAL_TIMEOUT;
 8001364:	2303      	movs	r3, #3
 8001366:	e28c      	b.n	8001882 <HAL_RCC_OscConfig+0x61a>
        while(__HAL_RCC_GET_FLAG(RCC_FLAG_HSERDY) == RESET)
 8001368:	4b8b      	ldr	r3, [pc, #556]	; (8001598 <HAL_RCC_OscConfig+0x330>)
 800136a:	681a      	ldr	r2, [r3, #0]
 800136c:	2380      	movs	r3, #128	; 0x80
 800136e:	029b      	lsls	r3, r3, #10
 8001370:	4013      	ands	r3, r2
 8001372:	d0f0      	beq.n	8001356 <HAL_RCC_OscConfig+0xee>
 8001374:	e015      	b.n	80013a2 <HAL_RCC_OscConfig+0x13a>
        }
      }
      else
      {
        /* Get Start Tick */
        tickstart = HAL_GetTick();
 8001376:	f7ff fcc1 	bl	8000cfc <HAL_GetTick>
 800137a:	0003      	movs	r3, r0
 800137c:	61bb      	str	r3, [r7, #24]
        
        /* Wait till HSE is disabled */
        while(__HAL_RCC_GET_FLAG(RCC_FLAG_HSERDY) != RESET)
 800137e:	e008      	b.n	8001392 <HAL_RCC_OscConfig+0x12a>
        {
           if((HAL_GetTick() - tickstart ) > HSE_TIMEOUT_VALUE)
 8001380:	f7ff fcbc 	bl	8000cfc <HAL_GetTick>
 8001384:	0002      	movs	r2, r0
 8001386:	69bb      	ldr	r3, [r7, #24]
 8001388:	1ad3      	subs	r3, r2, r3
 800138a:	2b64      	cmp	r3, #100	; 0x64
 800138c:	d901      	bls.n	8001392 <HAL_RCC_OscConfig+0x12a>
          {
            return HAL_TIMEOUT;
 800138e:	2303      	movs	r3, #3
 8001390:	e277      	b.n	8001882 <HAL_RCC_OscConfig+0x61a>
        while(__HAL_RCC_GET_FLAG(RCC_FLAG_HSERDY) != RESET)
 8001392:	4b81      	ldr	r3, [pc, #516]	; (8001598 <HAL_RCC_OscConfig+0x330>)
 8001394:	681a      	ldr	r2, [r3, #0]
 8001396:	2380      	movs	r3, #128	; 0x80
 8001398:	029b      	lsls	r3, r3, #10
 800139a:	4013      	ands	r3, r2
 800139c:	d1f0      	bne.n	8001380 <HAL_RCC_OscConfig+0x118>
 800139e:	e000      	b.n	80013a2 <HAL_RCC_OscConfig+0x13a>
      if((__HAL_RCC_GET_FLAG(RCC_FLAG_HSERDY) != RESET) && (RCC_OscInitStruct->HSEState == RCC_HSE_OFF))
 80013a0:	46c0      	nop			; (mov r8, r8)
        }
      }
    }
  }
  /*----------------------------- HSI Configuration --------------------------*/ 
  if(((RCC_OscInitStruct->OscillatorType) & RCC_OSCILLATORTYPE_HSI) == RCC_OSCILLATORTYPE_HSI)
 80013a2:	687b      	ldr	r3, [r7, #4]
 80013a4:	681b      	ldr	r3, [r3, #0]
 80013a6:	2202      	movs	r2, #2
 80013a8:	4013      	ands	r3, r2
 80013aa:	d100      	bne.n	80013ae <HAL_RCC_OscConfig+0x146>
 80013ac:	e069      	b.n	8001482 <HAL_RCC_OscConfig+0x21a>
    /* Check the parameters */
    assert_param(IS_RCC_HSI(RCC_OscInitStruct->HSIState));
    assert_param(IS_RCC_CALIBRATION_VALUE(RCC_OscInitStruct->HSICalibrationValue));
    
    /* Check if HSI is used as system clock or as PLL source when PLL is selected as system clock */ 
    if((__HAL_RCC_GET_SYSCLK_SOURCE() == RCC_SYSCLKSOURCE_STATUS_HSI) 
 80013ae:	4b7a      	ldr	r3, [pc, #488]	; (8001598 <HAL_RCC_OscConfig+0x330>)
 80013b0:	685b      	ldr	r3, [r3, #4]
 80013b2:	220c      	movs	r2, #12
 80013b4:	4013      	ands	r3, r2
 80013b6:	d00b      	beq.n	80013d0 <HAL_RCC_OscConfig+0x168>
       || ((__HAL_RCC_GET_SYSCLK_SOURCE() == RCC_SYSCLKSOURCE_STATUS_PLLCLK) && (__HAL_RCC_GET_PLL_OSCSOURCE() == RCC_PLLSOURCE_HSI)))
 80013b8:	4b77      	ldr	r3, [pc, #476]	; (8001598 <HAL_RCC_OscConfig+0x330>)
 80013ba:	685b      	ldr	r3, [r3, #4]
 80013bc:	220c      	movs	r2, #12
 80013be:	4013      	ands	r3, r2
 80013c0:	2b08      	cmp	r3, #8
 80013c2:	d11c      	bne.n	80013fe <HAL_RCC_OscConfig+0x196>
 80013c4:	4b74      	ldr	r3, [pc, #464]	; (8001598 <HAL_RCC_OscConfig+0x330>)
 80013c6:	685a      	ldr	r2, [r3, #4]
 80013c8:	2380      	movs	r3, #128	; 0x80
 80013ca:	025b      	lsls	r3, r3, #9
 80013cc:	4013      	ands	r3, r2
 80013ce:	d116      	bne.n	80013fe <HAL_RCC_OscConfig+0x196>
    {
      /* When HSI is used as system clock it will not disabled */
      if((__HAL_RCC_GET_FLAG(RCC_FLAG_HSIRDY) != RESET) && (RCC_OscInitStruct->HSIState != RCC_HSI_ON))
 80013d0:	4b71      	ldr	r3, [pc, #452]	; (8001598 <HAL_RCC_OscConfig+0x330>)
 80013d2:	681b      	ldr	r3, [r3, #0]
 80013d4:	2202      	movs	r2, #2
 80013d6:	4013      	ands	r3, r2
 80013d8:	d005      	beq.n	80013e6 <HAL_RCC_OscConfig+0x17e>
 80013da:	687b      	ldr	r3, [r7, #4]
 80013dc:	68db      	ldr	r3, [r3, #12]
 80013de:	2b01      	cmp	r3, #1
 80013e0:	d001      	beq.n	80013e6 <HAL_RCC_OscConfig+0x17e>
      {
        return HAL_ERROR;
 80013e2:	2301      	movs	r3, #1
 80013e4:	e24d      	b.n	8001882 <HAL_RCC_OscConfig+0x61a>
      }
      /* Otherwise, just the calibration is allowed */
      else
      {
        /* Adjusts the Internal High Speed oscillator (HSI) calibration value.*/
        __HAL_RCC_HSI_CALIBRATIONVALUE_ADJUST(RCC_OscInitStruct->HSICalibrationValue);
 80013e6:	4b6c      	ldr	r3, [pc, #432]	; (8001598 <HAL_RCC_OscConfig+0x330>)
 80013e8:	681b      	ldr	r3, [r3, #0]
 80013ea:	22f8      	movs	r2, #248	; 0xf8
 80013ec:	4393      	bics	r3, r2
 80013ee:	0019      	movs	r1, r3
 80013f0:	687b      	ldr	r3, [r7, #4]
 80013f2:	691b      	ldr	r3, [r3, #16]
 80013f4:	00da      	lsls	r2, r3, #3
 80013f6:	4b68      	ldr	r3, [pc, #416]	; (8001598 <HAL_RCC_OscConfig+0x330>)
 80013f8:	430a      	orrs	r2, r1
 80013fa:	601a      	str	r2, [r3, #0]
      if((__HAL_RCC_GET_FLAG(RCC_FLAG_HSIRDY) != RESET) && (RCC_OscInitStruct->HSIState != RCC_HSI_ON))
 80013fc:	e041      	b.n	8001482 <HAL_RCC_OscConfig+0x21a>
      }
    }
    else
    {
      /* Check the HSI State */
      if(RCC_OscInitStruct->HSIState != RCC_HSI_OFF)
 80013fe:	687b      	ldr	r3, [r7, #4]
 8001400:	68db      	ldr	r3, [r3, #12]
 8001402:	2b00      	cmp	r3, #0
 8001404:	d024      	beq.n	8001450 <HAL_RCC_OscConfig+0x1e8>
      {
       /* Enable the Internal High Speed oscillator (HSI). */
        __HAL_RCC_HSI_ENABLE();
 8001406:	4b64      	ldr	r3, [pc, #400]	; (8001598 <HAL_RCC_OscConfig+0x330>)
 8001408:	681a      	ldr	r2, [r3, #0]
 800140a:	4b63      	ldr	r3, [pc, #396]	; (8001598 <HAL_RCC_OscConfig+0x330>)
 800140c:	2101      	movs	r1, #1
 800140e:	430a      	orrs	r2, r1
 8001410:	601a      	str	r2, [r3, #0]
        
        /* Get Start Tick */
        tickstart = HAL_GetTick();
 8001412:	f7ff fc73 	bl	8000cfc <HAL_GetTick>
 8001416:	0003      	movs	r3, r0
 8001418:	61bb      	str	r3, [r7, #24]
        
        /* Wait till HSI is ready */
        while(__HAL_RCC_GET_FLAG(RCC_FLAG_HSIRDY) == RESET)
 800141a:	e008      	b.n	800142e <HAL_RCC_OscConfig+0x1c6>
        {
          if((HAL_GetTick() - tickstart ) > HSI_TIMEOUT_VALUE)
 800141c:	f7ff fc6e 	bl	8000cfc <HAL_GetTick>
 8001420:	0002      	movs	r2, r0
 8001422:	69bb      	ldr	r3, [r7, #24]
 8001424:	1ad3      	subs	r3, r2, r3
 8001426:	2b02      	cmp	r3, #2
 8001428:	d901      	bls.n	800142e <HAL_RCC_OscConfig+0x1c6>
          {
            return HAL_TIMEOUT;
 800142a:	2303      	movs	r3, #3
 800142c:	e229      	b.n	8001882 <HAL_RCC_OscConfig+0x61a>
        while(__HAL_RCC_GET_FLAG(RCC_FLAG_HSIRDY) == RESET)
 800142e:	4b5a      	ldr	r3, [pc, #360]	; (8001598 <HAL_RCC_OscConfig+0x330>)
 8001430:	681b      	ldr	r3, [r3, #0]
 8001432:	2202      	movs	r2, #2
 8001434:	4013      	ands	r3, r2
 8001436:	d0f1      	beq.n	800141c <HAL_RCC_OscConfig+0x1b4>
          }
        }
                
        /* Adjusts the Internal High Speed oscillator (HSI) calibration value.*/
        __HAL_RCC_HSI_CALIBRATIONVALUE_ADJUST(RCC_OscInitStruct->HSICalibrationValue);
 8001438:	4b57      	ldr	r3, [pc, #348]	; (8001598 <HAL_RCC_OscConfig+0x330>)
 800143a:	681b      	ldr	r3, [r3, #0]
 800143c:	22f8      	movs	r2, #248	; 0xf8
 800143e:	4393      	bics	r3, r2
 8001440:	0019      	movs	r1, r3
 8001442:	687b      	ldr	r3, [r7, #4]
 8001444:	691b      	ldr	r3, [r3, #16]
 8001446:	00da      	lsls	r2, r3, #3
 8001448:	4b53      	ldr	r3, [pc, #332]	; (8001598 <HAL_RCC_OscConfig+0x330>)
 800144a:	430a      	orrs	r2, r1
 800144c:	601a      	str	r2, [r3, #0]
 800144e:	e018      	b.n	8001482 <HAL_RCC_OscConfig+0x21a>
      }
      else
      {
        /* Disable the Internal High Speed oscillator (HSI). */
        __HAL_RCC_HSI_DISABLE();
 8001450:	4b51      	ldr	r3, [pc, #324]	; (8001598 <HAL_RCC_OscConfig+0x330>)
 8001452:	681a      	ldr	r2, [r3, #0]
 8001454:	4b50      	ldr	r3, [pc, #320]	; (8001598 <HAL_RCC_OscConfig+0x330>)
 8001456:	2101      	movs	r1, #1
 8001458:	438a      	bics	r2, r1
 800145a:	601a      	str	r2, [r3, #0]
        
        /* Get Start Tick */
        tickstart = HAL_GetTick();
 800145c:	f7ff fc4e 	bl	8000cfc <HAL_GetTick>
 8001460:	0003      	movs	r3, r0
 8001462:	61bb      	str	r3, [r7, #24]
        
        /* Wait till HSI is disabled */
        while(__HAL_RCC_GET_FLAG(RCC_FLAG_HSIRDY) != RESET)
 8001464:	e008      	b.n	8001478 <HAL_RCC_OscConfig+0x210>
        {
          if((HAL_GetTick() - tickstart ) > HSI_TIMEOUT_VALUE)
 8001466:	f7ff fc49 	bl	8000cfc <HAL_GetTick>
 800146a:	0002      	movs	r2, r0
 800146c:	69bb      	ldr	r3, [r7, #24]
 800146e:	1ad3      	subs	r3, r2, r3
 8001470:	2b02      	cmp	r3, #2
 8001472:	d901      	bls.n	8001478 <HAL_RCC_OscConfig+0x210>
          {
            return HAL_TIMEOUT;
 8001474:	2303      	movs	r3, #3
 8001476:	e204      	b.n	8001882 <HAL_RCC_OscConfig+0x61a>
        while(__HAL_RCC_GET_FLAG(RCC_FLAG_HSIRDY) != RESET)
 8001478:	4b47      	ldr	r3, [pc, #284]	; (8001598 <HAL_RCC_OscConfig+0x330>)
 800147a:	681b      	ldr	r3, [r3, #0]
 800147c:	2202      	movs	r2, #2
 800147e:	4013      	ands	r3, r2
 8001480:	d1f1      	bne.n	8001466 <HAL_RCC_OscConfig+0x1fe>
        }
      }
    }
  }
  /*------------------------------ LSI Configuration -------------------------*/ 
  if(((RCC_OscInitStruct->OscillatorType) & RCC_OSCILLATORTYPE_LSI) == RCC_OSCILLATORTYPE_LSI)
 8001482:	687b      	ldr	r3, [r7, #4]
 8001484:	681b      	ldr	r3, [r3, #0]
 8001486:	2208      	movs	r2, #8
 8001488:	4013      	ands	r3, r2
 800148a:	d036      	beq.n	80014fa <HAL_RCC_OscConfig+0x292>
  {
    /* Check the parameters */
    assert_param(IS_RCC_LSI(RCC_OscInitStruct->LSIState));
    
    /* Check the LSI State */
    if(RCC_OscInitStruct->LSIState != RCC_LSI_OFF)
 800148c:	687b      	ldr	r3, [r7, #4]
 800148e:	69db      	ldr	r3, [r3, #28]
 8001490:	2b00      	cmp	r3, #0
 8001492:	d019      	beq.n	80014c8 <HAL_RCC_OscConfig+0x260>
    {
      /* Enable the Internal Low Speed oscillator (LSI). */
      __HAL_RCC_LSI_ENABLE();
 8001494:	4b40      	ldr	r3, [pc, #256]	; (8001598 <HAL_RCC_OscConfig+0x330>)
 8001496:	6a5a      	ldr	r2, [r3, #36]	; 0x24
 8001498:	4b3f      	ldr	r3, [pc, #252]	; (8001598 <HAL_RCC_OscConfig+0x330>)
 800149a:	2101      	movs	r1, #1
 800149c:	430a      	orrs	r2, r1
 800149e:	625a      	str	r2, [r3, #36]	; 0x24
      
      /* Get Start Tick */
      tickstart = HAL_GetTick();
 80014a0:	f7ff fc2c 	bl	8000cfc <HAL_GetTick>
 80014a4:	0003      	movs	r3, r0
 80014a6:	61bb      	str	r3, [r7, #24]
      
      /* Wait till LSI is ready */  
      while(__HAL_RCC_GET_FLAG(RCC_FLAG_LSIRDY) == RESET)
 80014a8:	e008      	b.n	80014bc <HAL_RCC_OscConfig+0x254>
      {
        if((HAL_GetTick() - tickstart ) > LSI_TIMEOUT_VALUE)
 80014aa:	f7ff fc27 	bl	8000cfc <HAL_GetTick>
 80014ae:	0002      	movs	r2, r0
 80014b0:	69bb      	ldr	r3, [r7, #24]
 80014b2:	1ad3      	subs	r3, r2, r3
 80014b4:	2b02      	cmp	r3, #2
 80014b6:	d901      	bls.n	80014bc <HAL_RCC_OscConfig+0x254>
        {
          return HAL_TIMEOUT;
 80014b8:	2303      	movs	r3, #3
 80014ba:	e1e2      	b.n	8001882 <HAL_RCC_OscConfig+0x61a>
      while(__HAL_RCC_GET_FLAG(RCC_FLAG_LSIRDY) == RESET)
 80014bc:	4b36      	ldr	r3, [pc, #216]	; (8001598 <HAL_RCC_OscConfig+0x330>)
 80014be:	6a5b      	ldr	r3, [r3, #36]	; 0x24
 80014c0:	2202      	movs	r2, #2
 80014c2:	4013      	ands	r3, r2
 80014c4:	d0f1      	beq.n	80014aa <HAL_RCC_OscConfig+0x242>
 80014c6:	e018      	b.n	80014fa <HAL_RCC_OscConfig+0x292>
      }
    }
    else
    {
      /* Disable the Internal Low Speed oscillator (LSI). */
      __HAL_RCC_LSI_DISABLE();
 80014c8:	4b33      	ldr	r3, [pc, #204]	; (8001598 <HAL_RCC_OscConfig+0x330>)
 80014ca:	6a5a      	ldr	r2, [r3, #36]	; 0x24
 80014cc:	4b32      	ldr	r3, [pc, #200]	; (8001598 <HAL_RCC_OscConfig+0x330>)
 80014ce:	2101      	movs	r1, #1
 80014d0:	438a      	bics	r2, r1
 80014d2:	625a      	str	r2, [r3, #36]	; 0x24
      
      /* Get Start Tick */
      tickstart = HAL_GetTick();
 80014d4:	f7ff fc12 	bl	8000cfc <HAL_GetTick>
 80014d8:	0003      	movs	r3, r0
 80014da:	61bb      	str	r3, [r7, #24]
      
      /* Wait till LSI is disabled */  
      while(__HAL_RCC_GET_FLAG(RCC_FLAG_LSIRDY) != RESET)
 80014dc:	e008      	b.n	80014f0 <HAL_RCC_OscConfig+0x288>
      {
        if((HAL_GetTick() - tickstart ) > LSI_TIMEOUT_VALUE)
 80014de:	f7ff fc0d 	bl	8000cfc <HAL_GetTick>
 80014e2:	0002      	movs	r2, r0
 80014e4:	69bb      	ldr	r3, [r7, #24]
 80014e6:	1ad3      	subs	r3, r2, r3
 80014e8:	2b02      	cmp	r3, #2
 80014ea:	d901      	bls.n	80014f0 <HAL_RCC_OscConfig+0x288>
        {
          return HAL_TIMEOUT;
 80014ec:	2303      	movs	r3, #3
 80014ee:	e1c8      	b.n	8001882 <HAL_RCC_OscConfig+0x61a>
      while(__HAL_RCC_GET_FLAG(RCC_FLAG_LSIRDY) != RESET)
 80014f0:	4b29      	ldr	r3, [pc, #164]	; (8001598 <HAL_RCC_OscConfig+0x330>)
 80014f2:	6a5b      	ldr	r3, [r3, #36]	; 0x24
 80014f4:	2202      	movs	r2, #2
 80014f6:	4013      	ands	r3, r2
 80014f8:	d1f1      	bne.n	80014de <HAL_RCC_OscConfig+0x276>
        }
      }
    }
  }
  /*------------------------------ LSE Configuration -------------------------*/ 
  if(((RCC_OscInitStruct->OscillatorType) & RCC_OSCILLATORTYPE_LSE) == RCC_OSCILLATORTYPE_LSE)
 80014fa:	687b      	ldr	r3, [r7, #4]
 80014fc:	681b      	ldr	r3, [r3, #0]
 80014fe:	2204      	movs	r2, #4
 8001500:	4013      	ands	r3, r2
 8001502:	d100      	bne.n	8001506 <HAL_RCC_OscConfig+0x29e>
 8001504:	e0b6      	b.n	8001674 <HAL_RCC_OscConfig+0x40c>
  {
    FlagStatus       pwrclkchanged = RESET;
 8001506:	231f      	movs	r3, #31
 8001508:	18fb      	adds	r3, r7, r3
 800150a:	2200      	movs	r2, #0
 800150c:	701a      	strb	r2, [r3, #0]
    /* Check the parameters */
    assert_param(IS_RCC_LSE(RCC_OscInitStruct->LSEState));

    /* Update LSE configuration in Backup Domain control register    */
    /* Requires to enable write access to Backup Domain of necessary */
    if(__HAL_RCC_PWR_IS_CLK_DISABLED())
 800150e:	4b22      	ldr	r3, [pc, #136]	; (8001598 <HAL_RCC_OscConfig+0x330>)
 8001510:	69da      	ldr	r2, [r3, #28]
 8001512:	2380      	movs	r3, #128	; 0x80
 8001514:	055b      	lsls	r3, r3, #21
 8001516:	4013      	ands	r3, r2
 8001518:	d111      	bne.n	800153e <HAL_RCC_OscConfig+0x2d6>
    {
      __HAL_RCC_PWR_CLK_ENABLE();
 800151a:	4b1f      	ldr	r3, [pc, #124]	; (8001598 <HAL_RCC_OscConfig+0x330>)
 800151c:	69da      	ldr	r2, [r3, #28]
 800151e:	4b1e      	ldr	r3, [pc, #120]	; (8001598 <HAL_RCC_OscConfig+0x330>)
 8001520:	2180      	movs	r1, #128	; 0x80
 8001522:	0549      	lsls	r1, r1, #21
 8001524:	430a      	orrs	r2, r1
 8001526:	61da      	str	r2, [r3, #28]
 8001528:	4b1b      	ldr	r3, [pc, #108]	; (8001598 <HAL_RCC_OscConfig+0x330>)
 800152a:	69da      	ldr	r2, [r3, #28]
 800152c:	2380      	movs	r3, #128	; 0x80
 800152e:	055b      	lsls	r3, r3, #21
 8001530:	4013      	ands	r3, r2
 8001532:	60fb      	str	r3, [r7, #12]
 8001534:	68fb      	ldr	r3, [r7, #12]
      pwrclkchanged = SET;
 8001536:	231f      	movs	r3, #31
 8001538:	18fb      	adds	r3, r7, r3
 800153a:	2201      	movs	r2, #1
 800153c:	701a      	strb	r2, [r3, #0]
    }
    
    if(HAL_IS_BIT_CLR(PWR->CR, PWR_CR_DBP))
 800153e:	4b19      	ldr	r3, [pc, #100]	; (80015a4 <HAL_RCC_OscConfig+0x33c>)
 8001540:	681a      	ldr	r2, [r3, #0]
 8001542:	2380      	movs	r3, #128	; 0x80
 8001544:	005b      	lsls	r3, r3, #1
 8001546:	4013      	ands	r3, r2
 8001548:	d11a      	bne.n	8001580 <HAL_RCC_OscConfig+0x318>
    {
      /* Enable write access to Backup domain */
      SET_BIT(PWR->CR, PWR_CR_DBP);
 800154a:	4b16      	ldr	r3, [pc, #88]	; (80015a4 <HAL_RCC_OscConfig+0x33c>)
 800154c:	681a      	ldr	r2, [r3, #0]
 800154e:	4b15      	ldr	r3, [pc, #84]	; (80015a4 <HAL_RCC_OscConfig+0x33c>)
 8001550:	2180      	movs	r1, #128	; 0x80
 8001552:	0049      	lsls	r1, r1, #1
 8001554:	430a      	orrs	r2, r1
 8001556:	601a      	str	r2, [r3, #0]
      
      /* Wait for Backup domain Write protection disable */
      tickstart = HAL_GetTick();
 8001558:	f7ff fbd0 	bl	8000cfc <HAL_GetTick>
 800155c:	0003      	movs	r3, r0
 800155e:	61bb      	str	r3, [r7, #24]

      while(HAL_IS_BIT_CLR(PWR->CR, PWR_CR_DBP))
 8001560:	e008      	b.n	8001574 <HAL_RCC_OscConfig+0x30c>
      {
        if((HAL_GetTick() - tickstart) > RCC_DBP_TIMEOUT_VALUE)
 8001562:	f7ff fbcb 	bl	8000cfc <HAL_GetTick>
 8001566:	0002      	movs	r2, r0
 8001568:	69bb      	ldr	r3, [r7, #24]
 800156a:	1ad3      	subs	r3, r2, r3
 800156c:	2b64      	cmp	r3, #100	; 0x64
 800156e:	d901      	bls.n	8001574 <HAL_RCC_OscConfig+0x30c>
        {
          return HAL_TIMEOUT;
 8001570:	2303      	movs	r3, #3
 8001572:	e186      	b.n	8001882 <HAL_RCC_OscConfig+0x61a>
      while(HAL_IS_BIT_CLR(PWR->CR, PWR_CR_DBP))
 8001574:	4b0b      	ldr	r3, [pc, #44]	; (80015a4 <HAL_RCC_OscConfig+0x33c>)
 8001576:	681a      	ldr	r2, [r3, #0]
 8001578:	2380      	movs	r3, #128	; 0x80
 800157a:	005b      	lsls	r3, r3, #1
 800157c:	4013      	ands	r3, r2
 800157e:	d0f0      	beq.n	8001562 <HAL_RCC_OscConfig+0x2fa>
        }
      }
    }

    /* Set the new LSE configuration -----------------------------------------*/
    __HAL_RCC_LSE_CONFIG(RCC_OscInitStruct->LSEState);
 8001580:	687b      	ldr	r3, [r7, #4]
 8001582:	689b      	ldr	r3, [r3, #8]
 8001584:	2b01      	cmp	r3, #1
 8001586:	d10f      	bne.n	80015a8 <HAL_RCC_OscConfig+0x340>
 8001588:	4b03      	ldr	r3, [pc, #12]	; (8001598 <HAL_RCC_OscConfig+0x330>)
 800158a:	6a1a      	ldr	r2, [r3, #32]
 800158c:	4b02      	ldr	r3, [pc, #8]	; (8001598 <HAL_RCC_OscConfig+0x330>)
 800158e:	2101      	movs	r1, #1
 8001590:	430a      	orrs	r2, r1
 8001592:	621a      	str	r2, [r3, #32]
 8001594:	e036      	b.n	8001604 <HAL_RCC_OscConfig+0x39c>
 8001596:	46c0      	nop			; (mov r8, r8)
 8001598:	40021000 	.word	0x40021000
 800159c:	fffeffff 	.word	0xfffeffff
 80015a0:	fffbffff 	.word	0xfffbffff
 80015a4:	40007000 	.word	0x40007000
 80015a8:	687b      	ldr	r3, [r7, #4]
 80015aa:	689b      	ldr	r3, [r3, #8]
 80015ac:	2b00      	cmp	r3, #0
 80015ae:	d10c      	bne.n	80015ca <HAL_RCC_OscConfig+0x362>
 80015b0:	4bb6      	ldr	r3, [pc, #728]	; (800188c <HAL_RCC_OscConfig+0x624>)
 80015b2:	6a1a      	ldr	r2, [r3, #32]
 80015b4:	4bb5      	ldr	r3, [pc, #724]	; (800188c <HAL_RCC_OscConfig+0x624>)
 80015b6:	2101      	movs	r1, #1
 80015b8:	438a      	bics	r2, r1
 80015ba:	621a      	str	r2, [r3, #32]
 80015bc:	4bb3      	ldr	r3, [pc, #716]	; (800188c <HAL_RCC_OscConfig+0x624>)
 80015be:	6a1a      	ldr	r2, [r3, #32]
 80015c0:	4bb2      	ldr	r3, [pc, #712]	; (800188c <HAL_RCC_OscConfig+0x624>)
 80015c2:	2104      	movs	r1, #4
 80015c4:	438a      	bics	r2, r1
 80015c6:	621a      	str	r2, [r3, #32]
 80015c8:	e01c      	b.n	8001604 <HAL_RCC_OscConfig+0x39c>
 80015ca:	687b      	ldr	r3, [r7, #4]
 80015cc:	689b      	ldr	r3, [r3, #8]
 80015ce:	2b05      	cmp	r3, #5
 80015d0:	d10c      	bne.n	80015ec <HAL_RCC_OscConfig+0x384>
 80015d2:	4bae      	ldr	r3, [pc, #696]	; (800188c <HAL_RCC_OscConfig+0x624>)
 80015d4:	6a1a      	ldr	r2, [r3, #32]
 80015d6:	4bad      	ldr	r3, [pc, #692]	; (800188c <HAL_RCC_OscConfig+0x624>)
 80015d8:	2104      	movs	r1, #4
 80015da:	430a      	orrs	r2, r1
 80015dc:	621a      	str	r2, [r3, #32]
 80015de:	4bab      	ldr	r3, [pc, #684]	; (800188c <HAL_RCC_OscConfig+0x624>)
 80015e0:	6a1a      	ldr	r2, [r3, #32]
 80015e2:	4baa      	ldr	r3, [pc, #680]	; (800188c <HAL_RCC_OscConfig+0x624>)
 80015e4:	2101      	movs	r1, #1
 80015e6:	430a      	orrs	r2, r1
 80015e8:	621a      	str	r2, [r3, #32]
 80015ea:	e00b      	b.n	8001604 <HAL_RCC_OscConfig+0x39c>
 80015ec:	4ba7      	ldr	r3, [pc, #668]	; (800188c <HAL_RCC_OscConfig+0x624>)
 80015ee:	6a1a      	ldr	r2, [r3, #32]
 80015f0:	4ba6      	ldr	r3, [pc, #664]	; (800188c <HAL_RCC_OscConfig+0x624>)
 80015f2:	2101      	movs	r1, #1
 80015f4:	438a      	bics	r2, r1
 80015f6:	621a      	str	r2, [r3, #32]
 80015f8:	4ba4      	ldr	r3, [pc, #656]	; (800188c <HAL_RCC_OscConfig+0x624>)
 80015fa:	6a1a      	ldr	r2, [r3, #32]
 80015fc:	4ba3      	ldr	r3, [pc, #652]	; (800188c <HAL_RCC_OscConfig+0x624>)
 80015fe:	2104      	movs	r1, #4
 8001600:	438a      	bics	r2, r1
 8001602:	621a      	str	r2, [r3, #32]
    /* Check the LSE State */
    if(RCC_OscInitStruct->LSEState != RCC_LSE_OFF)
 8001604:	687b      	ldr	r3, [r7, #4]
 8001606:	689b      	ldr	r3, [r3, #8]
 8001608:	2b00      	cmp	r3, #0
 800160a:	d014      	beq.n	8001636 <HAL_RCC_OscConfig+0x3ce>
    {
      /* Get Start Tick */
      tickstart = HAL_GetTick();
 800160c:	f7ff fb76 	bl	8000cfc <HAL_GetTick>
 8001610:	0003      	movs	r3, r0
 8001612:	61bb      	str	r3, [r7, #24]
      
      /* Wait till LSE is ready */  
      while(__HAL_RCC_GET_FLAG(RCC_FLAG_LSERDY) == RESET)
 8001614:	e009      	b.n	800162a <HAL_RCC_OscConfig+0x3c2>
      {
        if((HAL_GetTick() - tickstart ) > RCC_LSE_TIMEOUT_VALUE)
 8001616:	f7ff fb71 	bl	8000cfc <HAL_GetTick>
 800161a:	0002      	movs	r2, r0
 800161c:	69bb      	ldr	r3, [r7, #24]
 800161e:	1ad3      	subs	r3, r2, r3
 8001620:	4a9b      	ldr	r2, [pc, #620]	; (8001890 <HAL_RCC_OscConfig+0x628>)
 8001622:	4293      	cmp	r3, r2
 8001624:	d901      	bls.n	800162a <HAL_RCC_OscConfig+0x3c2>
        {
          return HAL_TIMEOUT;
 8001626:	2303      	movs	r3, #3
 8001628:	e12b      	b.n	8001882 <HAL_RCC_OscConfig+0x61a>
      while(__HAL_RCC_GET_FLAG(RCC_FLAG_LSERDY) == RESET)
 800162a:	4b98      	ldr	r3, [pc, #608]	; (800188c <HAL_RCC_OscConfig+0x624>)
 800162c:	6a1b      	ldr	r3, [r3, #32]
 800162e:	2202      	movs	r2, #2
 8001630:	4013      	ands	r3, r2
 8001632:	d0f0      	beq.n	8001616 <HAL_RCC_OscConfig+0x3ae>
 8001634:	e013      	b.n	800165e <HAL_RCC_OscConfig+0x3f6>
      }
    }
    else
    {
      /* Get Start Tick */
      tickstart = HAL_GetTick();
 8001636:	f7ff fb61 	bl	8000cfc <HAL_GetTick>
 800163a:	0003      	movs	r3, r0
 800163c:	61bb      	str	r3, [r7, #24]
      
      /* Wait till LSE is disabled */  
      while(__HAL_RCC_GET_FLAG(RCC_FLAG_LSERDY) != RESET)
 800163e:	e009      	b.n	8001654 <HAL_RCC_OscConfig+0x3ec>
      {
        if((HAL_GetTick() - tickstart ) > RCC_LSE_TIMEOUT_VALUE)
 8001640:	f7ff fb5c 	bl	8000cfc <HAL_GetTick>
 8001644:	0002      	movs	r2, r0
 8001646:	69bb      	ldr	r3, [r7, #24]
 8001648:	1ad3      	subs	r3, r2, r3
 800164a:	4a91      	ldr	r2, [pc, #580]	; (8001890 <HAL_RCC_OscConfig+0x628>)
 800164c:	4293      	cmp	r3, r2
 800164e:	d901      	bls.n	8001654 <HAL_RCC_OscConfig+0x3ec>
        {
          return HAL_TIMEOUT;
 8001650:	2303      	movs	r3, #3
 8001652:	e116      	b.n	8001882 <HAL_RCC_OscConfig+0x61a>
      while(__HAL_RCC_GET_FLAG(RCC_FLAG_LSERDY) != RESET)
 8001654:	4b8d      	ldr	r3, [pc, #564]	; (800188c <HAL_RCC_OscConfig+0x624>)
 8001656:	6a1b      	ldr	r3, [r3, #32]
 8001658:	2202      	movs	r2, #2
 800165a:	4013      	ands	r3, r2
 800165c:	d1f0      	bne.n	8001640 <HAL_RCC_OscConfig+0x3d8>
        }
      }
    }

    /* Require to disable power clock if necessary */
    if(pwrclkchanged == SET)
 800165e:	231f      	movs	r3, #31
 8001660:	18fb      	adds	r3, r7, r3
 8001662:	781b      	ldrb	r3, [r3, #0]
 8001664:	2b01      	cmp	r3, #1
 8001666:	d105      	bne.n	8001674 <HAL_RCC_OscConfig+0x40c>
    {
      __HAL_RCC_PWR_CLK_DISABLE();
 8001668:	4b88      	ldr	r3, [pc, #544]	; (800188c <HAL_RCC_OscConfig+0x624>)
 800166a:	69da      	ldr	r2, [r3, #28]
 800166c:	4b87      	ldr	r3, [pc, #540]	; (800188c <HAL_RCC_OscConfig+0x624>)
 800166e:	4989      	ldr	r1, [pc, #548]	; (8001894 <HAL_RCC_OscConfig+0x62c>)
 8001670:	400a      	ands	r2, r1
 8001672:	61da      	str	r2, [r3, #28]
    }
  }

  /*----------------------------- HSI14 Configuration --------------------------*/
  if(((RCC_OscInitStruct->OscillatorType) & RCC_OSCILLATORTYPE_HSI14) == RCC_OSCILLATORTYPE_HSI14)
 8001674:	687b      	ldr	r3, [r7, #4]
 8001676:	681b      	ldr	r3, [r3, #0]
 8001678:	2210      	movs	r2, #16
 800167a:	4013      	ands	r3, r2
 800167c:	d063      	beq.n	8001746 <HAL_RCC_OscConfig+0x4de>
    /* Check the parameters */
    assert_param(IS_RCC_HSI14(RCC_OscInitStruct->HSI14State));
    assert_param(IS_RCC_CALIBRATION_VALUE(RCC_OscInitStruct->HSI14CalibrationValue));

    /* Check the HSI14 State */
    if(RCC_OscInitStruct->HSI14State == RCC_HSI14_ON)
 800167e:	687b      	ldr	r3, [r7, #4]
 8001680:	695b      	ldr	r3, [r3, #20]
 8001682:	2b01      	cmp	r3, #1
 8001684:	d12a      	bne.n	80016dc <HAL_RCC_OscConfig+0x474>
    {
      /* Disable ADC control of the Internal High Speed oscillator HSI14 */
      __HAL_RCC_HSI14ADC_DISABLE();
 8001686:	4b81      	ldr	r3, [pc, #516]	; (800188c <HAL_RCC_OscConfig+0x624>)
 8001688:	6b5a      	ldr	r2, [r3, #52]	; 0x34
 800168a:	4b80      	ldr	r3, [pc, #512]	; (800188c <HAL_RCC_OscConfig+0x624>)
 800168c:	2104      	movs	r1, #4
 800168e:	430a      	orrs	r2, r1
 8001690:	635a      	str	r2, [r3, #52]	; 0x34

      /* Enable the Internal High Speed oscillator (HSI). */
      __HAL_RCC_HSI14_ENABLE();
 8001692:	4b7e      	ldr	r3, [pc, #504]	; (800188c <HAL_RCC_OscConfig+0x624>)
 8001694:	6b5a      	ldr	r2, [r3, #52]	; 0x34
 8001696:	4b7d      	ldr	r3, [pc, #500]	; (800188c <HAL_RCC_OscConfig+0x624>)
 8001698:	2101      	movs	r1, #1
 800169a:	430a      	orrs	r2, r1
 800169c:	635a      	str	r2, [r3, #52]	; 0x34

      /* Get Start Tick */
      tickstart = HAL_GetTick();
 800169e:	f7ff fb2d 	bl	8000cfc <HAL_GetTick>
 80016a2:	0003      	movs	r3, r0
 80016a4:	61bb      	str	r3, [r7, #24]
      
      /* Wait till HSI is ready */  
      while(__HAL_RCC_GET_FLAG(RCC_FLAG_HSI14RDY) == RESET)
 80016a6:	e008      	b.n	80016ba <HAL_RCC_OscConfig+0x452>
      {
        if((HAL_GetTick() - tickstart) > HSI14_TIMEOUT_VALUE)
 80016a8:	f7ff fb28 	bl	8000cfc <HAL_GetTick>
 80016ac:	0002      	movs	r2, r0
 80016ae:	69bb      	ldr	r3, [r7, #24]
 80016b0:	1ad3      	subs	r3, r2, r3
 80016b2:	2b02      	cmp	r3, #2
 80016b4:	d901      	bls.n	80016ba <HAL_RCC_OscConfig+0x452>
        {
          return HAL_TIMEOUT;
 80016b6:	2303      	movs	r3, #3
 80016b8:	e0e3      	b.n	8001882 <HAL_RCC_OscConfig+0x61a>
      while(__HAL_RCC_GET_FLAG(RCC_FLAG_HSI14RDY) == RESET)
 80016ba:	4b74      	ldr	r3, [pc, #464]	; (800188c <HAL_RCC_OscConfig+0x624>)
 80016bc:	6b5b      	ldr	r3, [r3, #52]	; 0x34
 80016be:	2202      	movs	r2, #2
 80016c0:	4013      	ands	r3, r2
 80016c2:	d0f1      	beq.n	80016a8 <HAL_RCC_OscConfig+0x440>
        }      
      } 

      /* Adjusts the Internal High Speed oscillator 14Mhz (HSI14) calibration value. */
      __HAL_RCC_HSI14_CALIBRATIONVALUE_ADJUST(RCC_OscInitStruct->HSI14CalibrationValue);
 80016c4:	4b71      	ldr	r3, [pc, #452]	; (800188c <HAL_RCC_OscConfig+0x624>)
 80016c6:	6b5b      	ldr	r3, [r3, #52]	; 0x34
 80016c8:	22f8      	movs	r2, #248	; 0xf8
 80016ca:	4393      	bics	r3, r2
 80016cc:	0019      	movs	r1, r3
 80016ce:	687b      	ldr	r3, [r7, #4]
 80016d0:	699b      	ldr	r3, [r3, #24]
 80016d2:	00da      	lsls	r2, r3, #3
 80016d4:	4b6d      	ldr	r3, [pc, #436]	; (800188c <HAL_RCC_OscConfig+0x624>)
 80016d6:	430a      	orrs	r2, r1
 80016d8:	635a      	str	r2, [r3, #52]	; 0x34
 80016da:	e034      	b.n	8001746 <HAL_RCC_OscConfig+0x4de>
    }
    else if(RCC_OscInitStruct->HSI14State == RCC_HSI14_ADC_CONTROL)
 80016dc:	687b      	ldr	r3, [r7, #4]
 80016de:	695b      	ldr	r3, [r3, #20]
 80016e0:	3305      	adds	r3, #5
 80016e2:	d111      	bne.n	8001708 <HAL_RCC_OscConfig+0x4a0>
    {
      /* Enable ADC control of the Internal High Speed oscillator HSI14 */
      __HAL_RCC_HSI14ADC_ENABLE();
 80016e4:	4b69      	ldr	r3, [pc, #420]	; (800188c <HAL_RCC_OscConfig+0x624>)
 80016e6:	6b5a      	ldr	r2, [r3, #52]	; 0x34
 80016e8:	4b68      	ldr	r3, [pc, #416]	; (800188c <HAL_RCC_OscConfig+0x624>)
 80016ea:	2104      	movs	r1, #4
 80016ec:	438a      	bics	r2, r1
 80016ee:	635a      	str	r2, [r3, #52]	; 0x34

      /* Adjusts the Internal High Speed oscillator 14Mhz (HSI14) calibration value. */
      __HAL_RCC_HSI14_CALIBRATIONVALUE_ADJUST(RCC_OscInitStruct->HSI14CalibrationValue);
 80016f0:	4b66      	ldr	r3, [pc, #408]	; (800188c <HAL_RCC_OscConfig+0x624>)
 80016f2:	6b5b      	ldr	r3, [r3, #52]	; 0x34
 80016f4:	22f8      	movs	r2, #248	; 0xf8
 80016f6:	4393      	bics	r3, r2
 80016f8:	0019      	movs	r1, r3
 80016fa:	687b      	ldr	r3, [r7, #4]
 80016fc:	699b      	ldr	r3, [r3, #24]
 80016fe:	00da      	lsls	r2, r3, #3
 8001700:	4b62      	ldr	r3, [pc, #392]	; (800188c <HAL_RCC_OscConfig+0x624>)
 8001702:	430a      	orrs	r2, r1
 8001704:	635a      	str	r2, [r3, #52]	; 0x34
 8001706:	e01e      	b.n	8001746 <HAL_RCC_OscConfig+0x4de>
    }
    else
    {
      /* Disable ADC control of the Internal High Speed oscillator HSI14 */
      __HAL_RCC_HSI14ADC_DISABLE();
 8001708:	4b60      	ldr	r3, [pc, #384]	; (800188c <HAL_RCC_OscConfig+0x624>)
 800170a:	6b5a      	ldr	r2, [r3, #52]	; 0x34
 800170c:	4b5f      	ldr	r3, [pc, #380]	; (800188c <HAL_RCC_OscConfig+0x624>)
 800170e:	2104      	movs	r1, #4
 8001710:	430a      	orrs	r2, r1
 8001712:	635a      	str	r2, [r3, #52]	; 0x34

      /* Disable the Internal High Speed oscillator (HSI). */
      __HAL_RCC_HSI14_DISABLE();
 8001714:	4b5d      	ldr	r3, [pc, #372]	; (800188c <HAL_RCC_OscConfig+0x624>)
 8001716:	6b5a      	ldr	r2, [r3, #52]	; 0x34
 8001718:	4b5c      	ldr	r3, [pc, #368]	; (800188c <HAL_RCC_OscConfig+0x624>)
 800171a:	2101      	movs	r1, #1
 800171c:	438a      	bics	r2, r1
 800171e:	635a      	str	r2, [r3, #52]	; 0x34

      /* Get Start Tick */
      tickstart = HAL_GetTick();
 8001720:	f7ff faec 	bl	8000cfc <HAL_GetTick>
 8001724:	0003      	movs	r3, r0
 8001726:	61bb      	str	r3, [r7, #24]
      
      /* Wait till HSI is ready */  
      while(__HAL_RCC_GET_FLAG(RCC_FLAG_HSI14RDY) != RESET)
 8001728:	e008      	b.n	800173c <HAL_RCC_OscConfig+0x4d4>
      {
        if((HAL_GetTick() - tickstart) > HSI14_TIMEOUT_VALUE)
 800172a:	f7ff fae7 	bl	8000cfc <HAL_GetTick>
 800172e:	0002      	movs	r2, r0
 8001730:	69bb      	ldr	r3, [r7, #24]
 8001732:	1ad3      	subs	r3, r2, r3
 8001734:	2b02      	cmp	r3, #2
 8001736:	d901      	bls.n	800173c <HAL_RCC_OscConfig+0x4d4>
        {
          return HAL_TIMEOUT;
 8001738:	2303      	movs	r3, #3
 800173a:	e0a2      	b.n	8001882 <HAL_RCC_OscConfig+0x61a>
      while(__HAL_RCC_GET_FLAG(RCC_FLAG_HSI14RDY) != RESET)
 800173c:	4b53      	ldr	r3, [pc, #332]	; (800188c <HAL_RCC_OscConfig+0x624>)
 800173e:	6b5b      	ldr	r3, [r3, #52]	; 0x34
 8001740:	2202      	movs	r2, #2
 8001742:	4013      	ands	r3, r2
 8001744:	d1f1      	bne.n	800172a <HAL_RCC_OscConfig+0x4c2>
#endif /* RCC_HSI48_SUPPORT */
       
  /*-------------------------------- PLL Configuration -----------------------*/
  /* Check the parameters */
  assert_param(IS_RCC_PLL(RCC_OscInitStruct->PLL.PLLState));
  if ((RCC_OscInitStruct->PLL.PLLState) != RCC_PLL_NONE)
 8001746:	687b      	ldr	r3, [r7, #4]
 8001748:	6a1b      	ldr	r3, [r3, #32]
 800174a:	2b00      	cmp	r3, #0
 800174c:	d100      	bne.n	8001750 <HAL_RCC_OscConfig+0x4e8>
 800174e:	e097      	b.n	8001880 <HAL_RCC_OscConfig+0x618>
  {
    /* Check if the PLL is used as system clock or not */
    if(__HAL_RCC_GET_SYSCLK_SOURCE() != RCC_SYSCLKSOURCE_STATUS_PLLCLK)
 8001750:	4b4e      	ldr	r3, [pc, #312]	; (800188c <HAL_RCC_OscConfig+0x624>)
 8001752:	685b      	ldr	r3, [r3, #4]
 8001754:	220c      	movs	r2, #12
 8001756:	4013      	ands	r3, r2
 8001758:	2b08      	cmp	r3, #8
 800175a:	d100      	bne.n	800175e <HAL_RCC_OscConfig+0x4f6>
 800175c:	e06b      	b.n	8001836 <HAL_RCC_OscConfig+0x5ce>
    { 
      if((RCC_OscInitStruct->PLL.PLLState) == RCC_PLL_ON)
 800175e:	687b      	ldr	r3, [r7, #4]
 8001760:	6a1b      	ldr	r3, [r3, #32]
 8001762:	2b02      	cmp	r3, #2
 8001764:	d14c      	bne.n	8001800 <HAL_RCC_OscConfig+0x598>
        assert_param(IS_RCC_PLLSOURCE(RCC_OscInitStruct->PLL.PLLSource));
        assert_param(IS_RCC_PLL_MUL(RCC_OscInitStruct->PLL.PLLMUL));
        assert_param(IS_RCC_PREDIV(RCC_OscInitStruct->PLL.PREDIV));
  
        /* Disable the main PLL. */
        __HAL_RCC_PLL_DISABLE();
 8001766:	4b49      	ldr	r3, [pc, #292]	; (800188c <HAL_RCC_OscConfig+0x624>)
 8001768:	681a      	ldr	r2, [r3, #0]
 800176a:	4b48      	ldr	r3, [pc, #288]	; (800188c <HAL_RCC_OscConfig+0x624>)
 800176c:	494a      	ldr	r1, [pc, #296]	; (8001898 <HAL_RCC_OscConfig+0x630>)
 800176e:	400a      	ands	r2, r1
 8001770:	601a      	str	r2, [r3, #0]
        
        /* Get Start Tick */
        tickstart = HAL_GetTick();
 8001772:	f7ff fac3 	bl	8000cfc <HAL_GetTick>
 8001776:	0003      	movs	r3, r0
 8001778:	61bb      	str	r3, [r7, #24]
        
        /* Wait till PLL is disabled */
        while(__HAL_RCC_GET_FLAG(RCC_FLAG_PLLRDY)  != RESET)
 800177a:	e008      	b.n	800178e <HAL_RCC_OscConfig+0x526>
        {
          if((HAL_GetTick() - tickstart ) > PLL_TIMEOUT_VALUE)
 800177c:	f7ff fabe 	bl	8000cfc <HAL_GetTick>
 8001780:	0002      	movs	r2, r0
 8001782:	69bb      	ldr	r3, [r7, #24]
 8001784:	1ad3      	subs	r3, r2, r3
 8001786:	2b02      	cmp	r3, #2
 8001788:	d901      	bls.n	800178e <HAL_RCC_OscConfig+0x526>
          {
            return HAL_TIMEOUT;
 800178a:	2303      	movs	r3, #3
 800178c:	e079      	b.n	8001882 <HAL_RCC_OscConfig+0x61a>
        while(__HAL_RCC_GET_FLAG(RCC_FLAG_PLLRDY)  != RESET)
 800178e:	4b3f      	ldr	r3, [pc, #252]	; (800188c <HAL_RCC_OscConfig+0x624>)
 8001790:	681a      	ldr	r2, [r3, #0]
 8001792:	2380      	movs	r3, #128	; 0x80
 8001794:	049b      	lsls	r3, r3, #18
 8001796:	4013      	ands	r3, r2
 8001798:	d1f0      	bne.n	800177c <HAL_RCC_OscConfig+0x514>
          }
        }

        /* Configure the main PLL clock source, predivider and multiplication factor. */
        __HAL_RCC_PLL_CONFIG(RCC_OscInitStruct->PLL.PLLSource,
 800179a:	4b3c      	ldr	r3, [pc, #240]	; (800188c <HAL_RCC_OscConfig+0x624>)
 800179c:	6adb      	ldr	r3, [r3, #44]	; 0x2c
 800179e:	220f      	movs	r2, #15
 80017a0:	4393      	bics	r3, r2
 80017a2:	0019      	movs	r1, r3
 80017a4:	687b      	ldr	r3, [r7, #4]
 80017a6:	6ada      	ldr	r2, [r3, #44]	; 0x2c
 80017a8:	4b38      	ldr	r3, [pc, #224]	; (800188c <HAL_RCC_OscConfig+0x624>)
 80017aa:	430a      	orrs	r2, r1
 80017ac:	62da      	str	r2, [r3, #44]	; 0x2c
 80017ae:	4b37      	ldr	r3, [pc, #220]	; (800188c <HAL_RCC_OscConfig+0x624>)
 80017b0:	685b      	ldr	r3, [r3, #4]
 80017b2:	4a3a      	ldr	r2, [pc, #232]	; (800189c <HAL_RCC_OscConfig+0x634>)
 80017b4:	4013      	ands	r3, r2
 80017b6:	0019      	movs	r1, r3
 80017b8:	687b      	ldr	r3, [r7, #4]
 80017ba:	6a9a      	ldr	r2, [r3, #40]	; 0x28
 80017bc:	687b      	ldr	r3, [r7, #4]
 80017be:	6a5b      	ldr	r3, [r3, #36]	; 0x24
 80017c0:	431a      	orrs	r2, r3
 80017c2:	4b32      	ldr	r3, [pc, #200]	; (800188c <HAL_RCC_OscConfig+0x624>)
 80017c4:	430a      	orrs	r2, r1
 80017c6:	605a      	str	r2, [r3, #4]
                             RCC_OscInitStruct->PLL.PREDIV,
                             RCC_OscInitStruct->PLL.PLLMUL);
        /* Enable the main PLL. */
        __HAL_RCC_PLL_ENABLE();
 80017c8:	4b30      	ldr	r3, [pc, #192]	; (800188c <HAL_RCC_OscConfig+0x624>)
 80017ca:	681a      	ldr	r2, [r3, #0]
 80017cc:	4b2f      	ldr	r3, [pc, #188]	; (800188c <HAL_RCC_OscConfig+0x624>)
 80017ce:	2180      	movs	r1, #128	; 0x80
 80017d0:	0449      	lsls	r1, r1, #17
 80017d2:	430a      	orrs	r2, r1
 80017d4:	601a      	str	r2, [r3, #0]
        
        /* Get Start Tick */
        tickstart = HAL_GetTick();
 80017d6:	f7ff fa91 	bl	8000cfc <HAL_GetTick>
 80017da:	0003      	movs	r3, r0
 80017dc:	61bb      	str	r3, [r7, #24]
        
        /* Wait till PLL is ready */
        while(__HAL_RCC_GET_FLAG(RCC_FLAG_PLLRDY)  == RESET)
 80017de:	e008      	b.n	80017f2 <HAL_RCC_OscConfig+0x58a>
        {
          if((HAL_GetTick() - tickstart ) > PLL_TIMEOUT_VALUE)
 80017e0:	f7ff fa8c 	bl	8000cfc <HAL_GetTick>
 80017e4:	0002      	movs	r2, r0
 80017e6:	69bb      	ldr	r3, [r7, #24]
 80017e8:	1ad3      	subs	r3, r2, r3
 80017ea:	2b02      	cmp	r3, #2
 80017ec:	d901      	bls.n	80017f2 <HAL_RCC_OscConfig+0x58a>
          {
            return HAL_TIMEOUT;
 80017ee:	2303      	movs	r3, #3
 80017f0:	e047      	b.n	8001882 <HAL_RCC_OscConfig+0x61a>
        while(__HAL_RCC_GET_FLAG(RCC_FLAG_PLLRDY)  == RESET)
 80017f2:	4b26      	ldr	r3, [pc, #152]	; (800188c <HAL_RCC_OscConfig+0x624>)
 80017f4:	681a      	ldr	r2, [r3, #0]
 80017f6:	2380      	movs	r3, #128	; 0x80
 80017f8:	049b      	lsls	r3, r3, #18
 80017fa:	4013      	ands	r3, r2
 80017fc:	d0f0      	beq.n	80017e0 <HAL_RCC_OscConfig+0x578>
 80017fe:	e03f      	b.n	8001880 <HAL_RCC_OscConfig+0x618>
        }
      }
      else
      {
        /* Disable the main PLL. */
        __HAL_RCC_PLL_DISABLE();
 8001800:	4b22      	ldr	r3, [pc, #136]	; (800188c <HAL_RCC_OscConfig+0x624>)
 8001802:	681a      	ldr	r2, [r3, #0]
 8001804:	4b21      	ldr	r3, [pc, #132]	; (800188c <HAL_RCC_OscConfig+0x624>)
 8001806:	4924      	ldr	r1, [pc, #144]	; (8001898 <HAL_RCC_OscConfig+0x630>)
 8001808:	400a      	ands	r2, r1
 800180a:	601a      	str	r2, [r3, #0]
 
        /* Get Start Tick */
        tickstart = HAL_GetTick();
 800180c:	f7ff fa76 	bl	8000cfc <HAL_GetTick>
 8001810:	0003      	movs	r3, r0
 8001812:	61bb      	str	r3, [r7, #24]
        
        /* Wait till PLL is disabled */  
        while(__HAL_RCC_GET_FLAG(RCC_FLAG_PLLRDY)  != RESET)
 8001814:	e008      	b.n	8001828 <HAL_RCC_OscConfig+0x5c0>
        {
          if((HAL_GetTick() - tickstart ) > PLL_TIMEOUT_VALUE)
 8001816:	f7ff fa71 	bl	8000cfc <HAL_GetTick>
 800181a:	0002      	movs	r2, r0
 800181c:	69bb      	ldr	r3, [r7, #24]
 800181e:	1ad3      	subs	r3, r2, r3
 8001820:	2b02      	cmp	r3, #2
 8001822:	d901      	bls.n	8001828 <HAL_RCC_OscConfig+0x5c0>
          {
            return HAL_TIMEOUT;
 8001824:	2303      	movs	r3, #3
 8001826:	e02c      	b.n	8001882 <HAL_RCC_OscConfig+0x61a>
        while(__HAL_RCC_GET_FLAG(RCC_FLAG_PLLRDY)  != RESET)
 8001828:	4b18      	ldr	r3, [pc, #96]	; (800188c <HAL_RCC_OscConfig+0x624>)
 800182a:	681a      	ldr	r2, [r3, #0]
 800182c:	2380      	movs	r3, #128	; 0x80
 800182e:	049b      	lsls	r3, r3, #18
 8001830:	4013      	ands	r3, r2
 8001832:	d1f0      	bne.n	8001816 <HAL_RCC_OscConfig+0x5ae>
 8001834:	e024      	b.n	8001880 <HAL_RCC_OscConfig+0x618>
      }
    }
    else
    {
      /* Check if there is a request to disable the PLL used as System clock source */
      if((RCC_OscInitStruct->PLL.PLLState) == RCC_PLL_OFF)
 8001836:	687b      	ldr	r3, [r7, #4]
 8001838:	6a1b      	ldr	r3, [r3, #32]
 800183a:	2b01      	cmp	r3, #1
 800183c:	d101      	bne.n	8001842 <HAL_RCC_OscConfig+0x5da>
      {
        return HAL_ERROR;
 800183e:	2301      	movs	r3, #1
 8001840:	e01f      	b.n	8001882 <HAL_RCC_OscConfig+0x61a>
      }
      else
      {
        /* Do not return HAL_ERROR if request repeats the current configuration */
        pll_config  = RCC->CFGR;
 8001842:	4b12      	ldr	r3, [pc, #72]	; (800188c <HAL_RCC_OscConfig+0x624>)
 8001844:	685b      	ldr	r3, [r3, #4]
 8001846:	617b      	str	r3, [r7, #20]
        pll_config2 = RCC->CFGR2;
 8001848:	4b10      	ldr	r3, [pc, #64]	; (800188c <HAL_RCC_OscConfig+0x624>)
 800184a:	6adb      	ldr	r3, [r3, #44]	; 0x2c
 800184c:	613b      	str	r3, [r7, #16]
        if((READ_BIT(pll_config,  RCC_CFGR_PLLSRC)  != RCC_OscInitStruct->PLL.PLLSource) ||
 800184e:	697a      	ldr	r2, [r7, #20]
 8001850:	2380      	movs	r3, #128	; 0x80
 8001852:	025b      	lsls	r3, r3, #9
 8001854:	401a      	ands	r2, r3
 8001856:	687b      	ldr	r3, [r7, #4]
 8001858:	6a5b      	ldr	r3, [r3, #36]	; 0x24
 800185a:	429a      	cmp	r2, r3
 800185c:	d10e      	bne.n	800187c <HAL_RCC_OscConfig+0x614>
           (READ_BIT(pll_config2, RCC_CFGR2_PREDIV) != RCC_OscInitStruct->PLL.PREDIV)    ||
 800185e:	693b      	ldr	r3, [r7, #16]
 8001860:	220f      	movs	r2, #15
 8001862:	401a      	ands	r2, r3
 8001864:	687b      	ldr	r3, [r7, #4]
 8001866:	6adb      	ldr	r3, [r3, #44]	; 0x2c
        if((READ_BIT(pll_config,  RCC_CFGR_PLLSRC)  != RCC_OscInitStruct->PLL.PLLSource) ||
 8001868:	429a      	cmp	r2, r3
 800186a:	d107      	bne.n	800187c <HAL_RCC_OscConfig+0x614>
           (READ_BIT(pll_config,  RCC_CFGR_PLLMUL)  != RCC_OscInitStruct->PLL.PLLMUL))
 800186c:	697a      	ldr	r2, [r7, #20]
 800186e:	23f0      	movs	r3, #240	; 0xf0
 8001870:	039b      	lsls	r3, r3, #14
 8001872:	401a      	ands	r2, r3
 8001874:	687b      	ldr	r3, [r7, #4]
 8001876:	6a9b      	ldr	r3, [r3, #40]	; 0x28
           (READ_BIT(pll_config2, RCC_CFGR2_PREDIV) != RCC_OscInitStruct->PLL.PREDIV)    ||
 8001878:	429a      	cmp	r2, r3
 800187a:	d001      	beq.n	8001880 <HAL_RCC_OscConfig+0x618>
        {
          return HAL_ERROR;
 800187c:	2301      	movs	r3, #1
 800187e:	e000      	b.n	8001882 <HAL_RCC_OscConfig+0x61a>
        }
      }
    }
  }

  return HAL_OK;
 8001880:	2300      	movs	r3, #0
}
 8001882:	0018      	movs	r0, r3
 8001884:	46bd      	mov	sp, r7
 8001886:	b008      	add	sp, #32
 8001888:	bd80      	pop	{r7, pc}
 800188a:	46c0      	nop			; (mov r8, r8)
 800188c:	40021000 	.word	0x40021000
 8001890:	00001388 	.word	0x00001388
 8001894:	efffffff 	.word	0xefffffff
 8001898:	feffffff 	.word	0xfeffffff
 800189c:	ffc2ffff 	.word	0xffc2ffff

080018a0 <HAL_RCC_ClockConfig>:
  *         You can use @ref HAL_RCC_GetClockConfig() function to know which clock is
  *         currently used as system clock source.
  * @retval HAL status
  */
HAL_StatusTypeDef HAL_RCC_ClockConfig(RCC_ClkInitTypeDef  *RCC_ClkInitStruct, uint32_t FLatency)
{
 80018a0:	b580      	push	{r7, lr}
 80018a2:	b084      	sub	sp, #16
 80018a4:	af00      	add	r7, sp, #0
 80018a6:	6078      	str	r0, [r7, #4]
 80018a8:	6039      	str	r1, [r7, #0]
  uint32_t tickstart;

  /* Check Null pointer */
  if(RCC_ClkInitStruct == NULL)
 80018aa:	687b      	ldr	r3, [r7, #4]
 80018ac:	2b00      	cmp	r3, #0
 80018ae:	d101      	bne.n	80018b4 <HAL_RCC_ClockConfig+0x14>
  {
    return HAL_ERROR;
 80018b0:	2301      	movs	r3, #1
 80018b2:	e0b3      	b.n	8001a1c <HAL_RCC_ClockConfig+0x17c>
  /* To correctly read data from FLASH memory, the number of wait states (LATENCY) 
  must be correctly programmed according to the frequency of the CPU clock 
    (HCLK) of the device. */

  /* Increasing the number of wait states because of higher CPU frequency */
  if(FLatency > __HAL_FLASH_GET_LATENCY())
 80018b4:	4b5b      	ldr	r3, [pc, #364]	; (8001a24 <HAL_RCC_ClockConfig+0x184>)
 80018b6:	681b      	ldr	r3, [r3, #0]
 80018b8:	2201      	movs	r2, #1
 80018ba:	4013      	ands	r3, r2
 80018bc:	683a      	ldr	r2, [r7, #0]
 80018be:	429a      	cmp	r2, r3
 80018c0:	d911      	bls.n	80018e6 <HAL_RCC_ClockConfig+0x46>
  {    
    /* Program the new number of wait states to the LATENCY bits in the FLASH_ACR register */
    __HAL_FLASH_SET_LATENCY(FLatency);
 80018c2:	4b58      	ldr	r3, [pc, #352]	; (8001a24 <HAL_RCC_ClockConfig+0x184>)
 80018c4:	681b      	ldr	r3, [r3, #0]
 80018c6:	2201      	movs	r2, #1
 80018c8:	4393      	bics	r3, r2
 80018ca:	0019      	movs	r1, r3
 80018cc:	4b55      	ldr	r3, [pc, #340]	; (8001a24 <HAL_RCC_ClockConfig+0x184>)
 80018ce:	683a      	ldr	r2, [r7, #0]
 80018d0:	430a      	orrs	r2, r1
 80018d2:	601a      	str	r2, [r3, #0]
    
    /* Check that the new number of wait states is taken into account to access the Flash
    memory by reading the FLASH_ACR register */
    if(__HAL_FLASH_GET_LATENCY() != FLatency)
 80018d4:	4b53      	ldr	r3, [pc, #332]	; (8001a24 <HAL_RCC_ClockConfig+0x184>)
 80018d6:	681b      	ldr	r3, [r3, #0]
 80018d8:	2201      	movs	r2, #1
 80018da:	4013      	ands	r3, r2
 80018dc:	683a      	ldr	r2, [r7, #0]
 80018de:	429a      	cmp	r2, r3
 80018e0:	d001      	beq.n	80018e6 <HAL_RCC_ClockConfig+0x46>
    {
      return HAL_ERROR;
 80018e2:	2301      	movs	r3, #1
 80018e4:	e09a      	b.n	8001a1c <HAL_RCC_ClockConfig+0x17c>
    }
  }

  /*-------------------------- HCLK Configuration --------------------------*/
  if(((RCC_ClkInitStruct->ClockType) & RCC_CLOCKTYPE_HCLK) == RCC_CLOCKTYPE_HCLK)
 80018e6:	687b      	ldr	r3, [r7, #4]
 80018e8:	681b      	ldr	r3, [r3, #0]
 80018ea:	2202      	movs	r2, #2
 80018ec:	4013      	ands	r3, r2
 80018ee:	d015      	beq.n	800191c <HAL_RCC_ClockConfig+0x7c>
  {
    /* Set the highest APB divider in order to ensure that we do not go through
       a non-spec phase whatever we decrease or increase HCLK. */
    if(((RCC_ClkInitStruct->ClockType) & RCC_CLOCKTYPE_PCLK1) == RCC_CLOCKTYPE_PCLK1)
 80018f0:	687b      	ldr	r3, [r7, #4]
 80018f2:	681b      	ldr	r3, [r3, #0]
 80018f4:	2204      	movs	r2, #4
 80018f6:	4013      	ands	r3, r2
 80018f8:	d006      	beq.n	8001908 <HAL_RCC_ClockConfig+0x68>
    {
      MODIFY_REG(RCC->CFGR, RCC_CFGR_PPRE, RCC_HCLK_DIV16);
 80018fa:	4b4b      	ldr	r3, [pc, #300]	; (8001a28 <HAL_RCC_ClockConfig+0x188>)
 80018fc:	685a      	ldr	r2, [r3, #4]
 80018fe:	4b4a      	ldr	r3, [pc, #296]	; (8001a28 <HAL_RCC_ClockConfig+0x188>)
 8001900:	21e0      	movs	r1, #224	; 0xe0
 8001902:	00c9      	lsls	r1, r1, #3
 8001904:	430a      	orrs	r2, r1
 8001906:	605a      	str	r2, [r3, #4]
    }

    /* Set the new HCLK clock divider */
    assert_param(IS_RCC_HCLK(RCC_ClkInitStruct->AHBCLKDivider));
    MODIFY_REG(RCC->CFGR, RCC_CFGR_HPRE, RCC_ClkInitStruct->AHBCLKDivider);
 8001908:	4b47      	ldr	r3, [pc, #284]	; (8001a28 <HAL_RCC_ClockConfig+0x188>)
 800190a:	685b      	ldr	r3, [r3, #4]
 800190c:	22f0      	movs	r2, #240	; 0xf0
 800190e:	4393      	bics	r3, r2
 8001910:	0019      	movs	r1, r3
 8001912:	687b      	ldr	r3, [r7, #4]
 8001914:	689a      	ldr	r2, [r3, #8]
 8001916:	4b44      	ldr	r3, [pc, #272]	; (8001a28 <HAL_RCC_ClockConfig+0x188>)
 8001918:	430a      	orrs	r2, r1
 800191a:	605a      	str	r2, [r3, #4]
  }

  /*------------------------- SYSCLK Configuration ---------------------------*/ 
  if(((RCC_ClkInitStruct->ClockType) & RCC_CLOCKTYPE_SYSCLK) == RCC_CLOCKTYPE_SYSCLK)
 800191c:	687b      	ldr	r3, [r7, #4]
 800191e:	681b      	ldr	r3, [r3, #0]
 8001920:	2201      	movs	r2, #1
 8001922:	4013      	ands	r3, r2
 8001924:	d040      	beq.n	80019a8 <HAL_RCC_ClockConfig+0x108>
  {
    assert_param(IS_RCC_SYSCLKSOURCE(RCC_ClkInitStruct->SYSCLKSource));
    
    /* HSE is selected as System Clock Source */
    if(RCC_ClkInitStruct->SYSCLKSource == RCC_SYSCLKSOURCE_HSE)
 8001926:	687b      	ldr	r3, [r7, #4]
 8001928:	685b      	ldr	r3, [r3, #4]
 800192a:	2b01      	cmp	r3, #1
 800192c:	d107      	bne.n	800193e <HAL_RCC_ClockConfig+0x9e>
    {
      /* Check the HSE ready flag */  
      if(__HAL_RCC_GET_FLAG(RCC_FLAG_HSERDY) == RESET)
 800192e:	4b3e      	ldr	r3, [pc, #248]	; (8001a28 <HAL_RCC_ClockConfig+0x188>)
 8001930:	681a      	ldr	r2, [r3, #0]
 8001932:	2380      	movs	r3, #128	; 0x80
 8001934:	029b      	lsls	r3, r3, #10
 8001936:	4013      	ands	r3, r2
 8001938:	d114      	bne.n	8001964 <HAL_RCC_ClockConfig+0xc4>
      {
        return HAL_ERROR;
 800193a:	2301      	movs	r3, #1
 800193c:	e06e      	b.n	8001a1c <HAL_RCC_ClockConfig+0x17c>
      }
    }
    /* PLL is selected as System Clock Source */
    else if(RCC_ClkInitStruct->SYSCLKSource == RCC_SYSCLKSOURCE_PLLCLK)
 800193e:	687b      	ldr	r3, [r7, #4]
 8001940:	685b      	ldr	r3, [r3, #4]
 8001942:	2b02      	cmp	r3, #2
 8001944:	d107      	bne.n	8001956 <HAL_RCC_ClockConfig+0xb6>
    {
      /* Check the PLL ready flag */  
      if(__HAL_RCC_GET_FLAG(RCC_FLAG_PLLRDY) == RESET)
 8001946:	4b38      	ldr	r3, [pc, #224]	; (8001a28 <HAL_RCC_ClockConfig+0x188>)
 8001948:	681a      	ldr	r2, [r3, #0]
 800194a:	2380      	movs	r3, #128	; 0x80
 800194c:	049b      	lsls	r3, r3, #18
 800194e:	4013      	ands	r3, r2
 8001950:	d108      	bne.n	8001964 <HAL_RCC_ClockConfig+0xc4>
      {
        return HAL_ERROR;
 8001952:	2301      	movs	r3, #1
 8001954:	e062      	b.n	8001a1c <HAL_RCC_ClockConfig+0x17c>
#endif /* RCC_CFGR_SWS_HSI48 */
    /* HSI is selected as System Clock Source */
    else
    {
      /* Check the HSI ready flag */  
      if(__HAL_RCC_GET_FLAG(RCC_FLAG_HSIRDY) == RESET)
 8001956:	4b34      	ldr	r3, [pc, #208]	; (8001a28 <HAL_RCC_ClockConfig+0x188>)
 8001958:	681b      	ldr	r3, [r3, #0]
 800195a:	2202      	movs	r2, #2
 800195c:	4013      	ands	r3, r2
 800195e:	d101      	bne.n	8001964 <HAL_RCC_ClockConfig+0xc4>
      {
        return HAL_ERROR;
 8001960:	2301      	movs	r3, #1
 8001962:	e05b      	b.n	8001a1c <HAL_RCC_ClockConfig+0x17c>
      }
    }
    __HAL_RCC_SYSCLK_CONFIG(RCC_ClkInitStruct->SYSCLKSource);
 8001964:	4b30      	ldr	r3, [pc, #192]	; (8001a28 <HAL_RCC_ClockConfig+0x188>)
 8001966:	685b      	ldr	r3, [r3, #4]
 8001968:	2203      	movs	r2, #3
 800196a:	4393      	bics	r3, r2
 800196c:	0019      	movs	r1, r3
 800196e:	687b      	ldr	r3, [r7, #4]
 8001970:	685a      	ldr	r2, [r3, #4]
 8001972:	4b2d      	ldr	r3, [pc, #180]	; (8001a28 <HAL_RCC_ClockConfig+0x188>)
 8001974:	430a      	orrs	r2, r1
 8001976:	605a      	str	r2, [r3, #4]

    /* Get Start Tick */
    tickstart = HAL_GetTick();
 8001978:	f7ff f9c0 	bl	8000cfc <HAL_GetTick>
 800197c:	0003      	movs	r3, r0
 800197e:	60fb      	str	r3, [r7, #12]
    
    while (__HAL_RCC_GET_SYSCLK_SOURCE() != (RCC_ClkInitStruct->SYSCLKSource << RCC_CFGR_SWS_Pos))
 8001980:	e009      	b.n	8001996 <HAL_RCC_ClockConfig+0xf6>
    {
      if((HAL_GetTick() - tickstart ) > CLOCKSWITCH_TIMEOUT_VALUE)
 8001982:	f7ff f9bb 	bl	8000cfc <HAL_GetTick>
 8001986:	0002      	movs	r2, r0
 8001988:	68fb      	ldr	r3, [r7, #12]
 800198a:	1ad3      	subs	r3, r2, r3
 800198c:	4a27      	ldr	r2, [pc, #156]	; (8001a2c <HAL_RCC_ClockConfig+0x18c>)
 800198e:	4293      	cmp	r3, r2
 8001990:	d901      	bls.n	8001996 <HAL_RCC_ClockConfig+0xf6>
      {
        return HAL_TIMEOUT;
 8001992:	2303      	movs	r3, #3
 8001994:	e042      	b.n	8001a1c <HAL_RCC_ClockConfig+0x17c>
    while (__HAL_RCC_GET_SYSCLK_SOURCE() != (RCC_ClkInitStruct->SYSCLKSource << RCC_CFGR_SWS_Pos))
 8001996:	4b24      	ldr	r3, [pc, #144]	; (8001a28 <HAL_RCC_ClockConfig+0x188>)
 8001998:	685b      	ldr	r3, [r3, #4]
 800199a:	220c      	movs	r2, #12
 800199c:	401a      	ands	r2, r3
 800199e:	687b      	ldr	r3, [r7, #4]
 80019a0:	685b      	ldr	r3, [r3, #4]
 80019a2:	009b      	lsls	r3, r3, #2
 80019a4:	429a      	cmp	r2, r3
 80019a6:	d1ec      	bne.n	8001982 <HAL_RCC_ClockConfig+0xe2>
      }
    }
  }

  /* Decreasing the number of wait states because of lower CPU frequency */
  if(FLatency < __HAL_FLASH_GET_LATENCY())
 80019a8:	4b1e      	ldr	r3, [pc, #120]	; (8001a24 <HAL_RCC_ClockConfig+0x184>)
 80019aa:	681b      	ldr	r3, [r3, #0]
 80019ac:	2201      	movs	r2, #1
 80019ae:	4013      	ands	r3, r2
 80019b0:	683a      	ldr	r2, [r7, #0]
 80019b2:	429a      	cmp	r2, r3
 80019b4:	d211      	bcs.n	80019da <HAL_RCC_ClockConfig+0x13a>
  {    
    /* Program the new number of wait states to the LATENCY bits in the FLASH_ACR register */
    __HAL_FLASH_SET_LATENCY(FLatency);
 80019b6:	4b1b      	ldr	r3, [pc, #108]	; (8001a24 <HAL_RCC_ClockConfig+0x184>)
 80019b8:	681b      	ldr	r3, [r3, #0]
 80019ba:	2201      	movs	r2, #1
 80019bc:	4393      	bics	r3, r2
 80019be:	0019      	movs	r1, r3
 80019c0:	4b18      	ldr	r3, [pc, #96]	; (8001a24 <HAL_RCC_ClockConfig+0x184>)
 80019c2:	683a      	ldr	r2, [r7, #0]
 80019c4:	430a      	orrs	r2, r1
 80019c6:	601a      	str	r2, [r3, #0]
    
    /* Check that the new number of wait states is taken into account to access the Flash
    memory by reading the FLASH_ACR register */
    if(__HAL_FLASH_GET_LATENCY() != FLatency)
 80019c8:	4b16      	ldr	r3, [pc, #88]	; (8001a24 <HAL_RCC_ClockConfig+0x184>)
 80019ca:	681b      	ldr	r3, [r3, #0]
 80019cc:	2201      	movs	r2, #1
 80019ce:	4013      	ands	r3, r2
 80019d0:	683a      	ldr	r2, [r7, #0]
 80019d2:	429a      	cmp	r2, r3
 80019d4:	d001      	beq.n	80019da <HAL_RCC_ClockConfig+0x13a>
    {
      return HAL_ERROR;
 80019d6:	2301      	movs	r3, #1
 80019d8:	e020      	b.n	8001a1c <HAL_RCC_ClockConfig+0x17c>
    }
  }    

  /*-------------------------- PCLK1 Configuration ---------------------------*/ 
  if(((RCC_ClkInitStruct->ClockType) & RCC_CLOCKTYPE_PCLK1) == RCC_CLOCKTYPE_PCLK1)
 80019da:	687b      	ldr	r3, [r7, #4]
 80019dc:	681b      	ldr	r3, [r3, #0]
 80019de:	2204      	movs	r2, #4
 80019e0:	4013      	ands	r3, r2
 80019e2:	d009      	beq.n	80019f8 <HAL_RCC_ClockConfig+0x158>
  {
    assert_param(IS_RCC_PCLK(RCC_ClkInitStruct->APB1CLKDivider));
    MODIFY_REG(RCC->CFGR, RCC_CFGR_PPRE, RCC_ClkInitStruct->APB1CLKDivider);
 80019e4:	4b10      	ldr	r3, [pc, #64]	; (8001a28 <HAL_RCC_ClockConfig+0x188>)
 80019e6:	685b      	ldr	r3, [r3, #4]
 80019e8:	4a11      	ldr	r2, [pc, #68]	; (8001a30 <HAL_RCC_ClockConfig+0x190>)
 80019ea:	4013      	ands	r3, r2
 80019ec:	0019      	movs	r1, r3
 80019ee:	687b      	ldr	r3, [r7, #4]
 80019f0:	68da      	ldr	r2, [r3, #12]
 80019f2:	4b0d      	ldr	r3, [pc, #52]	; (8001a28 <HAL_RCC_ClockConfig+0x188>)
 80019f4:	430a      	orrs	r2, r1
 80019f6:	605a      	str	r2, [r3, #4]
  }
  
  /* Update the SystemCoreClock global variable */
  SystemCoreClock = HAL_RCC_GetSysClockFreq() >> AHBPrescTable[(RCC->CFGR & RCC_CFGR_HPRE)>> RCC_CFGR_HPRE_BITNUMBER];
 80019f8:	f000 f820 	bl	8001a3c <HAL_RCC_GetSysClockFreq>
 80019fc:	0001      	movs	r1, r0
 80019fe:	4b0a      	ldr	r3, [pc, #40]	; (8001a28 <HAL_RCC_ClockConfig+0x188>)
 8001a00:	685b      	ldr	r3, [r3, #4]
 8001a02:	091b      	lsrs	r3, r3, #4
 8001a04:	220f      	movs	r2, #15
 8001a06:	4013      	ands	r3, r2
 8001a08:	4a0a      	ldr	r2, [pc, #40]	; (8001a34 <HAL_RCC_ClockConfig+0x194>)
 8001a0a:	5cd3      	ldrb	r3, [r2, r3]
 8001a0c:	000a      	movs	r2, r1
 8001a0e:	40da      	lsrs	r2, r3
 8001a10:	4b09      	ldr	r3, [pc, #36]	; (8001a38 <HAL_RCC_ClockConfig+0x198>)
 8001a12:	601a      	str	r2, [r3, #0]

  /* Configure the source of time base considering new system clocks settings*/
  HAL_InitTick (TICK_INT_PRIORITY);
 8001a14:	2000      	movs	r0, #0
 8001a16:	f7ff f92b 	bl	8000c70 <HAL_InitTick>
  
  return HAL_OK;
 8001a1a:	2300      	movs	r3, #0
}
 8001a1c:	0018      	movs	r0, r3
 8001a1e:	46bd      	mov	sp, r7
 8001a20:	b004      	add	sp, #16
 8001a22:	bd80      	pop	{r7, pc}
 8001a24:	40022000 	.word	0x40022000
 8001a28:	40021000 	.word	0x40021000
 8001a2c:	00001388 	.word	0x00001388
 8001a30:	fffff8ff 	.word	0xfffff8ff
 8001a34:	0800290c 	.word	0x0800290c
 8001a38:	20000000 	.word	0x20000000

08001a3c <HAL_RCC_GetSysClockFreq>:
  *         right SYSCLK value. Otherwise, any configuration based on this function will be incorrect.
  *         
  * @retval SYSCLK frequency
  */
uint32_t HAL_RCC_GetSysClockFreq(void)
{
 8001a3c:	b590      	push	{r4, r7, lr}
 8001a3e:	b08f      	sub	sp, #60	; 0x3c
 8001a40:	af00      	add	r7, sp, #0
  const uint8_t aPLLMULFactorTable[16] = { 2U,  3U,  4U,  5U,  6U,  7U,  8U,  9U,
 8001a42:	2314      	movs	r3, #20
 8001a44:	18fb      	adds	r3, r7, r3
 8001a46:	4a2b      	ldr	r2, [pc, #172]	; (8001af4 <HAL_RCC_GetSysClockFreq+0xb8>)
 8001a48:	ca13      	ldmia	r2!, {r0, r1, r4}
 8001a4a:	c313      	stmia	r3!, {r0, r1, r4}
 8001a4c:	6812      	ldr	r2, [r2, #0]
 8001a4e:	601a      	str	r2, [r3, #0]
                                         10U, 11U, 12U, 13U, 14U, 15U, 16U, 16U};
  const uint8_t aPredivFactorTable[16] = { 1U, 2U,  3U,  4U,  5U,  6U,  7U,  8U,
 8001a50:	1d3b      	adds	r3, r7, #4
 8001a52:	4a29      	ldr	r2, [pc, #164]	; (8001af8 <HAL_RCC_GetSysClockFreq+0xbc>)
 8001a54:	ca13      	ldmia	r2!, {r0, r1, r4}
 8001a56:	c313      	stmia	r3!, {r0, r1, r4}
 8001a58:	6812      	ldr	r2, [r2, #0]
 8001a5a:	601a      	str	r2, [r3, #0]
                                           9U,10U, 11U, 12U, 13U, 14U, 15U, 16U};

  uint32_t tmpreg = 0U, prediv = 0U, pllclk = 0U, pllmul = 0U;
 8001a5c:	2300      	movs	r3, #0
 8001a5e:	62fb      	str	r3, [r7, #44]	; 0x2c
 8001a60:	2300      	movs	r3, #0
 8001a62:	62bb      	str	r3, [r7, #40]	; 0x28
 8001a64:	2300      	movs	r3, #0
 8001a66:	637b      	str	r3, [r7, #52]	; 0x34
 8001a68:	2300      	movs	r3, #0
 8001a6a:	627b      	str	r3, [r7, #36]	; 0x24
  uint32_t sysclockfreq = 0U;
 8001a6c:	2300      	movs	r3, #0
 8001a6e:	633b      	str	r3, [r7, #48]	; 0x30
  
  tmpreg = RCC->CFGR;
 8001a70:	4b22      	ldr	r3, [pc, #136]	; (8001afc <HAL_RCC_GetSysClockFreq+0xc0>)
 8001a72:	685b      	ldr	r3, [r3, #4]
 8001a74:	62fb      	str	r3, [r7, #44]	; 0x2c
  
  /* Get SYSCLK source -------------------------------------------------------*/
  switch (tmpreg & RCC_CFGR_SWS)
 8001a76:	6afb      	ldr	r3, [r7, #44]	; 0x2c
 8001a78:	220c      	movs	r2, #12
 8001a7a:	4013      	ands	r3, r2
 8001a7c:	2b04      	cmp	r3, #4
 8001a7e:	d002      	beq.n	8001a86 <HAL_RCC_GetSysClockFreq+0x4a>
 8001a80:	2b08      	cmp	r3, #8
 8001a82:	d003      	beq.n	8001a8c <HAL_RCC_GetSysClockFreq+0x50>
 8001a84:	e02d      	b.n	8001ae2 <HAL_RCC_GetSysClockFreq+0xa6>
  {
    case RCC_SYSCLKSOURCE_STATUS_HSE:  /* HSE used as system clock */
    {
      sysclockfreq = HSE_VALUE;
 8001a86:	4b1e      	ldr	r3, [pc, #120]	; (8001b00 <HAL_RCC_GetSysClockFreq+0xc4>)
 8001a88:	633b      	str	r3, [r7, #48]	; 0x30
      break;
 8001a8a:	e02d      	b.n	8001ae8 <HAL_RCC_GetSysClockFreq+0xac>
    }
    case RCC_SYSCLKSOURCE_STATUS_PLLCLK:  /* PLL used as system clock */
    {
      pllmul = aPLLMULFactorTable[(uint32_t)(tmpreg & RCC_CFGR_PLLMUL) >> RCC_CFGR_PLLMUL_BITNUMBER];
 8001a8c:	6afb      	ldr	r3, [r7, #44]	; 0x2c
 8001a8e:	0c9b      	lsrs	r3, r3, #18
 8001a90:	220f      	movs	r2, #15
 8001a92:	4013      	ands	r3, r2
 8001a94:	2214      	movs	r2, #20
 8001a96:	18ba      	adds	r2, r7, r2
 8001a98:	5cd3      	ldrb	r3, [r2, r3]
 8001a9a:	627b      	str	r3, [r7, #36]	; 0x24
      prediv = aPredivFactorTable[(uint32_t)(RCC->CFGR2 & RCC_CFGR2_PREDIV) >> RCC_CFGR2_PREDIV_BITNUMBER];
 8001a9c:	4b17      	ldr	r3, [pc, #92]	; (8001afc <HAL_RCC_GetSysClockFreq+0xc0>)
 8001a9e:	6adb      	ldr	r3, [r3, #44]	; 0x2c
 8001aa0:	220f      	movs	r2, #15
 8001aa2:	4013      	ands	r3, r2
 8001aa4:	1d3a      	adds	r2, r7, #4
 8001aa6:	5cd3      	ldrb	r3, [r2, r3]
 8001aa8:	62bb      	str	r3, [r7, #40]	; 0x28
      if ((tmpreg & RCC_CFGR_PLLSRC) == RCC_PLLSOURCE_HSE)
 8001aaa:	6afa      	ldr	r2, [r7, #44]	; 0x2c
 8001aac:	2380      	movs	r3, #128	; 0x80
 8001aae:	025b      	lsls	r3, r3, #9
 8001ab0:	4013      	ands	r3, r2
 8001ab2:	d009      	beq.n	8001ac8 <HAL_RCC_GetSysClockFreq+0x8c>
      {
        /* HSE used as PLL clock source : PLLCLK = HSE/PREDIV * PLLMUL */
        pllclk = (uint32_t)((uint64_t) HSE_VALUE / (uint64_t) (prediv)) * ((uint64_t) pllmul);
 8001ab4:	6ab9      	ldr	r1, [r7, #40]	; 0x28
 8001ab6:	4812      	ldr	r0, [pc, #72]	; (8001b00 <HAL_RCC_GetSysClockFreq+0xc4>)
 8001ab8:	f7fe fb26 	bl	8000108 <__udivsi3>
 8001abc:	0003      	movs	r3, r0
 8001abe:	001a      	movs	r2, r3
 8001ac0:	6a7b      	ldr	r3, [r7, #36]	; 0x24
 8001ac2:	4353      	muls	r3, r2
 8001ac4:	637b      	str	r3, [r7, #52]	; 0x34
 8001ac6:	e009      	b.n	8001adc <HAL_RCC_GetSysClockFreq+0xa0>
#if  (defined(STM32F042x6) || defined(STM32F048xx) || defined(STM32F070x6) || defined(STM32F071xB) || defined(STM32F072xB) || defined(STM32F078xx) || defined(STM32F070xB) || defined(STM32F091xC) || defined(STM32F098xx) || defined(STM32F030xC))
        /* HSI used as PLL clock source : PLLCLK = HSI/PREDIV * PLLMUL */
        pllclk = (uint32_t)((uint64_t) HSI_VALUE / (uint64_t) (prediv)) * ((uint64_t) pllmul);
#else
        /* HSI used as PLL clock source : PLLCLK = HSI/2 * PLLMUL */
        pllclk = (uint32_t)((uint64_t) (HSI_VALUE >> 1U) * ((uint64_t) pllmul));
 8001ac8:	6a79      	ldr	r1, [r7, #36]	; 0x24
 8001aca:	000a      	movs	r2, r1
 8001acc:	0152      	lsls	r2, r2, #5
 8001ace:	1a52      	subs	r2, r2, r1
 8001ad0:	0193      	lsls	r3, r2, #6
 8001ad2:	1a9b      	subs	r3, r3, r2
 8001ad4:	00db      	lsls	r3, r3, #3
 8001ad6:	185b      	adds	r3, r3, r1
 8001ad8:	021b      	lsls	r3, r3, #8
 8001ada:	637b      	str	r3, [r7, #52]	; 0x34
#endif
      }
      sysclockfreq = pllclk;
 8001adc:	6b7b      	ldr	r3, [r7, #52]	; 0x34
 8001ade:	633b      	str	r3, [r7, #48]	; 0x30
      break;
 8001ae0:	e002      	b.n	8001ae8 <HAL_RCC_GetSysClockFreq+0xac>
    }
#endif /* RCC_CFGR_SWS_HSI48 */
    case RCC_SYSCLKSOURCE_STATUS_HSI:  /* HSI used as system clock source */
    default: /* HSI used as system clock */
    {
      sysclockfreq = HSI_VALUE;
 8001ae2:	4b07      	ldr	r3, [pc, #28]	; (8001b00 <HAL_RCC_GetSysClockFreq+0xc4>)
 8001ae4:	633b      	str	r3, [r7, #48]	; 0x30
      break;
 8001ae6:	46c0      	nop			; (mov r8, r8)
    }
  }
  return sysclockfreq;
 8001ae8:	6b3b      	ldr	r3, [r7, #48]	; 0x30
}
 8001aea:	0018      	movs	r0, r3
 8001aec:	46bd      	mov	sp, r7
 8001aee:	b00f      	add	sp, #60	; 0x3c
 8001af0:	bd90      	pop	{r4, r7, pc}
 8001af2:	46c0      	nop			; (mov r8, r8)
 8001af4:	080028ec 	.word	0x080028ec
 8001af8:	080028fc 	.word	0x080028fc
 8001afc:	40021000 	.word	0x40021000
 8001b00:	007a1200 	.word	0x007a1200

08001b04 <HAL_TIM_Base_Init>:
  *         Ex: call @ref HAL_TIM_Base_DeInit() before HAL_TIM_Base_Init()
  * @param  htim TIM Base handle
  * @retval HAL status
  */
HAL_StatusTypeDef HAL_TIM_Base_Init(TIM_HandleTypeDef *htim)
{
 8001b04:	b580      	push	{r7, lr}
 8001b06:	b082      	sub	sp, #8
 8001b08:	af00      	add	r7, sp, #0
 8001b0a:	6078      	str	r0, [r7, #4]
  /* Check the TIM handle allocation */
  if (htim == NULL)
 8001b0c:	687b      	ldr	r3, [r7, #4]
 8001b0e:	2b00      	cmp	r3, #0
 8001b10:	d101      	bne.n	8001b16 <HAL_TIM_Base_Init+0x12>
  {
    return HAL_ERROR;
 8001b12:	2301      	movs	r3, #1
 8001b14:	e01e      	b.n	8001b54 <HAL_TIM_Base_Init+0x50>
  assert_param(IS_TIM_INSTANCE(htim->Instance));
  assert_param(IS_TIM_COUNTER_MODE(htim->Init.CounterMode));
  assert_param(IS_TIM_CLOCKDIVISION_DIV(htim->Init.ClockDivision));
  assert_param(IS_TIM_AUTORELOAD_PRELOAD(htim->Init.AutoReloadPreload));

  if (htim->State == HAL_TIM_STATE_RESET)
 8001b16:	687b      	ldr	r3, [r7, #4]
 8001b18:	223d      	movs	r2, #61	; 0x3d
 8001b1a:	5c9b      	ldrb	r3, [r3, r2]
 8001b1c:	b2db      	uxtb	r3, r3
 8001b1e:	2b00      	cmp	r3, #0
 8001b20:	d107      	bne.n	8001b32 <HAL_TIM_Base_Init+0x2e>
  {
    /* Allocate lock resource and initialize it */
    htim->Lock = HAL_UNLOCKED;
 8001b22:	687b      	ldr	r3, [r7, #4]
 8001b24:	223c      	movs	r2, #60	; 0x3c
 8001b26:	2100      	movs	r1, #0
 8001b28:	5499      	strb	r1, [r3, r2]
    }
    /* Init the low level hardware : GPIO, CLOCK, NVIC */
    htim->Base_MspInitCallback(htim);
#else
    /* Init the low level hardware : GPIO, CLOCK, NVIC */
    HAL_TIM_Base_MspInit(htim);
 8001b2a:	687b      	ldr	r3, [r7, #4]
 8001b2c:	0018      	movs	r0, r3
 8001b2e:	f7fe ffbd 	bl	8000aac <HAL_TIM_Base_MspInit>
#endif /* USE_HAL_TIM_REGISTER_CALLBACKS */
  }

  /* Set the TIM state */
  htim->State = HAL_TIM_STATE_BUSY;
 8001b32:	687b      	ldr	r3, [r7, #4]
 8001b34:	223d      	movs	r2, #61	; 0x3d
 8001b36:	2102      	movs	r1, #2
 8001b38:	5499      	strb	r1, [r3, r2]

  /* Set the Time Base configuration */
  TIM_Base_SetConfig(htim->Instance, &htim->Init);
 8001b3a:	687b      	ldr	r3, [r7, #4]
 8001b3c:	681a      	ldr	r2, [r3, #0]
 8001b3e:	687b      	ldr	r3, [r7, #4]
 8001b40:	3304      	adds	r3, #4
 8001b42:	0019      	movs	r1, r3
 8001b44:	0010      	movs	r0, r2
 8001b46:	f000 fb2d 	bl	80021a4 <TIM_Base_SetConfig>

  /* Initialize the TIM state*/
  htim->State = HAL_TIM_STATE_READY;
 8001b4a:	687b      	ldr	r3, [r7, #4]
 8001b4c:	223d      	movs	r2, #61	; 0x3d
 8001b4e:	2101      	movs	r1, #1
 8001b50:	5499      	strb	r1, [r3, r2]

  return HAL_OK;
 8001b52:	2300      	movs	r3, #0
}
 8001b54:	0018      	movs	r0, r3
 8001b56:	46bd      	mov	sp, r7
 8001b58:	b002      	add	sp, #8
 8001b5a:	bd80      	pop	{r7, pc}

08001b5c <HAL_TIM_Base_Start>:
  * @brief  Starts the TIM Base generation.
  * @param  htim TIM Base handle
  * @retval HAL status
  */
HAL_StatusTypeDef HAL_TIM_Base_Start(TIM_HandleTypeDef *htim)
{
 8001b5c:	b580      	push	{r7, lr}
 8001b5e:	b084      	sub	sp, #16
 8001b60:	af00      	add	r7, sp, #0
 8001b62:	6078      	str	r0, [r7, #4]

  /* Check the parameters */
  assert_param(IS_TIM_INSTANCE(htim->Instance));

  /* Set the TIM state */
  htim->State = HAL_TIM_STATE_BUSY;
 8001b64:	687b      	ldr	r3, [r7, #4]
 8001b66:	223d      	movs	r2, #61	; 0x3d
 8001b68:	2102      	movs	r1, #2
 8001b6a:	5499      	strb	r1, [r3, r2]

  /* Enable the Peripheral, except in trigger mode where enable is automatically done with trigger */
  tmpsmcr = htim->Instance->SMCR & TIM_SMCR_SMS;
 8001b6c:	687b      	ldr	r3, [r7, #4]
 8001b6e:	681b      	ldr	r3, [r3, #0]
 8001b70:	689b      	ldr	r3, [r3, #8]
 8001b72:	2207      	movs	r2, #7
 8001b74:	4013      	ands	r3, r2
 8001b76:	60fb      	str	r3, [r7, #12]
  if (!IS_TIM_SLAVEMODE_TRIGGER_ENABLED(tmpsmcr))
 8001b78:	68fb      	ldr	r3, [r7, #12]
 8001b7a:	2b06      	cmp	r3, #6
 8001b7c:	d007      	beq.n	8001b8e <HAL_TIM_Base_Start+0x32>
  {
    __HAL_TIM_ENABLE(htim);
 8001b7e:	687b      	ldr	r3, [r7, #4]
 8001b80:	681b      	ldr	r3, [r3, #0]
 8001b82:	681a      	ldr	r2, [r3, #0]
 8001b84:	687b      	ldr	r3, [r7, #4]
 8001b86:	681b      	ldr	r3, [r3, #0]
 8001b88:	2101      	movs	r1, #1
 8001b8a:	430a      	orrs	r2, r1
 8001b8c:	601a      	str	r2, [r3, #0]
  }

  /* Change the TIM state*/
  htim->State = HAL_TIM_STATE_READY;
 8001b8e:	687b      	ldr	r3, [r7, #4]
 8001b90:	223d      	movs	r2, #61	; 0x3d
 8001b92:	2101      	movs	r1, #1
 8001b94:	5499      	strb	r1, [r3, r2]

  /* Return function status */
  return HAL_OK;
 8001b96:	2300      	movs	r3, #0
}
 8001b98:	0018      	movs	r0, r3
 8001b9a:	46bd      	mov	sp, r7
 8001b9c:	b004      	add	sp, #16
 8001b9e:	bd80      	pop	{r7, pc}

08001ba0 <HAL_TIM_PWM_Init>:
  *         Ex: call @ref HAL_TIM_PWM_DeInit() before HAL_TIM_PWM_Init()
  * @param  htim TIM PWM handle
  * @retval HAL status
  */
HAL_StatusTypeDef HAL_TIM_PWM_Init(TIM_HandleTypeDef *htim)
{
 8001ba0:	b580      	push	{r7, lr}
 8001ba2:	b082      	sub	sp, #8
 8001ba4:	af00      	add	r7, sp, #0
 8001ba6:	6078      	str	r0, [r7, #4]
  /* Check the TIM handle allocation */
  if (htim == NULL)
 8001ba8:	687b      	ldr	r3, [r7, #4]
 8001baa:	2b00      	cmp	r3, #0
 8001bac:	d101      	bne.n	8001bb2 <HAL_TIM_PWM_Init+0x12>
  {
    return HAL_ERROR;
 8001bae:	2301      	movs	r3, #1
 8001bb0:	e01e      	b.n	8001bf0 <HAL_TIM_PWM_Init+0x50>
  assert_param(IS_TIM_INSTANCE(htim->Instance));
  assert_param(IS_TIM_COUNTER_MODE(htim->Init.CounterMode));
  assert_param(IS_TIM_CLOCKDIVISION_DIV(htim->Init.ClockDivision));
  assert_param(IS_TIM_AUTORELOAD_PRELOAD(htim->Init.AutoReloadPreload));

  if (htim->State == HAL_TIM_STATE_RESET)
 8001bb2:	687b      	ldr	r3, [r7, #4]
 8001bb4:	223d      	movs	r2, #61	; 0x3d
 8001bb6:	5c9b      	ldrb	r3, [r3, r2]
 8001bb8:	b2db      	uxtb	r3, r3
 8001bba:	2b00      	cmp	r3, #0
 8001bbc:	d107      	bne.n	8001bce <HAL_TIM_PWM_Init+0x2e>
  {
    /* Allocate lock resource and initialize it */
    htim->Lock = HAL_UNLOCKED;
 8001bbe:	687b      	ldr	r3, [r7, #4]
 8001bc0:	223c      	movs	r2, #60	; 0x3c
 8001bc2:	2100      	movs	r1, #0
 8001bc4:	5499      	strb	r1, [r3, r2]
    }
    /* Init the low level hardware : GPIO, CLOCK, NVIC */
    htim->PWM_MspInitCallback(htim);
#else
    /* Init the low level hardware : GPIO, CLOCK, NVIC and DMA */
    HAL_TIM_PWM_MspInit(htim);
 8001bc6:	687b      	ldr	r3, [r7, #4]
 8001bc8:	0018      	movs	r0, r3
 8001bca:	f7fe fed5 	bl	8000978 <HAL_TIM_PWM_MspInit>
#endif /* USE_HAL_TIM_REGISTER_CALLBACKS */
  }

  /* Set the TIM state */
  htim->State = HAL_TIM_STATE_BUSY;
 8001bce:	687b      	ldr	r3, [r7, #4]
 8001bd0:	223d      	movs	r2, #61	; 0x3d
 8001bd2:	2102      	movs	r1, #2
 8001bd4:	5499      	strb	r1, [r3, r2]

  /* Init the base time for the PWM */
  TIM_Base_SetConfig(htim->Instance, &htim->Init);
 8001bd6:	687b      	ldr	r3, [r7, #4]
 8001bd8:	681a      	ldr	r2, [r3, #0]
 8001bda:	687b      	ldr	r3, [r7, #4]
 8001bdc:	3304      	adds	r3, #4
 8001bde:	0019      	movs	r1, r3
 8001be0:	0010      	movs	r0, r2
 8001be2:	f000 fadf 	bl	80021a4 <TIM_Base_SetConfig>

  /* Initialize the TIM state*/
  htim->State = HAL_TIM_STATE_READY;
 8001be6:	687b      	ldr	r3, [r7, #4]
 8001be8:	223d      	movs	r2, #61	; 0x3d
 8001bea:	2101      	movs	r1, #1
 8001bec:	5499      	strb	r1, [r3, r2]

  return HAL_OK;
 8001bee:	2300      	movs	r3, #0
}
 8001bf0:	0018      	movs	r0, r3
 8001bf2:	46bd      	mov	sp, r7
 8001bf4:	b002      	add	sp, #8
 8001bf6:	bd80      	pop	{r7, pc}

08001bf8 <HAL_TIM_PWM_Start>:
  *            @arg TIM_CHANNEL_3: TIM Channel 3 selected
  *            @arg TIM_CHANNEL_4: TIM Channel 4 selected
  * @retval HAL status
  */
HAL_StatusTypeDef HAL_TIM_PWM_Start(TIM_HandleTypeDef *htim, uint32_t Channel)
{
 8001bf8:	b580      	push	{r7, lr}
 8001bfa:	b084      	sub	sp, #16
 8001bfc:	af00      	add	r7, sp, #0
 8001bfe:	6078      	str	r0, [r7, #4]
 8001c00:	6039      	str	r1, [r7, #0]

  /* Check the parameters */
  assert_param(IS_TIM_CCX_INSTANCE(htim->Instance, Channel));

  /* Enable the Capture compare channel */
  TIM_CCxChannelCmd(htim->Instance, Channel, TIM_CCx_ENABLE);
 8001c02:	687b      	ldr	r3, [r7, #4]
 8001c04:	681b      	ldr	r3, [r3, #0]
 8001c06:	6839      	ldr	r1, [r7, #0]
 8001c08:	2201      	movs	r2, #1
 8001c0a:	0018      	movs	r0, r3
 8001c0c:	f000 fd46 	bl	800269c <TIM_CCxChannelCmd>

  if (IS_TIM_BREAK_INSTANCE(htim->Instance) != RESET)
 8001c10:	687b      	ldr	r3, [r7, #4]
 8001c12:	681b      	ldr	r3, [r3, #0]
 8001c14:	4a1a      	ldr	r2, [pc, #104]	; (8001c80 <HAL_TIM_PWM_Start+0x88>)
 8001c16:	4293      	cmp	r3, r2
 8001c18:	d00e      	beq.n	8001c38 <HAL_TIM_PWM_Start+0x40>
 8001c1a:	687b      	ldr	r3, [r7, #4]
 8001c1c:	681b      	ldr	r3, [r3, #0]
 8001c1e:	4a19      	ldr	r2, [pc, #100]	; (8001c84 <HAL_TIM_PWM_Start+0x8c>)
 8001c20:	4293      	cmp	r3, r2
 8001c22:	d009      	beq.n	8001c38 <HAL_TIM_PWM_Start+0x40>
 8001c24:	687b      	ldr	r3, [r7, #4]
 8001c26:	681b      	ldr	r3, [r3, #0]
 8001c28:	4a17      	ldr	r2, [pc, #92]	; (8001c88 <HAL_TIM_PWM_Start+0x90>)
 8001c2a:	4293      	cmp	r3, r2
 8001c2c:	d004      	beq.n	8001c38 <HAL_TIM_PWM_Start+0x40>
 8001c2e:	687b      	ldr	r3, [r7, #4]
 8001c30:	681b      	ldr	r3, [r3, #0]
 8001c32:	4a16      	ldr	r2, [pc, #88]	; (8001c8c <HAL_TIM_PWM_Start+0x94>)
 8001c34:	4293      	cmp	r3, r2
 8001c36:	d101      	bne.n	8001c3c <HAL_TIM_PWM_Start+0x44>
 8001c38:	2301      	movs	r3, #1
 8001c3a:	e000      	b.n	8001c3e <HAL_TIM_PWM_Start+0x46>
 8001c3c:	2300      	movs	r3, #0
 8001c3e:	2b00      	cmp	r3, #0
 8001c40:	d008      	beq.n	8001c54 <HAL_TIM_PWM_Start+0x5c>
  {
    /* Enable the main output */
    __HAL_TIM_MOE_ENABLE(htim);
 8001c42:	687b      	ldr	r3, [r7, #4]
 8001c44:	681b      	ldr	r3, [r3, #0]
 8001c46:	6c5a      	ldr	r2, [r3, #68]	; 0x44
 8001c48:	687b      	ldr	r3, [r7, #4]
 8001c4a:	681b      	ldr	r3, [r3, #0]
 8001c4c:	2180      	movs	r1, #128	; 0x80
 8001c4e:	0209      	lsls	r1, r1, #8
 8001c50:	430a      	orrs	r2, r1
 8001c52:	645a      	str	r2, [r3, #68]	; 0x44
  }

  /* Enable the Peripheral, except in trigger mode where enable is automatically done with trigger */
  tmpsmcr = htim->Instance->SMCR & TIM_SMCR_SMS;
 8001c54:	687b      	ldr	r3, [r7, #4]
 8001c56:	681b      	ldr	r3, [r3, #0]
 8001c58:	689b      	ldr	r3, [r3, #8]
 8001c5a:	2207      	movs	r2, #7
 8001c5c:	4013      	ands	r3, r2
 8001c5e:	60fb      	str	r3, [r7, #12]
  if (!IS_TIM_SLAVEMODE_TRIGGER_ENABLED(tmpsmcr))
 8001c60:	68fb      	ldr	r3, [r7, #12]
 8001c62:	2b06      	cmp	r3, #6
 8001c64:	d007      	beq.n	8001c76 <HAL_TIM_PWM_Start+0x7e>
  {
    __HAL_TIM_ENABLE(htim);
 8001c66:	687b      	ldr	r3, [r7, #4]
 8001c68:	681b      	ldr	r3, [r3, #0]
 8001c6a:	681a      	ldr	r2, [r3, #0]
 8001c6c:	687b      	ldr	r3, [r7, #4]
 8001c6e:	681b      	ldr	r3, [r3, #0]
 8001c70:	2101      	movs	r1, #1
 8001c72:	430a      	orrs	r2, r1
 8001c74:	601a      	str	r2, [r3, #0]
  }

  /* Return function status */
  return HAL_OK;
 8001c76:	2300      	movs	r3, #0
}
 8001c78:	0018      	movs	r0, r3
 8001c7a:	46bd      	mov	sp, r7
 8001c7c:	b004      	add	sp, #16
 8001c7e:	bd80      	pop	{r7, pc}
 8001c80:	40012c00 	.word	0x40012c00
 8001c84:	40014000 	.word	0x40014000
 8001c88:	40014400 	.word	0x40014400
 8001c8c:	40014800 	.word	0x40014800

08001c90 <HAL_TIM_Encoder_Init>:
  * @param  htim TIM Encoder Interface handle
  * @param  sConfig TIM Encoder Interface configuration structure
  * @retval HAL status
  */
HAL_StatusTypeDef HAL_TIM_Encoder_Init(TIM_HandleTypeDef *htim,  TIM_Encoder_InitTypeDef *sConfig)
{
 8001c90:	b580      	push	{r7, lr}
 8001c92:	b086      	sub	sp, #24
 8001c94:	af00      	add	r7, sp, #0
 8001c96:	6078      	str	r0, [r7, #4]
 8001c98:	6039      	str	r1, [r7, #0]
  uint32_t tmpsmcr;
  uint32_t tmpccmr1;
  uint32_t tmpccer;

  /* Check the TIM handle allocation */
  if (htim == NULL)
 8001c9a:	687b      	ldr	r3, [r7, #4]
 8001c9c:	2b00      	cmp	r3, #0
 8001c9e:	d101      	bne.n	8001ca4 <HAL_TIM_Encoder_Init+0x14>
  {
    return HAL_ERROR;
 8001ca0:	2301      	movs	r3, #1
 8001ca2:	e07c      	b.n	8001d9e <HAL_TIM_Encoder_Init+0x10e>
  assert_param(IS_TIM_IC_PRESCALER(sConfig->IC1Prescaler));
  assert_param(IS_TIM_IC_PRESCALER(sConfig->IC2Prescaler));
  assert_param(IS_TIM_IC_FILTER(sConfig->IC1Filter));
  assert_param(IS_TIM_IC_FILTER(sConfig->IC2Filter));

  if (htim->State == HAL_TIM_STATE_RESET)
 8001ca4:	687b      	ldr	r3, [r7, #4]
 8001ca6:	223d      	movs	r2, #61	; 0x3d
 8001ca8:	5c9b      	ldrb	r3, [r3, r2]
 8001caa:	b2db      	uxtb	r3, r3
 8001cac:	2b00      	cmp	r3, #0
 8001cae:	d107      	bne.n	8001cc0 <HAL_TIM_Encoder_Init+0x30>
  {
    /* Allocate lock resource and initialize it */
    htim->Lock = HAL_UNLOCKED;
 8001cb0:	687b      	ldr	r3, [r7, #4]
 8001cb2:	223c      	movs	r2, #60	; 0x3c
 8001cb4:	2100      	movs	r1, #0
 8001cb6:	5499      	strb	r1, [r3, r2]
    }
    /* Init the low level hardware : GPIO, CLOCK, NVIC */
    htim->Encoder_MspInitCallback(htim);
#else
    /* Init the low level hardware : GPIO, CLOCK, NVIC and DMA */
    HAL_TIM_Encoder_MspInit(htim);
 8001cb8:	687b      	ldr	r3, [r7, #4]
 8001cba:	0018      	movs	r0, r3
 8001cbc:	f7fe fe7c 	bl	80009b8 <HAL_TIM_Encoder_MspInit>
#endif /* USE_HAL_TIM_REGISTER_CALLBACKS */
  }

  /* Set the TIM state */
  htim->State = HAL_TIM_STATE_BUSY;
 8001cc0:	687b      	ldr	r3, [r7, #4]
 8001cc2:	223d      	movs	r2, #61	; 0x3d
 8001cc4:	2102      	movs	r1, #2
 8001cc6:	5499      	strb	r1, [r3, r2]

  /* Reset the SMS and ECE bits */
  htim->Instance->SMCR &= ~(TIM_SMCR_SMS | TIM_SMCR_ECE);
 8001cc8:	687b      	ldr	r3, [r7, #4]
 8001cca:	681b      	ldr	r3, [r3, #0]
 8001ccc:	689a      	ldr	r2, [r3, #8]
 8001cce:	687b      	ldr	r3, [r7, #4]
 8001cd0:	681b      	ldr	r3, [r3, #0]
 8001cd2:	4935      	ldr	r1, [pc, #212]	; (8001da8 <HAL_TIM_Encoder_Init+0x118>)
 8001cd4:	400a      	ands	r2, r1
 8001cd6:	609a      	str	r2, [r3, #8]

  /* Configure the Time base in the Encoder Mode */
  TIM_Base_SetConfig(htim->Instance, &htim->Init);
 8001cd8:	687b      	ldr	r3, [r7, #4]
 8001cda:	681a      	ldr	r2, [r3, #0]
 8001cdc:	687b      	ldr	r3, [r7, #4]
 8001cde:	3304      	adds	r3, #4
 8001ce0:	0019      	movs	r1, r3
 8001ce2:	0010      	movs	r0, r2
 8001ce4:	f000 fa5e 	bl	80021a4 <TIM_Base_SetConfig>

  /* Get the TIMx SMCR register value */
  tmpsmcr = htim->Instance->SMCR;
 8001ce8:	687b      	ldr	r3, [r7, #4]
 8001cea:	681b      	ldr	r3, [r3, #0]
 8001cec:	689b      	ldr	r3, [r3, #8]
 8001cee:	617b      	str	r3, [r7, #20]

  /* Get the TIMx CCMR1 register value */
  tmpccmr1 = htim->Instance->CCMR1;
 8001cf0:	687b      	ldr	r3, [r7, #4]
 8001cf2:	681b      	ldr	r3, [r3, #0]
 8001cf4:	699b      	ldr	r3, [r3, #24]
 8001cf6:	613b      	str	r3, [r7, #16]

  /* Get the TIMx CCER register value */
  tmpccer = htim->Instance->CCER;
 8001cf8:	687b      	ldr	r3, [r7, #4]
 8001cfa:	681b      	ldr	r3, [r3, #0]
 8001cfc:	6a1b      	ldr	r3, [r3, #32]
 8001cfe:	60fb      	str	r3, [r7, #12]

  /* Set the encoder Mode */
  tmpsmcr |= sConfig->EncoderMode;
 8001d00:	683b      	ldr	r3, [r7, #0]
 8001d02:	681b      	ldr	r3, [r3, #0]
 8001d04:	697a      	ldr	r2, [r7, #20]
 8001d06:	4313      	orrs	r3, r2
 8001d08:	617b      	str	r3, [r7, #20]

  /* Select the Capture Compare 1 and the Capture Compare 2 as input */
  tmpccmr1 &= ~(TIM_CCMR1_CC1S | TIM_CCMR1_CC2S);
 8001d0a:	693b      	ldr	r3, [r7, #16]
 8001d0c:	4a27      	ldr	r2, [pc, #156]	; (8001dac <HAL_TIM_Encoder_Init+0x11c>)
 8001d0e:	4013      	ands	r3, r2
 8001d10:	613b      	str	r3, [r7, #16]
  tmpccmr1 |= (sConfig->IC1Selection | (sConfig->IC2Selection << 8U));
 8001d12:	683b      	ldr	r3, [r7, #0]
 8001d14:	689a      	ldr	r2, [r3, #8]
 8001d16:	683b      	ldr	r3, [r7, #0]
 8001d18:	699b      	ldr	r3, [r3, #24]
 8001d1a:	021b      	lsls	r3, r3, #8
 8001d1c:	4313      	orrs	r3, r2
 8001d1e:	693a      	ldr	r2, [r7, #16]
 8001d20:	4313      	orrs	r3, r2
 8001d22:	613b      	str	r3, [r7, #16]

  /* Set the Capture Compare 1 and the Capture Compare 2 prescalers and filters */
  tmpccmr1 &= ~(TIM_CCMR1_IC1PSC | TIM_CCMR1_IC2PSC);
 8001d24:	693b      	ldr	r3, [r7, #16]
 8001d26:	4a22      	ldr	r2, [pc, #136]	; (8001db0 <HAL_TIM_Encoder_Init+0x120>)
 8001d28:	4013      	ands	r3, r2
 8001d2a:	613b      	str	r3, [r7, #16]
  tmpccmr1 &= ~(TIM_CCMR1_IC1F | TIM_CCMR1_IC2F);
 8001d2c:	693b      	ldr	r3, [r7, #16]
 8001d2e:	4a21      	ldr	r2, [pc, #132]	; (8001db4 <HAL_TIM_Encoder_Init+0x124>)
 8001d30:	4013      	ands	r3, r2
 8001d32:	613b      	str	r3, [r7, #16]
  tmpccmr1 |= sConfig->IC1Prescaler | (sConfig->IC2Prescaler << 8U);
 8001d34:	683b      	ldr	r3, [r7, #0]
 8001d36:	68da      	ldr	r2, [r3, #12]
 8001d38:	683b      	ldr	r3, [r7, #0]
 8001d3a:	69db      	ldr	r3, [r3, #28]
 8001d3c:	021b      	lsls	r3, r3, #8
 8001d3e:	4313      	orrs	r3, r2
 8001d40:	693a      	ldr	r2, [r7, #16]
 8001d42:	4313      	orrs	r3, r2
 8001d44:	613b      	str	r3, [r7, #16]
  tmpccmr1 |= (sConfig->IC1Filter << 4U) | (sConfig->IC2Filter << 12U);
 8001d46:	683b      	ldr	r3, [r7, #0]
 8001d48:	691b      	ldr	r3, [r3, #16]
 8001d4a:	011a      	lsls	r2, r3, #4
 8001d4c:	683b      	ldr	r3, [r7, #0]
 8001d4e:	6a1b      	ldr	r3, [r3, #32]
 8001d50:	031b      	lsls	r3, r3, #12
 8001d52:	4313      	orrs	r3, r2
 8001d54:	693a      	ldr	r2, [r7, #16]
 8001d56:	4313      	orrs	r3, r2
 8001d58:	613b      	str	r3, [r7, #16]

  /* Set the TI1 and the TI2 Polarities */
  tmpccer &= ~(TIM_CCER_CC1P | TIM_CCER_CC2P);
 8001d5a:	68fb      	ldr	r3, [r7, #12]
 8001d5c:	2222      	movs	r2, #34	; 0x22
 8001d5e:	4393      	bics	r3, r2
 8001d60:	60fb      	str	r3, [r7, #12]
  tmpccer &= ~(TIM_CCER_CC1NP | TIM_CCER_CC2NP);
 8001d62:	68fb      	ldr	r3, [r7, #12]
 8001d64:	2288      	movs	r2, #136	; 0x88
 8001d66:	4393      	bics	r3, r2
 8001d68:	60fb      	str	r3, [r7, #12]
  tmpccer |= sConfig->IC1Polarity | (sConfig->IC2Polarity << 4U);
 8001d6a:	683b      	ldr	r3, [r7, #0]
 8001d6c:	685a      	ldr	r2, [r3, #4]
 8001d6e:	683b      	ldr	r3, [r7, #0]
 8001d70:	695b      	ldr	r3, [r3, #20]
 8001d72:	011b      	lsls	r3, r3, #4
 8001d74:	4313      	orrs	r3, r2
 8001d76:	68fa      	ldr	r2, [r7, #12]
 8001d78:	4313      	orrs	r3, r2
 8001d7a:	60fb      	str	r3, [r7, #12]

  /* Write to TIMx SMCR */
  htim->Instance->SMCR = tmpsmcr;
 8001d7c:	687b      	ldr	r3, [r7, #4]
 8001d7e:	681b      	ldr	r3, [r3, #0]
 8001d80:	697a      	ldr	r2, [r7, #20]
 8001d82:	609a      	str	r2, [r3, #8]

  /* Write to TIMx CCMR1 */
  htim->Instance->CCMR1 = tmpccmr1;
 8001d84:	687b      	ldr	r3, [r7, #4]
 8001d86:	681b      	ldr	r3, [r3, #0]
 8001d88:	693a      	ldr	r2, [r7, #16]
 8001d8a:	619a      	str	r2, [r3, #24]

  /* Write to TIMx CCER */
  htim->Instance->CCER = tmpccer;
 8001d8c:	687b      	ldr	r3, [r7, #4]
 8001d8e:	681b      	ldr	r3, [r3, #0]
 8001d90:	68fa      	ldr	r2, [r7, #12]
 8001d92:	621a      	str	r2, [r3, #32]

  /* Initialize the TIM state*/
  htim->State = HAL_TIM_STATE_READY;
 8001d94:	687b      	ldr	r3, [r7, #4]
 8001d96:	223d      	movs	r2, #61	; 0x3d
 8001d98:	2101      	movs	r1, #1
 8001d9a:	5499      	strb	r1, [r3, r2]

  return HAL_OK;
 8001d9c:	2300      	movs	r3, #0
}
 8001d9e:	0018      	movs	r0, r3
 8001da0:	46bd      	mov	sp, r7
 8001da2:	b006      	add	sp, #24
 8001da4:	bd80      	pop	{r7, pc}
 8001da6:	46c0      	nop			; (mov r8, r8)
 8001da8:	ffffbff8 	.word	0xffffbff8
 8001dac:	fffffcfc 	.word	0xfffffcfc
 8001db0:	fffff3f3 	.word	0xfffff3f3
 8001db4:	ffff0f0f 	.word	0xffff0f0f

08001db8 <HAL_TIM_IRQHandler>:
  * @brief  This function handles TIM interrupts requests.
  * @param  htim TIM  handle
  * @retval None
  */
void HAL_TIM_IRQHandler(TIM_HandleTypeDef *htim)
{
 8001db8:	b580      	push	{r7, lr}
 8001dba:	b082      	sub	sp, #8
 8001dbc:	af00      	add	r7, sp, #0
 8001dbe:	6078      	str	r0, [r7, #4]
  /* Capture compare 1 event */
  if (__HAL_TIM_GET_FLAG(htim, TIM_FLAG_CC1) != RESET)
 8001dc0:	687b      	ldr	r3, [r7, #4]
 8001dc2:	681b      	ldr	r3, [r3, #0]
 8001dc4:	691b      	ldr	r3, [r3, #16]
 8001dc6:	2202      	movs	r2, #2
 8001dc8:	4013      	ands	r3, r2
 8001dca:	2b02      	cmp	r3, #2
 8001dcc:	d124      	bne.n	8001e18 <HAL_TIM_IRQHandler+0x60>
  {
    if (__HAL_TIM_GET_IT_SOURCE(htim, TIM_IT_CC1) != RESET)
 8001dce:	687b      	ldr	r3, [r7, #4]
 8001dd0:	681b      	ldr	r3, [r3, #0]
 8001dd2:	68db      	ldr	r3, [r3, #12]
 8001dd4:	2202      	movs	r2, #2
 8001dd6:	4013      	ands	r3, r2
 8001dd8:	2b02      	cmp	r3, #2
 8001dda:	d11d      	bne.n	8001e18 <HAL_TIM_IRQHandler+0x60>
    {
      {
        __HAL_TIM_CLEAR_IT(htim, TIM_IT_CC1);
 8001ddc:	687b      	ldr	r3, [r7, #4]
 8001dde:	681b      	ldr	r3, [r3, #0]
 8001de0:	2203      	movs	r2, #3
 8001de2:	4252      	negs	r2, r2
 8001de4:	611a      	str	r2, [r3, #16]
        htim->Channel = HAL_TIM_ACTIVE_CHANNEL_1;
 8001de6:	687b      	ldr	r3, [r7, #4]
 8001de8:	2201      	movs	r2, #1
 8001dea:	771a      	strb	r2, [r3, #28]

        /* Input capture event */
        if ((htim->Instance->CCMR1 & TIM_CCMR1_CC1S) != 0x00U)
 8001dec:	687b      	ldr	r3, [r7, #4]
 8001dee:	681b      	ldr	r3, [r3, #0]
 8001df0:	699b      	ldr	r3, [r3, #24]
 8001df2:	2203      	movs	r2, #3
 8001df4:	4013      	ands	r3, r2
 8001df6:	d004      	beq.n	8001e02 <HAL_TIM_IRQHandler+0x4a>
        {
#if (USE_HAL_TIM_REGISTER_CALLBACKS == 1)
          htim->IC_CaptureCallback(htim);
#else
          HAL_TIM_IC_CaptureCallback(htim);
 8001df8:	687b      	ldr	r3, [r7, #4]
 8001dfa:	0018      	movs	r0, r3
 8001dfc:	f000 f9ba 	bl	8002174 <HAL_TIM_IC_CaptureCallback>
 8001e00:	e007      	b.n	8001e12 <HAL_TIM_IRQHandler+0x5a>
        {
#if (USE_HAL_TIM_REGISTER_CALLBACKS == 1)
          htim->OC_DelayElapsedCallback(htim);
          htim->PWM_PulseFinishedCallback(htim);
#else
          HAL_TIM_OC_DelayElapsedCallback(htim);
 8001e02:	687b      	ldr	r3, [r7, #4]
 8001e04:	0018      	movs	r0, r3
 8001e06:	f000 f9ad 	bl	8002164 <HAL_TIM_OC_DelayElapsedCallback>
          HAL_TIM_PWM_PulseFinishedCallback(htim);
 8001e0a:	687b      	ldr	r3, [r7, #4]
 8001e0c:	0018      	movs	r0, r3
 8001e0e:	f000 f9b9 	bl	8002184 <HAL_TIM_PWM_PulseFinishedCallback>
#endif /* USE_HAL_TIM_REGISTER_CALLBACKS */
        }
        htim->Channel = HAL_TIM_ACTIVE_CHANNEL_CLEARED;
 8001e12:	687b      	ldr	r3, [r7, #4]
 8001e14:	2200      	movs	r2, #0
 8001e16:	771a      	strb	r2, [r3, #28]
      }
    }
  }
  /* Capture compare 2 event */
  if (__HAL_TIM_GET_FLAG(htim, TIM_FLAG_CC2) != RESET)
 8001e18:	687b      	ldr	r3, [r7, #4]
 8001e1a:	681b      	ldr	r3, [r3, #0]
 8001e1c:	691b      	ldr	r3, [r3, #16]
 8001e1e:	2204      	movs	r2, #4
 8001e20:	4013      	ands	r3, r2
 8001e22:	2b04      	cmp	r3, #4
 8001e24:	d125      	bne.n	8001e72 <HAL_TIM_IRQHandler+0xba>
  {
    if (__HAL_TIM_GET_IT_SOURCE(htim, TIM_IT_CC2) != RESET)
 8001e26:	687b      	ldr	r3, [r7, #4]
 8001e28:	681b      	ldr	r3, [r3, #0]
 8001e2a:	68db      	ldr	r3, [r3, #12]
 8001e2c:	2204      	movs	r2, #4
 8001e2e:	4013      	ands	r3, r2
 8001e30:	2b04      	cmp	r3, #4
 8001e32:	d11e      	bne.n	8001e72 <HAL_TIM_IRQHandler+0xba>
    {
      __HAL_TIM_CLEAR_IT(htim, TIM_IT_CC2);
 8001e34:	687b      	ldr	r3, [r7, #4]
 8001e36:	681b      	ldr	r3, [r3, #0]
 8001e38:	2205      	movs	r2, #5
 8001e3a:	4252      	negs	r2, r2
 8001e3c:	611a      	str	r2, [r3, #16]
      htim->Channel = HAL_TIM_ACTIVE_CHANNEL_2;
 8001e3e:	687b      	ldr	r3, [r7, #4]
 8001e40:	2202      	movs	r2, #2
 8001e42:	771a      	strb	r2, [r3, #28]
      /* Input capture event */
      if ((htim->Instance->CCMR1 & TIM_CCMR1_CC2S) != 0x00U)
 8001e44:	687b      	ldr	r3, [r7, #4]
 8001e46:	681b      	ldr	r3, [r3, #0]
 8001e48:	699a      	ldr	r2, [r3, #24]
 8001e4a:	23c0      	movs	r3, #192	; 0xc0
 8001e4c:	009b      	lsls	r3, r3, #2
 8001e4e:	4013      	ands	r3, r2
 8001e50:	d004      	beq.n	8001e5c <HAL_TIM_IRQHandler+0xa4>
      {
#if (USE_HAL_TIM_REGISTER_CALLBACKS == 1)
        htim->IC_CaptureCallback(htim);
#else
        HAL_TIM_IC_CaptureCallback(htim);
 8001e52:	687b      	ldr	r3, [r7, #4]
 8001e54:	0018      	movs	r0, r3
 8001e56:	f000 f98d 	bl	8002174 <HAL_TIM_IC_CaptureCallback>
 8001e5a:	e007      	b.n	8001e6c <HAL_TIM_IRQHandler+0xb4>
      {
#if (USE_HAL_TIM_REGISTER_CALLBACKS == 1)
        htim->OC_DelayElapsedCallback(htim);
        htim->PWM_PulseFinishedCallback(htim);
#else
        HAL_TIM_OC_DelayElapsedCallback(htim);
 8001e5c:	687b      	ldr	r3, [r7, #4]
 8001e5e:	0018      	movs	r0, r3
 8001e60:	f000 f980 	bl	8002164 <HAL_TIM_OC_DelayElapsedCallback>
        HAL_TIM_PWM_PulseFinishedCallback(htim);
 8001e64:	687b      	ldr	r3, [r7, #4]
 8001e66:	0018      	movs	r0, r3
 8001e68:	f000 f98c 	bl	8002184 <HAL_TIM_PWM_PulseFinishedCallback>
#endif /* USE_HAL_TIM_REGISTER_CALLBACKS */
      }
      htim->Channel = HAL_TIM_ACTIVE_CHANNEL_CLEARED;
 8001e6c:	687b      	ldr	r3, [r7, #4]
 8001e6e:	2200      	movs	r2, #0
 8001e70:	771a      	strb	r2, [r3, #28]
    }
  }
  /* Capture compare 3 event */
  if (__HAL_TIM_GET_FLAG(htim, TIM_FLAG_CC3) != RESET)
 8001e72:	687b      	ldr	r3, [r7, #4]
 8001e74:	681b      	ldr	r3, [r3, #0]
 8001e76:	691b      	ldr	r3, [r3, #16]
 8001e78:	2208      	movs	r2, #8
 8001e7a:	4013      	ands	r3, r2
 8001e7c:	2b08      	cmp	r3, #8
 8001e7e:	d124      	bne.n	8001eca <HAL_TIM_IRQHandler+0x112>
  {
    if (__HAL_TIM_GET_IT_SOURCE(htim, TIM_IT_CC3) != RESET)
 8001e80:	687b      	ldr	r3, [r7, #4]
 8001e82:	681b      	ldr	r3, [r3, #0]
 8001e84:	68db      	ldr	r3, [r3, #12]
 8001e86:	2208      	movs	r2, #8
 8001e88:	4013      	ands	r3, r2
 8001e8a:	2b08      	cmp	r3, #8
 8001e8c:	d11d      	bne.n	8001eca <HAL_TIM_IRQHandler+0x112>
    {
      __HAL_TIM_CLEAR_IT(htim, TIM_IT_CC3);
 8001e8e:	687b      	ldr	r3, [r7, #4]
 8001e90:	681b      	ldr	r3, [r3, #0]
 8001e92:	2209      	movs	r2, #9
 8001e94:	4252      	negs	r2, r2
 8001e96:	611a      	str	r2, [r3, #16]
      htim->Channel = HAL_TIM_ACTIVE_CHANNEL_3;
 8001e98:	687b      	ldr	r3, [r7, #4]
 8001e9a:	2204      	movs	r2, #4
 8001e9c:	771a      	strb	r2, [r3, #28]
      /* Input capture event */
      if ((htim->Instance->CCMR2 & TIM_CCMR2_CC3S) != 0x00U)
 8001e9e:	687b      	ldr	r3, [r7, #4]
 8001ea0:	681b      	ldr	r3, [r3, #0]
 8001ea2:	69db      	ldr	r3, [r3, #28]
 8001ea4:	2203      	movs	r2, #3
 8001ea6:	4013      	ands	r3, r2
 8001ea8:	d004      	beq.n	8001eb4 <HAL_TIM_IRQHandler+0xfc>
      {
#if (USE_HAL_TIM_REGISTER_CALLBACKS == 1)
        htim->IC_CaptureCallback(htim);
#else
        HAL_TIM_IC_CaptureCallback(htim);
 8001eaa:	687b      	ldr	r3, [r7, #4]
 8001eac:	0018      	movs	r0, r3
 8001eae:	f000 f961 	bl	8002174 <HAL_TIM_IC_CaptureCallback>
 8001eb2:	e007      	b.n	8001ec4 <HAL_TIM_IRQHandler+0x10c>
      {
#if (USE_HAL_TIM_REGISTER_CALLBACKS == 1)
        htim->OC_DelayElapsedCallback(htim);
        htim->PWM_PulseFinishedCallback(htim);
#else
        HAL_TIM_OC_DelayElapsedCallback(htim);
 8001eb4:	687b      	ldr	r3, [r7, #4]
 8001eb6:	0018      	movs	r0, r3
 8001eb8:	f000 f954 	bl	8002164 <HAL_TIM_OC_DelayElapsedCallback>
        HAL_TIM_PWM_PulseFinishedCallback(htim);
 8001ebc:	687b      	ldr	r3, [r7, #4]
 8001ebe:	0018      	movs	r0, r3
 8001ec0:	f000 f960 	bl	8002184 <HAL_TIM_PWM_PulseFinishedCallback>
#endif /* USE_HAL_TIM_REGISTER_CALLBACKS */
      }
      htim->Channel = HAL_TIM_ACTIVE_CHANNEL_CLEARED;
 8001ec4:	687b      	ldr	r3, [r7, #4]
 8001ec6:	2200      	movs	r2, #0
 8001ec8:	771a      	strb	r2, [r3, #28]
    }
  }
  /* Capture compare 4 event */
  if (__HAL_TIM_GET_FLAG(htim, TIM_FLAG_CC4) != RESET)
 8001eca:	687b      	ldr	r3, [r7, #4]
 8001ecc:	681b      	ldr	r3, [r3, #0]
 8001ece:	691b      	ldr	r3, [r3, #16]
 8001ed0:	2210      	movs	r2, #16
 8001ed2:	4013      	ands	r3, r2
 8001ed4:	2b10      	cmp	r3, #16
 8001ed6:	d125      	bne.n	8001f24 <HAL_TIM_IRQHandler+0x16c>
  {
    if (__HAL_TIM_GET_IT_SOURCE(htim, TIM_IT_CC4) != RESET)
 8001ed8:	687b      	ldr	r3, [r7, #4]
 8001eda:	681b      	ldr	r3, [r3, #0]
 8001edc:	68db      	ldr	r3, [r3, #12]
 8001ede:	2210      	movs	r2, #16
 8001ee0:	4013      	ands	r3, r2
 8001ee2:	2b10      	cmp	r3, #16
 8001ee4:	d11e      	bne.n	8001f24 <HAL_TIM_IRQHandler+0x16c>
    {
      __HAL_TIM_CLEAR_IT(htim, TIM_IT_CC4);
 8001ee6:	687b      	ldr	r3, [r7, #4]
 8001ee8:	681b      	ldr	r3, [r3, #0]
 8001eea:	2211      	movs	r2, #17
 8001eec:	4252      	negs	r2, r2
 8001eee:	611a      	str	r2, [r3, #16]
      htim->Channel = HAL_TIM_ACTIVE_CHANNEL_4;
 8001ef0:	687b      	ldr	r3, [r7, #4]
 8001ef2:	2208      	movs	r2, #8
 8001ef4:	771a      	strb	r2, [r3, #28]
      /* Input capture event */
      if ((htim->Instance->CCMR2 & TIM_CCMR2_CC4S) != 0x00U)
 8001ef6:	687b      	ldr	r3, [r7, #4]
 8001ef8:	681b      	ldr	r3, [r3, #0]
 8001efa:	69da      	ldr	r2, [r3, #28]
 8001efc:	23c0      	movs	r3, #192	; 0xc0
 8001efe:	009b      	lsls	r3, r3, #2
 8001f00:	4013      	ands	r3, r2
 8001f02:	d004      	beq.n	8001f0e <HAL_TIM_IRQHandler+0x156>
      {
#if (USE_HAL_TIM_REGISTER_CALLBACKS == 1)
        htim->IC_CaptureCallback(htim);
#else
        HAL_TIM_IC_CaptureCallback(htim);
 8001f04:	687b      	ldr	r3, [r7, #4]
 8001f06:	0018      	movs	r0, r3
 8001f08:	f000 f934 	bl	8002174 <HAL_TIM_IC_CaptureCallback>
 8001f0c:	e007      	b.n	8001f1e <HAL_TIM_IRQHandler+0x166>
      {
#if (USE_HAL_TIM_REGISTER_CALLBACKS == 1)
        htim->OC_DelayElapsedCallback(htim);
        htim->PWM_PulseFinishedCallback(htim);
#else
        HAL_TIM_OC_DelayElapsedCallback(htim);
 8001f0e:	687b      	ldr	r3, [r7, #4]
 8001f10:	0018      	movs	r0, r3
 8001f12:	f000 f927 	bl	8002164 <HAL_TIM_OC_DelayElapsedCallback>
        HAL_TIM_PWM_PulseFinishedCallback(htim);
 8001f16:	687b      	ldr	r3, [r7, #4]
 8001f18:	0018      	movs	r0, r3
 8001f1a:	f000 f933 	bl	8002184 <HAL_TIM_PWM_PulseFinishedCallback>
#endif /* USE_HAL_TIM_REGISTER_CALLBACKS */
      }
      htim->Channel = HAL_TIM_ACTIVE_CHANNEL_CLEARED;
 8001f1e:	687b      	ldr	r3, [r7, #4]
 8001f20:	2200      	movs	r2, #0
 8001f22:	771a      	strb	r2, [r3, #28]
    }
  }
  /* TIM Update event */
  if (__HAL_TIM_GET_FLAG(htim, TIM_FLAG_UPDATE) != RESET)
 8001f24:	687b      	ldr	r3, [r7, #4]
 8001f26:	681b      	ldr	r3, [r3, #0]
 8001f28:	691b      	ldr	r3, [r3, #16]
 8001f2a:	2201      	movs	r2, #1
 8001f2c:	4013      	ands	r3, r2
 8001f2e:	2b01      	cmp	r3, #1
 8001f30:	d10f      	bne.n	8001f52 <HAL_TIM_IRQHandler+0x19a>
  {
    if (__HAL_TIM_GET_IT_SOURCE(htim, TIM_IT_UPDATE) != RESET)
 8001f32:	687b      	ldr	r3, [r7, #4]
 8001f34:	681b      	ldr	r3, [r3, #0]
 8001f36:	68db      	ldr	r3, [r3, #12]
 8001f38:	2201      	movs	r2, #1
 8001f3a:	4013      	ands	r3, r2
 8001f3c:	2b01      	cmp	r3, #1
 8001f3e:	d108      	bne.n	8001f52 <HAL_TIM_IRQHandler+0x19a>
    {
      __HAL_TIM_CLEAR_IT(htim, TIM_IT_UPDATE);
 8001f40:	687b      	ldr	r3, [r7, #4]
 8001f42:	681b      	ldr	r3, [r3, #0]
 8001f44:	2202      	movs	r2, #2
 8001f46:	4252      	negs	r2, r2
 8001f48:	611a      	str	r2, [r3, #16]
#if (USE_HAL_TIM_REGISTER_CALLBACKS == 1)
      htim->PeriodElapsedCallback(htim);
#else
      HAL_TIM_PeriodElapsedCallback(htim);
 8001f4a:	687b      	ldr	r3, [r7, #4]
 8001f4c:	0018      	movs	r0, r3
 8001f4e:	f000 f901 	bl	8002154 <HAL_TIM_PeriodElapsedCallback>
#endif /* USE_HAL_TIM_REGISTER_CALLBACKS */
    }
  }
  /* TIM Break input event */
  if (__HAL_TIM_GET_FLAG(htim, TIM_FLAG_BREAK) != RESET)
 8001f52:	687b      	ldr	r3, [r7, #4]
 8001f54:	681b      	ldr	r3, [r3, #0]
 8001f56:	691b      	ldr	r3, [r3, #16]
 8001f58:	2280      	movs	r2, #128	; 0x80
 8001f5a:	4013      	ands	r3, r2
 8001f5c:	2b80      	cmp	r3, #128	; 0x80
 8001f5e:	d10f      	bne.n	8001f80 <HAL_TIM_IRQHandler+0x1c8>
  {
    if (__HAL_TIM_GET_IT_SOURCE(htim, TIM_IT_BREAK) != RESET)
 8001f60:	687b      	ldr	r3, [r7, #4]
 8001f62:	681b      	ldr	r3, [r3, #0]
 8001f64:	68db      	ldr	r3, [r3, #12]
 8001f66:	2280      	movs	r2, #128	; 0x80
 8001f68:	4013      	ands	r3, r2
 8001f6a:	2b80      	cmp	r3, #128	; 0x80
 8001f6c:	d108      	bne.n	8001f80 <HAL_TIM_IRQHandler+0x1c8>
    {
      __HAL_TIM_CLEAR_IT(htim, TIM_IT_BREAK);
 8001f6e:	687b      	ldr	r3, [r7, #4]
 8001f70:	681b      	ldr	r3, [r3, #0]
 8001f72:	2281      	movs	r2, #129	; 0x81
 8001f74:	4252      	negs	r2, r2
 8001f76:	611a      	str	r2, [r3, #16]
#if (USE_HAL_TIM_REGISTER_CALLBACKS == 1)
      htim->BreakCallback(htim);
#else
      HAL_TIMEx_BreakCallback(htim);
 8001f78:	687b      	ldr	r3, [r7, #4]
 8001f7a:	0018      	movs	r0, r3
 8001f7c:	f000 fc76 	bl	800286c <HAL_TIMEx_BreakCallback>
#endif /* USE_HAL_TIM_REGISTER_CALLBACKS */
    }
  }
  /* TIM Trigger detection event */
  if (__HAL_TIM_GET_FLAG(htim, TIM_FLAG_TRIGGER) != RESET)
 8001f80:	687b      	ldr	r3, [r7, #4]
 8001f82:	681b      	ldr	r3, [r3, #0]
 8001f84:	691b      	ldr	r3, [r3, #16]
 8001f86:	2240      	movs	r2, #64	; 0x40
 8001f88:	4013      	ands	r3, r2
 8001f8a:	2b40      	cmp	r3, #64	; 0x40
 8001f8c:	d10f      	bne.n	8001fae <HAL_TIM_IRQHandler+0x1f6>
  {
    if (__HAL_TIM_GET_IT_SOURCE(htim, TIM_IT_TRIGGER) != RESET)
 8001f8e:	687b      	ldr	r3, [r7, #4]
 8001f90:	681b      	ldr	r3, [r3, #0]
 8001f92:	68db      	ldr	r3, [r3, #12]
 8001f94:	2240      	movs	r2, #64	; 0x40
 8001f96:	4013      	ands	r3, r2
 8001f98:	2b40      	cmp	r3, #64	; 0x40
 8001f9a:	d108      	bne.n	8001fae <HAL_TIM_IRQHandler+0x1f6>
    {
      __HAL_TIM_CLEAR_IT(htim, TIM_IT_TRIGGER);
 8001f9c:	687b      	ldr	r3, [r7, #4]
 8001f9e:	681b      	ldr	r3, [r3, #0]
 8001fa0:	2241      	movs	r2, #65	; 0x41
 8001fa2:	4252      	negs	r2, r2
 8001fa4:	611a      	str	r2, [r3, #16]
#if (USE_HAL_TIM_REGISTER_CALLBACKS == 1)
      htim->TriggerCallback(htim);
#else
      HAL_TIM_TriggerCallback(htim);
 8001fa6:	687b      	ldr	r3, [r7, #4]
 8001fa8:	0018      	movs	r0, r3
 8001faa:	f000 f8f3 	bl	8002194 <HAL_TIM_TriggerCallback>
#endif /* USE_HAL_TIM_REGISTER_CALLBACKS */
    }
  }
  /* TIM commutation event */
  if (__HAL_TIM_GET_FLAG(htim, TIM_FLAG_COM) != RESET)
 8001fae:	687b      	ldr	r3, [r7, #4]
 8001fb0:	681b      	ldr	r3, [r3, #0]
 8001fb2:	691b      	ldr	r3, [r3, #16]
 8001fb4:	2220      	movs	r2, #32
 8001fb6:	4013      	ands	r3, r2
 8001fb8:	2b20      	cmp	r3, #32
 8001fba:	d10f      	bne.n	8001fdc <HAL_TIM_IRQHandler+0x224>
  {
    if (__HAL_TIM_GET_IT_SOURCE(htim, TIM_IT_COM) != RESET)
 8001fbc:	687b      	ldr	r3, [r7, #4]
 8001fbe:	681b      	ldr	r3, [r3, #0]
 8001fc0:	68db      	ldr	r3, [r3, #12]
 8001fc2:	2220      	movs	r2, #32
 8001fc4:	4013      	ands	r3, r2
 8001fc6:	2b20      	cmp	r3, #32
 8001fc8:	d108      	bne.n	8001fdc <HAL_TIM_IRQHandler+0x224>
    {
      __HAL_TIM_CLEAR_IT(htim, TIM_FLAG_COM);
 8001fca:	687b      	ldr	r3, [r7, #4]
 8001fcc:	681b      	ldr	r3, [r3, #0]
 8001fce:	2221      	movs	r2, #33	; 0x21
 8001fd0:	4252      	negs	r2, r2
 8001fd2:	611a      	str	r2, [r3, #16]
#if (USE_HAL_TIM_REGISTER_CALLBACKS == 1)
      htim->CommutationCallback(htim);
#else
      HAL_TIMEx_CommutCallback(htim);
 8001fd4:	687b      	ldr	r3, [r7, #4]
 8001fd6:	0018      	movs	r0, r3
 8001fd8:	f000 fc40 	bl	800285c <HAL_TIMEx_CommutCallback>
#endif /* USE_HAL_TIM_REGISTER_CALLBACKS */
    }
  }
}
 8001fdc:	46c0      	nop			; (mov r8, r8)
 8001fde:	46bd      	mov	sp, r7
 8001fe0:	b002      	add	sp, #8
 8001fe2:	bd80      	pop	{r7, pc}

08001fe4 <HAL_TIM_PWM_ConfigChannel>:
  * @retval HAL status
  */
HAL_StatusTypeDef HAL_TIM_PWM_ConfigChannel(TIM_HandleTypeDef *htim,
                                            TIM_OC_InitTypeDef *sConfig,
                                            uint32_t Channel)
{
 8001fe4:	b580      	push	{r7, lr}
 8001fe6:	b084      	sub	sp, #16
 8001fe8:	af00      	add	r7, sp, #0
 8001fea:	60f8      	str	r0, [r7, #12]
 8001fec:	60b9      	str	r1, [r7, #8]
 8001fee:	607a      	str	r2, [r7, #4]
  assert_param(IS_TIM_PWM_MODE(sConfig->OCMode));
  assert_param(IS_TIM_OC_POLARITY(sConfig->OCPolarity));
  assert_param(IS_TIM_FAST_STATE(sConfig->OCFastMode));

  /* Process Locked */
  __HAL_LOCK(htim);
 8001ff0:	68fb      	ldr	r3, [r7, #12]
 8001ff2:	223c      	movs	r2, #60	; 0x3c
 8001ff4:	5c9b      	ldrb	r3, [r3, r2]
 8001ff6:	2b01      	cmp	r3, #1
 8001ff8:	d101      	bne.n	8001ffe <HAL_TIM_PWM_ConfigChannel+0x1a>
 8001ffa:	2302      	movs	r3, #2
 8001ffc:	e0a4      	b.n	8002148 <HAL_TIM_PWM_ConfigChannel+0x164>
 8001ffe:	68fb      	ldr	r3, [r7, #12]
 8002000:	223c      	movs	r2, #60	; 0x3c
 8002002:	2101      	movs	r1, #1
 8002004:	5499      	strb	r1, [r3, r2]

  htim->State = HAL_TIM_STATE_BUSY;
 8002006:	68fb      	ldr	r3, [r7, #12]
 8002008:	223d      	movs	r2, #61	; 0x3d
 800200a:	2102      	movs	r1, #2
 800200c:	5499      	strb	r1, [r3, r2]

  switch (Channel)
 800200e:	687b      	ldr	r3, [r7, #4]
 8002010:	2b04      	cmp	r3, #4
 8002012:	d029      	beq.n	8002068 <HAL_TIM_PWM_ConfigChannel+0x84>
 8002014:	d802      	bhi.n	800201c <HAL_TIM_PWM_ConfigChannel+0x38>
 8002016:	2b00      	cmp	r3, #0
 8002018:	d005      	beq.n	8002026 <HAL_TIM_PWM_ConfigChannel+0x42>
      htim->Instance->CCMR2 |= sConfig->OCFastMode << 8U;
      break;
    }

    default:
      break;
 800201a:	e08c      	b.n	8002136 <HAL_TIM_PWM_ConfigChannel+0x152>
  switch (Channel)
 800201c:	2b08      	cmp	r3, #8
 800201e:	d046      	beq.n	80020ae <HAL_TIM_PWM_ConfigChannel+0xca>
 8002020:	2b0c      	cmp	r3, #12
 8002022:	d065      	beq.n	80020f0 <HAL_TIM_PWM_ConfigChannel+0x10c>
      break;
 8002024:	e087      	b.n	8002136 <HAL_TIM_PWM_ConfigChannel+0x152>
      TIM_OC1_SetConfig(htim->Instance, sConfig);
 8002026:	68fb      	ldr	r3, [r7, #12]
 8002028:	681b      	ldr	r3, [r3, #0]
 800202a:	68ba      	ldr	r2, [r7, #8]
 800202c:	0011      	movs	r1, r2
 800202e:	0018      	movs	r0, r3
 8002030:	f000 f938 	bl	80022a4 <TIM_OC1_SetConfig>
      htim->Instance->CCMR1 |= TIM_CCMR1_OC1PE;
 8002034:	68fb      	ldr	r3, [r7, #12]
 8002036:	681b      	ldr	r3, [r3, #0]
 8002038:	699a      	ldr	r2, [r3, #24]
 800203a:	68fb      	ldr	r3, [r7, #12]
 800203c:	681b      	ldr	r3, [r3, #0]
 800203e:	2108      	movs	r1, #8
 8002040:	430a      	orrs	r2, r1
 8002042:	619a      	str	r2, [r3, #24]
      htim->Instance->CCMR1 &= ~TIM_CCMR1_OC1FE;
 8002044:	68fb      	ldr	r3, [r7, #12]
 8002046:	681b      	ldr	r3, [r3, #0]
 8002048:	699a      	ldr	r2, [r3, #24]
 800204a:	68fb      	ldr	r3, [r7, #12]
 800204c:	681b      	ldr	r3, [r3, #0]
 800204e:	2104      	movs	r1, #4
 8002050:	438a      	bics	r2, r1
 8002052:	619a      	str	r2, [r3, #24]
      htim->Instance->CCMR1 |= sConfig->OCFastMode;
 8002054:	68fb      	ldr	r3, [r7, #12]
 8002056:	681b      	ldr	r3, [r3, #0]
 8002058:	6999      	ldr	r1, [r3, #24]
 800205a:	68bb      	ldr	r3, [r7, #8]
 800205c:	691a      	ldr	r2, [r3, #16]
 800205e:	68fb      	ldr	r3, [r7, #12]
 8002060:	681b      	ldr	r3, [r3, #0]
 8002062:	430a      	orrs	r2, r1
 8002064:	619a      	str	r2, [r3, #24]
      break;
 8002066:	e066      	b.n	8002136 <HAL_TIM_PWM_ConfigChannel+0x152>
      TIM_OC2_SetConfig(htim->Instance, sConfig);
 8002068:	68fb      	ldr	r3, [r7, #12]
 800206a:	681b      	ldr	r3, [r3, #0]
 800206c:	68ba      	ldr	r2, [r7, #8]
 800206e:	0011      	movs	r1, r2
 8002070:	0018      	movs	r0, r3
 8002072:	f000 f99f 	bl	80023b4 <TIM_OC2_SetConfig>
      htim->Instance->CCMR1 |= TIM_CCMR1_OC2PE;
 8002076:	68fb      	ldr	r3, [r7, #12]
 8002078:	681b      	ldr	r3, [r3, #0]
 800207a:	699a      	ldr	r2, [r3, #24]
 800207c:	68fb      	ldr	r3, [r7, #12]
 800207e:	681b      	ldr	r3, [r3, #0]
 8002080:	2180      	movs	r1, #128	; 0x80
 8002082:	0109      	lsls	r1, r1, #4
 8002084:	430a      	orrs	r2, r1
 8002086:	619a      	str	r2, [r3, #24]
      htim->Instance->CCMR1 &= ~TIM_CCMR1_OC2FE;
 8002088:	68fb      	ldr	r3, [r7, #12]
 800208a:	681b      	ldr	r3, [r3, #0]
 800208c:	699a      	ldr	r2, [r3, #24]
 800208e:	68fb      	ldr	r3, [r7, #12]
 8002090:	681b      	ldr	r3, [r3, #0]
 8002092:	492f      	ldr	r1, [pc, #188]	; (8002150 <HAL_TIM_PWM_ConfigChannel+0x16c>)
 8002094:	400a      	ands	r2, r1
 8002096:	619a      	str	r2, [r3, #24]
      htim->Instance->CCMR1 |= sConfig->OCFastMode << 8U;
 8002098:	68fb      	ldr	r3, [r7, #12]
 800209a:	681b      	ldr	r3, [r3, #0]
 800209c:	6999      	ldr	r1, [r3, #24]
 800209e:	68bb      	ldr	r3, [r7, #8]
 80020a0:	691b      	ldr	r3, [r3, #16]
 80020a2:	021a      	lsls	r2, r3, #8
 80020a4:	68fb      	ldr	r3, [r7, #12]
 80020a6:	681b      	ldr	r3, [r3, #0]
 80020a8:	430a      	orrs	r2, r1
 80020aa:	619a      	str	r2, [r3, #24]
      break;
 80020ac:	e043      	b.n	8002136 <HAL_TIM_PWM_ConfigChannel+0x152>
      TIM_OC3_SetConfig(htim->Instance, sConfig);
 80020ae:	68fb      	ldr	r3, [r7, #12]
 80020b0:	681b      	ldr	r3, [r3, #0]
 80020b2:	68ba      	ldr	r2, [r7, #8]
 80020b4:	0011      	movs	r1, r2
 80020b6:	0018      	movs	r0, r3
 80020b8:	f000 fa00 	bl	80024bc <TIM_OC3_SetConfig>
      htim->Instance->CCMR2 |= TIM_CCMR2_OC3PE;
 80020bc:	68fb      	ldr	r3, [r7, #12]
 80020be:	681b      	ldr	r3, [r3, #0]
 80020c0:	69da      	ldr	r2, [r3, #28]
 80020c2:	68fb      	ldr	r3, [r7, #12]
 80020c4:	681b      	ldr	r3, [r3, #0]
 80020c6:	2108      	movs	r1, #8
 80020c8:	430a      	orrs	r2, r1
 80020ca:	61da      	str	r2, [r3, #28]
      htim->Instance->CCMR2 &= ~TIM_CCMR2_OC3FE;
 80020cc:	68fb      	ldr	r3, [r7, #12]
 80020ce:	681b      	ldr	r3, [r3, #0]
 80020d0:	69da      	ldr	r2, [r3, #28]
 80020d2:	68fb      	ldr	r3, [r7, #12]
 80020d4:	681b      	ldr	r3, [r3, #0]
 80020d6:	2104      	movs	r1, #4
 80020d8:	438a      	bics	r2, r1
 80020da:	61da      	str	r2, [r3, #28]
      htim->Instance->CCMR2 |= sConfig->OCFastMode;
 80020dc:	68fb      	ldr	r3, [r7, #12]
 80020de:	681b      	ldr	r3, [r3, #0]
 80020e0:	69d9      	ldr	r1, [r3, #28]
 80020e2:	68bb      	ldr	r3, [r7, #8]
 80020e4:	691a      	ldr	r2, [r3, #16]
 80020e6:	68fb      	ldr	r3, [r7, #12]
 80020e8:	681b      	ldr	r3, [r3, #0]
 80020ea:	430a      	orrs	r2, r1
 80020ec:	61da      	str	r2, [r3, #28]
      break;
 80020ee:	e022      	b.n	8002136 <HAL_TIM_PWM_ConfigChannel+0x152>
      TIM_OC4_SetConfig(htim->Instance, sConfig);
 80020f0:	68fb      	ldr	r3, [r7, #12]
 80020f2:	681b      	ldr	r3, [r3, #0]
 80020f4:	68ba      	ldr	r2, [r7, #8]
 80020f6:	0011      	movs	r1, r2
 80020f8:	0018      	movs	r0, r3
 80020fa:	f000 fa65 	bl	80025c8 <TIM_OC4_SetConfig>
      htim->Instance->CCMR2 |= TIM_CCMR2_OC4PE;
 80020fe:	68fb      	ldr	r3, [r7, #12]
 8002100:	681b      	ldr	r3, [r3, #0]
 8002102:	69da      	ldr	r2, [r3, #28]
 8002104:	68fb      	ldr	r3, [r7, #12]
 8002106:	681b      	ldr	r3, [r3, #0]
 8002108:	2180      	movs	r1, #128	; 0x80
 800210a:	0109      	lsls	r1, r1, #4
 800210c:	430a      	orrs	r2, r1
 800210e:	61da      	str	r2, [r3, #28]
      htim->Instance->CCMR2 &= ~TIM_CCMR2_OC4FE;
 8002110:	68fb      	ldr	r3, [r7, #12]
 8002112:	681b      	ldr	r3, [r3, #0]
 8002114:	69da      	ldr	r2, [r3, #28]
 8002116:	68fb      	ldr	r3, [r7, #12]
 8002118:	681b      	ldr	r3, [r3, #0]
 800211a:	490d      	ldr	r1, [pc, #52]	; (8002150 <HAL_TIM_PWM_ConfigChannel+0x16c>)
 800211c:	400a      	ands	r2, r1
 800211e:	61da      	str	r2, [r3, #28]
      htim->Instance->CCMR2 |= sConfig->OCFastMode << 8U;
 8002120:	68fb      	ldr	r3, [r7, #12]
 8002122:	681b      	ldr	r3, [r3, #0]
 8002124:	69d9      	ldr	r1, [r3, #28]
 8002126:	68bb      	ldr	r3, [r7, #8]
 8002128:	691b      	ldr	r3, [r3, #16]
 800212a:	021a      	lsls	r2, r3, #8
 800212c:	68fb      	ldr	r3, [r7, #12]
 800212e:	681b      	ldr	r3, [r3, #0]
 8002130:	430a      	orrs	r2, r1
 8002132:	61da      	str	r2, [r3, #28]
      break;
 8002134:	46c0      	nop			; (mov r8, r8)
  }

  htim->State = HAL_TIM_STATE_READY;
 8002136:	68fb      	ldr	r3, [r7, #12]
 8002138:	223d      	movs	r2, #61	; 0x3d
 800213a:	2101      	movs	r1, #1
 800213c:	5499      	strb	r1, [r3, r2]

  __HAL_UNLOCK(htim);
 800213e:	68fb      	ldr	r3, [r7, #12]
 8002140:	223c      	movs	r2, #60	; 0x3c
 8002142:	2100      	movs	r1, #0
 8002144:	5499      	strb	r1, [r3, r2]

  return HAL_OK;
 8002146:	2300      	movs	r3, #0
}
 8002148:	0018      	movs	r0, r3
 800214a:	46bd      	mov	sp, r7
 800214c:	b004      	add	sp, #16
 800214e:	bd80      	pop	{r7, pc}
 8002150:	fffffbff 	.word	0xfffffbff

08002154 <HAL_TIM_PeriodElapsedCallback>:
  * @brief  Period elapsed callback in non-blocking mode
  * @param  htim TIM handle
  * @retval None
  */
__weak void HAL_TIM_PeriodElapsedCallback(TIM_HandleTypeDef *htim)
{
 8002154:	b580      	push	{r7, lr}
 8002156:	b082      	sub	sp, #8
 8002158:	af00      	add	r7, sp, #0
 800215a:	6078      	str	r0, [r7, #4]
  UNUSED(htim);

  /* NOTE : This function should not be modified, when the callback is needed,
            the HAL_TIM_PeriodElapsedCallback could be implemented in the user file
   */
}
 800215c:	46c0      	nop			; (mov r8, r8)
 800215e:	46bd      	mov	sp, r7
 8002160:	b002      	add	sp, #8
 8002162:	bd80      	pop	{r7, pc}

08002164 <HAL_TIM_OC_DelayElapsedCallback>:
  * @brief  Output Compare callback in non-blocking mode
  * @param  htim TIM OC handle
  * @retval None
  */
__weak void HAL_TIM_OC_DelayElapsedCallback(TIM_HandleTypeDef *htim)
{
 8002164:	b580      	push	{r7, lr}
 8002166:	b082      	sub	sp, #8
 8002168:	af00      	add	r7, sp, #0
 800216a:	6078      	str	r0, [r7, #4]
  UNUSED(htim);

  /* NOTE : This function should not be modified, when the callback is needed,
            the HAL_TIM_OC_DelayElapsedCallback could be implemented in the user file
   */
}
 800216c:	46c0      	nop			; (mov r8, r8)
 800216e:	46bd      	mov	sp, r7
 8002170:	b002      	add	sp, #8
 8002172:	bd80      	pop	{r7, pc}

08002174 <HAL_TIM_IC_CaptureCallback>:
  * @brief  Input Capture callback in non-blocking mode
  * @param  htim TIM IC handle
  * @retval None
  */
__weak void HAL_TIM_IC_CaptureCallback(TIM_HandleTypeDef *htim)
{
 8002174:	b580      	push	{r7, lr}
 8002176:	b082      	sub	sp, #8
 8002178:	af00      	add	r7, sp, #0
 800217a:	6078      	str	r0, [r7, #4]
  UNUSED(htim);

  /* NOTE : This function should not be modified, when the callback is needed,
            the HAL_TIM_IC_CaptureCallback could be implemented in the user file
   */
}
 800217c:	46c0      	nop			; (mov r8, r8)
 800217e:	46bd      	mov	sp, r7
 8002180:	b002      	add	sp, #8
 8002182:	bd80      	pop	{r7, pc}

08002184 <HAL_TIM_PWM_PulseFinishedCallback>:
  * @brief  PWM Pulse finished callback in non-blocking mode
  * @param  htim TIM handle
  * @retval None
  */
__weak void HAL_TIM_PWM_PulseFinishedCallback(TIM_HandleTypeDef *htim)
{
 8002184:	b580      	push	{r7, lr}
 8002186:	b082      	sub	sp, #8
 8002188:	af00      	add	r7, sp, #0
 800218a:	6078      	str	r0, [r7, #4]
  UNUSED(htim);

  /* NOTE : This function should not be modified, when the callback is needed,
            the HAL_TIM_PWM_PulseFinishedCallback could be implemented in the user file
   */
}
 800218c:	46c0      	nop			; (mov r8, r8)
 800218e:	46bd      	mov	sp, r7
 8002190:	b002      	add	sp, #8
 8002192:	bd80      	pop	{r7, pc}

08002194 <HAL_TIM_TriggerCallback>:
  * @brief  Hall Trigger detection callback in non-blocking mode
  * @param  htim TIM handle
  * @retval None
  */
__weak void HAL_TIM_TriggerCallback(TIM_HandleTypeDef *htim)
{
 8002194:	b580      	push	{r7, lr}
 8002196:	b082      	sub	sp, #8
 8002198:	af00      	add	r7, sp, #0
 800219a:	6078      	str	r0, [r7, #4]
  UNUSED(htim);

  /* NOTE : This function should not be modified, when the callback is needed,
            the HAL_TIM_TriggerCallback could be implemented in the user file
   */
}
 800219c:	46c0      	nop			; (mov r8, r8)
 800219e:	46bd      	mov	sp, r7
 80021a0:	b002      	add	sp, #8
 80021a2:	bd80      	pop	{r7, pc}

080021a4 <TIM_Base_SetConfig>:
  * @param  TIMx TIM peripheral
  * @param  Structure TIM Base configuration structure
  * @retval None
  */
void TIM_Base_SetConfig(TIM_TypeDef *TIMx, TIM_Base_InitTypeDef *Structure)
{
 80021a4:	b580      	push	{r7, lr}
 80021a6:	b084      	sub	sp, #16
 80021a8:	af00      	add	r7, sp, #0
 80021aa:	6078      	str	r0, [r7, #4]
 80021ac:	6039      	str	r1, [r7, #0]
  uint32_t tmpcr1;
  tmpcr1 = TIMx->CR1;
 80021ae:	687b      	ldr	r3, [r7, #4]
 80021b0:	681b      	ldr	r3, [r3, #0]
 80021b2:	60fb      	str	r3, [r7, #12]

  /* Set TIM Time Base Unit parameters ---------------------------------------*/
  if (IS_TIM_COUNTER_MODE_SELECT_INSTANCE(TIMx))
 80021b4:	687b      	ldr	r3, [r7, #4]
 80021b6:	4a34      	ldr	r2, [pc, #208]	; (8002288 <TIM_Base_SetConfig+0xe4>)
 80021b8:	4293      	cmp	r3, r2
 80021ba:	d008      	beq.n	80021ce <TIM_Base_SetConfig+0x2a>
 80021bc:	687a      	ldr	r2, [r7, #4]
 80021be:	2380      	movs	r3, #128	; 0x80
 80021c0:	05db      	lsls	r3, r3, #23
 80021c2:	429a      	cmp	r2, r3
 80021c4:	d003      	beq.n	80021ce <TIM_Base_SetConfig+0x2a>
 80021c6:	687b      	ldr	r3, [r7, #4]
 80021c8:	4a30      	ldr	r2, [pc, #192]	; (800228c <TIM_Base_SetConfig+0xe8>)
 80021ca:	4293      	cmp	r3, r2
 80021cc:	d108      	bne.n	80021e0 <TIM_Base_SetConfig+0x3c>
  {
    /* Select the Counter Mode */
    tmpcr1 &= ~(TIM_CR1_DIR | TIM_CR1_CMS);
 80021ce:	68fb      	ldr	r3, [r7, #12]
 80021d0:	2270      	movs	r2, #112	; 0x70
 80021d2:	4393      	bics	r3, r2
 80021d4:	60fb      	str	r3, [r7, #12]
    tmpcr1 |= Structure->CounterMode;
 80021d6:	683b      	ldr	r3, [r7, #0]
 80021d8:	685b      	ldr	r3, [r3, #4]
 80021da:	68fa      	ldr	r2, [r7, #12]
 80021dc:	4313      	orrs	r3, r2
 80021de:	60fb      	str	r3, [r7, #12]
  }

  if (IS_TIM_CLOCK_DIVISION_INSTANCE(TIMx))
 80021e0:	687b      	ldr	r3, [r7, #4]
 80021e2:	4a29      	ldr	r2, [pc, #164]	; (8002288 <TIM_Base_SetConfig+0xe4>)
 80021e4:	4293      	cmp	r3, r2
 80021e6:	d018      	beq.n	800221a <TIM_Base_SetConfig+0x76>
 80021e8:	687a      	ldr	r2, [r7, #4]
 80021ea:	2380      	movs	r3, #128	; 0x80
 80021ec:	05db      	lsls	r3, r3, #23
 80021ee:	429a      	cmp	r2, r3
 80021f0:	d013      	beq.n	800221a <TIM_Base_SetConfig+0x76>
 80021f2:	687b      	ldr	r3, [r7, #4]
 80021f4:	4a25      	ldr	r2, [pc, #148]	; (800228c <TIM_Base_SetConfig+0xe8>)
 80021f6:	4293      	cmp	r3, r2
 80021f8:	d00f      	beq.n	800221a <TIM_Base_SetConfig+0x76>
 80021fa:	687b      	ldr	r3, [r7, #4]
 80021fc:	4a24      	ldr	r2, [pc, #144]	; (8002290 <TIM_Base_SetConfig+0xec>)
 80021fe:	4293      	cmp	r3, r2
 8002200:	d00b      	beq.n	800221a <TIM_Base_SetConfig+0x76>
 8002202:	687b      	ldr	r3, [r7, #4]
 8002204:	4a23      	ldr	r2, [pc, #140]	; (8002294 <TIM_Base_SetConfig+0xf0>)
 8002206:	4293      	cmp	r3, r2
 8002208:	d007      	beq.n	800221a <TIM_Base_SetConfig+0x76>
 800220a:	687b      	ldr	r3, [r7, #4]
 800220c:	4a22      	ldr	r2, [pc, #136]	; (8002298 <TIM_Base_SetConfig+0xf4>)
 800220e:	4293      	cmp	r3, r2
 8002210:	d003      	beq.n	800221a <TIM_Base_SetConfig+0x76>
 8002212:	687b      	ldr	r3, [r7, #4]
 8002214:	4a21      	ldr	r2, [pc, #132]	; (800229c <TIM_Base_SetConfig+0xf8>)
 8002216:	4293      	cmp	r3, r2
 8002218:	d108      	bne.n	800222c <TIM_Base_SetConfig+0x88>
  {
    /* Set the clock division */
    tmpcr1 &= ~TIM_CR1_CKD;
 800221a:	68fb      	ldr	r3, [r7, #12]
 800221c:	4a20      	ldr	r2, [pc, #128]	; (80022a0 <TIM_Base_SetConfig+0xfc>)
 800221e:	4013      	ands	r3, r2
 8002220:	60fb      	str	r3, [r7, #12]
    tmpcr1 |= (uint32_t)Structure->ClockDivision;
 8002222:	683b      	ldr	r3, [r7, #0]
 8002224:	68db      	ldr	r3, [r3, #12]
 8002226:	68fa      	ldr	r2, [r7, #12]
 8002228:	4313      	orrs	r3, r2
 800222a:	60fb      	str	r3, [r7, #12]
  }

  /* Set the auto-reload preload */
  MODIFY_REG(tmpcr1, TIM_CR1_ARPE, Structure->AutoReloadPreload);
 800222c:	68fb      	ldr	r3, [r7, #12]
 800222e:	2280      	movs	r2, #128	; 0x80
 8002230:	4393      	bics	r3, r2
 8002232:	001a      	movs	r2, r3
 8002234:	683b      	ldr	r3, [r7, #0]
 8002236:	695b      	ldr	r3, [r3, #20]
 8002238:	4313      	orrs	r3, r2
 800223a:	60fb      	str	r3, [r7, #12]

  TIMx->CR1 = tmpcr1;
 800223c:	687b      	ldr	r3, [r7, #4]
 800223e:	68fa      	ldr	r2, [r7, #12]
 8002240:	601a      	str	r2, [r3, #0]

  /* Set the Autoreload value */
  TIMx->ARR = (uint32_t)Structure->Period ;
 8002242:	683b      	ldr	r3, [r7, #0]
 8002244:	689a      	ldr	r2, [r3, #8]
 8002246:	687b      	ldr	r3, [r7, #4]
 8002248:	62da      	str	r2, [r3, #44]	; 0x2c

  /* Set the Prescaler value */
  TIMx->PSC = Structure->Prescaler;
 800224a:	683b      	ldr	r3, [r7, #0]
 800224c:	681a      	ldr	r2, [r3, #0]
 800224e:	687b      	ldr	r3, [r7, #4]
 8002250:	629a      	str	r2, [r3, #40]	; 0x28

  if (IS_TIM_REPETITION_COUNTER_INSTANCE(TIMx))
 8002252:	687b      	ldr	r3, [r7, #4]
 8002254:	4a0c      	ldr	r2, [pc, #48]	; (8002288 <TIM_Base_SetConfig+0xe4>)
 8002256:	4293      	cmp	r3, r2
 8002258:	d00b      	beq.n	8002272 <TIM_Base_SetConfig+0xce>
 800225a:	687b      	ldr	r3, [r7, #4]
 800225c:	4a0d      	ldr	r2, [pc, #52]	; (8002294 <TIM_Base_SetConfig+0xf0>)
 800225e:	4293      	cmp	r3, r2
 8002260:	d007      	beq.n	8002272 <TIM_Base_SetConfig+0xce>
 8002262:	687b      	ldr	r3, [r7, #4]
 8002264:	4a0c      	ldr	r2, [pc, #48]	; (8002298 <TIM_Base_SetConfig+0xf4>)
 8002266:	4293      	cmp	r3, r2
 8002268:	d003      	beq.n	8002272 <TIM_Base_SetConfig+0xce>
 800226a:	687b      	ldr	r3, [r7, #4]
 800226c:	4a0b      	ldr	r2, [pc, #44]	; (800229c <TIM_Base_SetConfig+0xf8>)
 800226e:	4293      	cmp	r3, r2
 8002270:	d103      	bne.n	800227a <TIM_Base_SetConfig+0xd6>
  {
    /* Set the Repetition Counter value */
    TIMx->RCR = Structure->RepetitionCounter;
 8002272:	683b      	ldr	r3, [r7, #0]
 8002274:	691a      	ldr	r2, [r3, #16]
 8002276:	687b      	ldr	r3, [r7, #4]
 8002278:	631a      	str	r2, [r3, #48]	; 0x30
  }

  /* Generate an update event to reload the Prescaler
     and the repetition counter (only for advanced timer) value immediately */
  TIMx->EGR = TIM_EGR_UG;
 800227a:	687b      	ldr	r3, [r7, #4]
 800227c:	2201      	movs	r2, #1
 800227e:	615a      	str	r2, [r3, #20]
}
 8002280:	46c0      	nop			; (mov r8, r8)
 8002282:	46bd      	mov	sp, r7
 8002284:	b004      	add	sp, #16
 8002286:	bd80      	pop	{r7, pc}
 8002288:	40012c00 	.word	0x40012c00
 800228c:	40000400 	.word	0x40000400
 8002290:	40002000 	.word	0x40002000
 8002294:	40014000 	.word	0x40014000
 8002298:	40014400 	.word	0x40014400
 800229c:	40014800 	.word	0x40014800
 80022a0:	fffffcff 	.word	0xfffffcff

080022a4 <TIM_OC1_SetConfig>:
  * @param  TIMx to select the TIM peripheral
  * @param  OC_Config The ouput configuration structure
  * @retval None
  */
static void TIM_OC1_SetConfig(TIM_TypeDef *TIMx, TIM_OC_InitTypeDef *OC_Config)
{
 80022a4:	b580      	push	{r7, lr}
 80022a6:	b086      	sub	sp, #24
 80022a8:	af00      	add	r7, sp, #0
 80022aa:	6078      	str	r0, [r7, #4]
 80022ac:	6039      	str	r1, [r7, #0]
  uint32_t tmpccmrx;
  uint32_t tmpccer;
  uint32_t tmpcr2;

  /* Disable the Channel 1: Reset the CC1E Bit */
  TIMx->CCER &= ~TIM_CCER_CC1E;
 80022ae:	687b      	ldr	r3, [r7, #4]
 80022b0:	6a1b      	ldr	r3, [r3, #32]
 80022b2:	2201      	movs	r2, #1
 80022b4:	4393      	bics	r3, r2
 80022b6:	001a      	movs	r2, r3
 80022b8:	687b      	ldr	r3, [r7, #4]
 80022ba:	621a      	str	r2, [r3, #32]

  /* Get the TIMx CCER register value */
  tmpccer = TIMx->CCER;
 80022bc:	687b      	ldr	r3, [r7, #4]
 80022be:	6a1b      	ldr	r3, [r3, #32]
 80022c0:	617b      	str	r3, [r7, #20]
  /* Get the TIMx CR2 register value */
  tmpcr2 =  TIMx->CR2;
 80022c2:	687b      	ldr	r3, [r7, #4]
 80022c4:	685b      	ldr	r3, [r3, #4]
 80022c6:	613b      	str	r3, [r7, #16]

  /* Get the TIMx CCMR1 register value */
  tmpccmrx = TIMx->CCMR1;
 80022c8:	687b      	ldr	r3, [r7, #4]
 80022ca:	699b      	ldr	r3, [r3, #24]
 80022cc:	60fb      	str	r3, [r7, #12]

  /* Reset the Output Compare Mode Bits */
  tmpccmrx &= ~TIM_CCMR1_OC1M;
 80022ce:	68fb      	ldr	r3, [r7, #12]
 80022d0:	2270      	movs	r2, #112	; 0x70
 80022d2:	4393      	bics	r3, r2
 80022d4:	60fb      	str	r3, [r7, #12]
  tmpccmrx &= ~TIM_CCMR1_CC1S;
 80022d6:	68fb      	ldr	r3, [r7, #12]
 80022d8:	2203      	movs	r2, #3
 80022da:	4393      	bics	r3, r2
 80022dc:	60fb      	str	r3, [r7, #12]
  /* Select the Output Compare Mode */
  tmpccmrx |= OC_Config->OCMode;
 80022de:	683b      	ldr	r3, [r7, #0]
 80022e0:	681b      	ldr	r3, [r3, #0]
 80022e2:	68fa      	ldr	r2, [r7, #12]
 80022e4:	4313      	orrs	r3, r2
 80022e6:	60fb      	str	r3, [r7, #12]

  /* Reset the Output Polarity level */
  tmpccer &= ~TIM_CCER_CC1P;
 80022e8:	697b      	ldr	r3, [r7, #20]
 80022ea:	2202      	movs	r2, #2
 80022ec:	4393      	bics	r3, r2
 80022ee:	617b      	str	r3, [r7, #20]
  /* Set the Output Compare Polarity */
  tmpccer |= OC_Config->OCPolarity;
 80022f0:	683b      	ldr	r3, [r7, #0]
 80022f2:	689b      	ldr	r3, [r3, #8]
 80022f4:	697a      	ldr	r2, [r7, #20]
 80022f6:	4313      	orrs	r3, r2
 80022f8:	617b      	str	r3, [r7, #20]

  if (IS_TIM_CCXN_INSTANCE(TIMx, TIM_CHANNEL_1))
 80022fa:	687b      	ldr	r3, [r7, #4]
 80022fc:	4a27      	ldr	r2, [pc, #156]	; (800239c <TIM_OC1_SetConfig+0xf8>)
 80022fe:	4293      	cmp	r3, r2
 8002300:	d00b      	beq.n	800231a <TIM_OC1_SetConfig+0x76>
 8002302:	687b      	ldr	r3, [r7, #4]
 8002304:	4a26      	ldr	r2, [pc, #152]	; (80023a0 <TIM_OC1_SetConfig+0xfc>)
 8002306:	4293      	cmp	r3, r2
 8002308:	d007      	beq.n	800231a <TIM_OC1_SetConfig+0x76>
 800230a:	687b      	ldr	r3, [r7, #4]
 800230c:	4a25      	ldr	r2, [pc, #148]	; (80023a4 <TIM_OC1_SetConfig+0x100>)
 800230e:	4293      	cmp	r3, r2
 8002310:	d003      	beq.n	800231a <TIM_OC1_SetConfig+0x76>
 8002312:	687b      	ldr	r3, [r7, #4]
 8002314:	4a24      	ldr	r2, [pc, #144]	; (80023a8 <TIM_OC1_SetConfig+0x104>)
 8002316:	4293      	cmp	r3, r2
 8002318:	d10c      	bne.n	8002334 <TIM_OC1_SetConfig+0x90>
  {
    /* Check parameters */
    assert_param(IS_TIM_OCN_POLARITY(OC_Config->OCNPolarity));

    /* Reset the Output N Polarity level */
    tmpccer &= ~TIM_CCER_CC1NP;
 800231a:	697b      	ldr	r3, [r7, #20]
 800231c:	2208      	movs	r2, #8
 800231e:	4393      	bics	r3, r2
 8002320:	617b      	str	r3, [r7, #20]
    /* Set the Output N Polarity */
    tmpccer |= OC_Config->OCNPolarity;
 8002322:	683b      	ldr	r3, [r7, #0]
 8002324:	68db      	ldr	r3, [r3, #12]
 8002326:	697a      	ldr	r2, [r7, #20]
 8002328:	4313      	orrs	r3, r2
 800232a:	617b      	str	r3, [r7, #20]
    /* Reset the Output N State */
    tmpccer &= ~TIM_CCER_CC1NE;
 800232c:	697b      	ldr	r3, [r7, #20]
 800232e:	2204      	movs	r2, #4
 8002330:	4393      	bics	r3, r2
 8002332:	617b      	str	r3, [r7, #20]
  }

  if (IS_TIM_BREAK_INSTANCE(TIMx))
 8002334:	687b      	ldr	r3, [r7, #4]
 8002336:	4a19      	ldr	r2, [pc, #100]	; (800239c <TIM_OC1_SetConfig+0xf8>)
 8002338:	4293      	cmp	r3, r2
 800233a:	d00b      	beq.n	8002354 <TIM_OC1_SetConfig+0xb0>
 800233c:	687b      	ldr	r3, [r7, #4]
 800233e:	4a18      	ldr	r2, [pc, #96]	; (80023a0 <TIM_OC1_SetConfig+0xfc>)
 8002340:	4293      	cmp	r3, r2
 8002342:	d007      	beq.n	8002354 <TIM_OC1_SetConfig+0xb0>
 8002344:	687b      	ldr	r3, [r7, #4]
 8002346:	4a17      	ldr	r2, [pc, #92]	; (80023a4 <TIM_OC1_SetConfig+0x100>)
 8002348:	4293      	cmp	r3, r2
 800234a:	d003      	beq.n	8002354 <TIM_OC1_SetConfig+0xb0>
 800234c:	687b      	ldr	r3, [r7, #4]
 800234e:	4a16      	ldr	r2, [pc, #88]	; (80023a8 <TIM_OC1_SetConfig+0x104>)
 8002350:	4293      	cmp	r3, r2
 8002352:	d111      	bne.n	8002378 <TIM_OC1_SetConfig+0xd4>
    /* Check parameters */
    assert_param(IS_TIM_OCNIDLE_STATE(OC_Config->OCNIdleState));
    assert_param(IS_TIM_OCIDLE_STATE(OC_Config->OCIdleState));

    /* Reset the Output Compare and Output Compare N IDLE State */
    tmpcr2 &= ~TIM_CR2_OIS1;
 8002354:	693b      	ldr	r3, [r7, #16]
 8002356:	4a15      	ldr	r2, [pc, #84]	; (80023ac <TIM_OC1_SetConfig+0x108>)
 8002358:	4013      	ands	r3, r2
 800235a:	613b      	str	r3, [r7, #16]
    tmpcr2 &= ~TIM_CR2_OIS1N;
 800235c:	693b      	ldr	r3, [r7, #16]
 800235e:	4a14      	ldr	r2, [pc, #80]	; (80023b0 <TIM_OC1_SetConfig+0x10c>)
 8002360:	4013      	ands	r3, r2
 8002362:	613b      	str	r3, [r7, #16]
    /* Set the Output Idle state */
    tmpcr2 |= OC_Config->OCIdleState;
 8002364:	683b      	ldr	r3, [r7, #0]
 8002366:	695b      	ldr	r3, [r3, #20]
 8002368:	693a      	ldr	r2, [r7, #16]
 800236a:	4313      	orrs	r3, r2
 800236c:	613b      	str	r3, [r7, #16]
    /* Set the Output N Idle state */
    tmpcr2 |= OC_Config->OCNIdleState;
 800236e:	683b      	ldr	r3, [r7, #0]
 8002370:	699b      	ldr	r3, [r3, #24]
 8002372:	693a      	ldr	r2, [r7, #16]
 8002374:	4313      	orrs	r3, r2
 8002376:	613b      	str	r3, [r7, #16]
  }

  /* Write to TIMx CR2 */
  TIMx->CR2 = tmpcr2;
 8002378:	687b      	ldr	r3, [r7, #4]
 800237a:	693a      	ldr	r2, [r7, #16]
 800237c:	605a      	str	r2, [r3, #4]

  /* Write to TIMx CCMR1 */
  TIMx->CCMR1 = tmpccmrx;
 800237e:	687b      	ldr	r3, [r7, #4]
 8002380:	68fa      	ldr	r2, [r7, #12]
 8002382:	619a      	str	r2, [r3, #24]

  /* Set the Capture Compare Register value */
  TIMx->CCR1 = OC_Config->Pulse;
 8002384:	683b      	ldr	r3, [r7, #0]
 8002386:	685a      	ldr	r2, [r3, #4]
 8002388:	687b      	ldr	r3, [r7, #4]
 800238a:	635a      	str	r2, [r3, #52]	; 0x34

  /* Write to TIMx CCER */
  TIMx->CCER = tmpccer;
 800238c:	687b      	ldr	r3, [r7, #4]
 800238e:	697a      	ldr	r2, [r7, #20]
 8002390:	621a      	str	r2, [r3, #32]
}
 8002392:	46c0      	nop			; (mov r8, r8)
 8002394:	46bd      	mov	sp, r7
 8002396:	b006      	add	sp, #24
 8002398:	bd80      	pop	{r7, pc}
 800239a:	46c0      	nop			; (mov r8, r8)
 800239c:	40012c00 	.word	0x40012c00
 80023a0:	40014000 	.word	0x40014000
 80023a4:	40014400 	.word	0x40014400
 80023a8:	40014800 	.word	0x40014800
 80023ac:	fffffeff 	.word	0xfffffeff
 80023b0:	fffffdff 	.word	0xfffffdff

080023b4 <TIM_OC2_SetConfig>:
  * @param  TIMx to select the TIM peripheral
  * @param  OC_Config The ouput configuration structure
  * @retval None
  */
void TIM_OC2_SetConfig(TIM_TypeDef *TIMx, TIM_OC_InitTypeDef *OC_Config)
{
 80023b4:	b580      	push	{r7, lr}
 80023b6:	b086      	sub	sp, #24
 80023b8:	af00      	add	r7, sp, #0
 80023ba:	6078      	str	r0, [r7, #4]
 80023bc:	6039      	str	r1, [r7, #0]
  uint32_t tmpccmrx;
  uint32_t tmpccer;
  uint32_t tmpcr2;

  /* Disable the Channel 2: Reset the CC2E Bit */
  TIMx->CCER &= ~TIM_CCER_CC2E;
 80023be:	687b      	ldr	r3, [r7, #4]
 80023c0:	6a1b      	ldr	r3, [r3, #32]
 80023c2:	2210      	movs	r2, #16
 80023c4:	4393      	bics	r3, r2
 80023c6:	001a      	movs	r2, r3
 80023c8:	687b      	ldr	r3, [r7, #4]
 80023ca:	621a      	str	r2, [r3, #32]

  /* Get the TIMx CCER register value */
  tmpccer = TIMx->CCER;
 80023cc:	687b      	ldr	r3, [r7, #4]
 80023ce:	6a1b      	ldr	r3, [r3, #32]
 80023d0:	617b      	str	r3, [r7, #20]
  /* Get the TIMx CR2 register value */
  tmpcr2 =  TIMx->CR2;
 80023d2:	687b      	ldr	r3, [r7, #4]
 80023d4:	685b      	ldr	r3, [r3, #4]
 80023d6:	613b      	str	r3, [r7, #16]

  /* Get the TIMx CCMR1 register value */
  tmpccmrx = TIMx->CCMR1;
 80023d8:	687b      	ldr	r3, [r7, #4]
 80023da:	699b      	ldr	r3, [r3, #24]
 80023dc:	60fb      	str	r3, [r7, #12]

  /* Reset the Output Compare mode and Capture/Compare selection Bits */
  tmpccmrx &= ~TIM_CCMR1_OC2M;
 80023de:	68fb      	ldr	r3, [r7, #12]
 80023e0:	4a2e      	ldr	r2, [pc, #184]	; (800249c <TIM_OC2_SetConfig+0xe8>)
 80023e2:	4013      	ands	r3, r2
 80023e4:	60fb      	str	r3, [r7, #12]
  tmpccmrx &= ~TIM_CCMR1_CC2S;
 80023e6:	68fb      	ldr	r3, [r7, #12]
 80023e8:	4a2d      	ldr	r2, [pc, #180]	; (80024a0 <TIM_OC2_SetConfig+0xec>)
 80023ea:	4013      	ands	r3, r2
 80023ec:	60fb      	str	r3, [r7, #12]

  /* Select the Output Compare Mode */
  tmpccmrx |= (OC_Config->OCMode << 8U);
 80023ee:	683b      	ldr	r3, [r7, #0]
 80023f0:	681b      	ldr	r3, [r3, #0]
 80023f2:	021b      	lsls	r3, r3, #8
 80023f4:	68fa      	ldr	r2, [r7, #12]
 80023f6:	4313      	orrs	r3, r2
 80023f8:	60fb      	str	r3, [r7, #12]

  /* Reset the Output Polarity level */
  tmpccer &= ~TIM_CCER_CC2P;
 80023fa:	697b      	ldr	r3, [r7, #20]
 80023fc:	2220      	movs	r2, #32
 80023fe:	4393      	bics	r3, r2
 8002400:	617b      	str	r3, [r7, #20]
  /* Set the Output Compare Polarity */
  tmpccer |= (OC_Config->OCPolarity << 4U);
 8002402:	683b      	ldr	r3, [r7, #0]
 8002404:	689b      	ldr	r3, [r3, #8]
 8002406:	011b      	lsls	r3, r3, #4
 8002408:	697a      	ldr	r2, [r7, #20]
 800240a:	4313      	orrs	r3, r2
 800240c:	617b      	str	r3, [r7, #20]

  if (IS_TIM_CCXN_INSTANCE(TIMx, TIM_CHANNEL_2))
 800240e:	687b      	ldr	r3, [r7, #4]
 8002410:	4a24      	ldr	r2, [pc, #144]	; (80024a4 <TIM_OC2_SetConfig+0xf0>)
 8002412:	4293      	cmp	r3, r2
 8002414:	d10d      	bne.n	8002432 <TIM_OC2_SetConfig+0x7e>
  {
    assert_param(IS_TIM_OCN_POLARITY(OC_Config->OCNPolarity));

    /* Reset the Output N Polarity level */
    tmpccer &= ~TIM_CCER_CC2NP;
 8002416:	697b      	ldr	r3, [r7, #20]
 8002418:	2280      	movs	r2, #128	; 0x80
 800241a:	4393      	bics	r3, r2
 800241c:	617b      	str	r3, [r7, #20]
    /* Set the Output N Polarity */
    tmpccer |= (OC_Config->OCNPolarity << 4U);
 800241e:	683b      	ldr	r3, [r7, #0]
 8002420:	68db      	ldr	r3, [r3, #12]
 8002422:	011b      	lsls	r3, r3, #4
 8002424:	697a      	ldr	r2, [r7, #20]
 8002426:	4313      	orrs	r3, r2
 8002428:	617b      	str	r3, [r7, #20]
    /* Reset the Output N State */
    tmpccer &= ~TIM_CCER_CC2NE;
 800242a:	697b      	ldr	r3, [r7, #20]
 800242c:	2240      	movs	r2, #64	; 0x40
 800242e:	4393      	bics	r3, r2
 8002430:	617b      	str	r3, [r7, #20]

  }

  if (IS_TIM_BREAK_INSTANCE(TIMx))
 8002432:	687b      	ldr	r3, [r7, #4]
 8002434:	4a1b      	ldr	r2, [pc, #108]	; (80024a4 <TIM_OC2_SetConfig+0xf0>)
 8002436:	4293      	cmp	r3, r2
 8002438:	d00b      	beq.n	8002452 <TIM_OC2_SetConfig+0x9e>
 800243a:	687b      	ldr	r3, [r7, #4]
 800243c:	4a1a      	ldr	r2, [pc, #104]	; (80024a8 <TIM_OC2_SetConfig+0xf4>)
 800243e:	4293      	cmp	r3, r2
 8002440:	d007      	beq.n	8002452 <TIM_OC2_SetConfig+0x9e>
 8002442:	687b      	ldr	r3, [r7, #4]
 8002444:	4a19      	ldr	r2, [pc, #100]	; (80024ac <TIM_OC2_SetConfig+0xf8>)
 8002446:	4293      	cmp	r3, r2
 8002448:	d003      	beq.n	8002452 <TIM_OC2_SetConfig+0x9e>
 800244a:	687b      	ldr	r3, [r7, #4]
 800244c:	4a18      	ldr	r2, [pc, #96]	; (80024b0 <TIM_OC2_SetConfig+0xfc>)
 800244e:	4293      	cmp	r3, r2
 8002450:	d113      	bne.n	800247a <TIM_OC2_SetConfig+0xc6>
    /* Check parameters */
    assert_param(IS_TIM_OCNIDLE_STATE(OC_Config->OCNIdleState));
    assert_param(IS_TIM_OCIDLE_STATE(OC_Config->OCIdleState));

    /* Reset the Output Compare and Output Compare N IDLE State */
    tmpcr2 &= ~TIM_CR2_OIS2;
 8002452:	693b      	ldr	r3, [r7, #16]
 8002454:	4a17      	ldr	r2, [pc, #92]	; (80024b4 <TIM_OC2_SetConfig+0x100>)
 8002456:	4013      	ands	r3, r2
 8002458:	613b      	str	r3, [r7, #16]
    tmpcr2 &= ~TIM_CR2_OIS2N;
 800245a:	693b      	ldr	r3, [r7, #16]
 800245c:	4a16      	ldr	r2, [pc, #88]	; (80024b8 <TIM_OC2_SetConfig+0x104>)
 800245e:	4013      	ands	r3, r2
 8002460:	613b      	str	r3, [r7, #16]
    /* Set the Output Idle state */
    tmpcr2 |= (OC_Config->OCIdleState << 2U);
 8002462:	683b      	ldr	r3, [r7, #0]
 8002464:	695b      	ldr	r3, [r3, #20]
 8002466:	009b      	lsls	r3, r3, #2
 8002468:	693a      	ldr	r2, [r7, #16]
 800246a:	4313      	orrs	r3, r2
 800246c:	613b      	str	r3, [r7, #16]
    /* Set the Output N Idle state */
    tmpcr2 |= (OC_Config->OCNIdleState << 2U);
 800246e:	683b      	ldr	r3, [r7, #0]
 8002470:	699b      	ldr	r3, [r3, #24]
 8002472:	009b      	lsls	r3, r3, #2
 8002474:	693a      	ldr	r2, [r7, #16]
 8002476:	4313      	orrs	r3, r2
 8002478:	613b      	str	r3, [r7, #16]
  }

  /* Write to TIMx CR2 */
  TIMx->CR2 = tmpcr2;
 800247a:	687b      	ldr	r3, [r7, #4]
 800247c:	693a      	ldr	r2, [r7, #16]
 800247e:	605a      	str	r2, [r3, #4]

  /* Write to TIMx CCMR1 */
  TIMx->CCMR1 = tmpccmrx;
 8002480:	687b      	ldr	r3, [r7, #4]
 8002482:	68fa      	ldr	r2, [r7, #12]
 8002484:	619a      	str	r2, [r3, #24]

  /* Set the Capture Compare Register value */
  TIMx->CCR2 = OC_Config->Pulse;
 8002486:	683b      	ldr	r3, [r7, #0]
 8002488:	685a      	ldr	r2, [r3, #4]
 800248a:	687b      	ldr	r3, [r7, #4]
 800248c:	639a      	str	r2, [r3, #56]	; 0x38

  /* Write to TIMx CCER */
  TIMx->CCER = tmpccer;
 800248e:	687b      	ldr	r3, [r7, #4]
 8002490:	697a      	ldr	r2, [r7, #20]
 8002492:	621a      	str	r2, [r3, #32]
}
 8002494:	46c0      	nop			; (mov r8, r8)
 8002496:	46bd      	mov	sp, r7
 8002498:	b006      	add	sp, #24
 800249a:	bd80      	pop	{r7, pc}
 800249c:	ffff8fff 	.word	0xffff8fff
 80024a0:	fffffcff 	.word	0xfffffcff
 80024a4:	40012c00 	.word	0x40012c00
 80024a8:	40014000 	.word	0x40014000
 80024ac:	40014400 	.word	0x40014400
 80024b0:	40014800 	.word	0x40014800
 80024b4:	fffffbff 	.word	0xfffffbff
 80024b8:	fffff7ff 	.word	0xfffff7ff

080024bc <TIM_OC3_SetConfig>:
  * @param  TIMx to select the TIM peripheral
  * @param  OC_Config The ouput configuration structure
  * @retval None
  */
static void TIM_OC3_SetConfig(TIM_TypeDef *TIMx, TIM_OC_InitTypeDef *OC_Config)
{
 80024bc:	b580      	push	{r7, lr}
 80024be:	b086      	sub	sp, #24
 80024c0:	af00      	add	r7, sp, #0
 80024c2:	6078      	str	r0, [r7, #4]
 80024c4:	6039      	str	r1, [r7, #0]
  uint32_t tmpccmrx;
  uint32_t tmpccer;
  uint32_t tmpcr2;

  /* Disable the Channel 3: Reset the CC2E Bit */
  TIMx->CCER &= ~TIM_CCER_CC3E;
 80024c6:	687b      	ldr	r3, [r7, #4]
 80024c8:	6a1b      	ldr	r3, [r3, #32]
 80024ca:	4a35      	ldr	r2, [pc, #212]	; (80025a0 <TIM_OC3_SetConfig+0xe4>)
 80024cc:	401a      	ands	r2, r3
 80024ce:	687b      	ldr	r3, [r7, #4]
 80024d0:	621a      	str	r2, [r3, #32]

  /* Get the TIMx CCER register value */
  tmpccer = TIMx->CCER;
 80024d2:	687b      	ldr	r3, [r7, #4]
 80024d4:	6a1b      	ldr	r3, [r3, #32]
 80024d6:	617b      	str	r3, [r7, #20]
  /* Get the TIMx CR2 register value */
  tmpcr2 =  TIMx->CR2;
 80024d8:	687b      	ldr	r3, [r7, #4]
 80024da:	685b      	ldr	r3, [r3, #4]
 80024dc:	613b      	str	r3, [r7, #16]

  /* Get the TIMx CCMR2 register value */
  tmpccmrx = TIMx->CCMR2;
 80024de:	687b      	ldr	r3, [r7, #4]
 80024e0:	69db      	ldr	r3, [r3, #28]
 80024e2:	60fb      	str	r3, [r7, #12]

  /* Reset the Output Compare mode and Capture/Compare selection Bits */
  tmpccmrx &= ~TIM_CCMR2_OC3M;
 80024e4:	68fb      	ldr	r3, [r7, #12]
 80024e6:	2270      	movs	r2, #112	; 0x70
 80024e8:	4393      	bics	r3, r2
 80024ea:	60fb      	str	r3, [r7, #12]
  tmpccmrx &= ~TIM_CCMR2_CC3S;
 80024ec:	68fb      	ldr	r3, [r7, #12]
 80024ee:	2203      	movs	r2, #3
 80024f0:	4393      	bics	r3, r2
 80024f2:	60fb      	str	r3, [r7, #12]
  /* Select the Output Compare Mode */
  tmpccmrx |= OC_Config->OCMode;
 80024f4:	683b      	ldr	r3, [r7, #0]
 80024f6:	681b      	ldr	r3, [r3, #0]
 80024f8:	68fa      	ldr	r2, [r7, #12]
 80024fa:	4313      	orrs	r3, r2
 80024fc:	60fb      	str	r3, [r7, #12]

  /* Reset the Output Polarity level */
  tmpccer &= ~TIM_CCER_CC3P;
 80024fe:	697b      	ldr	r3, [r7, #20]
 8002500:	4a28      	ldr	r2, [pc, #160]	; (80025a4 <TIM_OC3_SetConfig+0xe8>)
 8002502:	4013      	ands	r3, r2
 8002504:	617b      	str	r3, [r7, #20]
  /* Set the Output Compare Polarity */
  tmpccer |= (OC_Config->OCPolarity << 8U);
 8002506:	683b      	ldr	r3, [r7, #0]
 8002508:	689b      	ldr	r3, [r3, #8]
 800250a:	021b      	lsls	r3, r3, #8
 800250c:	697a      	ldr	r2, [r7, #20]
 800250e:	4313      	orrs	r3, r2
 8002510:	617b      	str	r3, [r7, #20]

  if (IS_TIM_CCXN_INSTANCE(TIMx, TIM_CHANNEL_3))
 8002512:	687b      	ldr	r3, [r7, #4]
 8002514:	4a24      	ldr	r2, [pc, #144]	; (80025a8 <TIM_OC3_SetConfig+0xec>)
 8002516:	4293      	cmp	r3, r2
 8002518:	d10d      	bne.n	8002536 <TIM_OC3_SetConfig+0x7a>
  {
    assert_param(IS_TIM_OCN_POLARITY(OC_Config->OCNPolarity));

    /* Reset the Output N Polarity level */
    tmpccer &= ~TIM_CCER_CC3NP;
 800251a:	697b      	ldr	r3, [r7, #20]
 800251c:	4a23      	ldr	r2, [pc, #140]	; (80025ac <TIM_OC3_SetConfig+0xf0>)
 800251e:	4013      	ands	r3, r2
 8002520:	617b      	str	r3, [r7, #20]
    /* Set the Output N Polarity */
    tmpccer |= (OC_Config->OCNPolarity << 8U);
 8002522:	683b      	ldr	r3, [r7, #0]
 8002524:	68db      	ldr	r3, [r3, #12]
 8002526:	021b      	lsls	r3, r3, #8
 8002528:	697a      	ldr	r2, [r7, #20]
 800252a:	4313      	orrs	r3, r2
 800252c:	617b      	str	r3, [r7, #20]
    /* Reset the Output N State */
    tmpccer &= ~TIM_CCER_CC3NE;
 800252e:	697b      	ldr	r3, [r7, #20]
 8002530:	4a1f      	ldr	r2, [pc, #124]	; (80025b0 <TIM_OC3_SetConfig+0xf4>)
 8002532:	4013      	ands	r3, r2
 8002534:	617b      	str	r3, [r7, #20]
  }

  if (IS_TIM_BREAK_INSTANCE(TIMx))
 8002536:	687b      	ldr	r3, [r7, #4]
 8002538:	4a1b      	ldr	r2, [pc, #108]	; (80025a8 <TIM_OC3_SetConfig+0xec>)
 800253a:	4293      	cmp	r3, r2
 800253c:	d00b      	beq.n	8002556 <TIM_OC3_SetConfig+0x9a>
 800253e:	687b      	ldr	r3, [r7, #4]
 8002540:	4a1c      	ldr	r2, [pc, #112]	; (80025b4 <TIM_OC3_SetConfig+0xf8>)
 8002542:	4293      	cmp	r3, r2
 8002544:	d007      	beq.n	8002556 <TIM_OC3_SetConfig+0x9a>
 8002546:	687b      	ldr	r3, [r7, #4]
 8002548:	4a1b      	ldr	r2, [pc, #108]	; (80025b8 <TIM_OC3_SetConfig+0xfc>)
 800254a:	4293      	cmp	r3, r2
 800254c:	d003      	beq.n	8002556 <TIM_OC3_SetConfig+0x9a>
 800254e:	687b      	ldr	r3, [r7, #4]
 8002550:	4a1a      	ldr	r2, [pc, #104]	; (80025bc <TIM_OC3_SetConfig+0x100>)
 8002552:	4293      	cmp	r3, r2
 8002554:	d113      	bne.n	800257e <TIM_OC3_SetConfig+0xc2>
    /* Check parameters */
    assert_param(IS_TIM_OCNIDLE_STATE(OC_Config->OCNIdleState));
    assert_param(IS_TIM_OCIDLE_STATE(OC_Config->OCIdleState));

    /* Reset the Output Compare and Output Compare N IDLE State */
    tmpcr2 &= ~TIM_CR2_OIS3;
 8002556:	693b      	ldr	r3, [r7, #16]
 8002558:	4a19      	ldr	r2, [pc, #100]	; (80025c0 <TIM_OC3_SetConfig+0x104>)
 800255a:	4013      	ands	r3, r2
 800255c:	613b      	str	r3, [r7, #16]
    tmpcr2 &= ~TIM_CR2_OIS3N;
 800255e:	693b      	ldr	r3, [r7, #16]
 8002560:	4a18      	ldr	r2, [pc, #96]	; (80025c4 <TIM_OC3_SetConfig+0x108>)
 8002562:	4013      	ands	r3, r2
 8002564:	613b      	str	r3, [r7, #16]
    /* Set the Output Idle state */
    tmpcr2 |= (OC_Config->OCIdleState << 4U);
 8002566:	683b      	ldr	r3, [r7, #0]
 8002568:	695b      	ldr	r3, [r3, #20]
 800256a:	011b      	lsls	r3, r3, #4
 800256c:	693a      	ldr	r2, [r7, #16]
 800256e:	4313      	orrs	r3, r2
 8002570:	613b      	str	r3, [r7, #16]
    /* Set the Output N Idle state */
    tmpcr2 |= (OC_Config->OCNIdleState << 4U);
 8002572:	683b      	ldr	r3, [r7, #0]
 8002574:	699b      	ldr	r3, [r3, #24]
 8002576:	011b      	lsls	r3, r3, #4
 8002578:	693a      	ldr	r2, [r7, #16]
 800257a:	4313      	orrs	r3, r2
 800257c:	613b      	str	r3, [r7, #16]
  }

  /* Write to TIMx CR2 */
  TIMx->CR2 = tmpcr2;
 800257e:	687b      	ldr	r3, [r7, #4]
 8002580:	693a      	ldr	r2, [r7, #16]
 8002582:	605a      	str	r2, [r3, #4]

  /* Write to TIMx CCMR2 */
  TIMx->CCMR2 = tmpccmrx;
 8002584:	687b      	ldr	r3, [r7, #4]
 8002586:	68fa      	ldr	r2, [r7, #12]
 8002588:	61da      	str	r2, [r3, #28]

  /* Set the Capture Compare Register value */
  TIMx->CCR3 = OC_Config->Pulse;
 800258a:	683b      	ldr	r3, [r7, #0]
 800258c:	685a      	ldr	r2, [r3, #4]
 800258e:	687b      	ldr	r3, [r7, #4]
 8002590:	63da      	str	r2, [r3, #60]	; 0x3c

  /* Write to TIMx CCER */
  TIMx->CCER = tmpccer;
 8002592:	687b      	ldr	r3, [r7, #4]
 8002594:	697a      	ldr	r2, [r7, #20]
 8002596:	621a      	str	r2, [r3, #32]
}
 8002598:	46c0      	nop			; (mov r8, r8)
 800259a:	46bd      	mov	sp, r7
 800259c:	b006      	add	sp, #24
 800259e:	bd80      	pop	{r7, pc}
 80025a0:	fffffeff 	.word	0xfffffeff
 80025a4:	fffffdff 	.word	0xfffffdff
 80025a8:	40012c00 	.word	0x40012c00
 80025ac:	fffff7ff 	.word	0xfffff7ff
 80025b0:	fffffbff 	.word	0xfffffbff
 80025b4:	40014000 	.word	0x40014000
 80025b8:	40014400 	.word	0x40014400
 80025bc:	40014800 	.word	0x40014800
 80025c0:	ffffefff 	.word	0xffffefff
 80025c4:	ffffdfff 	.word	0xffffdfff

080025c8 <TIM_OC4_SetConfig>:
  * @param  TIMx to select the TIM peripheral
  * @param  OC_Config The ouput configuration structure
  * @retval None
  */
static void TIM_OC4_SetConfig(TIM_TypeDef *TIMx, TIM_OC_InitTypeDef *OC_Config)
{
 80025c8:	b580      	push	{r7, lr}
 80025ca:	b086      	sub	sp, #24
 80025cc:	af00      	add	r7, sp, #0
 80025ce:	6078      	str	r0, [r7, #4]
 80025d0:	6039      	str	r1, [r7, #0]
  uint32_t tmpccmrx;
  uint32_t tmpccer;
  uint32_t tmpcr2;

  /* Disable the Channel 4: Reset the CC4E Bit */
  TIMx->CCER &= ~TIM_CCER_CC4E;
 80025d2:	687b      	ldr	r3, [r7, #4]
 80025d4:	6a1b      	ldr	r3, [r3, #32]
 80025d6:	4a28      	ldr	r2, [pc, #160]	; (8002678 <TIM_OC4_SetConfig+0xb0>)
 80025d8:	401a      	ands	r2, r3
 80025da:	687b      	ldr	r3, [r7, #4]
 80025dc:	621a      	str	r2, [r3, #32]

  /* Get the TIMx CCER register value */
  tmpccer = TIMx->CCER;
 80025de:	687b      	ldr	r3, [r7, #4]
 80025e0:	6a1b      	ldr	r3, [r3, #32]
 80025e2:	613b      	str	r3, [r7, #16]
  /* Get the TIMx CR2 register value */
  tmpcr2 =  TIMx->CR2;
 80025e4:	687b      	ldr	r3, [r7, #4]
 80025e6:	685b      	ldr	r3, [r3, #4]
 80025e8:	617b      	str	r3, [r7, #20]

  /* Get the TIMx CCMR2 register value */
  tmpccmrx = TIMx->CCMR2;
 80025ea:	687b      	ldr	r3, [r7, #4]
 80025ec:	69db      	ldr	r3, [r3, #28]
 80025ee:	60fb      	str	r3, [r7, #12]

  /* Reset the Output Compare mode and Capture/Compare selection Bits */
  tmpccmrx &= ~TIM_CCMR2_OC4M;
 80025f0:	68fb      	ldr	r3, [r7, #12]
 80025f2:	4a22      	ldr	r2, [pc, #136]	; (800267c <TIM_OC4_SetConfig+0xb4>)
 80025f4:	4013      	ands	r3, r2
 80025f6:	60fb      	str	r3, [r7, #12]
  tmpccmrx &= ~TIM_CCMR2_CC4S;
 80025f8:	68fb      	ldr	r3, [r7, #12]
 80025fa:	4a21      	ldr	r2, [pc, #132]	; (8002680 <TIM_OC4_SetConfig+0xb8>)
 80025fc:	4013      	ands	r3, r2
 80025fe:	60fb      	str	r3, [r7, #12]

  /* Select the Output Compare Mode */
  tmpccmrx |= (OC_Config->OCMode << 8U);
 8002600:	683b      	ldr	r3, [r7, #0]
 8002602:	681b      	ldr	r3, [r3, #0]
 8002604:	021b      	lsls	r3, r3, #8
 8002606:	68fa      	ldr	r2, [r7, #12]
 8002608:	4313      	orrs	r3, r2
 800260a:	60fb      	str	r3, [r7, #12]

  /* Reset the Output Polarity level */
  tmpccer &= ~TIM_CCER_CC4P;
 800260c:	693b      	ldr	r3, [r7, #16]
 800260e:	4a1d      	ldr	r2, [pc, #116]	; (8002684 <TIM_OC4_SetConfig+0xbc>)
 8002610:	4013      	ands	r3, r2
 8002612:	613b      	str	r3, [r7, #16]
  /* Set the Output Compare Polarity */
  tmpccer |= (OC_Config->OCPolarity << 12U);
 8002614:	683b      	ldr	r3, [r7, #0]
 8002616:	689b      	ldr	r3, [r3, #8]
 8002618:	031b      	lsls	r3, r3, #12
 800261a:	693a      	ldr	r2, [r7, #16]
 800261c:	4313      	orrs	r3, r2
 800261e:	613b      	str	r3, [r7, #16]

  if (IS_TIM_BREAK_INSTANCE(TIMx))
 8002620:	687b      	ldr	r3, [r7, #4]
 8002622:	4a19      	ldr	r2, [pc, #100]	; (8002688 <TIM_OC4_SetConfig+0xc0>)
 8002624:	4293      	cmp	r3, r2
 8002626:	d00b      	beq.n	8002640 <TIM_OC4_SetConfig+0x78>
 8002628:	687b      	ldr	r3, [r7, #4]
 800262a:	4a18      	ldr	r2, [pc, #96]	; (800268c <TIM_OC4_SetConfig+0xc4>)
 800262c:	4293      	cmp	r3, r2
 800262e:	d007      	beq.n	8002640 <TIM_OC4_SetConfig+0x78>
 8002630:	687b      	ldr	r3, [r7, #4]
 8002632:	4a17      	ldr	r2, [pc, #92]	; (8002690 <TIM_OC4_SetConfig+0xc8>)
 8002634:	4293      	cmp	r3, r2
 8002636:	d003      	beq.n	8002640 <TIM_OC4_SetConfig+0x78>
 8002638:	687b      	ldr	r3, [r7, #4]
 800263a:	4a16      	ldr	r2, [pc, #88]	; (8002694 <TIM_OC4_SetConfig+0xcc>)
 800263c:	4293      	cmp	r3, r2
 800263e:	d109      	bne.n	8002654 <TIM_OC4_SetConfig+0x8c>
  {
    /* Check parameters */
    assert_param(IS_TIM_OCIDLE_STATE(OC_Config->OCIdleState));

    /* Reset the Output Compare IDLE State */
    tmpcr2 &= ~TIM_CR2_OIS4;
 8002640:	697b      	ldr	r3, [r7, #20]
 8002642:	4a15      	ldr	r2, [pc, #84]	; (8002698 <TIM_OC4_SetConfig+0xd0>)
 8002644:	4013      	ands	r3, r2
 8002646:	617b      	str	r3, [r7, #20]

    /* Set the Output Idle state */
    tmpcr2 |= (OC_Config->OCIdleState << 6U);
 8002648:	683b      	ldr	r3, [r7, #0]
 800264a:	695b      	ldr	r3, [r3, #20]
 800264c:	019b      	lsls	r3, r3, #6
 800264e:	697a      	ldr	r2, [r7, #20]
 8002650:	4313      	orrs	r3, r2
 8002652:	617b      	str	r3, [r7, #20]
  }

  /* Write to TIMx CR2 */
  TIMx->CR2 = tmpcr2;
 8002654:	687b      	ldr	r3, [r7, #4]
 8002656:	697a      	ldr	r2, [r7, #20]
 8002658:	605a      	str	r2, [r3, #4]

  /* Write to TIMx CCMR2 */
  TIMx->CCMR2 = tmpccmrx;
 800265a:	687b      	ldr	r3, [r7, #4]
 800265c:	68fa      	ldr	r2, [r7, #12]
 800265e:	61da      	str	r2, [r3, #28]

  /* Set the Capture Compare Register value */
  TIMx->CCR4 = OC_Config->Pulse;
 8002660:	683b      	ldr	r3, [r7, #0]
 8002662:	685a      	ldr	r2, [r3, #4]
 8002664:	687b      	ldr	r3, [r7, #4]
 8002666:	641a      	str	r2, [r3, #64]	; 0x40

  /* Write to TIMx CCER */
  TIMx->CCER = tmpccer;
 8002668:	687b      	ldr	r3, [r7, #4]
 800266a:	693a      	ldr	r2, [r7, #16]
 800266c:	621a      	str	r2, [r3, #32]
}
 800266e:	46c0      	nop			; (mov r8, r8)
 8002670:	46bd      	mov	sp, r7
 8002672:	b006      	add	sp, #24
 8002674:	bd80      	pop	{r7, pc}
 8002676:	46c0      	nop			; (mov r8, r8)
 8002678:	ffffefff 	.word	0xffffefff
 800267c:	ffff8fff 	.word	0xffff8fff
 8002680:	fffffcff 	.word	0xfffffcff
 8002684:	ffffdfff 	.word	0xffffdfff
 8002688:	40012c00 	.word	0x40012c00
 800268c:	40014000 	.word	0x40014000
 8002690:	40014400 	.word	0x40014400
 8002694:	40014800 	.word	0x40014800
 8002698:	ffffbfff 	.word	0xffffbfff

0800269c <TIM_CCxChannelCmd>:
  * @param  ChannelState specifies the TIM Channel CCxE bit new state.
  *          This parameter can be: TIM_CCx_ENABLE or TIM_CCx_DISABLE.
  * @retval None
  */
void TIM_CCxChannelCmd(TIM_TypeDef *TIMx, uint32_t Channel, uint32_t ChannelState)
{
 800269c:	b580      	push	{r7, lr}
 800269e:	b086      	sub	sp, #24
 80026a0:	af00      	add	r7, sp, #0
 80026a2:	60f8      	str	r0, [r7, #12]
 80026a4:	60b9      	str	r1, [r7, #8]
 80026a6:	607a      	str	r2, [r7, #4]

  /* Check the parameters */
  assert_param(IS_TIM_CC1_INSTANCE(TIMx));
  assert_param(IS_TIM_CHANNELS(Channel));

  tmp = TIM_CCER_CC1E << (Channel & 0x1FU); /* 0x1FU = 31 bits max shift */
 80026a8:	68bb      	ldr	r3, [r7, #8]
 80026aa:	221f      	movs	r2, #31
 80026ac:	4013      	ands	r3, r2
 80026ae:	2201      	movs	r2, #1
 80026b0:	409a      	lsls	r2, r3
 80026b2:	0013      	movs	r3, r2
 80026b4:	617b      	str	r3, [r7, #20]

  /* Reset the CCxE Bit */
  TIMx->CCER &= ~tmp;
 80026b6:	68fb      	ldr	r3, [r7, #12]
 80026b8:	6a1b      	ldr	r3, [r3, #32]
 80026ba:	697a      	ldr	r2, [r7, #20]
 80026bc:	43d2      	mvns	r2, r2
 80026be:	401a      	ands	r2, r3
 80026c0:	68fb      	ldr	r3, [r7, #12]
 80026c2:	621a      	str	r2, [r3, #32]

  /* Set or reset the CCxE Bit */
  TIMx->CCER |= (uint32_t)(ChannelState << (Channel & 0x1FU)); /* 0x1FU = 31 bits max shift */
 80026c4:	68fb      	ldr	r3, [r7, #12]
 80026c6:	6a1a      	ldr	r2, [r3, #32]
 80026c8:	68bb      	ldr	r3, [r7, #8]
 80026ca:	211f      	movs	r1, #31
 80026cc:	400b      	ands	r3, r1
 80026ce:	6879      	ldr	r1, [r7, #4]
 80026d0:	4099      	lsls	r1, r3
 80026d2:	000b      	movs	r3, r1
 80026d4:	431a      	orrs	r2, r3
 80026d6:	68fb      	ldr	r3, [r7, #12]
 80026d8:	621a      	str	r2, [r3, #32]
}
 80026da:	46c0      	nop			; (mov r8, r8)
 80026dc:	46bd      	mov	sp, r7
 80026de:	b006      	add	sp, #24
 80026e0:	bd80      	pop	{r7, pc}
	...

080026e4 <HAL_TIMEx_MasterConfigSynchronization>:
  *         mode.
  * @retval HAL status
  */
HAL_StatusTypeDef HAL_TIMEx_MasterConfigSynchronization(TIM_HandleTypeDef *htim,
                                                        TIM_MasterConfigTypeDef *sMasterConfig)
{
 80026e4:	b580      	push	{r7, lr}
 80026e6:	b084      	sub	sp, #16
 80026e8:	af00      	add	r7, sp, #0
 80026ea:	6078      	str	r0, [r7, #4]
 80026ec:	6039      	str	r1, [r7, #0]
  assert_param(IS_TIM_MASTER_INSTANCE(htim->Instance));
  assert_param(IS_TIM_TRGO_SOURCE(sMasterConfig->MasterOutputTrigger));
  assert_param(IS_TIM_MSM_STATE(sMasterConfig->MasterSlaveMode));

  /* Check input state */
  __HAL_LOCK(htim);
 80026ee:	687b      	ldr	r3, [r7, #4]
 80026f0:	223c      	movs	r2, #60	; 0x3c
 80026f2:	5c9b      	ldrb	r3, [r3, r2]
 80026f4:	2b01      	cmp	r3, #1
 80026f6:	d101      	bne.n	80026fc <HAL_TIMEx_MasterConfigSynchronization+0x18>
 80026f8:	2302      	movs	r3, #2
 80026fa:	e047      	b.n	800278c <HAL_TIMEx_MasterConfigSynchronization+0xa8>
 80026fc:	687b      	ldr	r3, [r7, #4]
 80026fe:	223c      	movs	r2, #60	; 0x3c
 8002700:	2101      	movs	r1, #1
 8002702:	5499      	strb	r1, [r3, r2]

  /* Change the handler state */
  htim->State = HAL_TIM_STATE_BUSY;
 8002704:	687b      	ldr	r3, [r7, #4]
 8002706:	223d      	movs	r2, #61	; 0x3d
 8002708:	2102      	movs	r1, #2
 800270a:	5499      	strb	r1, [r3, r2]

  /* Get the TIMx CR2 register value */
  tmpcr2 = htim->Instance->CR2;
 800270c:	687b      	ldr	r3, [r7, #4]
 800270e:	681b      	ldr	r3, [r3, #0]
 8002710:	685b      	ldr	r3, [r3, #4]
 8002712:	60fb      	str	r3, [r7, #12]

  /* Get the TIMx SMCR register value */
  tmpsmcr = htim->Instance->SMCR;
 8002714:	687b      	ldr	r3, [r7, #4]
 8002716:	681b      	ldr	r3, [r3, #0]
 8002718:	689b      	ldr	r3, [r3, #8]
 800271a:	60bb      	str	r3, [r7, #8]

  /* Reset the MMS Bits */
  tmpcr2 &= ~TIM_CR2_MMS;
 800271c:	68fb      	ldr	r3, [r7, #12]
 800271e:	2270      	movs	r2, #112	; 0x70
 8002720:	4393      	bics	r3, r2
 8002722:	60fb      	str	r3, [r7, #12]
  /* Select the TRGO source */
  tmpcr2 |=  sMasterConfig->MasterOutputTrigger;
 8002724:	683b      	ldr	r3, [r7, #0]
 8002726:	681b      	ldr	r3, [r3, #0]
 8002728:	68fa      	ldr	r2, [r7, #12]
 800272a:	4313      	orrs	r3, r2
 800272c:	60fb      	str	r3, [r7, #12]

  /* Update TIMx CR2 */
  htim->Instance->CR2 = tmpcr2;
 800272e:	687b      	ldr	r3, [r7, #4]
 8002730:	681b      	ldr	r3, [r3, #0]
 8002732:	68fa      	ldr	r2, [r7, #12]
 8002734:	605a      	str	r2, [r3, #4]

  if (IS_TIM_SLAVE_INSTANCE(htim->Instance))
 8002736:	687b      	ldr	r3, [r7, #4]
 8002738:	681b      	ldr	r3, [r3, #0]
 800273a:	4a16      	ldr	r2, [pc, #88]	; (8002794 <HAL_TIMEx_MasterConfigSynchronization+0xb0>)
 800273c:	4293      	cmp	r3, r2
 800273e:	d00f      	beq.n	8002760 <HAL_TIMEx_MasterConfigSynchronization+0x7c>
 8002740:	687b      	ldr	r3, [r7, #4]
 8002742:	681a      	ldr	r2, [r3, #0]
 8002744:	2380      	movs	r3, #128	; 0x80
 8002746:	05db      	lsls	r3, r3, #23
 8002748:	429a      	cmp	r2, r3
 800274a:	d009      	beq.n	8002760 <HAL_TIMEx_MasterConfigSynchronization+0x7c>
 800274c:	687b      	ldr	r3, [r7, #4]
 800274e:	681b      	ldr	r3, [r3, #0]
 8002750:	4a11      	ldr	r2, [pc, #68]	; (8002798 <HAL_TIMEx_MasterConfigSynchronization+0xb4>)
 8002752:	4293      	cmp	r3, r2
 8002754:	d004      	beq.n	8002760 <HAL_TIMEx_MasterConfigSynchronization+0x7c>
 8002756:	687b      	ldr	r3, [r7, #4]
 8002758:	681b      	ldr	r3, [r3, #0]
 800275a:	4a10      	ldr	r2, [pc, #64]	; (800279c <HAL_TIMEx_MasterConfigSynchronization+0xb8>)
 800275c:	4293      	cmp	r3, r2
 800275e:	d10c      	bne.n	800277a <HAL_TIMEx_MasterConfigSynchronization+0x96>
  {
    /* Reset the MSM Bit */
    tmpsmcr &= ~TIM_SMCR_MSM;
 8002760:	68bb      	ldr	r3, [r7, #8]
 8002762:	2280      	movs	r2, #128	; 0x80
 8002764:	4393      	bics	r3, r2
 8002766:	60bb      	str	r3, [r7, #8]
    /* Set master mode */
    tmpsmcr |= sMasterConfig->MasterSlaveMode;
 8002768:	683b      	ldr	r3, [r7, #0]
 800276a:	685b      	ldr	r3, [r3, #4]
 800276c:	68ba      	ldr	r2, [r7, #8]
 800276e:	4313      	orrs	r3, r2
 8002770:	60bb      	str	r3, [r7, #8]

    /* Update TIMx SMCR */
    htim->Instance->SMCR = tmpsmcr;
 8002772:	687b      	ldr	r3, [r7, #4]
 8002774:	681b      	ldr	r3, [r3, #0]
 8002776:	68ba      	ldr	r2, [r7, #8]
 8002778:	609a      	str	r2, [r3, #8]
  }

  /* Change the htim state */
  htim->State = HAL_TIM_STATE_READY;
 800277a:	687b      	ldr	r3, [r7, #4]
 800277c:	223d      	movs	r2, #61	; 0x3d
 800277e:	2101      	movs	r1, #1
 8002780:	5499      	strb	r1, [r3, r2]

  __HAL_UNLOCK(htim);
 8002782:	687b      	ldr	r3, [r7, #4]
 8002784:	223c      	movs	r2, #60	; 0x3c
 8002786:	2100      	movs	r1, #0
 8002788:	5499      	strb	r1, [r3, r2]

  return HAL_OK;
 800278a:	2300      	movs	r3, #0
}
 800278c:	0018      	movs	r0, r3
 800278e:	46bd      	mov	sp, r7
 8002790:	b004      	add	sp, #16
 8002792:	bd80      	pop	{r7, pc}
 8002794:	40012c00 	.word	0x40012c00
 8002798:	40000400 	.word	0x40000400
 800279c:	40014000 	.word	0x40014000

080027a0 <HAL_TIMEx_ConfigBreakDeadTime>:
  *         interrupt can be enabled by calling the @ref __HAL_TIM_ENABLE_IT macro.
  * @retval HAL status
  */
HAL_StatusTypeDef HAL_TIMEx_ConfigBreakDeadTime(TIM_HandleTypeDef *htim,
                                                TIM_BreakDeadTimeConfigTypeDef *sBreakDeadTimeConfig)
{
 80027a0:	b580      	push	{r7, lr}
 80027a2:	b084      	sub	sp, #16
 80027a4:	af00      	add	r7, sp, #0
 80027a6:	6078      	str	r0, [r7, #4]
 80027a8:	6039      	str	r1, [r7, #0]
  /* Keep this variable initialized to 0 as it is used to configure BDTR register */
  uint32_t tmpbdtr = 0U;
 80027aa:	2300      	movs	r3, #0
 80027ac:	60fb      	str	r3, [r7, #12]
  assert_param(IS_TIM_BREAK_STATE(sBreakDeadTimeConfig->BreakState));
  assert_param(IS_TIM_BREAK_POLARITY(sBreakDeadTimeConfig->BreakPolarity));
  assert_param(IS_TIM_AUTOMATIC_OUTPUT_STATE(sBreakDeadTimeConfig->AutomaticOutput));

  /* Check input state */
  __HAL_LOCK(htim);
 80027ae:	687b      	ldr	r3, [r7, #4]
 80027b0:	223c      	movs	r2, #60	; 0x3c
 80027b2:	5c9b      	ldrb	r3, [r3, r2]
 80027b4:	2b01      	cmp	r3, #1
 80027b6:	d101      	bne.n	80027bc <HAL_TIMEx_ConfigBreakDeadTime+0x1c>
 80027b8:	2302      	movs	r3, #2
 80027ba:	e03e      	b.n	800283a <HAL_TIMEx_ConfigBreakDeadTime+0x9a>
 80027bc:	687b      	ldr	r3, [r7, #4]
 80027be:	223c      	movs	r2, #60	; 0x3c
 80027c0:	2101      	movs	r1, #1
 80027c2:	5499      	strb	r1, [r3, r2]

  /* Set the Lock level, the Break enable Bit and the Polarity, the OSSR State,
     the OSSI State, the dead time value and the Automatic Output Enable Bit */

  /* Set the BDTR bits */
  MODIFY_REG(tmpbdtr, TIM_BDTR_DTG, sBreakDeadTimeConfig->DeadTime);
 80027c4:	68fb      	ldr	r3, [r7, #12]
 80027c6:	22ff      	movs	r2, #255	; 0xff
 80027c8:	4393      	bics	r3, r2
 80027ca:	001a      	movs	r2, r3
 80027cc:	683b      	ldr	r3, [r7, #0]
 80027ce:	68db      	ldr	r3, [r3, #12]
 80027d0:	4313      	orrs	r3, r2
 80027d2:	60fb      	str	r3, [r7, #12]
  MODIFY_REG(tmpbdtr, TIM_BDTR_LOCK, sBreakDeadTimeConfig->LockLevel);
 80027d4:	68fb      	ldr	r3, [r7, #12]
 80027d6:	4a1b      	ldr	r2, [pc, #108]	; (8002844 <HAL_TIMEx_ConfigBreakDeadTime+0xa4>)
 80027d8:	401a      	ands	r2, r3
 80027da:	683b      	ldr	r3, [r7, #0]
 80027dc:	689b      	ldr	r3, [r3, #8]
 80027de:	4313      	orrs	r3, r2
 80027e0:	60fb      	str	r3, [r7, #12]
  MODIFY_REG(tmpbdtr, TIM_BDTR_OSSI, sBreakDeadTimeConfig->OffStateIDLEMode);
 80027e2:	68fb      	ldr	r3, [r7, #12]
 80027e4:	4a18      	ldr	r2, [pc, #96]	; (8002848 <HAL_TIMEx_ConfigBreakDeadTime+0xa8>)
 80027e6:	401a      	ands	r2, r3
 80027e8:	683b      	ldr	r3, [r7, #0]
 80027ea:	685b      	ldr	r3, [r3, #4]
 80027ec:	4313      	orrs	r3, r2
 80027ee:	60fb      	str	r3, [r7, #12]
  MODIFY_REG(tmpbdtr, TIM_BDTR_OSSR, sBreakDeadTimeConfig->OffStateRunMode);
 80027f0:	68fb      	ldr	r3, [r7, #12]
 80027f2:	4a16      	ldr	r2, [pc, #88]	; (800284c <HAL_TIMEx_ConfigBreakDeadTime+0xac>)
 80027f4:	401a      	ands	r2, r3
 80027f6:	683b      	ldr	r3, [r7, #0]
 80027f8:	681b      	ldr	r3, [r3, #0]
 80027fa:	4313      	orrs	r3, r2
 80027fc:	60fb      	str	r3, [r7, #12]
  MODIFY_REG(tmpbdtr, TIM_BDTR_BKE, sBreakDeadTimeConfig->BreakState);
 80027fe:	68fb      	ldr	r3, [r7, #12]
 8002800:	4a13      	ldr	r2, [pc, #76]	; (8002850 <HAL_TIMEx_ConfigBreakDeadTime+0xb0>)
 8002802:	401a      	ands	r2, r3
 8002804:	683b      	ldr	r3, [r7, #0]
 8002806:	691b      	ldr	r3, [r3, #16]
 8002808:	4313      	orrs	r3, r2
 800280a:	60fb      	str	r3, [r7, #12]
  MODIFY_REG(tmpbdtr, TIM_BDTR_BKP, sBreakDeadTimeConfig->BreakPolarity);
 800280c:	68fb      	ldr	r3, [r7, #12]
 800280e:	4a11      	ldr	r2, [pc, #68]	; (8002854 <HAL_TIMEx_ConfigBreakDeadTime+0xb4>)
 8002810:	401a      	ands	r2, r3
 8002812:	683b      	ldr	r3, [r7, #0]
 8002814:	695b      	ldr	r3, [r3, #20]
 8002816:	4313      	orrs	r3, r2
 8002818:	60fb      	str	r3, [r7, #12]
  MODIFY_REG(tmpbdtr, TIM_BDTR_AOE, sBreakDeadTimeConfig->AutomaticOutput);
 800281a:	68fb      	ldr	r3, [r7, #12]
 800281c:	4a0e      	ldr	r2, [pc, #56]	; (8002858 <HAL_TIMEx_ConfigBreakDeadTime+0xb8>)
 800281e:	401a      	ands	r2, r3
 8002820:	683b      	ldr	r3, [r7, #0]
 8002822:	69db      	ldr	r3, [r3, #28]
 8002824:	4313      	orrs	r3, r2
 8002826:	60fb      	str	r3, [r7, #12]


  /* Set TIMx_BDTR */
  htim->Instance->BDTR = tmpbdtr;
 8002828:	687b      	ldr	r3, [r7, #4]
 800282a:	681b      	ldr	r3, [r3, #0]
 800282c:	68fa      	ldr	r2, [r7, #12]
 800282e:	645a      	str	r2, [r3, #68]	; 0x44

  __HAL_UNLOCK(htim);
 8002830:	687b      	ldr	r3, [r7, #4]
 8002832:	223c      	movs	r2, #60	; 0x3c
 8002834:	2100      	movs	r1, #0
 8002836:	5499      	strb	r1, [r3, r2]

  return HAL_OK;
 8002838:	2300      	movs	r3, #0
}
 800283a:	0018      	movs	r0, r3
 800283c:	46bd      	mov	sp, r7
 800283e:	b004      	add	sp, #16
 8002840:	bd80      	pop	{r7, pc}
 8002842:	46c0      	nop			; (mov r8, r8)
 8002844:	fffffcff 	.word	0xfffffcff
 8002848:	fffffbff 	.word	0xfffffbff
 800284c:	fffff7ff 	.word	0xfffff7ff
 8002850:	ffffefff 	.word	0xffffefff
 8002854:	ffffdfff 	.word	0xffffdfff
 8002858:	ffffbfff 	.word	0xffffbfff

0800285c <HAL_TIMEx_CommutCallback>:
  * @brief  Hall commutation changed callback in non-blocking mode
  * @param  htim TIM handle
  * @retval None
  */
__weak void HAL_TIMEx_CommutCallback(TIM_HandleTypeDef *htim)
{
 800285c:	b580      	push	{r7, lr}
 800285e:	b082      	sub	sp, #8
 8002860:	af00      	add	r7, sp, #0
 8002862:	6078      	str	r0, [r7, #4]
  UNUSED(htim);

  /* NOTE : This function should not be modified, when the callback is needed,
            the HAL_TIMEx_CommutCallback could be implemented in the user file
   */
}
 8002864:	46c0      	nop			; (mov r8, r8)
 8002866:	46bd      	mov	sp, r7
 8002868:	b002      	add	sp, #8
 800286a:	bd80      	pop	{r7, pc}

0800286c <HAL_TIMEx_BreakCallback>:
  * @brief  Hall Break detection callback in non-blocking mode
  * @param  htim TIM handle
  * @retval None
  */
__weak void HAL_TIMEx_BreakCallback(TIM_HandleTypeDef *htim)
{
 800286c:	b580      	push	{r7, lr}
 800286e:	b082      	sub	sp, #8
 8002870:	af00      	add	r7, sp, #0
 8002872:	6078      	str	r0, [r7, #4]
  UNUSED(htim);

  /* NOTE : This function should not be modified, when the callback is needed,
            the HAL_TIMEx_BreakCallback could be implemented in the user file
   */
}
 8002874:	46c0      	nop			; (mov r8, r8)
 8002876:	46bd      	mov	sp, r7
 8002878:	b002      	add	sp, #8
 800287a:	bd80      	pop	{r7, pc}

0800287c <__libc_init_array>:
 800287c:	b570      	push	{r4, r5, r6, lr}
 800287e:	2600      	movs	r6, #0
 8002880:	4d0c      	ldr	r5, [pc, #48]	; (80028b4 <__libc_init_array+0x38>)
 8002882:	4c0d      	ldr	r4, [pc, #52]	; (80028b8 <__libc_init_array+0x3c>)
 8002884:	1b64      	subs	r4, r4, r5
 8002886:	10a4      	asrs	r4, r4, #2
 8002888:	42a6      	cmp	r6, r4
 800288a:	d109      	bne.n	80028a0 <__libc_init_array+0x24>
 800288c:	2600      	movs	r6, #0
 800288e:	f000 f821 	bl	80028d4 <_init>
 8002892:	4d0a      	ldr	r5, [pc, #40]	; (80028bc <__libc_init_array+0x40>)
 8002894:	4c0a      	ldr	r4, [pc, #40]	; (80028c0 <__libc_init_array+0x44>)
 8002896:	1b64      	subs	r4, r4, r5
 8002898:	10a4      	asrs	r4, r4, #2
 800289a:	42a6      	cmp	r6, r4
 800289c:	d105      	bne.n	80028aa <__libc_init_array+0x2e>
 800289e:	bd70      	pop	{r4, r5, r6, pc}
 80028a0:	00b3      	lsls	r3, r6, #2
 80028a2:	58eb      	ldr	r3, [r5, r3]
 80028a4:	4798      	blx	r3
 80028a6:	3601      	adds	r6, #1
 80028a8:	e7ee      	b.n	8002888 <__libc_init_array+0xc>
 80028aa:	00b3      	lsls	r3, r6, #2
 80028ac:	58eb      	ldr	r3, [r5, r3]
 80028ae:	4798      	blx	r3
 80028b0:	3601      	adds	r6, #1
 80028b2:	e7f2      	b.n	800289a <__libc_init_array+0x1e>
 80028b4:	0800291c 	.word	0x0800291c
 80028b8:	0800291c 	.word	0x0800291c
 80028bc:	0800291c 	.word	0x0800291c
 80028c0:	08002920 	.word	0x08002920

080028c4 <memset>:
 80028c4:	0003      	movs	r3, r0
 80028c6:	1812      	adds	r2, r2, r0
 80028c8:	4293      	cmp	r3, r2
 80028ca:	d100      	bne.n	80028ce <memset+0xa>
 80028cc:	4770      	bx	lr
 80028ce:	7019      	strb	r1, [r3, #0]
 80028d0:	3301      	adds	r3, #1
 80028d2:	e7f9      	b.n	80028c8 <memset+0x4>

080028d4 <_init>:
 80028d4:	b5f8      	push	{r3, r4, r5, r6, r7, lr}
 80028d6:	46c0      	nop			; (mov r8, r8)
 80028d8:	bcf8      	pop	{r3, r4, r5, r6, r7}
 80028da:	bc08      	pop	{r3}
 80028dc:	469e      	mov	lr, r3
 80028de:	4770      	bx	lr

080028e0 <_fini>:
 80028e0:	b5f8      	push	{r3, r4, r5, r6, r7, lr}
 80028e2:	46c0      	nop			; (mov r8, r8)
 80028e4:	bcf8      	pop	{r3, r4, r5, r6, r7}
 80028e6:	bc08      	pop	{r3}
 80028e8:	469e      	mov	lr, r3
 80028ea:	4770      	bx	lr
