
UV_LED_DRIVER_SW_STM32L051.elf:     file format elf32-littlearm

Sections:
Idx Name          Size      VMA       LMA       File off  Algn
  0 .isr_vector   000000c0  08000000  08000000  00010000  2**0
                  CONTENTS, ALLOC, LOAD, READONLY, DATA
  1 .text         0000280c  080000c0  080000c0  000100c0  2**2
                  CONTENTS, ALLOC, LOAD, READONLY, CODE
  2 .rodata       00000030  080028cc  080028cc  000128cc  2**2
                  CONTENTS, ALLOC, LOAD, READONLY, DATA
  3 .ARM.extab    00000000  080028fc  080028fc  0002000c  2**0
                  CONTENTS
  4 .ARM          00000000  080028fc  080028fc  0002000c  2**0
                  CONTENTS
  5 .preinit_array 00000000  080028fc  080028fc  0002000c  2**0
                  CONTENTS, ALLOC, LOAD, DATA
  6 .init_array   00000004  080028fc  080028fc  000128fc  2**2
                  CONTENTS, ALLOC, LOAD, DATA
  7 .fini_array   00000004  08002900  08002900  00012900  2**2
                  CONTENTS, ALLOC, LOAD, DATA
  8 .data         0000000c  20000000  08002904  00020000  2**2
                  CONTENTS, ALLOC, LOAD, DATA
  9 .bss          00000124  2000000c  08002910  0002000c  2**2
                  ALLOC
 10 ._user_heap_stack 00000600  20000130  08002910  00020130  2**0
                  ALLOC
 11 .ARM.attributes 00000028  00000000  00000000  0002000c  2**0
                  CONTENTS, READONLY
 12 .debug_info   0000792f  00000000  00000000  00020034  2**0
                  CONTENTS, READONLY, DEBUGGING
 13 .debug_abbrev 0000159a  00000000  00000000  00027963  2**0
                  CONTENTS, READONLY, DEBUGGING
 14 .debug_aranges 000008f0  00000000  00000000  00028f00  2**3
                  CONTENTS, READONLY, DEBUGGING
 15 .debug_ranges 00000828  00000000  00000000  000297f0  2**3
                  CONTENTS, READONLY, DEBUGGING
 16 .debug_macro  0000daf9  00000000  00000000  0002a018  2**0
                  CONTENTS, READONLY, DEBUGGING
 17 .debug_line   000070ca  00000000  00000000  00037b11  2**0
                  CONTENTS, READONLY, DEBUGGING
 18 .debug_str    0004fa73  00000000  00000000  0003ebdb  2**0
                  CONTENTS, READONLY, DEBUGGING
 19 .comment      0000007b  00000000  00000000  0008e64e  2**0
                  CONTENTS, READONLY
 20 .debug_frame  00001f34  00000000  00000000  0008e6cc  2**2
                  CONTENTS, READONLY, DEBUGGING

Disassembly of section .text:

080000c0 <__do_global_dtors_aux>:
 80000c0:	b510      	push	{r4, lr}
 80000c2:	4c06      	ldr	r4, [pc, #24]	; (80000dc <__do_global_dtors_aux+0x1c>)
 80000c4:	7823      	ldrb	r3, [r4, #0]
 80000c6:	2b00      	cmp	r3, #0
 80000c8:	d107      	bne.n	80000da <__do_global_dtors_aux+0x1a>
 80000ca:	4b05      	ldr	r3, [pc, #20]	; (80000e0 <__do_global_dtors_aux+0x20>)
 80000cc:	2b00      	cmp	r3, #0
 80000ce:	d002      	beq.n	80000d6 <__do_global_dtors_aux+0x16>
 80000d0:	4804      	ldr	r0, [pc, #16]	; (80000e4 <__do_global_dtors_aux+0x24>)
 80000d2:	e000      	b.n	80000d6 <__do_global_dtors_aux+0x16>
 80000d4:	bf00      	nop
 80000d6:	2301      	movs	r3, #1
 80000d8:	7023      	strb	r3, [r4, #0]
 80000da:	bd10      	pop	{r4, pc}
 80000dc:	2000000c 	.word	0x2000000c
 80000e0:	00000000 	.word	0x00000000
 80000e4:	080028b4 	.word	0x080028b4

080000e8 <frame_dummy>:
 80000e8:	4b04      	ldr	r3, [pc, #16]	; (80000fc <frame_dummy+0x14>)
 80000ea:	b510      	push	{r4, lr}
 80000ec:	2b00      	cmp	r3, #0
 80000ee:	d003      	beq.n	80000f8 <frame_dummy+0x10>
 80000f0:	4903      	ldr	r1, [pc, #12]	; (8000100 <frame_dummy+0x18>)
 80000f2:	4804      	ldr	r0, [pc, #16]	; (8000104 <frame_dummy+0x1c>)
 80000f4:	e000      	b.n	80000f8 <frame_dummy+0x10>
 80000f6:	bf00      	nop
 80000f8:	bd10      	pop	{r4, pc}
 80000fa:	46c0      	nop			; (mov r8, r8)
 80000fc:	00000000 	.word	0x00000000
 8000100:	20000010 	.word	0x20000010
 8000104:	080028b4 	.word	0x080028b4

08000108 <__udivsi3>:
 8000108:	2200      	movs	r2, #0
 800010a:	0843      	lsrs	r3, r0, #1
 800010c:	428b      	cmp	r3, r1
 800010e:	d374      	bcc.n	80001fa <__udivsi3+0xf2>
 8000110:	0903      	lsrs	r3, r0, #4
 8000112:	428b      	cmp	r3, r1
 8000114:	d35f      	bcc.n	80001d6 <__udivsi3+0xce>
 8000116:	0a03      	lsrs	r3, r0, #8
 8000118:	428b      	cmp	r3, r1
 800011a:	d344      	bcc.n	80001a6 <__udivsi3+0x9e>
 800011c:	0b03      	lsrs	r3, r0, #12
 800011e:	428b      	cmp	r3, r1
 8000120:	d328      	bcc.n	8000174 <__udivsi3+0x6c>
 8000122:	0c03      	lsrs	r3, r0, #16
 8000124:	428b      	cmp	r3, r1
 8000126:	d30d      	bcc.n	8000144 <__udivsi3+0x3c>
 8000128:	22ff      	movs	r2, #255	; 0xff
 800012a:	0209      	lsls	r1, r1, #8
 800012c:	ba12      	rev	r2, r2
 800012e:	0c03      	lsrs	r3, r0, #16
 8000130:	428b      	cmp	r3, r1
 8000132:	d302      	bcc.n	800013a <__udivsi3+0x32>
 8000134:	1212      	asrs	r2, r2, #8
 8000136:	0209      	lsls	r1, r1, #8
 8000138:	d065      	beq.n	8000206 <__udivsi3+0xfe>
 800013a:	0b03      	lsrs	r3, r0, #12
 800013c:	428b      	cmp	r3, r1
 800013e:	d319      	bcc.n	8000174 <__udivsi3+0x6c>
 8000140:	e000      	b.n	8000144 <__udivsi3+0x3c>
 8000142:	0a09      	lsrs	r1, r1, #8
 8000144:	0bc3      	lsrs	r3, r0, #15
 8000146:	428b      	cmp	r3, r1
 8000148:	d301      	bcc.n	800014e <__udivsi3+0x46>
 800014a:	03cb      	lsls	r3, r1, #15
 800014c:	1ac0      	subs	r0, r0, r3
 800014e:	4152      	adcs	r2, r2
 8000150:	0b83      	lsrs	r3, r0, #14
 8000152:	428b      	cmp	r3, r1
 8000154:	d301      	bcc.n	800015a <__udivsi3+0x52>
 8000156:	038b      	lsls	r3, r1, #14
 8000158:	1ac0      	subs	r0, r0, r3
 800015a:	4152      	adcs	r2, r2
 800015c:	0b43      	lsrs	r3, r0, #13
 800015e:	428b      	cmp	r3, r1
 8000160:	d301      	bcc.n	8000166 <__udivsi3+0x5e>
 8000162:	034b      	lsls	r3, r1, #13
 8000164:	1ac0      	subs	r0, r0, r3
 8000166:	4152      	adcs	r2, r2
 8000168:	0b03      	lsrs	r3, r0, #12
 800016a:	428b      	cmp	r3, r1
 800016c:	d301      	bcc.n	8000172 <__udivsi3+0x6a>
 800016e:	030b      	lsls	r3, r1, #12
 8000170:	1ac0      	subs	r0, r0, r3
 8000172:	4152      	adcs	r2, r2
 8000174:	0ac3      	lsrs	r3, r0, #11
 8000176:	428b      	cmp	r3, r1
 8000178:	d301      	bcc.n	800017e <__udivsi3+0x76>
 800017a:	02cb      	lsls	r3, r1, #11
 800017c:	1ac0      	subs	r0, r0, r3
 800017e:	4152      	adcs	r2, r2
 8000180:	0a83      	lsrs	r3, r0, #10
 8000182:	428b      	cmp	r3, r1
 8000184:	d301      	bcc.n	800018a <__udivsi3+0x82>
 8000186:	028b      	lsls	r3, r1, #10
 8000188:	1ac0      	subs	r0, r0, r3
 800018a:	4152      	adcs	r2, r2
 800018c:	0a43      	lsrs	r3, r0, #9
 800018e:	428b      	cmp	r3, r1
 8000190:	d301      	bcc.n	8000196 <__udivsi3+0x8e>
 8000192:	024b      	lsls	r3, r1, #9
 8000194:	1ac0      	subs	r0, r0, r3
 8000196:	4152      	adcs	r2, r2
 8000198:	0a03      	lsrs	r3, r0, #8
 800019a:	428b      	cmp	r3, r1
 800019c:	d301      	bcc.n	80001a2 <__udivsi3+0x9a>
 800019e:	020b      	lsls	r3, r1, #8
 80001a0:	1ac0      	subs	r0, r0, r3
 80001a2:	4152      	adcs	r2, r2
 80001a4:	d2cd      	bcs.n	8000142 <__udivsi3+0x3a>
 80001a6:	09c3      	lsrs	r3, r0, #7
 80001a8:	428b      	cmp	r3, r1
 80001aa:	d301      	bcc.n	80001b0 <__udivsi3+0xa8>
 80001ac:	01cb      	lsls	r3, r1, #7
 80001ae:	1ac0      	subs	r0, r0, r3
 80001b0:	4152      	adcs	r2, r2
 80001b2:	0983      	lsrs	r3, r0, #6
 80001b4:	428b      	cmp	r3, r1
 80001b6:	d301      	bcc.n	80001bc <__udivsi3+0xb4>
 80001b8:	018b      	lsls	r3, r1, #6
 80001ba:	1ac0      	subs	r0, r0, r3
 80001bc:	4152      	adcs	r2, r2
 80001be:	0943      	lsrs	r3, r0, #5
 80001c0:	428b      	cmp	r3, r1
 80001c2:	d301      	bcc.n	80001c8 <__udivsi3+0xc0>
 80001c4:	014b      	lsls	r3, r1, #5
 80001c6:	1ac0      	subs	r0, r0, r3
 80001c8:	4152      	adcs	r2, r2
 80001ca:	0903      	lsrs	r3, r0, #4
 80001cc:	428b      	cmp	r3, r1
 80001ce:	d301      	bcc.n	80001d4 <__udivsi3+0xcc>
 80001d0:	010b      	lsls	r3, r1, #4
 80001d2:	1ac0      	subs	r0, r0, r3
 80001d4:	4152      	adcs	r2, r2
 80001d6:	08c3      	lsrs	r3, r0, #3
 80001d8:	428b      	cmp	r3, r1
 80001da:	d301      	bcc.n	80001e0 <__udivsi3+0xd8>
 80001dc:	00cb      	lsls	r3, r1, #3
 80001de:	1ac0      	subs	r0, r0, r3
 80001e0:	4152      	adcs	r2, r2
 80001e2:	0883      	lsrs	r3, r0, #2
 80001e4:	428b      	cmp	r3, r1
 80001e6:	d301      	bcc.n	80001ec <__udivsi3+0xe4>
 80001e8:	008b      	lsls	r3, r1, #2
 80001ea:	1ac0      	subs	r0, r0, r3
 80001ec:	4152      	adcs	r2, r2
 80001ee:	0843      	lsrs	r3, r0, #1
 80001f0:	428b      	cmp	r3, r1
 80001f2:	d301      	bcc.n	80001f8 <__udivsi3+0xf0>
 80001f4:	004b      	lsls	r3, r1, #1
 80001f6:	1ac0      	subs	r0, r0, r3
 80001f8:	4152      	adcs	r2, r2
 80001fa:	1a41      	subs	r1, r0, r1
 80001fc:	d200      	bcs.n	8000200 <__udivsi3+0xf8>
 80001fe:	4601      	mov	r1, r0
 8000200:	4152      	adcs	r2, r2
 8000202:	4610      	mov	r0, r2
 8000204:	4770      	bx	lr
 8000206:	e7ff      	b.n	8000208 <__udivsi3+0x100>
 8000208:	b501      	push	{r0, lr}
 800020a:	2000      	movs	r0, #0
 800020c:	f000 f806 	bl	800021c <__aeabi_idiv0>
 8000210:	bd02      	pop	{r1, pc}
 8000212:	46c0      	nop			; (mov r8, r8)

08000214 <__aeabi_uidivmod>:
 8000214:	2900      	cmp	r1, #0
 8000216:	d0f7      	beq.n	8000208 <__udivsi3+0x100>
 8000218:	e776      	b.n	8000108 <__udivsi3>
 800021a:	4770      	bx	lr

0800021c <__aeabi_idiv0>:
 800021c:	4770      	bx	lr
 800021e:	46c0      	nop			; (mov r8, r8)

08000220 <MX_GPIO_Init>:
        * Output
        * EVENT_OUT
        * EXTI
*/
void MX_GPIO_Init(void)
{
 8000220:	b590      	push	{r4, r7, lr}
 8000222:	b089      	sub	sp, #36	; 0x24
 8000224:	af00      	add	r7, sp, #0

  GPIO_InitTypeDef GPIO_InitStruct = {0};
 8000226:	240c      	movs	r4, #12
 8000228:	193b      	adds	r3, r7, r4
 800022a:	0018      	movs	r0, r3
 800022c:	2314      	movs	r3, #20
 800022e:	001a      	movs	r2, r3
 8000230:	2100      	movs	r1, #0
 8000232:	f002 fb37 	bl	80028a4 <memset>

  /* GPIO Ports Clock Enable */
  __HAL_RCC_GPIOA_CLK_ENABLE();
 8000236:	4b28      	ldr	r3, [pc, #160]	; (80002d8 <MX_GPIO_Init+0xb8>)
 8000238:	695a      	ldr	r2, [r3, #20]
 800023a:	4b27      	ldr	r3, [pc, #156]	; (80002d8 <MX_GPIO_Init+0xb8>)
 800023c:	2180      	movs	r1, #128	; 0x80
 800023e:	0289      	lsls	r1, r1, #10
 8000240:	430a      	orrs	r2, r1
 8000242:	615a      	str	r2, [r3, #20]
 8000244:	4b24      	ldr	r3, [pc, #144]	; (80002d8 <MX_GPIO_Init+0xb8>)
 8000246:	695a      	ldr	r2, [r3, #20]
 8000248:	2380      	movs	r3, #128	; 0x80
 800024a:	029b      	lsls	r3, r3, #10
 800024c:	4013      	ands	r3, r2
 800024e:	60bb      	str	r3, [r7, #8]
 8000250:	68bb      	ldr	r3, [r7, #8]
  __HAL_RCC_GPIOB_CLK_ENABLE();
 8000252:	4b21      	ldr	r3, [pc, #132]	; (80002d8 <MX_GPIO_Init+0xb8>)
 8000254:	695a      	ldr	r2, [r3, #20]
 8000256:	4b20      	ldr	r3, [pc, #128]	; (80002d8 <MX_GPIO_Init+0xb8>)
 8000258:	2180      	movs	r1, #128	; 0x80
 800025a:	02c9      	lsls	r1, r1, #11
 800025c:	430a      	orrs	r2, r1
 800025e:	615a      	str	r2, [r3, #20]
 8000260:	4b1d      	ldr	r3, [pc, #116]	; (80002d8 <MX_GPIO_Init+0xb8>)
 8000262:	695a      	ldr	r2, [r3, #20]
 8000264:	2380      	movs	r3, #128	; 0x80
 8000266:	02db      	lsls	r3, r3, #11
 8000268:	4013      	ands	r3, r2
 800026a:	607b      	str	r3, [r7, #4]
 800026c:	687b      	ldr	r3, [r7, #4]

  /*Configure GPIO pin Output Level */
  HAL_GPIO_WritePin(GPIOA, STATUS_BLUE_Pin|STATUS_GREEN_Pin|STATUS_RED_Pin, GPIO_PIN_RESET);
 800026e:	2390      	movs	r3, #144	; 0x90
 8000270:	05db      	lsls	r3, r3, #23
 8000272:	2200      	movs	r2, #0
 8000274:	2107      	movs	r1, #7
 8000276:	0018      	movs	r0, r3
 8000278:	f000 ff88 	bl	800118c <HAL_GPIO_WritePin>

  /*Configure GPIO pins : PAPin PAPin PAPin */
  GPIO_InitStruct.Pin = STATUS_BLUE_Pin|STATUS_GREEN_Pin|STATUS_RED_Pin;
 800027c:	193b      	adds	r3, r7, r4
 800027e:	2207      	movs	r2, #7
 8000280:	601a      	str	r2, [r3, #0]
  GPIO_InitStruct.Mode = GPIO_MODE_OUTPUT_PP;
 8000282:	193b      	adds	r3, r7, r4
 8000284:	2201      	movs	r2, #1
 8000286:	605a      	str	r2, [r3, #4]
  GPIO_InitStruct.Pull = GPIO_NOPULL;
 8000288:	193b      	adds	r3, r7, r4
 800028a:	2200      	movs	r2, #0
 800028c:	609a      	str	r2, [r3, #8]
  GPIO_InitStruct.Speed = GPIO_SPEED_FREQ_LOW;
 800028e:	193b      	adds	r3, r7, r4
 8000290:	2200      	movs	r2, #0
 8000292:	60da      	str	r2, [r3, #12]
  HAL_GPIO_Init(GPIOA, &GPIO_InitStruct);
 8000294:	193a      	adds	r2, r7, r4
 8000296:	2390      	movs	r3, #144	; 0x90
 8000298:	05db      	lsls	r3, r3, #23
 800029a:	0011      	movs	r1, r2
 800029c:	0018      	movs	r0, r3
 800029e:	f000 fe05 	bl	8000eac <HAL_GPIO_Init>

  /*Configure GPIO pin : PtPin */
  GPIO_InitStruct.Pin = ENABLE_LED_Pin;
 80002a2:	193b      	adds	r3, r7, r4
 80002a4:	2201      	movs	r2, #1
 80002a6:	601a      	str	r2, [r3, #0]
  GPIO_InitStruct.Mode = GPIO_MODE_IT_FALLING;
 80002a8:	193b      	adds	r3, r7, r4
 80002aa:	4a0c      	ldr	r2, [pc, #48]	; (80002dc <MX_GPIO_Init+0xbc>)
 80002ac:	605a      	str	r2, [r3, #4]
  GPIO_InitStruct.Pull = GPIO_PULLUP;
 80002ae:	193b      	adds	r3, r7, r4
 80002b0:	2201      	movs	r2, #1
 80002b2:	609a      	str	r2, [r3, #8]
  HAL_GPIO_Init(ENABLE_LED_GPIO_Port, &GPIO_InitStruct);
 80002b4:	193b      	adds	r3, r7, r4
 80002b6:	4a0a      	ldr	r2, [pc, #40]	; (80002e0 <MX_GPIO_Init+0xc0>)
 80002b8:	0019      	movs	r1, r3
 80002ba:	0010      	movs	r0, r2
 80002bc:	f000 fdf6 	bl	8000eac <HAL_GPIO_Init>

  /* EXTI interrupt init*/
  HAL_NVIC_SetPriority(EXTI0_1_IRQn, 0, 0);
 80002c0:	2200      	movs	r2, #0
 80002c2:	2100      	movs	r1, #0
 80002c4:	2005      	movs	r0, #5
 80002c6:	f000 fdbf 	bl	8000e48 <HAL_NVIC_SetPriority>
  HAL_NVIC_EnableIRQ(EXTI0_1_IRQn);
 80002ca:	2005      	movs	r0, #5
 80002cc:	f000 fdd1 	bl	8000e72 <HAL_NVIC_EnableIRQ>

}
 80002d0:	46c0      	nop			; (mov r8, r8)
 80002d2:	46bd      	mov	sp, r7
 80002d4:	b009      	add	sp, #36	; 0x24
 80002d6:	bd90      	pop	{r4, r7, pc}
 80002d8:	40021000 	.word	0x40021000
 80002dc:	10210000 	.word	0x10210000
 80002e0:	48000400 	.word	0x48000400

080002e4 <main>:
/**
  * @brief  The application entry point.
  * @retval int
  */
int main(void)
{
 80002e4:	b580      	push	{r7, lr}
 80002e6:	b082      	sub	sp, #8
 80002e8:	af00      	add	r7, sp, #0
  /* USER CODE END 1 */

  /* MCU Configuration--------------------------------------------------------*/

  /* Reset of all peripherals, Initializes the Flash interface and the Systick. */
  HAL_Init();
 80002ea:	f000 fc9d 	bl	8000c28 <HAL_Init>
  /* USER CODE BEGIN Init */

  /* USER CODE END Init */

  /* Configure the system clock */
  SystemClock_Config();
 80002ee:	f000 f8c3 	bl	8000478 <SystemClock_Config>
  /* USER CODE BEGIN SysInit */

  /* USER CODE END SysInit */

  /* Initialize all configured peripherals */
  MX_GPIO_Init();
 80002f2:	f7ff ff95 	bl	8000220 <MX_GPIO_Init>
  MX_TIM1_Init();
 80002f6:	f000 f9a1 	bl	800063c <MX_TIM1_Init>
  MX_TIM17_Init();
 80002fa:	f000 fb05 	bl	8000908 <MX_TIM17_Init>
  MX_TIM14_Init();
 80002fe:	f000 fab5 	bl	800086c <MX_TIM14_Init>
  MX_TIM2_Init();
 8000302:	f000 fa51 	bl	80007a8 <MX_TIM2_Init>
  /* USER CODE BEGIN 2 */

  // PWM OUTPUTS
  HAL_TIM_Base_Start(&htim17);
 8000306:	4b55      	ldr	r3, [pc, #340]	; (800045c <main+0x178>)
 8000308:	0018      	movs	r0, r3
 800030a:	f001 fc17 	bl	8001b3c <HAL_TIM_Base_Start>
  HAL_TIM_PWM_Start(&htim1, TIM_CHANNEL_1);
 800030e:	4b54      	ldr	r3, [pc, #336]	; (8000460 <main+0x17c>)
 8000310:	2100      	movs	r1, #0
 8000312:	0018      	movs	r0, r3
 8000314:	f001 fc60 	bl	8001bd8 <HAL_TIM_PWM_Start>
  HAL_TIM_PWM_Start(&htim1, TIM_CHANNEL_2);
 8000318:	4b51      	ldr	r3, [pc, #324]	; (8000460 <main+0x17c>)
 800031a:	2104      	movs	r1, #4
 800031c:	0018      	movs	r0, r3
 800031e:	f001 fc5b 	bl	8001bd8 <HAL_TIM_PWM_Start>
  HAL_TIM_PWM_Start(&htim1, TIM_CHANNEL_3);
 8000322:	4b4f      	ldr	r3, [pc, #316]	; (8000460 <main+0x17c>)
 8000324:	2108      	movs	r1, #8
 8000326:	0018      	movs	r0, r3
 8000328:	f001 fc56 	bl	8001bd8 <HAL_TIM_PWM_Start>
  HAL_TIM_PWM_Start(&htim1, TIM_CHANNEL_4);
 800032c:	4b4c      	ldr	r3, [pc, #304]	; (8000460 <main+0x17c>)
 800032e:	210c      	movs	r1, #12
 8000330:	0018      	movs	r0, r3
 8000332:	f001 fc51 	bl	8001bd8 <HAL_TIM_PWM_Start>
  HAL_TIM_PWM_Start(&htim14, TIM_CHANNEL_1);
 8000336:	4b4b      	ldr	r3, [pc, #300]	; (8000464 <main+0x180>)
 8000338:	2100      	movs	r1, #0
 800033a:	0018      	movs	r0, r3
 800033c:	f001 fc4c 	bl	8001bd8 <HAL_TIM_PWM_Start>

  TIM1->ARR = 0xFF;		// 	255
 8000340:	4b49      	ldr	r3, [pc, #292]	; (8000468 <main+0x184>)
 8000342:	22ff      	movs	r2, #255	; 0xff
 8000344:	62da      	str	r2, [r3, #44]	; 0x2c
  TIM1->CCR1 = 0x00;	// 	31	12.5%
 8000346:	4b48      	ldr	r3, [pc, #288]	; (8000468 <main+0x184>)
 8000348:	2200      	movs	r2, #0
 800034a:	635a      	str	r2, [r3, #52]	; 0x34
  TIM1->CCR2 = 0x00;	//	63	25%
 800034c:	4b46      	ldr	r3, [pc, #280]	; (8000468 <main+0x184>)
 800034e:	2200      	movs	r2, #0
 8000350:	639a      	str	r2, [r3, #56]	; 0x38
  TIM1->CCR3 = 0x00;	//	127 50%
 8000352:	4b45      	ldr	r3, [pc, #276]	; (8000468 <main+0x184>)
 8000354:	2200      	movs	r2, #0
 8000356:	63da      	str	r2, [r3, #60]	; 0x3c
  TIM1->CCR4 = 0x00;	//  191 75%
 8000358:	4b43      	ldr	r3, [pc, #268]	; (8000468 <main+0x184>)
 800035a:	2200      	movs	r2, #0
 800035c:	641a      	str	r2, [r3, #64]	; 0x40

  TIM14->ARR = 0xFF;	// 	255
 800035e:	4b43      	ldr	r3, [pc, #268]	; (800046c <main+0x188>)
 8000360:	22ff      	movs	r2, #255	; 0xff
 8000362:	62da      	str	r2, [r3, #44]	; 0x2c
  TIM14->CCR1 = 0x00;	// 	31	12.5%
 8000364:	4b41      	ldr	r3, [pc, #260]	; (800046c <main+0x188>)
 8000366:	2200      	movs	r2, #0
 8000368:	635a      	str	r2, [r3, #52]	; 0x34

  // LED OUTPUT
  HAL_GPIO_WritePin(GPIOA, STATUS_BLUE_Pin, GPIO_PIN_SET);
 800036a:	2390      	movs	r3, #144	; 0x90
 800036c:	05db      	lsls	r3, r3, #23
 800036e:	2201      	movs	r2, #1
 8000370:	2101      	movs	r1, #1
 8000372:	0018      	movs	r0, r3
 8000374:	f000 ff0a 	bl	800118c <HAL_GPIO_WritePin>
  HAL_GPIO_WritePin(GPIOA, STATUS_RED_Pin, GPIO_PIN_RESET);
 8000378:	2390      	movs	r3, #144	; 0x90
 800037a:	05db      	lsls	r3, r3, #23
 800037c:	2200      	movs	r2, #0
 800037e:	2104      	movs	r1, #4
 8000380:	0018      	movs	r0, r3
 8000382:	f000 ff03 	bl	800118c <HAL_GPIO_WritePin>
  HAL_GPIO_WritePin(GPIOA, STATUS_GREEN_Pin, GPIO_PIN_SET);
 8000386:	2390      	movs	r3, #144	; 0x90
 8000388:	05db      	lsls	r3, r3, #23
 800038a:	2201      	movs	r2, #1
 800038c:	2102      	movs	r1, #2
 800038e:	0018      	movs	r0, r3
 8000390:	f000 fefc 	bl	800118c <HAL_GPIO_WritePin>

  // rotary encoder
  HAL_TIM_Base_Start(&htim2);
 8000394:	4b36      	ldr	r3, [pc, #216]	; (8000470 <main+0x18c>)
 8000396:	0018      	movs	r0, r3
 8000398:	f001 fbd0 	bl	8001b3c <HAL_TIM_Base_Start>
  uint8_t previous_encoder_dir = (TIM2->CR1 & TIM_CR1_DIR);
 800039c:	2380      	movs	r3, #128	; 0x80
 800039e:	05db      	lsls	r3, r3, #23
 80003a0:	681b      	ldr	r3, [r3, #0]
 80003a2:	b2da      	uxtb	r2, r3
 80003a4:	1dfb      	adds	r3, r7, #7
 80003a6:	2110      	movs	r1, #16
 80003a8:	400a      	ands	r2, r1
 80003aa:	701a      	strb	r2, [r3, #0]
  /* USER CODE BEGIN WHILE */
  while (1)
  {


	  	uint8_t new_encoder_dir = (TIM2->CR1 & TIM_CR1_DIR);
 80003ac:	2380      	movs	r3, #128	; 0x80
 80003ae:	05db      	lsls	r3, r3, #23
 80003b0:	681b      	ldr	r3, [r3, #0]
 80003b2:	b2da      	uxtb	r2, r3
 80003b4:	1dbb      	adds	r3, r7, #6
 80003b6:	2110      	movs	r1, #16
 80003b8:	400a      	ands	r2, r1
 80003ba:	701a      	strb	r2, [r3, #0]

		if( (previous_encoder_dir) && (!new_encoder_dir) )
 80003bc:	1dfb      	adds	r3, r7, #7
 80003be:	781b      	ldrb	r3, [r3, #0]
 80003c0:	2b00      	cmp	r3, #0
 80003c2:	d026      	beq.n	8000412 <main+0x12e>
 80003c4:	1dbb      	adds	r3, r7, #6
 80003c6:	781b      	ldrb	r3, [r3, #0]
 80003c8:	2b00      	cmp	r3, #0
 80003ca:	d122      	bne.n	8000412 <main+0x12e>
		{
			if((TIM1->CCR1-1) < MAX_ENCODER_LIMIT)
 80003cc:	4b26      	ldr	r3, [pc, #152]	; (8000468 <main+0x184>)
 80003ce:	6b5b      	ldr	r3, [r3, #52]	; 0x34
 80003d0:	3b01      	subs	r3, #1
 80003d2:	4a28      	ldr	r2, [pc, #160]	; (8000474 <main+0x190>)
 80003d4:	4293      	cmp	r3, r2
 80003d6:	d813      	bhi.n	8000400 <main+0x11c>
			{
				TIM1->CCR1--;
 80003d8:	4b23      	ldr	r3, [pc, #140]	; (8000468 <main+0x184>)
 80003da:	6b5a      	ldr	r2, [r3, #52]	; 0x34
 80003dc:	3a01      	subs	r2, #1
 80003de:	635a      	str	r2, [r3, #52]	; 0x34
				TIM1->CCR2--;
 80003e0:	4b21      	ldr	r3, [pc, #132]	; (8000468 <main+0x184>)
 80003e2:	6b9a      	ldr	r2, [r3, #56]	; 0x38
 80003e4:	3a01      	subs	r2, #1
 80003e6:	639a      	str	r2, [r3, #56]	; 0x38
				TIM1->CCR3--;
 80003e8:	4b1f      	ldr	r3, [pc, #124]	; (8000468 <main+0x184>)
 80003ea:	6bda      	ldr	r2, [r3, #60]	; 0x3c
 80003ec:	3a01      	subs	r2, #1
 80003ee:	63da      	str	r2, [r3, #60]	; 0x3c
				TIM1->CCR4--;
 80003f0:	4b1d      	ldr	r3, [pc, #116]	; (8000468 <main+0x184>)
 80003f2:	6c1a      	ldr	r2, [r3, #64]	; 0x40
 80003f4:	3a01      	subs	r2, #1
 80003f6:	641a      	str	r2, [r3, #64]	; 0x40
				TIM14->CCR1--;
 80003f8:	4b1c      	ldr	r3, [pc, #112]	; (800046c <main+0x188>)
 80003fa:	6b5a      	ldr	r2, [r3, #52]	; 0x34
 80003fc:	3a01      	subs	r2, #1
 80003fe:	635a      	str	r2, [r3, #52]	; 0x34
			}
			previous_encoder_dir = (TIM2->CR1 & TIM_CR1_DIR);
 8000400:	2380      	movs	r3, #128	; 0x80
 8000402:	05db      	lsls	r3, r3, #23
 8000404:	681b      	ldr	r3, [r3, #0]
 8000406:	b2da      	uxtb	r2, r3
 8000408:	1dfb      	adds	r3, r7, #7
 800040a:	2110      	movs	r1, #16
 800040c:	400a      	ands	r2, r1
 800040e:	701a      	strb	r2, [r3, #0]
 8000410:	e023      	b.n	800045a <main+0x176>
		}
		else if( (!previous_encoder_dir) && (new_encoder_dir) )
 8000412:	1dfb      	adds	r3, r7, #7
 8000414:	781b      	ldrb	r3, [r3, #0]
 8000416:	2b00      	cmp	r3, #0
 8000418:	d1c8      	bne.n	80003ac <main+0xc8>
 800041a:	1dbb      	adds	r3, r7, #6
 800041c:	781b      	ldrb	r3, [r3, #0]
 800041e:	2b00      	cmp	r3, #0
 8000420:	d0c4      	beq.n	80003ac <main+0xc8>
		{
			TIM1->CCR1++;
 8000422:	4b11      	ldr	r3, [pc, #68]	; (8000468 <main+0x184>)
 8000424:	6b5a      	ldr	r2, [r3, #52]	; 0x34
 8000426:	3201      	adds	r2, #1
 8000428:	635a      	str	r2, [r3, #52]	; 0x34
			TIM1->CCR2++;
 800042a:	4b0f      	ldr	r3, [pc, #60]	; (8000468 <main+0x184>)
 800042c:	6b9a      	ldr	r2, [r3, #56]	; 0x38
 800042e:	3201      	adds	r2, #1
 8000430:	639a      	str	r2, [r3, #56]	; 0x38
			TIM1->CCR3++;
 8000432:	4b0d      	ldr	r3, [pc, #52]	; (8000468 <main+0x184>)
 8000434:	6bda      	ldr	r2, [r3, #60]	; 0x3c
 8000436:	3201      	adds	r2, #1
 8000438:	63da      	str	r2, [r3, #60]	; 0x3c
			TIM1->CCR4++;
 800043a:	4b0b      	ldr	r3, [pc, #44]	; (8000468 <main+0x184>)
 800043c:	6c1a      	ldr	r2, [r3, #64]	; 0x40
 800043e:	3201      	adds	r2, #1
 8000440:	641a      	str	r2, [r3, #64]	; 0x40
			TIM14->CCR1++;
 8000442:	4b0a      	ldr	r3, [pc, #40]	; (800046c <main+0x188>)
 8000444:	6b5a      	ldr	r2, [r3, #52]	; 0x34
 8000446:	3201      	adds	r2, #1
 8000448:	635a      	str	r2, [r3, #52]	; 0x34

			previous_encoder_dir = (TIM2->CR1 & TIM_CR1_DIR);
 800044a:	2380      	movs	r3, #128	; 0x80
 800044c:	05db      	lsls	r3, r3, #23
 800044e:	681b      	ldr	r3, [r3, #0]
 8000450:	b2da      	uxtb	r2, r3
 8000452:	1dfb      	adds	r3, r7, #7
 8000454:	2110      	movs	r1, #16
 8000456:	400a      	ands	r2, r1
 8000458:	701a      	strb	r2, [r3, #0]
  {
 800045a:	e7a7      	b.n	80003ac <main+0xc8>
 800045c:	2000002c 	.word	0x2000002c
 8000460:	2000006c 	.word	0x2000006c
 8000464:	200000ec 	.word	0x200000ec
 8000468:	40012c00 	.word	0x40012c00
 800046c:	40002000 	.word	0x40002000
 8000470:	200000ac 	.word	0x200000ac
 8000474:	000002a7 	.word	0x000002a7

08000478 <SystemClock_Config>:
/**
  * @brief System Clock Configuration
  * @retval None
  */
void SystemClock_Config(void)
{
 8000478:	b590      	push	{r4, r7, lr}
 800047a:	b091      	sub	sp, #68	; 0x44
 800047c:	af00      	add	r7, sp, #0
  RCC_OscInitTypeDef RCC_OscInitStruct = {0};
 800047e:	2410      	movs	r4, #16
 8000480:	193b      	adds	r3, r7, r4
 8000482:	0018      	movs	r0, r3
 8000484:	2330      	movs	r3, #48	; 0x30
 8000486:	001a      	movs	r2, r3
 8000488:	2100      	movs	r1, #0
 800048a:	f002 fa0b 	bl	80028a4 <memset>
  RCC_ClkInitTypeDef RCC_ClkInitStruct = {0};
 800048e:	003b      	movs	r3, r7
 8000490:	0018      	movs	r0, r3
 8000492:	2310      	movs	r3, #16
 8000494:	001a      	movs	r2, r3
 8000496:	2100      	movs	r1, #0
 8000498:	f002 fa04 	bl	80028a4 <memset>

  /** Initializes the CPU, AHB and APB busses clocks 
  */
  RCC_OscInitStruct.OscillatorType = RCC_OSCILLATORTYPE_HSI;
 800049c:	0021      	movs	r1, r4
 800049e:	187b      	adds	r3, r7, r1
 80004a0:	2202      	movs	r2, #2
 80004a2:	601a      	str	r2, [r3, #0]
  RCC_OscInitStruct.HSIState = RCC_HSI_ON;
 80004a4:	187b      	adds	r3, r7, r1
 80004a6:	2201      	movs	r2, #1
 80004a8:	60da      	str	r2, [r3, #12]
  RCC_OscInitStruct.HSICalibrationValue = RCC_HSICALIBRATION_DEFAULT;
 80004aa:	187b      	adds	r3, r7, r1
 80004ac:	2210      	movs	r2, #16
 80004ae:	611a      	str	r2, [r3, #16]
  RCC_OscInitStruct.PLL.PLLState = RCC_PLL_NONE;
 80004b0:	187b      	adds	r3, r7, r1
 80004b2:	2200      	movs	r2, #0
 80004b4:	621a      	str	r2, [r3, #32]
  if (HAL_RCC_OscConfig(&RCC_OscInitStruct) != HAL_OK)
 80004b6:	187b      	adds	r3, r7, r1
 80004b8:	0018      	movs	r0, r3
 80004ba:	f000 fec5 	bl	8001248 <HAL_RCC_OscConfig>
 80004be:	1e03      	subs	r3, r0, #0
 80004c0:	d001      	beq.n	80004c6 <SystemClock_Config+0x4e>
  {
    Error_Handler();
 80004c2:	f000 f819 	bl	80004f8 <Error_Handler>
  }
  /** Initializes the CPU, AHB and APB busses clocks 
  */
  RCC_ClkInitStruct.ClockType = RCC_CLOCKTYPE_HCLK|RCC_CLOCKTYPE_SYSCLK
 80004c6:	003b      	movs	r3, r7
 80004c8:	2207      	movs	r2, #7
 80004ca:	601a      	str	r2, [r3, #0]
                              |RCC_CLOCKTYPE_PCLK1;
  RCC_ClkInitStruct.SYSCLKSource = RCC_SYSCLKSOURCE_HSI;
 80004cc:	003b      	movs	r3, r7
 80004ce:	2200      	movs	r2, #0
 80004d0:	605a      	str	r2, [r3, #4]
  RCC_ClkInitStruct.AHBCLKDivider = RCC_SYSCLK_DIV1;
 80004d2:	003b      	movs	r3, r7
 80004d4:	2200      	movs	r2, #0
 80004d6:	609a      	str	r2, [r3, #8]
  RCC_ClkInitStruct.APB1CLKDivider = RCC_HCLK_DIV1;
 80004d8:	003b      	movs	r3, r7
 80004da:	2200      	movs	r2, #0
 80004dc:	60da      	str	r2, [r3, #12]

  if (HAL_RCC_ClockConfig(&RCC_ClkInitStruct, FLASH_LATENCY_0) != HAL_OK)
 80004de:	003b      	movs	r3, r7
 80004e0:	2100      	movs	r1, #0
 80004e2:	0018      	movs	r0, r3
 80004e4:	f001 f9cc 	bl	8001880 <HAL_RCC_ClockConfig>
 80004e8:	1e03      	subs	r3, r0, #0
 80004ea:	d001      	beq.n	80004f0 <SystemClock_Config+0x78>
  {
    Error_Handler();
 80004ec:	f000 f804 	bl	80004f8 <Error_Handler>
  }
}
 80004f0:	46c0      	nop			; (mov r8, r8)
 80004f2:	46bd      	mov	sp, r7
 80004f4:	b011      	add	sp, #68	; 0x44
 80004f6:	bd90      	pop	{r4, r7, pc}

080004f8 <Error_Handler>:
/**
  * @brief  This function is executed in case of error occurrence.
  * @retval None
  */
void Error_Handler(void)
{
 80004f8:	b580      	push	{r7, lr}
 80004fa:	af00      	add	r7, sp, #0
  /* USER CODE BEGIN Error_Handler_Debug */
  /* User can add his own implementation to report the HAL error return state */

  /* USER CODE END Error_Handler_Debug */
}
 80004fc:	46c0      	nop			; (mov r8, r8)
 80004fe:	46bd      	mov	sp, r7
 8000500:	bd80      	pop	{r7, pc}
	...

08000504 <HAL_MspInit>:
/* USER CODE END 0 */
/**
  * Initializes the Global MSP.
  */
void HAL_MspInit(void)
{
 8000504:	b580      	push	{r7, lr}
 8000506:	b082      	sub	sp, #8
 8000508:	af00      	add	r7, sp, #0
  /* USER CODE BEGIN MspInit 0 */

  /* USER CODE END MspInit 0 */

  __HAL_RCC_SYSCFG_CLK_ENABLE();
 800050a:	4b0f      	ldr	r3, [pc, #60]	; (8000548 <HAL_MspInit+0x44>)
 800050c:	699a      	ldr	r2, [r3, #24]
 800050e:	4b0e      	ldr	r3, [pc, #56]	; (8000548 <HAL_MspInit+0x44>)
 8000510:	2101      	movs	r1, #1
 8000512:	430a      	orrs	r2, r1
 8000514:	619a      	str	r2, [r3, #24]
 8000516:	4b0c      	ldr	r3, [pc, #48]	; (8000548 <HAL_MspInit+0x44>)
 8000518:	699b      	ldr	r3, [r3, #24]
 800051a:	2201      	movs	r2, #1
 800051c:	4013      	ands	r3, r2
 800051e:	607b      	str	r3, [r7, #4]
 8000520:	687b      	ldr	r3, [r7, #4]
  __HAL_RCC_PWR_CLK_ENABLE();
 8000522:	4b09      	ldr	r3, [pc, #36]	; (8000548 <HAL_MspInit+0x44>)
 8000524:	69da      	ldr	r2, [r3, #28]
 8000526:	4b08      	ldr	r3, [pc, #32]	; (8000548 <HAL_MspInit+0x44>)
 8000528:	2180      	movs	r1, #128	; 0x80
 800052a:	0549      	lsls	r1, r1, #21
 800052c:	430a      	orrs	r2, r1
 800052e:	61da      	str	r2, [r3, #28]
 8000530:	4b05      	ldr	r3, [pc, #20]	; (8000548 <HAL_MspInit+0x44>)
 8000532:	69da      	ldr	r2, [r3, #28]
 8000534:	2380      	movs	r3, #128	; 0x80
 8000536:	055b      	lsls	r3, r3, #21
 8000538:	4013      	ands	r3, r2
 800053a:	603b      	str	r3, [r7, #0]
 800053c:	683b      	ldr	r3, [r7, #0]
  /* System interrupt init*/

  /* USER CODE BEGIN MspInit 1 */

  /* USER CODE END MspInit 1 */
}
 800053e:	46c0      	nop			; (mov r8, r8)
 8000540:	46bd      	mov	sp, r7
 8000542:	b002      	add	sp, #8
 8000544:	bd80      	pop	{r7, pc}
 8000546:	46c0      	nop			; (mov r8, r8)
 8000548:	40021000 	.word	0x40021000

0800054c <NMI_Handler>:
/******************************************************************************/
/**
  * @brief This function handles Non maskable interrupt.
  */
void NMI_Handler(void)
{
 800054c:	b580      	push	{r7, lr}
 800054e:	af00      	add	r7, sp, #0

  /* USER CODE END NonMaskableInt_IRQn 0 */
  /* USER CODE BEGIN NonMaskableInt_IRQn 1 */

  /* USER CODE END NonMaskableInt_IRQn 1 */
}
 8000550:	46c0      	nop			; (mov r8, r8)
 8000552:	46bd      	mov	sp, r7
 8000554:	bd80      	pop	{r7, pc}

08000556 <HardFault_Handler>:

/**
  * @brief This function handles Hard fault interrupt.
  */
void HardFault_Handler(void)
{
 8000556:	b580      	push	{r7, lr}
 8000558:	af00      	add	r7, sp, #0
  /* USER CODE BEGIN HardFault_IRQn 0 */

  /* USER CODE END HardFault_IRQn 0 */
  while (1)
 800055a:	e7fe      	b.n	800055a <HardFault_Handler+0x4>

0800055c <SVC_Handler>:

/**
  * @brief This function handles System service call via SWI instruction.
  */
void SVC_Handler(void)
{
 800055c:	b580      	push	{r7, lr}
 800055e:	af00      	add	r7, sp, #0

  /* USER CODE END SVC_IRQn 0 */
  /* USER CODE BEGIN SVC_IRQn 1 */

  /* USER CODE END SVC_IRQn 1 */
}
 8000560:	46c0      	nop			; (mov r8, r8)
 8000562:	46bd      	mov	sp, r7
 8000564:	bd80      	pop	{r7, pc}

08000566 <PendSV_Handler>:

/**
  * @brief This function handles Pendable request for system service.
  */
void PendSV_Handler(void)
{
 8000566:	b580      	push	{r7, lr}
 8000568:	af00      	add	r7, sp, #0

  /* USER CODE END PendSV_IRQn 0 */
  /* USER CODE BEGIN PendSV_IRQn 1 */

  /* USER CODE END PendSV_IRQn 1 */
}
 800056a:	46c0      	nop			; (mov r8, r8)
 800056c:	46bd      	mov	sp, r7
 800056e:	bd80      	pop	{r7, pc}

08000570 <SysTick_Handler>:

/**
  * @brief This function handles System tick timer.
  */
void SysTick_Handler(void)
{
 8000570:	b580      	push	{r7, lr}
 8000572:	af00      	add	r7, sp, #0
  /* USER CODE BEGIN SysTick_IRQn 0 */

  /* USER CODE END SysTick_IRQn 0 */
  HAL_IncTick();
 8000574:	f000 fba0 	bl	8000cb8 <HAL_IncTick>
  /* USER CODE BEGIN SysTick_IRQn 1 */

  /* USER CODE END SysTick_IRQn 1 */
}
 8000578:	46c0      	nop			; (mov r8, r8)
 800057a:	46bd      	mov	sp, r7
 800057c:	bd80      	pop	{r7, pc}
	...

08000580 <EXTI0_1_IRQHandler>:

/**
  * @brief This function handles EXTI line 0 and 1 interrupts.
  */
void EXTI0_1_IRQHandler(void)
{
 8000580:	b580      	push	{r7, lr}
 8000582:	b082      	sub	sp, #8
 8000584:	af00      	add	r7, sp, #0
  /* USER CODE BEGIN EXTI0_1_IRQn 0 */
	uint16_t interrupt_time = TIM17->CNT;
 8000586:	4b20      	ldr	r3, [pc, #128]	; (8000608 <EXTI0_1_IRQHandler+0x88>)
 8000588:	6a5a      	ldr	r2, [r3, #36]	; 0x24
 800058a:	1dbb      	adds	r3, r7, #6
 800058c:	801a      	strh	r2, [r3, #0]
	if ((interrupt_time - last_interrupt_time) > MAX_DEBOUNCE_DELAY)
 800058e:	1dbb      	adds	r3, r7, #6
 8000590:	881b      	ldrh	r3, [r3, #0]
 8000592:	4a1e      	ldr	r2, [pc, #120]	; (800060c <EXTI0_1_IRQHandler+0x8c>)
 8000594:	8812      	ldrh	r2, [r2, #0]
 8000596:	1a9b      	subs	r3, r3, r2
 8000598:	2baf      	cmp	r3, #175	; 0xaf
 800059a:	dd29      	ble.n	80005f0 <EXTI0_1_IRQHandler+0x70>
	{
		HAL_GPIO_TogglePin(GPIOA, STATUS_GREEN_Pin);
 800059c:	2390      	movs	r3, #144	; 0x90
 800059e:	05db      	lsls	r3, r3, #23
 80005a0:	2102      	movs	r1, #2
 80005a2:	0018      	movs	r0, r3
 80005a4:	f000 fe0f 	bl	80011c6 <HAL_GPIO_TogglePin>
		HAL_GPIO_TogglePin(GPIOA, STATUS_RED_Pin);
 80005a8:	2390      	movs	r3, #144	; 0x90
 80005aa:	05db      	lsls	r3, r3, #23
 80005ac:	2104      	movs	r1, #4
 80005ae:	0018      	movs	r0, r3
 80005b0:	f000 fe09 	bl	80011c6 <HAL_GPIO_TogglePin>
		TIM1->CCR1 ^= 0x60;
 80005b4:	4b16      	ldr	r3, [pc, #88]	; (8000610 <EXTI0_1_IRQHandler+0x90>)
 80005b6:	6b5a      	ldr	r2, [r3, #52]	; 0x34
 80005b8:	4b15      	ldr	r3, [pc, #84]	; (8000610 <EXTI0_1_IRQHandler+0x90>)
 80005ba:	2160      	movs	r1, #96	; 0x60
 80005bc:	404a      	eors	r2, r1
 80005be:	635a      	str	r2, [r3, #52]	; 0x34
		TIM1->CCR2 ^= 0x60;
 80005c0:	4b13      	ldr	r3, [pc, #76]	; (8000610 <EXTI0_1_IRQHandler+0x90>)
 80005c2:	6b9a      	ldr	r2, [r3, #56]	; 0x38
 80005c4:	4b12      	ldr	r3, [pc, #72]	; (8000610 <EXTI0_1_IRQHandler+0x90>)
 80005c6:	2160      	movs	r1, #96	; 0x60
 80005c8:	404a      	eors	r2, r1
 80005ca:	639a      	str	r2, [r3, #56]	; 0x38
		TIM1->CCR3 ^= 0x60;
 80005cc:	4b10      	ldr	r3, [pc, #64]	; (8000610 <EXTI0_1_IRQHandler+0x90>)
 80005ce:	6bda      	ldr	r2, [r3, #60]	; 0x3c
 80005d0:	4b0f      	ldr	r3, [pc, #60]	; (8000610 <EXTI0_1_IRQHandler+0x90>)
 80005d2:	2160      	movs	r1, #96	; 0x60
 80005d4:	404a      	eors	r2, r1
 80005d6:	63da      	str	r2, [r3, #60]	; 0x3c
		TIM1->CCR4 ^= 0x60;
 80005d8:	4b0d      	ldr	r3, [pc, #52]	; (8000610 <EXTI0_1_IRQHandler+0x90>)
 80005da:	6c1a      	ldr	r2, [r3, #64]	; 0x40
 80005dc:	4b0c      	ldr	r3, [pc, #48]	; (8000610 <EXTI0_1_IRQHandler+0x90>)
 80005de:	2160      	movs	r1, #96	; 0x60
 80005e0:	404a      	eors	r2, r1
 80005e2:	641a      	str	r2, [r3, #64]	; 0x40
		TIM14->CCR1 ^= 0x60;
 80005e4:	4b0b      	ldr	r3, [pc, #44]	; (8000614 <EXTI0_1_IRQHandler+0x94>)
 80005e6:	6b5a      	ldr	r2, [r3, #52]	; 0x34
 80005e8:	4b0a      	ldr	r3, [pc, #40]	; (8000614 <EXTI0_1_IRQHandler+0x94>)
 80005ea:	2160      	movs	r1, #96	; 0x60
 80005ec:	404a      	eors	r2, r1
 80005ee:	635a      	str	r2, [r3, #52]	; 0x34
	}
	last_interrupt_time = interrupt_time;
 80005f0:	4b06      	ldr	r3, [pc, #24]	; (800060c <EXTI0_1_IRQHandler+0x8c>)
 80005f2:	1dba      	adds	r2, r7, #6
 80005f4:	8812      	ldrh	r2, [r2, #0]
 80005f6:	801a      	strh	r2, [r3, #0]
  /* USER CODE END EXTI0_1_IRQn 0 */
  HAL_GPIO_EXTI_IRQHandler(GPIO_PIN_0);
 80005f8:	2001      	movs	r0, #1
 80005fa:	f000 fdff 	bl	80011fc <HAL_GPIO_EXTI_IRQHandler>
  /* USER CODE BEGIN EXTI0_1_IRQn 1 */

  /* USER CODE END EXTI0_1_IRQn 1 */
}
 80005fe:	46c0      	nop			; (mov r8, r8)
 8000600:	46bd      	mov	sp, r7
 8000602:	b002      	add	sp, #8
 8000604:	bd80      	pop	{r7, pc}
 8000606:	46c0      	nop			; (mov r8, r8)
 8000608:	40014800 	.word	0x40014800
 800060c:	20000028 	.word	0x20000028
 8000610:	40012c00 	.word	0x40012c00
 8000614:	40002000 	.word	0x40002000

08000618 <TIM2_IRQHandler>:

/**
  * @brief This function handles TIM2 global interrupt.
  */
void TIM2_IRQHandler(void)
{
 8000618:	b580      	push	{r7, lr}
 800061a:	af00      	add	r7, sp, #0
  /* USER CODE BEGIN TIM2_IRQn 0 */

  /* USER CODE END TIM2_IRQn 0 */
  HAL_TIM_IRQHandler(&htim2);
 800061c:	4b03      	ldr	r3, [pc, #12]	; (800062c <TIM2_IRQHandler+0x14>)
 800061e:	0018      	movs	r0, r3
 8000620:	f001 fbba 	bl	8001d98 <HAL_TIM_IRQHandler>
  /* USER CODE BEGIN TIM2_IRQn 1 */

  /* USER CODE END TIM2_IRQn 1 */
}
 8000624:	46c0      	nop			; (mov r8, r8)
 8000626:	46bd      	mov	sp, r7
 8000628:	bd80      	pop	{r7, pc}
 800062a:	46c0      	nop			; (mov r8, r8)
 800062c:	200000ac 	.word	0x200000ac

08000630 <SystemInit>:
  * @brief  Setup the microcontroller system.
  * @param  None
  * @retval None
  */
void SystemInit(void)
{
 8000630:	b580      	push	{r7, lr}
 8000632:	af00      	add	r7, sp, #0
                         before branch to main program. This call is made inside
                         the "startup_stm32f0xx.s" file.
                         User can setups the default system clock (System clock source, PLL Multiplier
                         and Divider factors, AHB/APBx prescalers and Flash settings).
   */
}
 8000634:	46c0      	nop			; (mov r8, r8)
 8000636:	46bd      	mov	sp, r7
 8000638:	bd80      	pop	{r7, pc}
	...

0800063c <MX_TIM1_Init>:
TIM_HandleTypeDef htim14;
TIM_HandleTypeDef htim17;

/* TIM1 init function */
void MX_TIM1_Init(void)
{
 800063c:	b580      	push	{r7, lr}
 800063e:	b092      	sub	sp, #72	; 0x48
 8000640:	af00      	add	r7, sp, #0
  TIM_MasterConfigTypeDef sMasterConfig = {0};
 8000642:	2340      	movs	r3, #64	; 0x40
 8000644:	18fb      	adds	r3, r7, r3
 8000646:	0018      	movs	r0, r3
 8000648:	2308      	movs	r3, #8
 800064a:	001a      	movs	r2, r3
 800064c:	2100      	movs	r1, #0
 800064e:	f002 f929 	bl	80028a4 <memset>
  TIM_OC_InitTypeDef sConfigOC = {0};
 8000652:	2324      	movs	r3, #36	; 0x24
 8000654:	18fb      	adds	r3, r7, r3
 8000656:	0018      	movs	r0, r3
 8000658:	231c      	movs	r3, #28
 800065a:	001a      	movs	r2, r3
 800065c:	2100      	movs	r1, #0
 800065e:	f002 f921 	bl	80028a4 <memset>
  TIM_BreakDeadTimeConfigTypeDef sBreakDeadTimeConfig = {0};
 8000662:	1d3b      	adds	r3, r7, #4
 8000664:	0018      	movs	r0, r3
 8000666:	2320      	movs	r3, #32
 8000668:	001a      	movs	r2, r3
 800066a:	2100      	movs	r1, #0
 800066c:	f002 f91a 	bl	80028a4 <memset>

  htim1.Instance = TIM1;
 8000670:	4b4b      	ldr	r3, [pc, #300]	; (80007a0 <MX_TIM1_Init+0x164>)
 8000672:	4a4c      	ldr	r2, [pc, #304]	; (80007a4 <MX_TIM1_Init+0x168>)
 8000674:	601a      	str	r2, [r3, #0]
  htim1.Init.Prescaler = 0;
 8000676:	4b4a      	ldr	r3, [pc, #296]	; (80007a0 <MX_TIM1_Init+0x164>)
 8000678:	2200      	movs	r2, #0
 800067a:	605a      	str	r2, [r3, #4]
  htim1.Init.CounterMode = TIM_COUNTERMODE_UP;
 800067c:	4b48      	ldr	r3, [pc, #288]	; (80007a0 <MX_TIM1_Init+0x164>)
 800067e:	2200      	movs	r2, #0
 8000680:	609a      	str	r2, [r3, #8]
  htim1.Init.Period = 64;
 8000682:	4b47      	ldr	r3, [pc, #284]	; (80007a0 <MX_TIM1_Init+0x164>)
 8000684:	2240      	movs	r2, #64	; 0x40
 8000686:	60da      	str	r2, [r3, #12]
  htim1.Init.ClockDivision = TIM_CLOCKDIVISION_DIV1;
 8000688:	4b45      	ldr	r3, [pc, #276]	; (80007a0 <MX_TIM1_Init+0x164>)
 800068a:	2200      	movs	r2, #0
 800068c:	611a      	str	r2, [r3, #16]
  htim1.Init.RepetitionCounter = 0;
 800068e:	4b44      	ldr	r3, [pc, #272]	; (80007a0 <MX_TIM1_Init+0x164>)
 8000690:	2200      	movs	r2, #0
 8000692:	615a      	str	r2, [r3, #20]
  htim1.Init.AutoReloadPreload = TIM_AUTORELOAD_PRELOAD_DISABLE;
 8000694:	4b42      	ldr	r3, [pc, #264]	; (80007a0 <MX_TIM1_Init+0x164>)
 8000696:	2200      	movs	r2, #0
 8000698:	619a      	str	r2, [r3, #24]
  if (HAL_TIM_PWM_Init(&htim1) != HAL_OK)
 800069a:	4b41      	ldr	r3, [pc, #260]	; (80007a0 <MX_TIM1_Init+0x164>)
 800069c:	0018      	movs	r0, r3
 800069e:	f001 fa6f 	bl	8001b80 <HAL_TIM_PWM_Init>
 80006a2:	1e03      	subs	r3, r0, #0
 80006a4:	d001      	beq.n	80006aa <MX_TIM1_Init+0x6e>
  {
    Error_Handler();
 80006a6:	f7ff ff27 	bl	80004f8 <Error_Handler>
  }
  sMasterConfig.MasterOutputTrigger = TIM_TRGO_RESET;
 80006aa:	2140      	movs	r1, #64	; 0x40
 80006ac:	187b      	adds	r3, r7, r1
 80006ae:	2200      	movs	r2, #0
 80006b0:	601a      	str	r2, [r3, #0]
  sMasterConfig.MasterSlaveMode = TIM_MASTERSLAVEMODE_DISABLE;
 80006b2:	187b      	adds	r3, r7, r1
 80006b4:	2200      	movs	r2, #0
 80006b6:	605a      	str	r2, [r3, #4]
  if (HAL_TIMEx_MasterConfigSynchronization(&htim1, &sMasterConfig) != HAL_OK)
 80006b8:	187a      	adds	r2, r7, r1
 80006ba:	4b39      	ldr	r3, [pc, #228]	; (80007a0 <MX_TIM1_Init+0x164>)
 80006bc:	0011      	movs	r1, r2
 80006be:	0018      	movs	r0, r3
 80006c0:	f002 f800 	bl	80026c4 <HAL_TIMEx_MasterConfigSynchronization>
 80006c4:	1e03      	subs	r3, r0, #0
 80006c6:	d001      	beq.n	80006cc <MX_TIM1_Init+0x90>
  {
    Error_Handler();
 80006c8:	f7ff ff16 	bl	80004f8 <Error_Handler>
  }
  sConfigOC.OCMode = TIM_OCMODE_PWM1;
 80006cc:	2124      	movs	r1, #36	; 0x24
 80006ce:	187b      	adds	r3, r7, r1
 80006d0:	2260      	movs	r2, #96	; 0x60
 80006d2:	601a      	str	r2, [r3, #0]
  sConfigOC.Pulse = 0;
 80006d4:	187b      	adds	r3, r7, r1
 80006d6:	2200      	movs	r2, #0
 80006d8:	605a      	str	r2, [r3, #4]
  sConfigOC.OCPolarity = TIM_OCPOLARITY_HIGH;
 80006da:	187b      	adds	r3, r7, r1
 80006dc:	2200      	movs	r2, #0
 80006de:	609a      	str	r2, [r3, #8]
  sConfigOC.OCNPolarity = TIM_OCNPOLARITY_HIGH;
 80006e0:	187b      	adds	r3, r7, r1
 80006e2:	2200      	movs	r2, #0
 80006e4:	60da      	str	r2, [r3, #12]
  sConfigOC.OCFastMode = TIM_OCFAST_DISABLE;
 80006e6:	187b      	adds	r3, r7, r1
 80006e8:	2200      	movs	r2, #0
 80006ea:	611a      	str	r2, [r3, #16]
  sConfigOC.OCIdleState = TIM_OCIDLESTATE_RESET;
 80006ec:	187b      	adds	r3, r7, r1
 80006ee:	2200      	movs	r2, #0
 80006f0:	615a      	str	r2, [r3, #20]
  sConfigOC.OCNIdleState = TIM_OCNIDLESTATE_RESET;
 80006f2:	187b      	adds	r3, r7, r1
 80006f4:	2200      	movs	r2, #0
 80006f6:	619a      	str	r2, [r3, #24]
  if (HAL_TIM_PWM_ConfigChannel(&htim1, &sConfigOC, TIM_CHANNEL_1) != HAL_OK)
 80006f8:	1879      	adds	r1, r7, r1
 80006fa:	4b29      	ldr	r3, [pc, #164]	; (80007a0 <MX_TIM1_Init+0x164>)
 80006fc:	2200      	movs	r2, #0
 80006fe:	0018      	movs	r0, r3
 8000700:	f001 fc60 	bl	8001fc4 <HAL_TIM_PWM_ConfigChannel>
 8000704:	1e03      	subs	r3, r0, #0
 8000706:	d001      	beq.n	800070c <MX_TIM1_Init+0xd0>
  {
    Error_Handler();
 8000708:	f7ff fef6 	bl	80004f8 <Error_Handler>
  }
  if (HAL_TIM_PWM_ConfigChannel(&htim1, &sConfigOC, TIM_CHANNEL_2) != HAL_OK)
 800070c:	2324      	movs	r3, #36	; 0x24
 800070e:	18f9      	adds	r1, r7, r3
 8000710:	4b23      	ldr	r3, [pc, #140]	; (80007a0 <MX_TIM1_Init+0x164>)
 8000712:	2204      	movs	r2, #4
 8000714:	0018      	movs	r0, r3
 8000716:	f001 fc55 	bl	8001fc4 <HAL_TIM_PWM_ConfigChannel>
 800071a:	1e03      	subs	r3, r0, #0
 800071c:	d001      	beq.n	8000722 <MX_TIM1_Init+0xe6>
  {
    Error_Handler();
 800071e:	f7ff feeb 	bl	80004f8 <Error_Handler>
  }
  if (HAL_TIM_PWM_ConfigChannel(&htim1, &sConfigOC, TIM_CHANNEL_3) != HAL_OK)
 8000722:	2324      	movs	r3, #36	; 0x24
 8000724:	18f9      	adds	r1, r7, r3
 8000726:	4b1e      	ldr	r3, [pc, #120]	; (80007a0 <MX_TIM1_Init+0x164>)
 8000728:	2208      	movs	r2, #8
 800072a:	0018      	movs	r0, r3
 800072c:	f001 fc4a 	bl	8001fc4 <HAL_TIM_PWM_ConfigChannel>
 8000730:	1e03      	subs	r3, r0, #0
 8000732:	d001      	beq.n	8000738 <MX_TIM1_Init+0xfc>
  {
    Error_Handler();
 8000734:	f7ff fee0 	bl	80004f8 <Error_Handler>
  }
  if (HAL_TIM_PWM_ConfigChannel(&htim1, &sConfigOC, TIM_CHANNEL_4) != HAL_OK)
 8000738:	2324      	movs	r3, #36	; 0x24
 800073a:	18f9      	adds	r1, r7, r3
 800073c:	4b18      	ldr	r3, [pc, #96]	; (80007a0 <MX_TIM1_Init+0x164>)
 800073e:	220c      	movs	r2, #12
 8000740:	0018      	movs	r0, r3
 8000742:	f001 fc3f 	bl	8001fc4 <HAL_TIM_PWM_ConfigChannel>
 8000746:	1e03      	subs	r3, r0, #0
 8000748:	d001      	beq.n	800074e <MX_TIM1_Init+0x112>
  {
    Error_Handler();
 800074a:	f7ff fed5 	bl	80004f8 <Error_Handler>
  }
  sBreakDeadTimeConfig.OffStateRunMode = TIM_OSSR_DISABLE;
 800074e:	1d3b      	adds	r3, r7, #4
 8000750:	2200      	movs	r2, #0
 8000752:	601a      	str	r2, [r3, #0]
  sBreakDeadTimeConfig.OffStateIDLEMode = TIM_OSSI_DISABLE;
 8000754:	1d3b      	adds	r3, r7, #4
 8000756:	2200      	movs	r2, #0
 8000758:	605a      	str	r2, [r3, #4]
  sBreakDeadTimeConfig.LockLevel = TIM_LOCKLEVEL_OFF;
 800075a:	1d3b      	adds	r3, r7, #4
 800075c:	2200      	movs	r2, #0
 800075e:	609a      	str	r2, [r3, #8]
  sBreakDeadTimeConfig.DeadTime = 0;
 8000760:	1d3b      	adds	r3, r7, #4
 8000762:	2200      	movs	r2, #0
 8000764:	60da      	str	r2, [r3, #12]
  sBreakDeadTimeConfig.BreakState = TIM_BREAK_DISABLE;
 8000766:	1d3b      	adds	r3, r7, #4
 8000768:	2200      	movs	r2, #0
 800076a:	611a      	str	r2, [r3, #16]
  sBreakDeadTimeConfig.BreakPolarity = TIM_BREAKPOLARITY_HIGH;
 800076c:	1d3b      	adds	r3, r7, #4
 800076e:	2280      	movs	r2, #128	; 0x80
 8000770:	0192      	lsls	r2, r2, #6
 8000772:	615a      	str	r2, [r3, #20]
  sBreakDeadTimeConfig.AutomaticOutput = TIM_AUTOMATICOUTPUT_DISABLE;
 8000774:	1d3b      	adds	r3, r7, #4
 8000776:	2200      	movs	r2, #0
 8000778:	61da      	str	r2, [r3, #28]
  if (HAL_TIMEx_ConfigBreakDeadTime(&htim1, &sBreakDeadTimeConfig) != HAL_OK)
 800077a:	1d3a      	adds	r2, r7, #4
 800077c:	4b08      	ldr	r3, [pc, #32]	; (80007a0 <MX_TIM1_Init+0x164>)
 800077e:	0011      	movs	r1, r2
 8000780:	0018      	movs	r0, r3
 8000782:	f001 fffd 	bl	8002780 <HAL_TIMEx_ConfigBreakDeadTime>
 8000786:	1e03      	subs	r3, r0, #0
 8000788:	d001      	beq.n	800078e <MX_TIM1_Init+0x152>
  {
    Error_Handler();
 800078a:	f7ff feb5 	bl	80004f8 <Error_Handler>
  }
  HAL_TIM_MspPostInit(&htim1);
 800078e:	4b04      	ldr	r3, [pc, #16]	; (80007a0 <MX_TIM1_Init+0x164>)
 8000790:	0018      	movs	r0, r3
 8000792:	f000 f9b1 	bl	8000af8 <HAL_TIM_MspPostInit>

}
 8000796:	46c0      	nop			; (mov r8, r8)
 8000798:	46bd      	mov	sp, r7
 800079a:	b012      	add	sp, #72	; 0x48
 800079c:	bd80      	pop	{r7, pc}
 800079e:	46c0      	nop			; (mov r8, r8)
 80007a0:	2000006c 	.word	0x2000006c
 80007a4:	40012c00 	.word	0x40012c00

080007a8 <MX_TIM2_Init>:
/* TIM2 init function */
void MX_TIM2_Init(void)
{
 80007a8:	b590      	push	{r4, r7, lr}
 80007aa:	b08d      	sub	sp, #52	; 0x34
 80007ac:	af00      	add	r7, sp, #0
  TIM_Encoder_InitTypeDef sConfig = {0};
 80007ae:	240c      	movs	r4, #12
 80007b0:	193b      	adds	r3, r7, r4
 80007b2:	0018      	movs	r0, r3
 80007b4:	2324      	movs	r3, #36	; 0x24
 80007b6:	001a      	movs	r2, r3
 80007b8:	2100      	movs	r1, #0
 80007ba:	f002 f873 	bl	80028a4 <memset>
  TIM_MasterConfigTypeDef sMasterConfig = {0};
 80007be:	1d3b      	adds	r3, r7, #4
 80007c0:	0018      	movs	r0, r3
 80007c2:	2308      	movs	r3, #8
 80007c4:	001a      	movs	r2, r3
 80007c6:	2100      	movs	r1, #0
 80007c8:	f002 f86c 	bl	80028a4 <memset>

  htim2.Instance = TIM2;
 80007cc:	4b26      	ldr	r3, [pc, #152]	; (8000868 <MX_TIM2_Init+0xc0>)
 80007ce:	2280      	movs	r2, #128	; 0x80
 80007d0:	05d2      	lsls	r2, r2, #23
 80007d2:	601a      	str	r2, [r3, #0]
  htim2.Init.Prescaler = 0;
 80007d4:	4b24      	ldr	r3, [pc, #144]	; (8000868 <MX_TIM2_Init+0xc0>)
 80007d6:	2200      	movs	r2, #0
 80007d8:	605a      	str	r2, [r3, #4]
  htim2.Init.CounterMode = TIM_COUNTERMODE_CENTERALIGNED3;
 80007da:	4b23      	ldr	r3, [pc, #140]	; (8000868 <MX_TIM2_Init+0xc0>)
 80007dc:	2260      	movs	r2, #96	; 0x60
 80007de:	609a      	str	r2, [r3, #8]
  htim2.Init.Period = 680;
 80007e0:	4b21      	ldr	r3, [pc, #132]	; (8000868 <MX_TIM2_Init+0xc0>)
 80007e2:	22aa      	movs	r2, #170	; 0xaa
 80007e4:	0092      	lsls	r2, r2, #2
 80007e6:	60da      	str	r2, [r3, #12]
  htim2.Init.ClockDivision = TIM_CLOCKDIVISION_DIV1;
 80007e8:	4b1f      	ldr	r3, [pc, #124]	; (8000868 <MX_TIM2_Init+0xc0>)
 80007ea:	2200      	movs	r2, #0
 80007ec:	611a      	str	r2, [r3, #16]
  htim2.Init.AutoReloadPreload = TIM_AUTORELOAD_PRELOAD_DISABLE;
 80007ee:	4b1e      	ldr	r3, [pc, #120]	; (8000868 <MX_TIM2_Init+0xc0>)
 80007f0:	2200      	movs	r2, #0
 80007f2:	619a      	str	r2, [r3, #24]
  sConfig.EncoderMode = TIM_ENCODERMODE_TI12;
 80007f4:	0021      	movs	r1, r4
 80007f6:	187b      	adds	r3, r7, r1
 80007f8:	2203      	movs	r2, #3
 80007fa:	601a      	str	r2, [r3, #0]
  sConfig.IC1Polarity = TIM_ICPOLARITY_RISING;
 80007fc:	187b      	adds	r3, r7, r1
 80007fe:	2200      	movs	r2, #0
 8000800:	605a      	str	r2, [r3, #4]
  sConfig.IC1Selection = TIM_ICSELECTION_DIRECTTI;
 8000802:	187b      	adds	r3, r7, r1
 8000804:	2201      	movs	r2, #1
 8000806:	609a      	str	r2, [r3, #8]
  sConfig.IC1Prescaler = TIM_ICPSC_DIV1;
 8000808:	187b      	adds	r3, r7, r1
 800080a:	2200      	movs	r2, #0
 800080c:	60da      	str	r2, [r3, #12]
  sConfig.IC1Filter = 0;
 800080e:	187b      	adds	r3, r7, r1
 8000810:	2200      	movs	r2, #0
 8000812:	611a      	str	r2, [r3, #16]
  sConfig.IC2Polarity = TIM_ICPOLARITY_RISING;
 8000814:	187b      	adds	r3, r7, r1
 8000816:	2200      	movs	r2, #0
 8000818:	615a      	str	r2, [r3, #20]
  sConfig.IC2Selection = TIM_ICSELECTION_DIRECTTI;
 800081a:	187b      	adds	r3, r7, r1
 800081c:	2201      	movs	r2, #1
 800081e:	619a      	str	r2, [r3, #24]
  sConfig.IC2Prescaler = TIM_ICPSC_DIV1;
 8000820:	187b      	adds	r3, r7, r1
 8000822:	2200      	movs	r2, #0
 8000824:	61da      	str	r2, [r3, #28]
  sConfig.IC2Filter = 0;
 8000826:	187b      	adds	r3, r7, r1
 8000828:	2200      	movs	r2, #0
 800082a:	621a      	str	r2, [r3, #32]
  if (HAL_TIM_Encoder_Init(&htim2, &sConfig) != HAL_OK)
 800082c:	187a      	adds	r2, r7, r1
 800082e:	4b0e      	ldr	r3, [pc, #56]	; (8000868 <MX_TIM2_Init+0xc0>)
 8000830:	0011      	movs	r1, r2
 8000832:	0018      	movs	r0, r3
 8000834:	f001 fa1c 	bl	8001c70 <HAL_TIM_Encoder_Init>
 8000838:	1e03      	subs	r3, r0, #0
 800083a:	d001      	beq.n	8000840 <MX_TIM2_Init+0x98>
  {
    Error_Handler();
 800083c:	f7ff fe5c 	bl	80004f8 <Error_Handler>
  }
  sMasterConfig.MasterOutputTrigger = TIM_TRGO_UPDATE;
 8000840:	1d3b      	adds	r3, r7, #4
 8000842:	2220      	movs	r2, #32
 8000844:	601a      	str	r2, [r3, #0]
  sMasterConfig.MasterSlaveMode = TIM_MASTERSLAVEMODE_DISABLE;
 8000846:	1d3b      	adds	r3, r7, #4
 8000848:	2200      	movs	r2, #0
 800084a:	605a      	str	r2, [r3, #4]
  if (HAL_TIMEx_MasterConfigSynchronization(&htim2, &sMasterConfig) != HAL_OK)
 800084c:	1d3a      	adds	r2, r7, #4
 800084e:	4b06      	ldr	r3, [pc, #24]	; (8000868 <MX_TIM2_Init+0xc0>)
 8000850:	0011      	movs	r1, r2
 8000852:	0018      	movs	r0, r3
 8000854:	f001 ff36 	bl	80026c4 <HAL_TIMEx_MasterConfigSynchronization>
 8000858:	1e03      	subs	r3, r0, #0
 800085a:	d001      	beq.n	8000860 <MX_TIM2_Init+0xb8>
  {
    Error_Handler();
 800085c:	f7ff fe4c 	bl	80004f8 <Error_Handler>
  }

}
 8000860:	46c0      	nop			; (mov r8, r8)
 8000862:	46bd      	mov	sp, r7
 8000864:	b00d      	add	sp, #52	; 0x34
 8000866:	bd90      	pop	{r4, r7, pc}
 8000868:	200000ac 	.word	0x200000ac

0800086c <MX_TIM14_Init>:
/* TIM14 init function */
void MX_TIM14_Init(void)
{
 800086c:	b580      	push	{r7, lr}
 800086e:	b088      	sub	sp, #32
 8000870:	af00      	add	r7, sp, #0
  TIM_OC_InitTypeDef sConfigOC = {0};
 8000872:	1d3b      	adds	r3, r7, #4
 8000874:	0018      	movs	r0, r3
 8000876:	231c      	movs	r3, #28
 8000878:	001a      	movs	r2, r3
 800087a:	2100      	movs	r1, #0
 800087c:	f002 f812 	bl	80028a4 <memset>

  htim14.Instance = TIM14;
 8000880:	4b1f      	ldr	r3, [pc, #124]	; (8000900 <MX_TIM14_Init+0x94>)
 8000882:	4a20      	ldr	r2, [pc, #128]	; (8000904 <MX_TIM14_Init+0x98>)
 8000884:	601a      	str	r2, [r3, #0]
  htim14.Init.Prescaler = 0;
 8000886:	4b1e      	ldr	r3, [pc, #120]	; (8000900 <MX_TIM14_Init+0x94>)
 8000888:	2200      	movs	r2, #0
 800088a:	605a      	str	r2, [r3, #4]
  htim14.Init.CounterMode = TIM_COUNTERMODE_UP;
 800088c:	4b1c      	ldr	r3, [pc, #112]	; (8000900 <MX_TIM14_Init+0x94>)
 800088e:	2200      	movs	r2, #0
 8000890:	609a      	str	r2, [r3, #8]
  htim14.Init.Period = 64;
 8000892:	4b1b      	ldr	r3, [pc, #108]	; (8000900 <MX_TIM14_Init+0x94>)
 8000894:	2240      	movs	r2, #64	; 0x40
 8000896:	60da      	str	r2, [r3, #12]
  htim14.Init.ClockDivision = TIM_CLOCKDIVISION_DIV1;
 8000898:	4b19      	ldr	r3, [pc, #100]	; (8000900 <MX_TIM14_Init+0x94>)
 800089a:	2200      	movs	r2, #0
 800089c:	611a      	str	r2, [r3, #16]
  htim14.Init.AutoReloadPreload = TIM_AUTORELOAD_PRELOAD_DISABLE;
 800089e:	4b18      	ldr	r3, [pc, #96]	; (8000900 <MX_TIM14_Init+0x94>)
 80008a0:	2200      	movs	r2, #0
 80008a2:	619a      	str	r2, [r3, #24]
  if (HAL_TIM_Base_Init(&htim14) != HAL_OK)
 80008a4:	4b16      	ldr	r3, [pc, #88]	; (8000900 <MX_TIM14_Init+0x94>)
 80008a6:	0018      	movs	r0, r3
 80008a8:	f001 f91c 	bl	8001ae4 <HAL_TIM_Base_Init>
 80008ac:	1e03      	subs	r3, r0, #0
 80008ae:	d001      	beq.n	80008b4 <MX_TIM14_Init+0x48>
  {
    Error_Handler();
 80008b0:	f7ff fe22 	bl	80004f8 <Error_Handler>
  }
  if (HAL_TIM_PWM_Init(&htim14) != HAL_OK)
 80008b4:	4b12      	ldr	r3, [pc, #72]	; (8000900 <MX_TIM14_Init+0x94>)
 80008b6:	0018      	movs	r0, r3
 80008b8:	f001 f962 	bl	8001b80 <HAL_TIM_PWM_Init>
 80008bc:	1e03      	subs	r3, r0, #0
 80008be:	d001      	beq.n	80008c4 <MX_TIM14_Init+0x58>
  {
    Error_Handler();
 80008c0:	f7ff fe1a 	bl	80004f8 <Error_Handler>
  }
  sConfigOC.OCMode = TIM_OCMODE_PWM1;
 80008c4:	1d3b      	adds	r3, r7, #4
 80008c6:	2260      	movs	r2, #96	; 0x60
 80008c8:	601a      	str	r2, [r3, #0]
  sConfigOC.Pulse = 0;
 80008ca:	1d3b      	adds	r3, r7, #4
 80008cc:	2200      	movs	r2, #0
 80008ce:	605a      	str	r2, [r3, #4]
  sConfigOC.OCPolarity = TIM_OCPOLARITY_HIGH;
 80008d0:	1d3b      	adds	r3, r7, #4
 80008d2:	2200      	movs	r2, #0
 80008d4:	609a      	str	r2, [r3, #8]
  sConfigOC.OCFastMode = TIM_OCFAST_DISABLE;
 80008d6:	1d3b      	adds	r3, r7, #4
 80008d8:	2200      	movs	r2, #0
 80008da:	611a      	str	r2, [r3, #16]
  if (HAL_TIM_PWM_ConfigChannel(&htim14, &sConfigOC, TIM_CHANNEL_1) != HAL_OK)
 80008dc:	1d39      	adds	r1, r7, #4
 80008de:	4b08      	ldr	r3, [pc, #32]	; (8000900 <MX_TIM14_Init+0x94>)
 80008e0:	2200      	movs	r2, #0
 80008e2:	0018      	movs	r0, r3
 80008e4:	f001 fb6e 	bl	8001fc4 <HAL_TIM_PWM_ConfigChannel>
 80008e8:	1e03      	subs	r3, r0, #0
 80008ea:	d001      	beq.n	80008f0 <MX_TIM14_Init+0x84>
  {
    Error_Handler();
 80008ec:	f7ff fe04 	bl	80004f8 <Error_Handler>
  }
  HAL_TIM_MspPostInit(&htim14);
 80008f0:	4b03      	ldr	r3, [pc, #12]	; (8000900 <MX_TIM14_Init+0x94>)
 80008f2:	0018      	movs	r0, r3
 80008f4:	f000 f900 	bl	8000af8 <HAL_TIM_MspPostInit>

}
 80008f8:	46c0      	nop			; (mov r8, r8)
 80008fa:	46bd      	mov	sp, r7
 80008fc:	b008      	add	sp, #32
 80008fe:	bd80      	pop	{r7, pc}
 8000900:	200000ec 	.word	0x200000ec
 8000904:	40002000 	.word	0x40002000

08000908 <MX_TIM17_Init>:
/* TIM17 init function */
void MX_TIM17_Init(void)
{
 8000908:	b580      	push	{r7, lr}
 800090a:	af00      	add	r7, sp, #0

  htim17.Instance = TIM17;
 800090c:	4b0f      	ldr	r3, [pc, #60]	; (800094c <MX_TIM17_Init+0x44>)
 800090e:	4a10      	ldr	r2, [pc, #64]	; (8000950 <MX_TIM17_Init+0x48>)
 8000910:	601a      	str	r2, [r3, #0]
  htim17.Init.Prescaler = 65535;
 8000912:	4b0e      	ldr	r3, [pc, #56]	; (800094c <MX_TIM17_Init+0x44>)
 8000914:	4a0f      	ldr	r2, [pc, #60]	; (8000954 <MX_TIM17_Init+0x4c>)
 8000916:	605a      	str	r2, [r3, #4]
  htim17.Init.CounterMode = TIM_COUNTERMODE_UP;
 8000918:	4b0c      	ldr	r3, [pc, #48]	; (800094c <MX_TIM17_Init+0x44>)
 800091a:	2200      	movs	r2, #0
 800091c:	609a      	str	r2, [r3, #8]
  htim17.Init.Period = 65535;
 800091e:	4b0b      	ldr	r3, [pc, #44]	; (800094c <MX_TIM17_Init+0x44>)
 8000920:	4a0c      	ldr	r2, [pc, #48]	; (8000954 <MX_TIM17_Init+0x4c>)
 8000922:	60da      	str	r2, [r3, #12]
  htim17.Init.ClockDivision = TIM_CLOCKDIVISION_DIV1;
 8000924:	4b09      	ldr	r3, [pc, #36]	; (800094c <MX_TIM17_Init+0x44>)
 8000926:	2200      	movs	r2, #0
 8000928:	611a      	str	r2, [r3, #16]
  htim17.Init.RepetitionCounter = 0;
 800092a:	4b08      	ldr	r3, [pc, #32]	; (800094c <MX_TIM17_Init+0x44>)
 800092c:	2200      	movs	r2, #0
 800092e:	615a      	str	r2, [r3, #20]
  htim17.Init.AutoReloadPreload = TIM_AUTORELOAD_PRELOAD_DISABLE;
 8000930:	4b06      	ldr	r3, [pc, #24]	; (800094c <MX_TIM17_Init+0x44>)
 8000932:	2200      	movs	r2, #0
 8000934:	619a      	str	r2, [r3, #24]
  if (HAL_TIM_Base_Init(&htim17) != HAL_OK)
 8000936:	4b05      	ldr	r3, [pc, #20]	; (800094c <MX_TIM17_Init+0x44>)
 8000938:	0018      	movs	r0, r3
 800093a:	f001 f8d3 	bl	8001ae4 <HAL_TIM_Base_Init>
 800093e:	1e03      	subs	r3, r0, #0
 8000940:	d001      	beq.n	8000946 <MX_TIM17_Init+0x3e>
  {
    Error_Handler();
 8000942:	f7ff fdd9 	bl	80004f8 <Error_Handler>
  }

}
 8000946:	46c0      	nop			; (mov r8, r8)
 8000948:	46bd      	mov	sp, r7
 800094a:	bd80      	pop	{r7, pc}
 800094c:	2000002c 	.word	0x2000002c
 8000950:	40014800 	.word	0x40014800
 8000954:	0000ffff 	.word	0x0000ffff

08000958 <HAL_TIM_PWM_MspInit>:

void HAL_TIM_PWM_MspInit(TIM_HandleTypeDef* tim_pwmHandle)
{
 8000958:	b580      	push	{r7, lr}
 800095a:	b084      	sub	sp, #16
 800095c:	af00      	add	r7, sp, #0
 800095e:	6078      	str	r0, [r7, #4]

  if(tim_pwmHandle->Instance==TIM1)
 8000960:	687b      	ldr	r3, [r7, #4]
 8000962:	681b      	ldr	r3, [r3, #0]
 8000964:	4a0a      	ldr	r2, [pc, #40]	; (8000990 <HAL_TIM_PWM_MspInit+0x38>)
 8000966:	4293      	cmp	r3, r2
 8000968:	d10d      	bne.n	8000986 <HAL_TIM_PWM_MspInit+0x2e>
  {
  /* USER CODE BEGIN TIM1_MspInit 0 */

  /* USER CODE END TIM1_MspInit 0 */
    /* TIM1 clock enable */
    __HAL_RCC_TIM1_CLK_ENABLE();
 800096a:	4b0a      	ldr	r3, [pc, #40]	; (8000994 <HAL_TIM_PWM_MspInit+0x3c>)
 800096c:	699a      	ldr	r2, [r3, #24]
 800096e:	4b09      	ldr	r3, [pc, #36]	; (8000994 <HAL_TIM_PWM_MspInit+0x3c>)
 8000970:	2180      	movs	r1, #128	; 0x80
 8000972:	0109      	lsls	r1, r1, #4
 8000974:	430a      	orrs	r2, r1
 8000976:	619a      	str	r2, [r3, #24]
 8000978:	4b06      	ldr	r3, [pc, #24]	; (8000994 <HAL_TIM_PWM_MspInit+0x3c>)
 800097a:	699a      	ldr	r2, [r3, #24]
 800097c:	2380      	movs	r3, #128	; 0x80
 800097e:	011b      	lsls	r3, r3, #4
 8000980:	4013      	ands	r3, r2
 8000982:	60fb      	str	r3, [r7, #12]
 8000984:	68fb      	ldr	r3, [r7, #12]
  /* USER CODE BEGIN TIM1_MspInit 1 */

  /* USER CODE END TIM1_MspInit 1 */
  }
}
 8000986:	46c0      	nop			; (mov r8, r8)
 8000988:	46bd      	mov	sp, r7
 800098a:	b004      	add	sp, #16
 800098c:	bd80      	pop	{r7, pc}
 800098e:	46c0      	nop			; (mov r8, r8)
 8000990:	40012c00 	.word	0x40012c00
 8000994:	40021000 	.word	0x40021000

08000998 <HAL_TIM_Encoder_MspInit>:

void HAL_TIM_Encoder_MspInit(TIM_HandleTypeDef* tim_encoderHandle)
{
 8000998:	b590      	push	{r4, r7, lr}
 800099a:	b08b      	sub	sp, #44	; 0x2c
 800099c:	af00      	add	r7, sp, #0
 800099e:	6078      	str	r0, [r7, #4]

  GPIO_InitTypeDef GPIO_InitStruct = {0};
 80009a0:	2314      	movs	r3, #20
 80009a2:	18fb      	adds	r3, r7, r3
 80009a4:	0018      	movs	r0, r3
 80009a6:	2314      	movs	r3, #20
 80009a8:	001a      	movs	r2, r3
 80009aa:	2100      	movs	r1, #0
 80009ac:	f001 ff7a 	bl	80028a4 <memset>
  if(tim_encoderHandle->Instance==TIM2)
 80009b0:	687b      	ldr	r3, [r7, #4]
 80009b2:	681a      	ldr	r2, [r3, #0]
 80009b4:	2380      	movs	r3, #128	; 0x80
 80009b6:	05db      	lsls	r3, r3, #23
 80009b8:	429a      	cmp	r2, r3
 80009ba:	d15e      	bne.n	8000a7a <HAL_TIM_Encoder_MspInit+0xe2>
  {
  /* USER CODE BEGIN TIM2_MspInit 0 */

  /* USER CODE END TIM2_MspInit 0 */
    /* TIM2 clock enable */
    __HAL_RCC_TIM2_CLK_ENABLE();
 80009bc:	4b31      	ldr	r3, [pc, #196]	; (8000a84 <HAL_TIM_Encoder_MspInit+0xec>)
 80009be:	69da      	ldr	r2, [r3, #28]
 80009c0:	4b30      	ldr	r3, [pc, #192]	; (8000a84 <HAL_TIM_Encoder_MspInit+0xec>)
 80009c2:	2101      	movs	r1, #1
 80009c4:	430a      	orrs	r2, r1
 80009c6:	61da      	str	r2, [r3, #28]
 80009c8:	4b2e      	ldr	r3, [pc, #184]	; (8000a84 <HAL_TIM_Encoder_MspInit+0xec>)
 80009ca:	69db      	ldr	r3, [r3, #28]
 80009cc:	2201      	movs	r2, #1
 80009ce:	4013      	ands	r3, r2
 80009d0:	613b      	str	r3, [r7, #16]
 80009d2:	693b      	ldr	r3, [r7, #16]
  
    __HAL_RCC_GPIOA_CLK_ENABLE();
 80009d4:	4b2b      	ldr	r3, [pc, #172]	; (8000a84 <HAL_TIM_Encoder_MspInit+0xec>)
 80009d6:	695a      	ldr	r2, [r3, #20]
 80009d8:	4b2a      	ldr	r3, [pc, #168]	; (8000a84 <HAL_TIM_Encoder_MspInit+0xec>)
 80009da:	2180      	movs	r1, #128	; 0x80
 80009dc:	0289      	lsls	r1, r1, #10
 80009de:	430a      	orrs	r2, r1
 80009e0:	615a      	str	r2, [r3, #20]
 80009e2:	4b28      	ldr	r3, [pc, #160]	; (8000a84 <HAL_TIM_Encoder_MspInit+0xec>)
 80009e4:	695a      	ldr	r2, [r3, #20]
 80009e6:	2380      	movs	r3, #128	; 0x80
 80009e8:	029b      	lsls	r3, r3, #10
 80009ea:	4013      	ands	r3, r2
 80009ec:	60fb      	str	r3, [r7, #12]
 80009ee:	68fb      	ldr	r3, [r7, #12]
    __HAL_RCC_GPIOB_CLK_ENABLE();
 80009f0:	4b24      	ldr	r3, [pc, #144]	; (8000a84 <HAL_TIM_Encoder_MspInit+0xec>)
 80009f2:	695a      	ldr	r2, [r3, #20]
 80009f4:	4b23      	ldr	r3, [pc, #140]	; (8000a84 <HAL_TIM_Encoder_MspInit+0xec>)
 80009f6:	2180      	movs	r1, #128	; 0x80
 80009f8:	02c9      	lsls	r1, r1, #11
 80009fa:	430a      	orrs	r2, r1
 80009fc:	615a      	str	r2, [r3, #20]
 80009fe:	4b21      	ldr	r3, [pc, #132]	; (8000a84 <HAL_TIM_Encoder_MspInit+0xec>)
 8000a00:	695a      	ldr	r2, [r3, #20]
 8000a02:	2380      	movs	r3, #128	; 0x80
 8000a04:	02db      	lsls	r3, r3, #11
 8000a06:	4013      	ands	r3, r2
 8000a08:	60bb      	str	r3, [r7, #8]
 8000a0a:	68bb      	ldr	r3, [r7, #8]
    /**TIM2 GPIO Configuration    
    PA15     ------> TIM2_CH1
    PB3     ------> TIM2_CH2 
    */
    GPIO_InitStruct.Pin = GPIO_PIN_15;
 8000a0c:	2114      	movs	r1, #20
 8000a0e:	187b      	adds	r3, r7, r1
 8000a10:	2280      	movs	r2, #128	; 0x80
 8000a12:	0212      	lsls	r2, r2, #8
 8000a14:	601a      	str	r2, [r3, #0]
    GPIO_InitStruct.Mode = GPIO_MODE_AF_PP;
 8000a16:	000c      	movs	r4, r1
 8000a18:	193b      	adds	r3, r7, r4
 8000a1a:	2202      	movs	r2, #2
 8000a1c:	605a      	str	r2, [r3, #4]
    GPIO_InitStruct.Pull = GPIO_NOPULL;
 8000a1e:	193b      	adds	r3, r7, r4
 8000a20:	2200      	movs	r2, #0
 8000a22:	609a      	str	r2, [r3, #8]
    GPIO_InitStruct.Speed = GPIO_SPEED_FREQ_LOW;
 8000a24:	193b      	adds	r3, r7, r4
 8000a26:	2200      	movs	r2, #0
 8000a28:	60da      	str	r2, [r3, #12]
    GPIO_InitStruct.Alternate = GPIO_AF2_TIM2;
 8000a2a:	193b      	adds	r3, r7, r4
 8000a2c:	2202      	movs	r2, #2
 8000a2e:	611a      	str	r2, [r3, #16]
    HAL_GPIO_Init(GPIOA, &GPIO_InitStruct);
 8000a30:	193a      	adds	r2, r7, r4
 8000a32:	2390      	movs	r3, #144	; 0x90
 8000a34:	05db      	lsls	r3, r3, #23
 8000a36:	0011      	movs	r1, r2
 8000a38:	0018      	movs	r0, r3
 8000a3a:	f000 fa37 	bl	8000eac <HAL_GPIO_Init>

    GPIO_InitStruct.Pin = GPIO_PIN_3;
 8000a3e:	0021      	movs	r1, r4
 8000a40:	187b      	adds	r3, r7, r1
 8000a42:	2208      	movs	r2, #8
 8000a44:	601a      	str	r2, [r3, #0]
    GPIO_InitStruct.Mode = GPIO_MODE_AF_PP;
 8000a46:	187b      	adds	r3, r7, r1
 8000a48:	2202      	movs	r2, #2
 8000a4a:	605a      	str	r2, [r3, #4]
    GPIO_InitStruct.Pull = GPIO_NOPULL;
 8000a4c:	187b      	adds	r3, r7, r1
 8000a4e:	2200      	movs	r2, #0
 8000a50:	609a      	str	r2, [r3, #8]
    GPIO_InitStruct.Speed = GPIO_SPEED_FREQ_LOW;
 8000a52:	187b      	adds	r3, r7, r1
 8000a54:	2200      	movs	r2, #0
 8000a56:	60da      	str	r2, [r3, #12]
    GPIO_InitStruct.Alternate = GPIO_AF2_TIM2;
 8000a58:	187b      	adds	r3, r7, r1
 8000a5a:	2202      	movs	r2, #2
 8000a5c:	611a      	str	r2, [r3, #16]
    HAL_GPIO_Init(GPIOB, &GPIO_InitStruct);
 8000a5e:	187b      	adds	r3, r7, r1
 8000a60:	4a09      	ldr	r2, [pc, #36]	; (8000a88 <HAL_TIM_Encoder_MspInit+0xf0>)
 8000a62:	0019      	movs	r1, r3
 8000a64:	0010      	movs	r0, r2
 8000a66:	f000 fa21 	bl	8000eac <HAL_GPIO_Init>

    /* TIM2 interrupt Init */
    HAL_NVIC_SetPriority(TIM2_IRQn, 0, 0);
 8000a6a:	2200      	movs	r2, #0
 8000a6c:	2100      	movs	r1, #0
 8000a6e:	200f      	movs	r0, #15
 8000a70:	f000 f9ea 	bl	8000e48 <HAL_NVIC_SetPriority>
    HAL_NVIC_EnableIRQ(TIM2_IRQn);
 8000a74:	200f      	movs	r0, #15
 8000a76:	f000 f9fc 	bl	8000e72 <HAL_NVIC_EnableIRQ>
  /* USER CODE BEGIN TIM2_MspInit 1 */

  /* USER CODE END TIM2_MspInit 1 */
  }
}
 8000a7a:	46c0      	nop			; (mov r8, r8)
 8000a7c:	46bd      	mov	sp, r7
 8000a7e:	b00b      	add	sp, #44	; 0x2c
 8000a80:	bd90      	pop	{r4, r7, pc}
 8000a82:	46c0      	nop			; (mov r8, r8)
 8000a84:	40021000 	.word	0x40021000
 8000a88:	48000400 	.word	0x48000400

08000a8c <HAL_TIM_Base_MspInit>:

void HAL_TIM_Base_MspInit(TIM_HandleTypeDef* tim_baseHandle)
{
 8000a8c:	b580      	push	{r7, lr}
 8000a8e:	b084      	sub	sp, #16
 8000a90:	af00      	add	r7, sp, #0
 8000a92:	6078      	str	r0, [r7, #4]

  if(tim_baseHandle->Instance==TIM14)
 8000a94:	687b      	ldr	r3, [r7, #4]
 8000a96:	681b      	ldr	r3, [r3, #0]
 8000a98:	4a14      	ldr	r2, [pc, #80]	; (8000aec <HAL_TIM_Base_MspInit+0x60>)
 8000a9a:	4293      	cmp	r3, r2
 8000a9c:	d10e      	bne.n	8000abc <HAL_TIM_Base_MspInit+0x30>
  {
  /* USER CODE BEGIN TIM14_MspInit 0 */

  /* USER CODE END TIM14_MspInit 0 */
    /* TIM14 clock enable */
    __HAL_RCC_TIM14_CLK_ENABLE();
 8000a9e:	4b14      	ldr	r3, [pc, #80]	; (8000af0 <HAL_TIM_Base_MspInit+0x64>)
 8000aa0:	69da      	ldr	r2, [r3, #28]
 8000aa2:	4b13      	ldr	r3, [pc, #76]	; (8000af0 <HAL_TIM_Base_MspInit+0x64>)
 8000aa4:	2180      	movs	r1, #128	; 0x80
 8000aa6:	0049      	lsls	r1, r1, #1
 8000aa8:	430a      	orrs	r2, r1
 8000aaa:	61da      	str	r2, [r3, #28]
 8000aac:	4b10      	ldr	r3, [pc, #64]	; (8000af0 <HAL_TIM_Base_MspInit+0x64>)
 8000aae:	69da      	ldr	r2, [r3, #28]
 8000ab0:	2380      	movs	r3, #128	; 0x80
 8000ab2:	005b      	lsls	r3, r3, #1
 8000ab4:	4013      	ands	r3, r2
 8000ab6:	60fb      	str	r3, [r7, #12]
 8000ab8:	68fb      	ldr	r3, [r7, #12]
    __HAL_RCC_TIM17_CLK_ENABLE();
  /* USER CODE BEGIN TIM17_MspInit 1 */

  /* USER CODE END TIM17_MspInit 1 */
  }
}
 8000aba:	e012      	b.n	8000ae2 <HAL_TIM_Base_MspInit+0x56>
  else if(tim_baseHandle->Instance==TIM17)
 8000abc:	687b      	ldr	r3, [r7, #4]
 8000abe:	681b      	ldr	r3, [r3, #0]
 8000ac0:	4a0c      	ldr	r2, [pc, #48]	; (8000af4 <HAL_TIM_Base_MspInit+0x68>)
 8000ac2:	4293      	cmp	r3, r2
 8000ac4:	d10d      	bne.n	8000ae2 <HAL_TIM_Base_MspInit+0x56>
    __HAL_RCC_TIM17_CLK_ENABLE();
 8000ac6:	4b0a      	ldr	r3, [pc, #40]	; (8000af0 <HAL_TIM_Base_MspInit+0x64>)
 8000ac8:	699a      	ldr	r2, [r3, #24]
 8000aca:	4b09      	ldr	r3, [pc, #36]	; (8000af0 <HAL_TIM_Base_MspInit+0x64>)
 8000acc:	2180      	movs	r1, #128	; 0x80
 8000ace:	02c9      	lsls	r1, r1, #11
 8000ad0:	430a      	orrs	r2, r1
 8000ad2:	619a      	str	r2, [r3, #24]
 8000ad4:	4b06      	ldr	r3, [pc, #24]	; (8000af0 <HAL_TIM_Base_MspInit+0x64>)
 8000ad6:	699a      	ldr	r2, [r3, #24]
 8000ad8:	2380      	movs	r3, #128	; 0x80
 8000ada:	02db      	lsls	r3, r3, #11
 8000adc:	4013      	ands	r3, r2
 8000ade:	60bb      	str	r3, [r7, #8]
 8000ae0:	68bb      	ldr	r3, [r7, #8]
}
 8000ae2:	46c0      	nop			; (mov r8, r8)
 8000ae4:	46bd      	mov	sp, r7
 8000ae6:	b004      	add	sp, #16
 8000ae8:	bd80      	pop	{r7, pc}
 8000aea:	46c0      	nop			; (mov r8, r8)
 8000aec:	40002000 	.word	0x40002000
 8000af0:	40021000 	.word	0x40021000
 8000af4:	40014800 	.word	0x40014800

08000af8 <HAL_TIM_MspPostInit>:
void HAL_TIM_MspPostInit(TIM_HandleTypeDef* timHandle)
{
 8000af8:	b580      	push	{r7, lr}
 8000afa:	b08a      	sub	sp, #40	; 0x28
 8000afc:	af00      	add	r7, sp, #0
 8000afe:	6078      	str	r0, [r7, #4]

  GPIO_InitTypeDef GPIO_InitStruct = {0};
 8000b00:	2314      	movs	r3, #20
 8000b02:	18fb      	adds	r3, r7, r3
 8000b04:	0018      	movs	r0, r3
 8000b06:	2314      	movs	r3, #20
 8000b08:	001a      	movs	r2, r3
 8000b0a:	2100      	movs	r1, #0
 8000b0c:	f001 feca 	bl	80028a4 <memset>
  if(timHandle->Instance==TIM1)
 8000b10:	687b      	ldr	r3, [r7, #4]
 8000b12:	681b      	ldr	r3, [r3, #0]
 8000b14:	4a2b      	ldr	r2, [pc, #172]	; (8000bc4 <HAL_TIM_MspPostInit+0xcc>)
 8000b16:	4293      	cmp	r3, r2
 8000b18:	d126      	bne.n	8000b68 <HAL_TIM_MspPostInit+0x70>
  {
  /* USER CODE BEGIN TIM1_MspPostInit 0 */

  /* USER CODE END TIM1_MspPostInit 0 */
    __HAL_RCC_GPIOA_CLK_ENABLE();
 8000b1a:	4b2b      	ldr	r3, [pc, #172]	; (8000bc8 <HAL_TIM_MspPostInit+0xd0>)
 8000b1c:	695a      	ldr	r2, [r3, #20]
 8000b1e:	4b2a      	ldr	r3, [pc, #168]	; (8000bc8 <HAL_TIM_MspPostInit+0xd0>)
 8000b20:	2180      	movs	r1, #128	; 0x80
 8000b22:	0289      	lsls	r1, r1, #10
 8000b24:	430a      	orrs	r2, r1
 8000b26:	615a      	str	r2, [r3, #20]
 8000b28:	4b27      	ldr	r3, [pc, #156]	; (8000bc8 <HAL_TIM_MspPostInit+0xd0>)
 8000b2a:	695a      	ldr	r2, [r3, #20]
 8000b2c:	2380      	movs	r3, #128	; 0x80
 8000b2e:	029b      	lsls	r3, r3, #10
 8000b30:	4013      	ands	r3, r2
 8000b32:	613b      	str	r3, [r7, #16]
 8000b34:	693b      	ldr	r3, [r7, #16]
    PA8     ------> TIM1_CH1
    PA9     ------> TIM1_CH2
    PA10     ------> TIM1_CH3
    PA11     ------> TIM1_CH4 
    */
    GPIO_InitStruct.Pin = GPIO_PIN_8|GPIO_PIN_9|GPIO_PIN_10|GPIO_PIN_11;
 8000b36:	2114      	movs	r1, #20
 8000b38:	187b      	adds	r3, r7, r1
 8000b3a:	22f0      	movs	r2, #240	; 0xf0
 8000b3c:	0112      	lsls	r2, r2, #4
 8000b3e:	601a      	str	r2, [r3, #0]
    GPIO_InitStruct.Mode = GPIO_MODE_AF_PP;
 8000b40:	187b      	adds	r3, r7, r1
 8000b42:	2202      	movs	r2, #2
 8000b44:	605a      	str	r2, [r3, #4]
    GPIO_InitStruct.Pull = GPIO_NOPULL;
 8000b46:	187b      	adds	r3, r7, r1
 8000b48:	2200      	movs	r2, #0
 8000b4a:	609a      	str	r2, [r3, #8]
    GPIO_InitStruct.Speed = GPIO_SPEED_FREQ_LOW;
 8000b4c:	187b      	adds	r3, r7, r1
 8000b4e:	2200      	movs	r2, #0
 8000b50:	60da      	str	r2, [r3, #12]
    GPIO_InitStruct.Alternate = GPIO_AF2_TIM1;
 8000b52:	187b      	adds	r3, r7, r1
 8000b54:	2202      	movs	r2, #2
 8000b56:	611a      	str	r2, [r3, #16]
    HAL_GPIO_Init(GPIOA, &GPIO_InitStruct);
 8000b58:	187a      	adds	r2, r7, r1
 8000b5a:	2390      	movs	r3, #144	; 0x90
 8000b5c:	05db      	lsls	r3, r3, #23
 8000b5e:	0011      	movs	r1, r2
 8000b60:	0018      	movs	r0, r3
 8000b62:	f000 f9a3 	bl	8000eac <HAL_GPIO_Init>
  /* USER CODE BEGIN TIM14_MspPostInit 1 */

  /* USER CODE END TIM14_MspPostInit 1 */
  }

}
 8000b66:	e028      	b.n	8000bba <HAL_TIM_MspPostInit+0xc2>
  else if(timHandle->Instance==TIM14)
 8000b68:	687b      	ldr	r3, [r7, #4]
 8000b6a:	681b      	ldr	r3, [r3, #0]
 8000b6c:	4a17      	ldr	r2, [pc, #92]	; (8000bcc <HAL_TIM_MspPostInit+0xd4>)
 8000b6e:	4293      	cmp	r3, r2
 8000b70:	d123      	bne.n	8000bba <HAL_TIM_MspPostInit+0xc2>
    __HAL_RCC_GPIOB_CLK_ENABLE();
 8000b72:	4b15      	ldr	r3, [pc, #84]	; (8000bc8 <HAL_TIM_MspPostInit+0xd0>)
 8000b74:	695a      	ldr	r2, [r3, #20]
 8000b76:	4b14      	ldr	r3, [pc, #80]	; (8000bc8 <HAL_TIM_MspPostInit+0xd0>)
 8000b78:	2180      	movs	r1, #128	; 0x80
 8000b7a:	02c9      	lsls	r1, r1, #11
 8000b7c:	430a      	orrs	r2, r1
 8000b7e:	615a      	str	r2, [r3, #20]
 8000b80:	4b11      	ldr	r3, [pc, #68]	; (8000bc8 <HAL_TIM_MspPostInit+0xd0>)
 8000b82:	695a      	ldr	r2, [r3, #20]
 8000b84:	2380      	movs	r3, #128	; 0x80
 8000b86:	02db      	lsls	r3, r3, #11
 8000b88:	4013      	ands	r3, r2
 8000b8a:	60fb      	str	r3, [r7, #12]
 8000b8c:	68fb      	ldr	r3, [r7, #12]
    GPIO_InitStruct.Pin = GPIO_PIN_1;
 8000b8e:	2114      	movs	r1, #20
 8000b90:	187b      	adds	r3, r7, r1
 8000b92:	2202      	movs	r2, #2
 8000b94:	601a      	str	r2, [r3, #0]
    GPIO_InitStruct.Mode = GPIO_MODE_AF_PP;
 8000b96:	187b      	adds	r3, r7, r1
 8000b98:	2202      	movs	r2, #2
 8000b9a:	605a      	str	r2, [r3, #4]
    GPIO_InitStruct.Pull = GPIO_NOPULL;
 8000b9c:	187b      	adds	r3, r7, r1
 8000b9e:	2200      	movs	r2, #0
 8000ba0:	609a      	str	r2, [r3, #8]
    GPIO_InitStruct.Speed = GPIO_SPEED_FREQ_LOW;
 8000ba2:	187b      	adds	r3, r7, r1
 8000ba4:	2200      	movs	r2, #0
 8000ba6:	60da      	str	r2, [r3, #12]
    GPIO_InitStruct.Alternate = GPIO_AF0_TIM14;
 8000ba8:	187b      	adds	r3, r7, r1
 8000baa:	2200      	movs	r2, #0
 8000bac:	611a      	str	r2, [r3, #16]
    HAL_GPIO_Init(GPIOB, &GPIO_InitStruct);
 8000bae:	187b      	adds	r3, r7, r1
 8000bb0:	4a07      	ldr	r2, [pc, #28]	; (8000bd0 <HAL_TIM_MspPostInit+0xd8>)
 8000bb2:	0019      	movs	r1, r3
 8000bb4:	0010      	movs	r0, r2
 8000bb6:	f000 f979 	bl	8000eac <HAL_GPIO_Init>
}
 8000bba:	46c0      	nop			; (mov r8, r8)
 8000bbc:	46bd      	mov	sp, r7
 8000bbe:	b00a      	add	sp, #40	; 0x28
 8000bc0:	bd80      	pop	{r7, pc}
 8000bc2:	46c0      	nop			; (mov r8, r8)
 8000bc4:	40012c00 	.word	0x40012c00
 8000bc8:	40021000 	.word	0x40021000
 8000bcc:	40002000 	.word	0x40002000
 8000bd0:	48000400 	.word	0x48000400

08000bd4 <Reset_Handler>:

  .section .text.Reset_Handler
  .weak Reset_Handler
  .type Reset_Handler, %function
Reset_Handler:
  ldr   r0, =_estack
 8000bd4:	480d      	ldr	r0, [pc, #52]	; (8000c0c <LoopForever+0x2>)
  mov   sp, r0          /* set stack pointer */
 8000bd6:	4685      	mov	sp, r0

/* Copy the data segment initializers from flash to SRAM */
  ldr r0, =_sdata
 8000bd8:	480d      	ldr	r0, [pc, #52]	; (8000c10 <LoopForever+0x6>)
  ldr r1, =_edata
 8000bda:	490e      	ldr	r1, [pc, #56]	; (8000c14 <LoopForever+0xa>)
  ldr r2, =_sidata
 8000bdc:	4a0e      	ldr	r2, [pc, #56]	; (8000c18 <LoopForever+0xe>)
  movs r3, #0
 8000bde:	2300      	movs	r3, #0
  b LoopCopyDataInit
 8000be0:	e002      	b.n	8000be8 <LoopCopyDataInit>

08000be2 <CopyDataInit>:

CopyDataInit:
  ldr r4, [r2, r3]
 8000be2:	58d4      	ldr	r4, [r2, r3]
  str r4, [r0, r3]
 8000be4:	50c4      	str	r4, [r0, r3]
  adds r3, r3, #4
 8000be6:	3304      	adds	r3, #4

08000be8 <LoopCopyDataInit>:

LoopCopyDataInit:
  adds r4, r0, r3
 8000be8:	18c4      	adds	r4, r0, r3
  cmp r4, r1
 8000bea:	428c      	cmp	r4, r1
  bcc CopyDataInit
 8000bec:	d3f9      	bcc.n	8000be2 <CopyDataInit>
  
/* Zero fill the bss segment. */
  ldr r2, =_sbss
 8000bee:	4a0b      	ldr	r2, [pc, #44]	; (8000c1c <LoopForever+0x12>)
  ldr r4, =_ebss
 8000bf0:	4c0b      	ldr	r4, [pc, #44]	; (8000c20 <LoopForever+0x16>)
  movs r3, #0
 8000bf2:	2300      	movs	r3, #0
  b LoopFillZerobss
 8000bf4:	e001      	b.n	8000bfa <LoopFillZerobss>

08000bf6 <FillZerobss>:

FillZerobss:
  str  r3, [r2]
 8000bf6:	6013      	str	r3, [r2, #0]
  adds r2, r2, #4
 8000bf8:	3204      	adds	r2, #4

08000bfa <LoopFillZerobss>:

LoopFillZerobss:
  cmp r2, r4
 8000bfa:	42a2      	cmp	r2, r4
  bcc FillZerobss
 8000bfc:	d3fb      	bcc.n	8000bf6 <FillZerobss>

/* Call the clock system intitialization function.*/
  bl  SystemInit
 8000bfe:	f7ff fd17 	bl	8000630 <SystemInit>
/* Call static constructors */
  bl __libc_init_array
 8000c02:	f001 fe2b 	bl	800285c <__libc_init_array>
/* Call the application's entry point.*/
  bl main
 8000c06:	f7ff fb6d 	bl	80002e4 <main>

08000c0a <LoopForever>:

LoopForever:
    b LoopForever
 8000c0a:	e7fe      	b.n	8000c0a <LoopForever>
  ldr   r0, =_estack
 8000c0c:	20002000 	.word	0x20002000
  ldr r0, =_sdata
 8000c10:	20000000 	.word	0x20000000
  ldr r1, =_edata
 8000c14:	2000000c 	.word	0x2000000c
  ldr r2, =_sidata
 8000c18:	08002904 	.word	0x08002904
  ldr r2, =_sbss
 8000c1c:	2000000c 	.word	0x2000000c
  ldr r4, =_ebss
 8000c20:	20000130 	.word	0x20000130

08000c24 <ADC1_COMP_IRQHandler>:
 * @retval : None
*/
    .section .text.Default_Handler,"ax",%progbits
Default_Handler:
Infinite_Loop:
  b Infinite_Loop
 8000c24:	e7fe      	b.n	8000c24 <ADC1_COMP_IRQHandler>
	...

08000c28 <HAL_Init>:
  *       In the default implementation,Systick is used as source of time base.
  *       The tick variable is incremented each 1ms in its ISR.
  * @retval HAL status
  */
HAL_StatusTypeDef HAL_Init(void)
{
 8000c28:	b580      	push	{r7, lr}
 8000c2a:	af00      	add	r7, sp, #0
  /* Configure Flash prefetch */ 
#if (PREFETCH_ENABLE != 0)
  __HAL_FLASH_PREFETCH_BUFFER_ENABLE();
 8000c2c:	4b07      	ldr	r3, [pc, #28]	; (8000c4c <HAL_Init+0x24>)
 8000c2e:	681a      	ldr	r2, [r3, #0]
 8000c30:	4b06      	ldr	r3, [pc, #24]	; (8000c4c <HAL_Init+0x24>)
 8000c32:	2110      	movs	r1, #16
 8000c34:	430a      	orrs	r2, r1
 8000c36:	601a      	str	r2, [r3, #0]
#endif /* PREFETCH_ENABLE */

  /* Use systick as time base source and configure 1ms tick (default clock after Reset is HSI) */

  HAL_InitTick(TICK_INT_PRIORITY);
 8000c38:	2000      	movs	r0, #0
 8000c3a:	f000 f809 	bl	8000c50 <HAL_InitTick>

  /* Init the low level hardware */
  HAL_MspInit();
 8000c3e:	f7ff fc61 	bl	8000504 <HAL_MspInit>

  /* Return function status */
  return HAL_OK;
 8000c42:	2300      	movs	r3, #0
}
 8000c44:	0018      	movs	r0, r3
 8000c46:	46bd      	mov	sp, r7
 8000c48:	bd80      	pop	{r7, pc}
 8000c4a:	46c0      	nop			; (mov r8, r8)
 8000c4c:	40022000 	.word	0x40022000

08000c50 <HAL_InitTick>:
  *       implementation  in user file.
  * @param TickPriority Tick interrupt priority.
  * @retval HAL status
  */
__weak HAL_StatusTypeDef HAL_InitTick(uint32_t TickPriority)
{
 8000c50:	b590      	push	{r4, r7, lr}
 8000c52:	b083      	sub	sp, #12
 8000c54:	af00      	add	r7, sp, #0
 8000c56:	6078      	str	r0, [r7, #4]
  /*Configure the SysTick to have interrupt in 1ms time basis*/
  if (HAL_SYSTICK_Config(SystemCoreClock / (1000U / uwTickFreq)) > 0U)
 8000c58:	4b14      	ldr	r3, [pc, #80]	; (8000cac <HAL_InitTick+0x5c>)
 8000c5a:	681c      	ldr	r4, [r3, #0]
 8000c5c:	4b14      	ldr	r3, [pc, #80]	; (8000cb0 <HAL_InitTick+0x60>)
 8000c5e:	781b      	ldrb	r3, [r3, #0]
 8000c60:	0019      	movs	r1, r3
 8000c62:	23fa      	movs	r3, #250	; 0xfa
 8000c64:	0098      	lsls	r0, r3, #2
 8000c66:	f7ff fa4f 	bl	8000108 <__udivsi3>
 8000c6a:	0003      	movs	r3, r0
 8000c6c:	0019      	movs	r1, r3
 8000c6e:	0020      	movs	r0, r4
 8000c70:	f7ff fa4a 	bl	8000108 <__udivsi3>
 8000c74:	0003      	movs	r3, r0
 8000c76:	0018      	movs	r0, r3
 8000c78:	f000 f90b 	bl	8000e92 <HAL_SYSTICK_Config>
 8000c7c:	1e03      	subs	r3, r0, #0
 8000c7e:	d001      	beq.n	8000c84 <HAL_InitTick+0x34>
  {
    return HAL_ERROR;
 8000c80:	2301      	movs	r3, #1
 8000c82:	e00f      	b.n	8000ca4 <HAL_InitTick+0x54>
  }

  /* Configure the SysTick IRQ priority */
  if (TickPriority < (1UL << __NVIC_PRIO_BITS))
 8000c84:	687b      	ldr	r3, [r7, #4]
 8000c86:	2b03      	cmp	r3, #3
 8000c88:	d80b      	bhi.n	8000ca2 <HAL_InitTick+0x52>
  {
    HAL_NVIC_SetPriority(SysTick_IRQn, TickPriority, 0U);
 8000c8a:	6879      	ldr	r1, [r7, #4]
 8000c8c:	2301      	movs	r3, #1
 8000c8e:	425b      	negs	r3, r3
 8000c90:	2200      	movs	r2, #0
 8000c92:	0018      	movs	r0, r3
 8000c94:	f000 f8d8 	bl	8000e48 <HAL_NVIC_SetPriority>
    uwTickPrio = TickPriority;
 8000c98:	4b06      	ldr	r3, [pc, #24]	; (8000cb4 <HAL_InitTick+0x64>)
 8000c9a:	687a      	ldr	r2, [r7, #4]
 8000c9c:	601a      	str	r2, [r3, #0]
  {
    return HAL_ERROR;
  }

   /* Return function status */
  return HAL_OK;
 8000c9e:	2300      	movs	r3, #0
 8000ca0:	e000      	b.n	8000ca4 <HAL_InitTick+0x54>
    return HAL_ERROR;
 8000ca2:	2301      	movs	r3, #1
}
 8000ca4:	0018      	movs	r0, r3
 8000ca6:	46bd      	mov	sp, r7
 8000ca8:	b003      	add	sp, #12
 8000caa:	bd90      	pop	{r4, r7, pc}
 8000cac:	20000000 	.word	0x20000000
 8000cb0:	20000008 	.word	0x20000008
 8000cb4:	20000004 	.word	0x20000004

08000cb8 <HAL_IncTick>:
  * @note This function is declared as __weak to be overwritten in case of other 
  *       implementations in user file.
  * @retval None
  */
__weak void HAL_IncTick(void)
{
 8000cb8:	b580      	push	{r7, lr}
 8000cba:	af00      	add	r7, sp, #0
  uwTick += uwTickFreq;
 8000cbc:	4b05      	ldr	r3, [pc, #20]	; (8000cd4 <HAL_IncTick+0x1c>)
 8000cbe:	781b      	ldrb	r3, [r3, #0]
 8000cc0:	001a      	movs	r2, r3
 8000cc2:	4b05      	ldr	r3, [pc, #20]	; (8000cd8 <HAL_IncTick+0x20>)
 8000cc4:	681b      	ldr	r3, [r3, #0]
 8000cc6:	18d2      	adds	r2, r2, r3
 8000cc8:	4b03      	ldr	r3, [pc, #12]	; (8000cd8 <HAL_IncTick+0x20>)
 8000cca:	601a      	str	r2, [r3, #0]
}
 8000ccc:	46c0      	nop			; (mov r8, r8)
 8000cce:	46bd      	mov	sp, r7
 8000cd0:	bd80      	pop	{r7, pc}
 8000cd2:	46c0      	nop			; (mov r8, r8)
 8000cd4:	20000008 	.word	0x20000008
 8000cd8:	2000012c 	.word	0x2000012c

08000cdc <HAL_GetTick>:
  * @note   This function is declared as __weak  to be overwritten  in case of other 
  *       implementations in user file.
  * @retval tick value
  */
__weak uint32_t HAL_GetTick(void)
{
 8000cdc:	b580      	push	{r7, lr}
 8000cde:	af00      	add	r7, sp, #0
  return uwTick;
 8000ce0:	4b02      	ldr	r3, [pc, #8]	; (8000cec <HAL_GetTick+0x10>)
 8000ce2:	681b      	ldr	r3, [r3, #0]
}
 8000ce4:	0018      	movs	r0, r3
 8000ce6:	46bd      	mov	sp, r7
 8000ce8:	bd80      	pop	{r7, pc}
 8000cea:	46c0      	nop			; (mov r8, r8)
 8000cec:	2000012c 	.word	0x2000012c

08000cf0 <__NVIC_EnableIRQ>:
  \details Enables a device specific interrupt in the NVIC interrupt controller.
  \param [in]      IRQn  Device specific interrupt number.
  \note    IRQn must not be negative.
 */
__STATIC_INLINE void __NVIC_EnableIRQ(IRQn_Type IRQn)
{
 8000cf0:	b580      	push	{r7, lr}
 8000cf2:	b082      	sub	sp, #8
 8000cf4:	af00      	add	r7, sp, #0
 8000cf6:	0002      	movs	r2, r0
 8000cf8:	1dfb      	adds	r3, r7, #7
 8000cfa:	701a      	strb	r2, [r3, #0]
  if ((int32_t)(IRQn) >= 0)
 8000cfc:	1dfb      	adds	r3, r7, #7
 8000cfe:	781b      	ldrb	r3, [r3, #0]
 8000d00:	2b7f      	cmp	r3, #127	; 0x7f
 8000d02:	d809      	bhi.n	8000d18 <__NVIC_EnableIRQ+0x28>
  {
    NVIC->ISER[0U] = (uint32_t)(1UL << (((uint32_t)IRQn) & 0x1FUL));
 8000d04:	1dfb      	adds	r3, r7, #7
 8000d06:	781b      	ldrb	r3, [r3, #0]
 8000d08:	001a      	movs	r2, r3
 8000d0a:	231f      	movs	r3, #31
 8000d0c:	401a      	ands	r2, r3
 8000d0e:	4b04      	ldr	r3, [pc, #16]	; (8000d20 <__NVIC_EnableIRQ+0x30>)
 8000d10:	2101      	movs	r1, #1
 8000d12:	4091      	lsls	r1, r2
 8000d14:	000a      	movs	r2, r1
 8000d16:	601a      	str	r2, [r3, #0]
  }
}
 8000d18:	46c0      	nop			; (mov r8, r8)
 8000d1a:	46bd      	mov	sp, r7
 8000d1c:	b002      	add	sp, #8
 8000d1e:	bd80      	pop	{r7, pc}
 8000d20:	e000e100 	.word	0xe000e100

08000d24 <__NVIC_SetPriority>:
  \param [in]      IRQn  Interrupt number.
  \param [in]  priority  Priority to set.
  \note    The priority cannot be set for every processor exception.
 */
__STATIC_INLINE void __NVIC_SetPriority(IRQn_Type IRQn, uint32_t priority)
{
 8000d24:	b590      	push	{r4, r7, lr}
 8000d26:	b083      	sub	sp, #12
 8000d28:	af00      	add	r7, sp, #0
 8000d2a:	0002      	movs	r2, r0
 8000d2c:	6039      	str	r1, [r7, #0]
 8000d2e:	1dfb      	adds	r3, r7, #7
 8000d30:	701a      	strb	r2, [r3, #0]
  if ((int32_t)(IRQn) >= 0)
 8000d32:	1dfb      	adds	r3, r7, #7
 8000d34:	781b      	ldrb	r3, [r3, #0]
 8000d36:	2b7f      	cmp	r3, #127	; 0x7f
 8000d38:	d828      	bhi.n	8000d8c <__NVIC_SetPriority+0x68>
  {
    NVIC->IP[_IP_IDX(IRQn)]  = ((uint32_t)(NVIC->IP[_IP_IDX(IRQn)]  & ~(0xFFUL << _BIT_SHIFT(IRQn))) |
 8000d3a:	4a2f      	ldr	r2, [pc, #188]	; (8000df8 <__NVIC_SetPriority+0xd4>)
 8000d3c:	1dfb      	adds	r3, r7, #7
 8000d3e:	781b      	ldrb	r3, [r3, #0]
 8000d40:	b25b      	sxtb	r3, r3
 8000d42:	089b      	lsrs	r3, r3, #2
 8000d44:	33c0      	adds	r3, #192	; 0xc0
 8000d46:	009b      	lsls	r3, r3, #2
 8000d48:	589b      	ldr	r3, [r3, r2]
 8000d4a:	1dfa      	adds	r2, r7, #7
 8000d4c:	7812      	ldrb	r2, [r2, #0]
 8000d4e:	0011      	movs	r1, r2
 8000d50:	2203      	movs	r2, #3
 8000d52:	400a      	ands	r2, r1
 8000d54:	00d2      	lsls	r2, r2, #3
 8000d56:	21ff      	movs	r1, #255	; 0xff
 8000d58:	4091      	lsls	r1, r2
 8000d5a:	000a      	movs	r2, r1
 8000d5c:	43d2      	mvns	r2, r2
 8000d5e:	401a      	ands	r2, r3
 8000d60:	0011      	movs	r1, r2
       (((priority << (8U - __NVIC_PRIO_BITS)) & (uint32_t)0xFFUL) << _BIT_SHIFT(IRQn)));
 8000d62:	683b      	ldr	r3, [r7, #0]
 8000d64:	019b      	lsls	r3, r3, #6
 8000d66:	22ff      	movs	r2, #255	; 0xff
 8000d68:	401a      	ands	r2, r3
 8000d6a:	1dfb      	adds	r3, r7, #7
 8000d6c:	781b      	ldrb	r3, [r3, #0]
 8000d6e:	0018      	movs	r0, r3
 8000d70:	2303      	movs	r3, #3
 8000d72:	4003      	ands	r3, r0
 8000d74:	00db      	lsls	r3, r3, #3
 8000d76:	409a      	lsls	r2, r3
    NVIC->IP[_IP_IDX(IRQn)]  = ((uint32_t)(NVIC->IP[_IP_IDX(IRQn)]  & ~(0xFFUL << _BIT_SHIFT(IRQn))) |
 8000d78:	481f      	ldr	r0, [pc, #124]	; (8000df8 <__NVIC_SetPriority+0xd4>)
 8000d7a:	1dfb      	adds	r3, r7, #7
 8000d7c:	781b      	ldrb	r3, [r3, #0]
 8000d7e:	b25b      	sxtb	r3, r3
 8000d80:	089b      	lsrs	r3, r3, #2
 8000d82:	430a      	orrs	r2, r1
 8000d84:	33c0      	adds	r3, #192	; 0xc0
 8000d86:	009b      	lsls	r3, r3, #2
 8000d88:	501a      	str	r2, [r3, r0]
  else
  {
    SCB->SHP[_SHP_IDX(IRQn)] = ((uint32_t)(SCB->SHP[_SHP_IDX(IRQn)] & ~(0xFFUL << _BIT_SHIFT(IRQn))) |
       (((priority << (8U - __NVIC_PRIO_BITS)) & (uint32_t)0xFFUL) << _BIT_SHIFT(IRQn)));
  }
}
 8000d8a:	e031      	b.n	8000df0 <__NVIC_SetPriority+0xcc>
    SCB->SHP[_SHP_IDX(IRQn)] = ((uint32_t)(SCB->SHP[_SHP_IDX(IRQn)] & ~(0xFFUL << _BIT_SHIFT(IRQn))) |
 8000d8c:	4a1b      	ldr	r2, [pc, #108]	; (8000dfc <__NVIC_SetPriority+0xd8>)
 8000d8e:	1dfb      	adds	r3, r7, #7
 8000d90:	781b      	ldrb	r3, [r3, #0]
 8000d92:	0019      	movs	r1, r3
 8000d94:	230f      	movs	r3, #15
 8000d96:	400b      	ands	r3, r1
 8000d98:	3b08      	subs	r3, #8
 8000d9a:	089b      	lsrs	r3, r3, #2
 8000d9c:	3306      	adds	r3, #6
 8000d9e:	009b      	lsls	r3, r3, #2
 8000da0:	18d3      	adds	r3, r2, r3
 8000da2:	3304      	adds	r3, #4
 8000da4:	681b      	ldr	r3, [r3, #0]
 8000da6:	1dfa      	adds	r2, r7, #7
 8000da8:	7812      	ldrb	r2, [r2, #0]
 8000daa:	0011      	movs	r1, r2
 8000dac:	2203      	movs	r2, #3
 8000dae:	400a      	ands	r2, r1
 8000db0:	00d2      	lsls	r2, r2, #3
 8000db2:	21ff      	movs	r1, #255	; 0xff
 8000db4:	4091      	lsls	r1, r2
 8000db6:	000a      	movs	r2, r1
 8000db8:	43d2      	mvns	r2, r2
 8000dba:	401a      	ands	r2, r3
 8000dbc:	0011      	movs	r1, r2
       (((priority << (8U - __NVIC_PRIO_BITS)) & (uint32_t)0xFFUL) << _BIT_SHIFT(IRQn)));
 8000dbe:	683b      	ldr	r3, [r7, #0]
 8000dc0:	019b      	lsls	r3, r3, #6
 8000dc2:	22ff      	movs	r2, #255	; 0xff
 8000dc4:	401a      	ands	r2, r3
 8000dc6:	1dfb      	adds	r3, r7, #7
 8000dc8:	781b      	ldrb	r3, [r3, #0]
 8000dca:	0018      	movs	r0, r3
 8000dcc:	2303      	movs	r3, #3
 8000dce:	4003      	ands	r3, r0
 8000dd0:	00db      	lsls	r3, r3, #3
 8000dd2:	409a      	lsls	r2, r3
    SCB->SHP[_SHP_IDX(IRQn)] = ((uint32_t)(SCB->SHP[_SHP_IDX(IRQn)] & ~(0xFFUL << _BIT_SHIFT(IRQn))) |
 8000dd4:	4809      	ldr	r0, [pc, #36]	; (8000dfc <__NVIC_SetPriority+0xd8>)
 8000dd6:	1dfb      	adds	r3, r7, #7
 8000dd8:	781b      	ldrb	r3, [r3, #0]
 8000dda:	001c      	movs	r4, r3
 8000ddc:	230f      	movs	r3, #15
 8000dde:	4023      	ands	r3, r4
 8000de0:	3b08      	subs	r3, #8
 8000de2:	089b      	lsrs	r3, r3, #2
 8000de4:	430a      	orrs	r2, r1
 8000de6:	3306      	adds	r3, #6
 8000de8:	009b      	lsls	r3, r3, #2
 8000dea:	18c3      	adds	r3, r0, r3
 8000dec:	3304      	adds	r3, #4
 8000dee:	601a      	str	r2, [r3, #0]
}
 8000df0:	46c0      	nop			; (mov r8, r8)
 8000df2:	46bd      	mov	sp, r7
 8000df4:	b003      	add	sp, #12
 8000df6:	bd90      	pop	{r4, r7, pc}
 8000df8:	e000e100 	.word	0xe000e100
 8000dfc:	e000ed00 	.word	0xe000ed00

08000e00 <SysTick_Config>:
  \note    When the variable <b>__Vendor_SysTickConfig</b> is set to 1, then the
           function <b>SysTick_Config</b> is not included. In this case, the file <b><i>device</i>.h</b>
           must contain a vendor-specific implementation of this function.
 */
__STATIC_INLINE uint32_t SysTick_Config(uint32_t ticks)
{
 8000e00:	b580      	push	{r7, lr}
 8000e02:	b082      	sub	sp, #8
 8000e04:	af00      	add	r7, sp, #0
 8000e06:	6078      	str	r0, [r7, #4]
  if ((ticks - 1UL) > SysTick_LOAD_RELOAD_Msk)
 8000e08:	687b      	ldr	r3, [r7, #4]
 8000e0a:	3b01      	subs	r3, #1
 8000e0c:	4a0c      	ldr	r2, [pc, #48]	; (8000e40 <SysTick_Config+0x40>)
 8000e0e:	4293      	cmp	r3, r2
 8000e10:	d901      	bls.n	8000e16 <SysTick_Config+0x16>
  {
    return (1UL);                                                   /* Reload value impossible */
 8000e12:	2301      	movs	r3, #1
 8000e14:	e010      	b.n	8000e38 <SysTick_Config+0x38>
  }

  SysTick->LOAD  = (uint32_t)(ticks - 1UL);                         /* set reload register */
 8000e16:	4b0b      	ldr	r3, [pc, #44]	; (8000e44 <SysTick_Config+0x44>)
 8000e18:	687a      	ldr	r2, [r7, #4]
 8000e1a:	3a01      	subs	r2, #1
 8000e1c:	605a      	str	r2, [r3, #4]
  NVIC_SetPriority (SysTick_IRQn, (1UL << __NVIC_PRIO_BITS) - 1UL); /* set Priority for Systick Interrupt */
 8000e1e:	2301      	movs	r3, #1
 8000e20:	425b      	negs	r3, r3
 8000e22:	2103      	movs	r1, #3
 8000e24:	0018      	movs	r0, r3
 8000e26:	f7ff ff7d 	bl	8000d24 <__NVIC_SetPriority>
  SysTick->VAL   = 0UL;                                             /* Load the SysTick Counter Value */
 8000e2a:	4b06      	ldr	r3, [pc, #24]	; (8000e44 <SysTick_Config+0x44>)
 8000e2c:	2200      	movs	r2, #0
 8000e2e:	609a      	str	r2, [r3, #8]
  SysTick->CTRL  = SysTick_CTRL_CLKSOURCE_Msk |
 8000e30:	4b04      	ldr	r3, [pc, #16]	; (8000e44 <SysTick_Config+0x44>)
 8000e32:	2207      	movs	r2, #7
 8000e34:	601a      	str	r2, [r3, #0]
                   SysTick_CTRL_TICKINT_Msk   |
                   SysTick_CTRL_ENABLE_Msk;                         /* Enable SysTick IRQ and SysTick Timer */
  return (0UL);                                                     /* Function successful */
 8000e36:	2300      	movs	r3, #0
}
 8000e38:	0018      	movs	r0, r3
 8000e3a:	46bd      	mov	sp, r7
 8000e3c:	b002      	add	sp, #8
 8000e3e:	bd80      	pop	{r7, pc}
 8000e40:	00ffffff 	.word	0x00ffffff
 8000e44:	e000e010 	.word	0xe000e010

08000e48 <HAL_NVIC_SetPriority>:
  *         with stm32f0xx devices, this parameter is a dummy value and it is ignored, because 
  *         no subpriority supported in Cortex M0 based products.   
  * @retval None
  */
void HAL_NVIC_SetPriority(IRQn_Type IRQn, uint32_t PreemptPriority, uint32_t SubPriority)
{ 
 8000e48:	b580      	push	{r7, lr}
 8000e4a:	b084      	sub	sp, #16
 8000e4c:	af00      	add	r7, sp, #0
 8000e4e:	60b9      	str	r1, [r7, #8]
 8000e50:	607a      	str	r2, [r7, #4]
 8000e52:	210f      	movs	r1, #15
 8000e54:	187b      	adds	r3, r7, r1
 8000e56:	1c02      	adds	r2, r0, #0
 8000e58:	701a      	strb	r2, [r3, #0]
  /* Check the parameters */
  assert_param(IS_NVIC_PREEMPTION_PRIORITY(PreemptPriority));
  NVIC_SetPriority(IRQn,PreemptPriority);
 8000e5a:	68ba      	ldr	r2, [r7, #8]
 8000e5c:	187b      	adds	r3, r7, r1
 8000e5e:	781b      	ldrb	r3, [r3, #0]
 8000e60:	b25b      	sxtb	r3, r3
 8000e62:	0011      	movs	r1, r2
 8000e64:	0018      	movs	r0, r3
 8000e66:	f7ff ff5d 	bl	8000d24 <__NVIC_SetPriority>
}
 8000e6a:	46c0      	nop			; (mov r8, r8)
 8000e6c:	46bd      	mov	sp, r7
 8000e6e:	b004      	add	sp, #16
 8000e70:	bd80      	pop	{r7, pc}

08000e72 <HAL_NVIC_EnableIRQ>:
  *         This parameter can be an enumerator of IRQn_Type enumeration
  *         (For the complete STM32 Devices IRQ Channels list, please refer to the appropriate CMSIS device file (stm32f0xxxx.h))
  * @retval None
  */
void HAL_NVIC_EnableIRQ(IRQn_Type IRQn)
{
 8000e72:	b580      	push	{r7, lr}
 8000e74:	b082      	sub	sp, #8
 8000e76:	af00      	add	r7, sp, #0
 8000e78:	0002      	movs	r2, r0
 8000e7a:	1dfb      	adds	r3, r7, #7
 8000e7c:	701a      	strb	r2, [r3, #0]
  /* Check the parameters */
  assert_param(IS_NVIC_DEVICE_IRQ(IRQn));
  
  /* Enable interrupt */
  NVIC_EnableIRQ(IRQn);
 8000e7e:	1dfb      	adds	r3, r7, #7
 8000e80:	781b      	ldrb	r3, [r3, #0]
 8000e82:	b25b      	sxtb	r3, r3
 8000e84:	0018      	movs	r0, r3
 8000e86:	f7ff ff33 	bl	8000cf0 <__NVIC_EnableIRQ>
}
 8000e8a:	46c0      	nop			; (mov r8, r8)
 8000e8c:	46bd      	mov	sp, r7
 8000e8e:	b002      	add	sp, #8
 8000e90:	bd80      	pop	{r7, pc}

08000e92 <HAL_SYSTICK_Config>:
  * @param  TicksNumb Specifies the ticks Number of ticks between two interrupts.
  * @retval status:  - 0  Function succeeded.
  *                  - 1  Function failed.
  */
uint32_t HAL_SYSTICK_Config(uint32_t TicksNumb)
{
 8000e92:	b580      	push	{r7, lr}
 8000e94:	b082      	sub	sp, #8
 8000e96:	af00      	add	r7, sp, #0
 8000e98:	6078      	str	r0, [r7, #4]
   return SysTick_Config(TicksNumb);
 8000e9a:	687b      	ldr	r3, [r7, #4]
 8000e9c:	0018      	movs	r0, r3
 8000e9e:	f7ff ffaf 	bl	8000e00 <SysTick_Config>
 8000ea2:	0003      	movs	r3, r0
}
 8000ea4:	0018      	movs	r0, r3
 8000ea6:	46bd      	mov	sp, r7
 8000ea8:	b002      	add	sp, #8
 8000eaa:	bd80      	pop	{r7, pc}

08000eac <HAL_GPIO_Init>:
  * @param  GPIO_Init pointer to a GPIO_InitTypeDef structure that contains
  *         the configuration information for the specified GPIO peripheral.
  * @retval None
  */
void HAL_GPIO_Init(GPIO_TypeDef  *GPIOx, GPIO_InitTypeDef *GPIO_Init)
{ 
 8000eac:	b580      	push	{r7, lr}
 8000eae:	b086      	sub	sp, #24
 8000eb0:	af00      	add	r7, sp, #0
 8000eb2:	6078      	str	r0, [r7, #4]
 8000eb4:	6039      	str	r1, [r7, #0]
  uint32_t position = 0x00u;
 8000eb6:	2300      	movs	r3, #0
 8000eb8:	617b      	str	r3, [r7, #20]
  assert_param(IS_GPIO_PIN(GPIO_Init->Pin));
  assert_param(IS_GPIO_MODE(GPIO_Init->Mode));
  assert_param(IS_GPIO_PULL(GPIO_Init->Pull));

  /* Configure the port pins */
  while (((GPIO_Init->Pin) >> position) != 0x00u)
 8000eba:	e14f      	b.n	800115c <HAL_GPIO_Init+0x2b0>
  {
    /* Get current io position */
    iocurrent = (GPIO_Init->Pin) & (1uL << position);
 8000ebc:	683b      	ldr	r3, [r7, #0]
 8000ebe:	681b      	ldr	r3, [r3, #0]
 8000ec0:	2101      	movs	r1, #1
 8000ec2:	697a      	ldr	r2, [r7, #20]
 8000ec4:	4091      	lsls	r1, r2
 8000ec6:	000a      	movs	r2, r1
 8000ec8:	4013      	ands	r3, r2
 8000eca:	60fb      	str	r3, [r7, #12]

    if (iocurrent != 0x00u)
 8000ecc:	68fb      	ldr	r3, [r7, #12]
 8000ece:	2b00      	cmp	r3, #0
 8000ed0:	d100      	bne.n	8000ed4 <HAL_GPIO_Init+0x28>
 8000ed2:	e140      	b.n	8001156 <HAL_GPIO_Init+0x2aa>
    {
      /*--------------------- GPIO Mode Configuration ------------------------*/
      /* In case of Alternate function mode selection */
      if((GPIO_Init->Mode == GPIO_MODE_AF_PP) || (GPIO_Init->Mode == GPIO_MODE_AF_OD))
 8000ed4:	683b      	ldr	r3, [r7, #0]
 8000ed6:	685b      	ldr	r3, [r3, #4]
 8000ed8:	2b02      	cmp	r3, #2
 8000eda:	d003      	beq.n	8000ee4 <HAL_GPIO_Init+0x38>
 8000edc:	683b      	ldr	r3, [r7, #0]
 8000ede:	685b      	ldr	r3, [r3, #4]
 8000ee0:	2b12      	cmp	r3, #18
 8000ee2:	d123      	bne.n	8000f2c <HAL_GPIO_Init+0x80>
        /* Check the Alternate function parameters */
        assert_param(IS_GPIO_AF_INSTANCE(GPIOx));
        assert_param(IS_GPIO_AF(GPIO_Init->Alternate));

        /* Configure Alternate function mapped with the current IO */
        temp = GPIOx->AFR[position >> 3u];
 8000ee4:	697b      	ldr	r3, [r7, #20]
 8000ee6:	08da      	lsrs	r2, r3, #3
 8000ee8:	687b      	ldr	r3, [r7, #4]
 8000eea:	3208      	adds	r2, #8
 8000eec:	0092      	lsls	r2, r2, #2
 8000eee:	58d3      	ldr	r3, [r2, r3]
 8000ef0:	613b      	str	r3, [r7, #16]
        temp &= ~(0xFu << ((position & 0x07u) * 4u));
 8000ef2:	697b      	ldr	r3, [r7, #20]
 8000ef4:	2207      	movs	r2, #7
 8000ef6:	4013      	ands	r3, r2
 8000ef8:	009b      	lsls	r3, r3, #2
 8000efa:	220f      	movs	r2, #15
 8000efc:	409a      	lsls	r2, r3
 8000efe:	0013      	movs	r3, r2
 8000f00:	43da      	mvns	r2, r3
 8000f02:	693b      	ldr	r3, [r7, #16]
 8000f04:	4013      	ands	r3, r2
 8000f06:	613b      	str	r3, [r7, #16]
        temp |= ((GPIO_Init->Alternate) << ((position & 0x07u) * 4u));
 8000f08:	683b      	ldr	r3, [r7, #0]
 8000f0a:	691a      	ldr	r2, [r3, #16]
 8000f0c:	697b      	ldr	r3, [r7, #20]
 8000f0e:	2107      	movs	r1, #7
 8000f10:	400b      	ands	r3, r1
 8000f12:	009b      	lsls	r3, r3, #2
 8000f14:	409a      	lsls	r2, r3
 8000f16:	0013      	movs	r3, r2
 8000f18:	693a      	ldr	r2, [r7, #16]
 8000f1a:	4313      	orrs	r3, r2
 8000f1c:	613b      	str	r3, [r7, #16]
        GPIOx->AFR[position >> 3u] = temp;
 8000f1e:	697b      	ldr	r3, [r7, #20]
 8000f20:	08da      	lsrs	r2, r3, #3
 8000f22:	687b      	ldr	r3, [r7, #4]
 8000f24:	3208      	adds	r2, #8
 8000f26:	0092      	lsls	r2, r2, #2
 8000f28:	6939      	ldr	r1, [r7, #16]
 8000f2a:	50d1      	str	r1, [r2, r3]
      }

      /* Configure IO Direction mode (Input, Output, Alternate or Analog) */
      temp = GPIOx->MODER;
 8000f2c:	687b      	ldr	r3, [r7, #4]
 8000f2e:	681b      	ldr	r3, [r3, #0]
 8000f30:	613b      	str	r3, [r7, #16]
      temp &= ~(GPIO_MODER_MODER0 << (position * 2u));
 8000f32:	697b      	ldr	r3, [r7, #20]
 8000f34:	005b      	lsls	r3, r3, #1
 8000f36:	2203      	movs	r2, #3
 8000f38:	409a      	lsls	r2, r3
 8000f3a:	0013      	movs	r3, r2
 8000f3c:	43da      	mvns	r2, r3
 8000f3e:	693b      	ldr	r3, [r7, #16]
 8000f40:	4013      	ands	r3, r2
 8000f42:	613b      	str	r3, [r7, #16]
      temp |= ((GPIO_Init->Mode & GPIO_MODE) << (position * 2u));
 8000f44:	683b      	ldr	r3, [r7, #0]
 8000f46:	685b      	ldr	r3, [r3, #4]
 8000f48:	2203      	movs	r2, #3
 8000f4a:	401a      	ands	r2, r3
 8000f4c:	697b      	ldr	r3, [r7, #20]
 8000f4e:	005b      	lsls	r3, r3, #1
 8000f50:	409a      	lsls	r2, r3
 8000f52:	0013      	movs	r3, r2
 8000f54:	693a      	ldr	r2, [r7, #16]
 8000f56:	4313      	orrs	r3, r2
 8000f58:	613b      	str	r3, [r7, #16]
      GPIOx->MODER = temp;
 8000f5a:	687b      	ldr	r3, [r7, #4]
 8000f5c:	693a      	ldr	r2, [r7, #16]
 8000f5e:	601a      	str	r2, [r3, #0]

      /* In case of Output or Alternate function mode selection */
      if((GPIO_Init->Mode == GPIO_MODE_OUTPUT_PP) || (GPIO_Init->Mode == GPIO_MODE_AF_PP) ||
 8000f60:	683b      	ldr	r3, [r7, #0]
 8000f62:	685b      	ldr	r3, [r3, #4]
 8000f64:	2b01      	cmp	r3, #1
 8000f66:	d00b      	beq.n	8000f80 <HAL_GPIO_Init+0xd4>
 8000f68:	683b      	ldr	r3, [r7, #0]
 8000f6a:	685b      	ldr	r3, [r3, #4]
 8000f6c:	2b02      	cmp	r3, #2
 8000f6e:	d007      	beq.n	8000f80 <HAL_GPIO_Init+0xd4>
         (GPIO_Init->Mode == GPIO_MODE_OUTPUT_OD) || (GPIO_Init->Mode == GPIO_MODE_AF_OD))
 8000f70:	683b      	ldr	r3, [r7, #0]
 8000f72:	685b      	ldr	r3, [r3, #4]
      if((GPIO_Init->Mode == GPIO_MODE_OUTPUT_PP) || (GPIO_Init->Mode == GPIO_MODE_AF_PP) ||
 8000f74:	2b11      	cmp	r3, #17
 8000f76:	d003      	beq.n	8000f80 <HAL_GPIO_Init+0xd4>
         (GPIO_Init->Mode == GPIO_MODE_OUTPUT_OD) || (GPIO_Init->Mode == GPIO_MODE_AF_OD))
 8000f78:	683b      	ldr	r3, [r7, #0]
 8000f7a:	685b      	ldr	r3, [r3, #4]
 8000f7c:	2b12      	cmp	r3, #18
 8000f7e:	d130      	bne.n	8000fe2 <HAL_GPIO_Init+0x136>
      {
        /* Check the Speed parameter */
        assert_param(IS_GPIO_SPEED(GPIO_Init->Speed));
        /* Configure the IO Speed */
        temp = GPIOx->OSPEEDR;
 8000f80:	687b      	ldr	r3, [r7, #4]
 8000f82:	689b      	ldr	r3, [r3, #8]
 8000f84:	613b      	str	r3, [r7, #16]
        temp &= ~(GPIO_OSPEEDER_OSPEEDR0 << (position * 2u));
 8000f86:	697b      	ldr	r3, [r7, #20]
 8000f88:	005b      	lsls	r3, r3, #1
 8000f8a:	2203      	movs	r2, #3
 8000f8c:	409a      	lsls	r2, r3
 8000f8e:	0013      	movs	r3, r2
 8000f90:	43da      	mvns	r2, r3
 8000f92:	693b      	ldr	r3, [r7, #16]
 8000f94:	4013      	ands	r3, r2
 8000f96:	613b      	str	r3, [r7, #16]
        temp |= (GPIO_Init->Speed << (position * 2u));
 8000f98:	683b      	ldr	r3, [r7, #0]
 8000f9a:	68da      	ldr	r2, [r3, #12]
 8000f9c:	697b      	ldr	r3, [r7, #20]
 8000f9e:	005b      	lsls	r3, r3, #1
 8000fa0:	409a      	lsls	r2, r3
 8000fa2:	0013      	movs	r3, r2
 8000fa4:	693a      	ldr	r2, [r7, #16]
 8000fa6:	4313      	orrs	r3, r2
 8000fa8:	613b      	str	r3, [r7, #16]
        GPIOx->OSPEEDR = temp;
 8000faa:	687b      	ldr	r3, [r7, #4]
 8000fac:	693a      	ldr	r2, [r7, #16]
 8000fae:	609a      	str	r2, [r3, #8]

        /* Configure the IO Output Type */
        temp = GPIOx->OTYPER;
 8000fb0:	687b      	ldr	r3, [r7, #4]
 8000fb2:	685b      	ldr	r3, [r3, #4]
 8000fb4:	613b      	str	r3, [r7, #16]
        temp &= ~(GPIO_OTYPER_OT_0 << position) ;
 8000fb6:	2201      	movs	r2, #1
 8000fb8:	697b      	ldr	r3, [r7, #20]
 8000fba:	409a      	lsls	r2, r3
 8000fbc:	0013      	movs	r3, r2
 8000fbe:	43da      	mvns	r2, r3
 8000fc0:	693b      	ldr	r3, [r7, #16]
 8000fc2:	4013      	ands	r3, r2
 8000fc4:	613b      	str	r3, [r7, #16]
        temp |= (((GPIO_Init->Mode & GPIO_OUTPUT_TYPE) >> 4u) << position);
 8000fc6:	683b      	ldr	r3, [r7, #0]
 8000fc8:	685b      	ldr	r3, [r3, #4]
 8000fca:	091b      	lsrs	r3, r3, #4
 8000fcc:	2201      	movs	r2, #1
 8000fce:	401a      	ands	r2, r3
 8000fd0:	697b      	ldr	r3, [r7, #20]
 8000fd2:	409a      	lsls	r2, r3
 8000fd4:	0013      	movs	r3, r2
 8000fd6:	693a      	ldr	r2, [r7, #16]
 8000fd8:	4313      	orrs	r3, r2
 8000fda:	613b      	str	r3, [r7, #16]
        GPIOx->OTYPER = temp;
 8000fdc:	687b      	ldr	r3, [r7, #4]
 8000fde:	693a      	ldr	r2, [r7, #16]
 8000fe0:	605a      	str	r2, [r3, #4]
      }

      /* Activate the Pull-up or Pull down resistor for the current IO */
      temp = GPIOx->PUPDR;
 8000fe2:	687b      	ldr	r3, [r7, #4]
 8000fe4:	68db      	ldr	r3, [r3, #12]
 8000fe6:	613b      	str	r3, [r7, #16]
      temp &= ~(GPIO_PUPDR_PUPDR0 << (position * 2u));
 8000fe8:	697b      	ldr	r3, [r7, #20]
 8000fea:	005b      	lsls	r3, r3, #1
 8000fec:	2203      	movs	r2, #3
 8000fee:	409a      	lsls	r2, r3
 8000ff0:	0013      	movs	r3, r2
 8000ff2:	43da      	mvns	r2, r3
 8000ff4:	693b      	ldr	r3, [r7, #16]
 8000ff6:	4013      	ands	r3, r2
 8000ff8:	613b      	str	r3, [r7, #16]
      temp |= ((GPIO_Init->Pull) << (position * 2u));
 8000ffa:	683b      	ldr	r3, [r7, #0]
 8000ffc:	689a      	ldr	r2, [r3, #8]
 8000ffe:	697b      	ldr	r3, [r7, #20]
 8001000:	005b      	lsls	r3, r3, #1
 8001002:	409a      	lsls	r2, r3
 8001004:	0013      	movs	r3, r2
 8001006:	693a      	ldr	r2, [r7, #16]
 8001008:	4313      	orrs	r3, r2
 800100a:	613b      	str	r3, [r7, #16]
      GPIOx->PUPDR = temp;
 800100c:	687b      	ldr	r3, [r7, #4]
 800100e:	693a      	ldr	r2, [r7, #16]
 8001010:	60da      	str	r2, [r3, #12]

      /*--------------------- EXTI Mode Configuration ------------------------*/
      /* Configure the External Interrupt or event for the current IO */
      if((GPIO_Init->Mode & EXTI_MODE) == EXTI_MODE)
 8001012:	683b      	ldr	r3, [r7, #0]
 8001014:	685a      	ldr	r2, [r3, #4]
 8001016:	2380      	movs	r3, #128	; 0x80
 8001018:	055b      	lsls	r3, r3, #21
 800101a:	4013      	ands	r3, r2
 800101c:	d100      	bne.n	8001020 <HAL_GPIO_Init+0x174>
 800101e:	e09a      	b.n	8001156 <HAL_GPIO_Init+0x2aa>
      {
        /* Enable SYSCFG Clock */
        __HAL_RCC_SYSCFG_CLK_ENABLE();
 8001020:	4b54      	ldr	r3, [pc, #336]	; (8001174 <HAL_GPIO_Init+0x2c8>)
 8001022:	699a      	ldr	r2, [r3, #24]
 8001024:	4b53      	ldr	r3, [pc, #332]	; (8001174 <HAL_GPIO_Init+0x2c8>)
 8001026:	2101      	movs	r1, #1
 8001028:	430a      	orrs	r2, r1
 800102a:	619a      	str	r2, [r3, #24]
 800102c:	4b51      	ldr	r3, [pc, #324]	; (8001174 <HAL_GPIO_Init+0x2c8>)
 800102e:	699b      	ldr	r3, [r3, #24]
 8001030:	2201      	movs	r2, #1
 8001032:	4013      	ands	r3, r2
 8001034:	60bb      	str	r3, [r7, #8]
 8001036:	68bb      	ldr	r3, [r7, #8]

        temp = SYSCFG->EXTICR[position >> 2u];
 8001038:	4a4f      	ldr	r2, [pc, #316]	; (8001178 <HAL_GPIO_Init+0x2cc>)
 800103a:	697b      	ldr	r3, [r7, #20]
 800103c:	089b      	lsrs	r3, r3, #2
 800103e:	3302      	adds	r3, #2
 8001040:	009b      	lsls	r3, r3, #2
 8001042:	589b      	ldr	r3, [r3, r2]
 8001044:	613b      	str	r3, [r7, #16]
        temp &= ~(0x0FuL << (4u * (position & 0x03u)));
 8001046:	697b      	ldr	r3, [r7, #20]
 8001048:	2203      	movs	r2, #3
 800104a:	4013      	ands	r3, r2
 800104c:	009b      	lsls	r3, r3, #2
 800104e:	220f      	movs	r2, #15
 8001050:	409a      	lsls	r2, r3
 8001052:	0013      	movs	r3, r2
 8001054:	43da      	mvns	r2, r3
 8001056:	693b      	ldr	r3, [r7, #16]
 8001058:	4013      	ands	r3, r2
 800105a:	613b      	str	r3, [r7, #16]
        temp |= (GPIO_GET_INDEX(GPIOx) << (4u * (position & 0x03u)));
 800105c:	687a      	ldr	r2, [r7, #4]
 800105e:	2390      	movs	r3, #144	; 0x90
 8001060:	05db      	lsls	r3, r3, #23
 8001062:	429a      	cmp	r2, r3
 8001064:	d013      	beq.n	800108e <HAL_GPIO_Init+0x1e2>
 8001066:	687b      	ldr	r3, [r7, #4]
 8001068:	4a44      	ldr	r2, [pc, #272]	; (800117c <HAL_GPIO_Init+0x2d0>)
 800106a:	4293      	cmp	r3, r2
 800106c:	d00d      	beq.n	800108a <HAL_GPIO_Init+0x1de>
 800106e:	687b      	ldr	r3, [r7, #4]
 8001070:	4a43      	ldr	r2, [pc, #268]	; (8001180 <HAL_GPIO_Init+0x2d4>)
 8001072:	4293      	cmp	r3, r2
 8001074:	d007      	beq.n	8001086 <HAL_GPIO_Init+0x1da>
 8001076:	687b      	ldr	r3, [r7, #4]
 8001078:	4a42      	ldr	r2, [pc, #264]	; (8001184 <HAL_GPIO_Init+0x2d8>)
 800107a:	4293      	cmp	r3, r2
 800107c:	d101      	bne.n	8001082 <HAL_GPIO_Init+0x1d6>
 800107e:	2303      	movs	r3, #3
 8001080:	e006      	b.n	8001090 <HAL_GPIO_Init+0x1e4>
 8001082:	2305      	movs	r3, #5
 8001084:	e004      	b.n	8001090 <HAL_GPIO_Init+0x1e4>
 8001086:	2302      	movs	r3, #2
 8001088:	e002      	b.n	8001090 <HAL_GPIO_Init+0x1e4>
 800108a:	2301      	movs	r3, #1
 800108c:	e000      	b.n	8001090 <HAL_GPIO_Init+0x1e4>
 800108e:	2300      	movs	r3, #0
 8001090:	697a      	ldr	r2, [r7, #20]
 8001092:	2103      	movs	r1, #3
 8001094:	400a      	ands	r2, r1
 8001096:	0092      	lsls	r2, r2, #2
 8001098:	4093      	lsls	r3, r2
 800109a:	693a      	ldr	r2, [r7, #16]
 800109c:	4313      	orrs	r3, r2
 800109e:	613b      	str	r3, [r7, #16]
        SYSCFG->EXTICR[position >> 2u] = temp;
 80010a0:	4935      	ldr	r1, [pc, #212]	; (8001178 <HAL_GPIO_Init+0x2cc>)
 80010a2:	697b      	ldr	r3, [r7, #20]
 80010a4:	089b      	lsrs	r3, r3, #2
 80010a6:	3302      	adds	r3, #2
 80010a8:	009b      	lsls	r3, r3, #2
 80010aa:	693a      	ldr	r2, [r7, #16]
 80010ac:	505a      	str	r2, [r3, r1]

        /* Clear EXTI line configuration */
        temp = EXTI->IMR;
 80010ae:	4b36      	ldr	r3, [pc, #216]	; (8001188 <HAL_GPIO_Init+0x2dc>)
 80010b0:	681b      	ldr	r3, [r3, #0]
 80010b2:	613b      	str	r3, [r7, #16]
        temp &= ~(iocurrent);
 80010b4:	68fb      	ldr	r3, [r7, #12]
 80010b6:	43da      	mvns	r2, r3
 80010b8:	693b      	ldr	r3, [r7, #16]
 80010ba:	4013      	ands	r3, r2
 80010bc:	613b      	str	r3, [r7, #16]
        if((GPIO_Init->Mode & GPIO_MODE_IT) == GPIO_MODE_IT)
 80010be:	683b      	ldr	r3, [r7, #0]
 80010c0:	685a      	ldr	r2, [r3, #4]
 80010c2:	2380      	movs	r3, #128	; 0x80
 80010c4:	025b      	lsls	r3, r3, #9
 80010c6:	4013      	ands	r3, r2
 80010c8:	d003      	beq.n	80010d2 <HAL_GPIO_Init+0x226>
        {
          temp |= iocurrent;
 80010ca:	693a      	ldr	r2, [r7, #16]
 80010cc:	68fb      	ldr	r3, [r7, #12]
 80010ce:	4313      	orrs	r3, r2
 80010d0:	613b      	str	r3, [r7, #16]
        }
        EXTI->IMR = temp;
 80010d2:	4b2d      	ldr	r3, [pc, #180]	; (8001188 <HAL_GPIO_Init+0x2dc>)
 80010d4:	693a      	ldr	r2, [r7, #16]
 80010d6:	601a      	str	r2, [r3, #0]

        temp = EXTI->EMR;
 80010d8:	4b2b      	ldr	r3, [pc, #172]	; (8001188 <HAL_GPIO_Init+0x2dc>)
 80010da:	685b      	ldr	r3, [r3, #4]
 80010dc:	613b      	str	r3, [r7, #16]
        temp &= ~(iocurrent);
 80010de:	68fb      	ldr	r3, [r7, #12]
 80010e0:	43da      	mvns	r2, r3
 80010e2:	693b      	ldr	r3, [r7, #16]
 80010e4:	4013      	ands	r3, r2
 80010e6:	613b      	str	r3, [r7, #16]
        if((GPIO_Init->Mode & GPIO_MODE_EVT) == GPIO_MODE_EVT)
 80010e8:	683b      	ldr	r3, [r7, #0]
 80010ea:	685a      	ldr	r2, [r3, #4]
 80010ec:	2380      	movs	r3, #128	; 0x80
 80010ee:	029b      	lsls	r3, r3, #10
 80010f0:	4013      	ands	r3, r2
 80010f2:	d003      	beq.n	80010fc <HAL_GPIO_Init+0x250>
        {
          temp |= iocurrent;
 80010f4:	693a      	ldr	r2, [r7, #16]
 80010f6:	68fb      	ldr	r3, [r7, #12]
 80010f8:	4313      	orrs	r3, r2
 80010fa:	613b      	str	r3, [r7, #16]
        }
        EXTI->EMR = temp;
 80010fc:	4b22      	ldr	r3, [pc, #136]	; (8001188 <HAL_GPIO_Init+0x2dc>)
 80010fe:	693a      	ldr	r2, [r7, #16]
 8001100:	605a      	str	r2, [r3, #4]

        /* Clear Rising Falling edge configuration */
        temp = EXTI->RTSR;
 8001102:	4b21      	ldr	r3, [pc, #132]	; (8001188 <HAL_GPIO_Init+0x2dc>)
 8001104:	689b      	ldr	r3, [r3, #8]
 8001106:	613b      	str	r3, [r7, #16]
        temp &= ~(iocurrent);
 8001108:	68fb      	ldr	r3, [r7, #12]
 800110a:	43da      	mvns	r2, r3
 800110c:	693b      	ldr	r3, [r7, #16]
 800110e:	4013      	ands	r3, r2
 8001110:	613b      	str	r3, [r7, #16]
        if((GPIO_Init->Mode & RISING_EDGE) == RISING_EDGE)
 8001112:	683b      	ldr	r3, [r7, #0]
 8001114:	685a      	ldr	r2, [r3, #4]
 8001116:	2380      	movs	r3, #128	; 0x80
 8001118:	035b      	lsls	r3, r3, #13
 800111a:	4013      	ands	r3, r2
 800111c:	d003      	beq.n	8001126 <HAL_GPIO_Init+0x27a>
        {
          temp |= iocurrent;
 800111e:	693a      	ldr	r2, [r7, #16]
 8001120:	68fb      	ldr	r3, [r7, #12]
 8001122:	4313      	orrs	r3, r2
 8001124:	613b      	str	r3, [r7, #16]
        }
        EXTI->RTSR = temp;
 8001126:	4b18      	ldr	r3, [pc, #96]	; (8001188 <HAL_GPIO_Init+0x2dc>)
 8001128:	693a      	ldr	r2, [r7, #16]
 800112a:	609a      	str	r2, [r3, #8]

        temp = EXTI->FTSR;
 800112c:	4b16      	ldr	r3, [pc, #88]	; (8001188 <HAL_GPIO_Init+0x2dc>)
 800112e:	68db      	ldr	r3, [r3, #12]
 8001130:	613b      	str	r3, [r7, #16]
        temp &= ~(iocurrent);
 8001132:	68fb      	ldr	r3, [r7, #12]
 8001134:	43da      	mvns	r2, r3
 8001136:	693b      	ldr	r3, [r7, #16]
 8001138:	4013      	ands	r3, r2
 800113a:	613b      	str	r3, [r7, #16]
        if((GPIO_Init->Mode & FALLING_EDGE) == FALLING_EDGE)
 800113c:	683b      	ldr	r3, [r7, #0]
 800113e:	685a      	ldr	r2, [r3, #4]
 8001140:	2380      	movs	r3, #128	; 0x80
 8001142:	039b      	lsls	r3, r3, #14
 8001144:	4013      	ands	r3, r2
 8001146:	d003      	beq.n	8001150 <HAL_GPIO_Init+0x2a4>
        {
          temp |= iocurrent;
 8001148:	693a      	ldr	r2, [r7, #16]
 800114a:	68fb      	ldr	r3, [r7, #12]
 800114c:	4313      	orrs	r3, r2
 800114e:	613b      	str	r3, [r7, #16]
        }
        EXTI->FTSR = temp;
 8001150:	4b0d      	ldr	r3, [pc, #52]	; (8001188 <HAL_GPIO_Init+0x2dc>)
 8001152:	693a      	ldr	r2, [r7, #16]
 8001154:	60da      	str	r2, [r3, #12]
      }
    }

    position++;
 8001156:	697b      	ldr	r3, [r7, #20]
 8001158:	3301      	adds	r3, #1
 800115a:	617b      	str	r3, [r7, #20]
  while (((GPIO_Init->Pin) >> position) != 0x00u)
 800115c:	683b      	ldr	r3, [r7, #0]
 800115e:	681a      	ldr	r2, [r3, #0]
 8001160:	697b      	ldr	r3, [r7, #20]
 8001162:	40da      	lsrs	r2, r3
 8001164:	1e13      	subs	r3, r2, #0
 8001166:	d000      	beq.n	800116a <HAL_GPIO_Init+0x2be>
 8001168:	e6a8      	b.n	8000ebc <HAL_GPIO_Init+0x10>
  } 
}
 800116a:	46c0      	nop			; (mov r8, r8)
 800116c:	46bd      	mov	sp, r7
 800116e:	b006      	add	sp, #24
 8001170:	bd80      	pop	{r7, pc}
 8001172:	46c0      	nop			; (mov r8, r8)
 8001174:	40021000 	.word	0x40021000
 8001178:	40010000 	.word	0x40010000
 800117c:	48000400 	.word	0x48000400
 8001180:	48000800 	.word	0x48000800
 8001184:	48000c00 	.word	0x48000c00
 8001188:	40010400 	.word	0x40010400

0800118c <HAL_GPIO_WritePin>:
  *            @arg GPIO_PIN_RESET: to clear the port pin
  *            @arg GPIO_PIN_SET: to set the port pin
  * @retval None
  */
void HAL_GPIO_WritePin(GPIO_TypeDef* GPIOx, uint16_t GPIO_Pin, GPIO_PinState PinState)
{
 800118c:	b580      	push	{r7, lr}
 800118e:	b082      	sub	sp, #8
 8001190:	af00      	add	r7, sp, #0
 8001192:	6078      	str	r0, [r7, #4]
 8001194:	0008      	movs	r0, r1
 8001196:	0011      	movs	r1, r2
 8001198:	1cbb      	adds	r3, r7, #2
 800119a:	1c02      	adds	r2, r0, #0
 800119c:	801a      	strh	r2, [r3, #0]
 800119e:	1c7b      	adds	r3, r7, #1
 80011a0:	1c0a      	adds	r2, r1, #0
 80011a2:	701a      	strb	r2, [r3, #0]
  /* Check the parameters */
  assert_param(IS_GPIO_PIN(GPIO_Pin));
  assert_param(IS_GPIO_PIN_ACTION(PinState));

  if (PinState != GPIO_PIN_RESET)
 80011a4:	1c7b      	adds	r3, r7, #1
 80011a6:	781b      	ldrb	r3, [r3, #0]
 80011a8:	2b00      	cmp	r3, #0
 80011aa:	d004      	beq.n	80011b6 <HAL_GPIO_WritePin+0x2a>
  {
    GPIOx->BSRR = (uint32_t)GPIO_Pin;
 80011ac:	1cbb      	adds	r3, r7, #2
 80011ae:	881a      	ldrh	r2, [r3, #0]
 80011b0:	687b      	ldr	r3, [r7, #4]
 80011b2:	619a      	str	r2, [r3, #24]
  }
  else
  {
    GPIOx->BRR = (uint32_t)GPIO_Pin;
  }
}
 80011b4:	e003      	b.n	80011be <HAL_GPIO_WritePin+0x32>
    GPIOx->BRR = (uint32_t)GPIO_Pin;
 80011b6:	1cbb      	adds	r3, r7, #2
 80011b8:	881a      	ldrh	r2, [r3, #0]
 80011ba:	687b      	ldr	r3, [r7, #4]
 80011bc:	629a      	str	r2, [r3, #40]	; 0x28
}
 80011be:	46c0      	nop			; (mov r8, r8)
 80011c0:	46bd      	mov	sp, r7
 80011c2:	b002      	add	sp, #8
 80011c4:	bd80      	pop	{r7, pc}

080011c6 <HAL_GPIO_TogglePin>:
  * @param  GPIOx where x can be (A..F) to select the GPIO peripheral for STM32F0 family
  * @param  GPIO_Pin specifies the pin to be toggled.
  * @retval None
  */
void HAL_GPIO_TogglePin(GPIO_TypeDef* GPIOx, uint16_t GPIO_Pin)
{
 80011c6:	b580      	push	{r7, lr}
 80011c8:	b082      	sub	sp, #8
 80011ca:	af00      	add	r7, sp, #0
 80011cc:	6078      	str	r0, [r7, #4]
 80011ce:	000a      	movs	r2, r1
 80011d0:	1cbb      	adds	r3, r7, #2
 80011d2:	801a      	strh	r2, [r3, #0]
  /* Check the parameters */
  assert_param(IS_GPIO_PIN(GPIO_Pin));

  if ((GPIOx->ODR & GPIO_Pin) != 0X00u)
 80011d4:	687b      	ldr	r3, [r7, #4]
 80011d6:	695b      	ldr	r3, [r3, #20]
 80011d8:	1cba      	adds	r2, r7, #2
 80011da:	8812      	ldrh	r2, [r2, #0]
 80011dc:	4013      	ands	r3, r2
 80011de:	d005      	beq.n	80011ec <HAL_GPIO_TogglePin+0x26>
  {
    GPIOx->BSRR = (uint32_t)GPIO_Pin << GPIO_NUMBER;
 80011e0:	1cbb      	adds	r3, r7, #2
 80011e2:	881b      	ldrh	r3, [r3, #0]
 80011e4:	041a      	lsls	r2, r3, #16
 80011e6:	687b      	ldr	r3, [r7, #4]
 80011e8:	619a      	str	r2, [r3, #24]
  }
  else
  {
    GPIOx->BSRR = (uint32_t)GPIO_Pin;
  }
}
 80011ea:	e003      	b.n	80011f4 <HAL_GPIO_TogglePin+0x2e>
    GPIOx->BSRR = (uint32_t)GPIO_Pin;
 80011ec:	1cbb      	adds	r3, r7, #2
 80011ee:	881a      	ldrh	r2, [r3, #0]
 80011f0:	687b      	ldr	r3, [r7, #4]
 80011f2:	619a      	str	r2, [r3, #24]
}
 80011f4:	46c0      	nop			; (mov r8, r8)
 80011f6:	46bd      	mov	sp, r7
 80011f8:	b002      	add	sp, #8
 80011fa:	bd80      	pop	{r7, pc}

080011fc <HAL_GPIO_EXTI_IRQHandler>:
  * @brief  Handle EXTI interrupt request.
  * @param  GPIO_Pin Specifies the port pin connected to corresponding EXTI line.
  * @retval None
  */
void HAL_GPIO_EXTI_IRQHandler(uint16_t GPIO_Pin)
{
 80011fc:	b580      	push	{r7, lr}
 80011fe:	b082      	sub	sp, #8
 8001200:	af00      	add	r7, sp, #0
 8001202:	0002      	movs	r2, r0
 8001204:	1dbb      	adds	r3, r7, #6
 8001206:	801a      	strh	r2, [r3, #0]
  /* EXTI line interrupt detected */
  if(__HAL_GPIO_EXTI_GET_IT(GPIO_Pin) != 0x00u)
 8001208:	4b09      	ldr	r3, [pc, #36]	; (8001230 <HAL_GPIO_EXTI_IRQHandler+0x34>)
 800120a:	695b      	ldr	r3, [r3, #20]
 800120c:	1dba      	adds	r2, r7, #6
 800120e:	8812      	ldrh	r2, [r2, #0]
 8001210:	4013      	ands	r3, r2
 8001212:	d008      	beq.n	8001226 <HAL_GPIO_EXTI_IRQHandler+0x2a>
  { 
    __HAL_GPIO_EXTI_CLEAR_IT(GPIO_Pin);
 8001214:	4b06      	ldr	r3, [pc, #24]	; (8001230 <HAL_GPIO_EXTI_IRQHandler+0x34>)
 8001216:	1dba      	adds	r2, r7, #6
 8001218:	8812      	ldrh	r2, [r2, #0]
 800121a:	615a      	str	r2, [r3, #20]
    HAL_GPIO_EXTI_Callback(GPIO_Pin);
 800121c:	1dbb      	adds	r3, r7, #6
 800121e:	881b      	ldrh	r3, [r3, #0]
 8001220:	0018      	movs	r0, r3
 8001222:	f000 f807 	bl	8001234 <HAL_GPIO_EXTI_Callback>
  }
}
 8001226:	46c0      	nop			; (mov r8, r8)
 8001228:	46bd      	mov	sp, r7
 800122a:	b002      	add	sp, #8
 800122c:	bd80      	pop	{r7, pc}
 800122e:	46c0      	nop			; (mov r8, r8)
 8001230:	40010400 	.word	0x40010400

08001234 <HAL_GPIO_EXTI_Callback>:
  * @brief  EXTI line detection callback.
  * @param  GPIO_Pin Specifies the port pin connected to corresponding EXTI line.
  * @retval None
  */
__weak void HAL_GPIO_EXTI_Callback(uint16_t GPIO_Pin)
{
 8001234:	b580      	push	{r7, lr}
 8001236:	b082      	sub	sp, #8
 8001238:	af00      	add	r7, sp, #0
 800123a:	0002      	movs	r2, r0
 800123c:	1dbb      	adds	r3, r7, #6
 800123e:	801a      	strh	r2, [r3, #0]
  UNUSED(GPIO_Pin);

  /* NOTE: This function should not be modified, when the callback is needed,
            the HAL_GPIO_EXTI_Callback could be implemented in the user file
   */ 
}
 8001240:	46c0      	nop			; (mov r8, r8)
 8001242:	46bd      	mov	sp, r7
 8001244:	b002      	add	sp, #8
 8001246:	bd80      	pop	{r7, pc}

08001248 <HAL_RCC_OscConfig>:
  *         supported by this macro. User should request a transition to HSE Off
  *         first and then HSE On or HSE Bypass.
  * @retval HAL status
  */
HAL_StatusTypeDef HAL_RCC_OscConfig(RCC_OscInitTypeDef  *RCC_OscInitStruct)
{
 8001248:	b580      	push	{r7, lr}
 800124a:	b088      	sub	sp, #32
 800124c:	af00      	add	r7, sp, #0
 800124e:	6078      	str	r0, [r7, #4]
  uint32_t tickstart;
  uint32_t pll_config;
  uint32_t pll_config2;

  /* Check Null pointer */
  if(RCC_OscInitStruct == NULL)
 8001250:	687b      	ldr	r3, [r7, #4]
 8001252:	2b00      	cmp	r3, #0
 8001254:	d101      	bne.n	800125a <HAL_RCC_OscConfig+0x12>
  {
    return HAL_ERROR;
 8001256:	2301      	movs	r3, #1
 8001258:	e303      	b.n	8001862 <HAL_RCC_OscConfig+0x61a>

  /* Check the parameters */
  assert_param(IS_RCC_OSCILLATORTYPE(RCC_OscInitStruct->OscillatorType));

  /*------------------------------- HSE Configuration ------------------------*/ 
  if(((RCC_OscInitStruct->OscillatorType) & RCC_OSCILLATORTYPE_HSE) == RCC_OSCILLATORTYPE_HSE)
 800125a:	687b      	ldr	r3, [r7, #4]
 800125c:	681b      	ldr	r3, [r3, #0]
 800125e:	2201      	movs	r2, #1
 8001260:	4013      	ands	r3, r2
 8001262:	d100      	bne.n	8001266 <HAL_RCC_OscConfig+0x1e>
 8001264:	e08d      	b.n	8001382 <HAL_RCC_OscConfig+0x13a>
  {
    /* Check the parameters */
    assert_param(IS_RCC_HSE(RCC_OscInitStruct->HSEState));

    /* When the HSE is used as system clock or clock source for PLL in these cases it is not allowed to be disabled */
    if((__HAL_RCC_GET_SYSCLK_SOURCE() == RCC_SYSCLKSOURCE_STATUS_HSE) 
 8001266:	4bc4      	ldr	r3, [pc, #784]	; (8001578 <HAL_RCC_OscConfig+0x330>)
 8001268:	685b      	ldr	r3, [r3, #4]
 800126a:	220c      	movs	r2, #12
 800126c:	4013      	ands	r3, r2
 800126e:	2b04      	cmp	r3, #4
 8001270:	d00e      	beq.n	8001290 <HAL_RCC_OscConfig+0x48>
       || ((__HAL_RCC_GET_SYSCLK_SOURCE() == RCC_SYSCLKSOURCE_STATUS_PLLCLK) && (__HAL_RCC_GET_PLL_OSCSOURCE() == RCC_PLLSOURCE_HSE)))
 8001272:	4bc1      	ldr	r3, [pc, #772]	; (8001578 <HAL_RCC_OscConfig+0x330>)
 8001274:	685b      	ldr	r3, [r3, #4]
 8001276:	220c      	movs	r2, #12
 8001278:	4013      	ands	r3, r2
 800127a:	2b08      	cmp	r3, #8
 800127c:	d116      	bne.n	80012ac <HAL_RCC_OscConfig+0x64>
 800127e:	4bbe      	ldr	r3, [pc, #760]	; (8001578 <HAL_RCC_OscConfig+0x330>)
 8001280:	685a      	ldr	r2, [r3, #4]
 8001282:	2380      	movs	r3, #128	; 0x80
 8001284:	025b      	lsls	r3, r3, #9
 8001286:	401a      	ands	r2, r3
 8001288:	2380      	movs	r3, #128	; 0x80
 800128a:	025b      	lsls	r3, r3, #9
 800128c:	429a      	cmp	r2, r3
 800128e:	d10d      	bne.n	80012ac <HAL_RCC_OscConfig+0x64>
    {
      if((__HAL_RCC_GET_FLAG(RCC_FLAG_HSERDY) != RESET) && (RCC_OscInitStruct->HSEState == RCC_HSE_OFF))
 8001290:	4bb9      	ldr	r3, [pc, #740]	; (8001578 <HAL_RCC_OscConfig+0x330>)
 8001292:	681a      	ldr	r2, [r3, #0]
 8001294:	2380      	movs	r3, #128	; 0x80
 8001296:	029b      	lsls	r3, r3, #10
 8001298:	4013      	ands	r3, r2
 800129a:	d100      	bne.n	800129e <HAL_RCC_OscConfig+0x56>
 800129c:	e070      	b.n	8001380 <HAL_RCC_OscConfig+0x138>
 800129e:	687b      	ldr	r3, [r7, #4]
 80012a0:	685b      	ldr	r3, [r3, #4]
 80012a2:	2b00      	cmp	r3, #0
 80012a4:	d000      	beq.n	80012a8 <HAL_RCC_OscConfig+0x60>
 80012a6:	e06b      	b.n	8001380 <HAL_RCC_OscConfig+0x138>
      {
        return HAL_ERROR;
 80012a8:	2301      	movs	r3, #1
 80012aa:	e2da      	b.n	8001862 <HAL_RCC_OscConfig+0x61a>
      }
    }
    else
    {
      /* Set the new HSE configuration ---------------------------------------*/
      __HAL_RCC_HSE_CONFIG(RCC_OscInitStruct->HSEState);
 80012ac:	687b      	ldr	r3, [r7, #4]
 80012ae:	685b      	ldr	r3, [r3, #4]
 80012b0:	2b01      	cmp	r3, #1
 80012b2:	d107      	bne.n	80012c4 <HAL_RCC_OscConfig+0x7c>
 80012b4:	4bb0      	ldr	r3, [pc, #704]	; (8001578 <HAL_RCC_OscConfig+0x330>)
 80012b6:	681a      	ldr	r2, [r3, #0]
 80012b8:	4baf      	ldr	r3, [pc, #700]	; (8001578 <HAL_RCC_OscConfig+0x330>)
 80012ba:	2180      	movs	r1, #128	; 0x80
 80012bc:	0249      	lsls	r1, r1, #9
 80012be:	430a      	orrs	r2, r1
 80012c0:	601a      	str	r2, [r3, #0]
 80012c2:	e02f      	b.n	8001324 <HAL_RCC_OscConfig+0xdc>
 80012c4:	687b      	ldr	r3, [r7, #4]
 80012c6:	685b      	ldr	r3, [r3, #4]
 80012c8:	2b00      	cmp	r3, #0
 80012ca:	d10c      	bne.n	80012e6 <HAL_RCC_OscConfig+0x9e>
 80012cc:	4baa      	ldr	r3, [pc, #680]	; (8001578 <HAL_RCC_OscConfig+0x330>)
 80012ce:	681a      	ldr	r2, [r3, #0]
 80012d0:	4ba9      	ldr	r3, [pc, #676]	; (8001578 <HAL_RCC_OscConfig+0x330>)
 80012d2:	49aa      	ldr	r1, [pc, #680]	; (800157c <HAL_RCC_OscConfig+0x334>)
 80012d4:	400a      	ands	r2, r1
 80012d6:	601a      	str	r2, [r3, #0]
 80012d8:	4ba7      	ldr	r3, [pc, #668]	; (8001578 <HAL_RCC_OscConfig+0x330>)
 80012da:	681a      	ldr	r2, [r3, #0]
 80012dc:	4ba6      	ldr	r3, [pc, #664]	; (8001578 <HAL_RCC_OscConfig+0x330>)
 80012de:	49a8      	ldr	r1, [pc, #672]	; (8001580 <HAL_RCC_OscConfig+0x338>)
 80012e0:	400a      	ands	r2, r1
 80012e2:	601a      	str	r2, [r3, #0]
 80012e4:	e01e      	b.n	8001324 <HAL_RCC_OscConfig+0xdc>
 80012e6:	687b      	ldr	r3, [r7, #4]
 80012e8:	685b      	ldr	r3, [r3, #4]
 80012ea:	2b05      	cmp	r3, #5
 80012ec:	d10e      	bne.n	800130c <HAL_RCC_OscConfig+0xc4>
 80012ee:	4ba2      	ldr	r3, [pc, #648]	; (8001578 <HAL_RCC_OscConfig+0x330>)
 80012f0:	681a      	ldr	r2, [r3, #0]
 80012f2:	4ba1      	ldr	r3, [pc, #644]	; (8001578 <HAL_RCC_OscConfig+0x330>)
 80012f4:	2180      	movs	r1, #128	; 0x80
 80012f6:	02c9      	lsls	r1, r1, #11
 80012f8:	430a      	orrs	r2, r1
 80012fa:	601a      	str	r2, [r3, #0]
 80012fc:	4b9e      	ldr	r3, [pc, #632]	; (8001578 <HAL_RCC_OscConfig+0x330>)
 80012fe:	681a      	ldr	r2, [r3, #0]
 8001300:	4b9d      	ldr	r3, [pc, #628]	; (8001578 <HAL_RCC_OscConfig+0x330>)
 8001302:	2180      	movs	r1, #128	; 0x80
 8001304:	0249      	lsls	r1, r1, #9
 8001306:	430a      	orrs	r2, r1
 8001308:	601a      	str	r2, [r3, #0]
 800130a:	e00b      	b.n	8001324 <HAL_RCC_OscConfig+0xdc>
 800130c:	4b9a      	ldr	r3, [pc, #616]	; (8001578 <HAL_RCC_OscConfig+0x330>)
 800130e:	681a      	ldr	r2, [r3, #0]
 8001310:	4b99      	ldr	r3, [pc, #612]	; (8001578 <HAL_RCC_OscConfig+0x330>)
 8001312:	499a      	ldr	r1, [pc, #616]	; (800157c <HAL_RCC_OscConfig+0x334>)
 8001314:	400a      	ands	r2, r1
 8001316:	601a      	str	r2, [r3, #0]
 8001318:	4b97      	ldr	r3, [pc, #604]	; (8001578 <HAL_RCC_OscConfig+0x330>)
 800131a:	681a      	ldr	r2, [r3, #0]
 800131c:	4b96      	ldr	r3, [pc, #600]	; (8001578 <HAL_RCC_OscConfig+0x330>)
 800131e:	4998      	ldr	r1, [pc, #608]	; (8001580 <HAL_RCC_OscConfig+0x338>)
 8001320:	400a      	ands	r2, r1
 8001322:	601a      	str	r2, [r3, #0]
      

       /* Check the HSE State */
      if(RCC_OscInitStruct->HSEState != RCC_HSE_OFF)
 8001324:	687b      	ldr	r3, [r7, #4]
 8001326:	685b      	ldr	r3, [r3, #4]
 8001328:	2b00      	cmp	r3, #0
 800132a:	d014      	beq.n	8001356 <HAL_RCC_OscConfig+0x10e>
      {
        /* Get Start Tick */
        tickstart = HAL_GetTick();
 800132c:	f7ff fcd6 	bl	8000cdc <HAL_GetTick>
 8001330:	0003      	movs	r3, r0
 8001332:	61bb      	str	r3, [r7, #24]
        
        /* Wait till HSE is ready */
        while(__HAL_RCC_GET_FLAG(RCC_FLAG_HSERDY) == RESET)
 8001334:	e008      	b.n	8001348 <HAL_RCC_OscConfig+0x100>
        {
          if((HAL_GetTick() - tickstart ) > HSE_TIMEOUT_VALUE)
 8001336:	f7ff fcd1 	bl	8000cdc <HAL_GetTick>
 800133a:	0002      	movs	r2, r0
 800133c:	69bb      	ldr	r3, [r7, #24]
 800133e:	1ad3      	subs	r3, r2, r3
 8001340:	2b64      	cmp	r3, #100	; 0x64
 8001342:	d901      	bls.n	8001348 <HAL_RCC_OscConfig+0x100>
          {
            return HAL_TIMEOUT;
 8001344:	2303      	movs	r3, #3
 8001346:	e28c      	b.n	8001862 <HAL_RCC_OscConfig+0x61a>
        while(__HAL_RCC_GET_FLAG(RCC_FLAG_HSERDY) == RESET)
 8001348:	4b8b      	ldr	r3, [pc, #556]	; (8001578 <HAL_RCC_OscConfig+0x330>)
 800134a:	681a      	ldr	r2, [r3, #0]
 800134c:	2380      	movs	r3, #128	; 0x80
 800134e:	029b      	lsls	r3, r3, #10
 8001350:	4013      	ands	r3, r2
 8001352:	d0f0      	beq.n	8001336 <HAL_RCC_OscConfig+0xee>
 8001354:	e015      	b.n	8001382 <HAL_RCC_OscConfig+0x13a>
        }
      }
      else
      {
        /* Get Start Tick */
        tickstart = HAL_GetTick();
 8001356:	f7ff fcc1 	bl	8000cdc <HAL_GetTick>
 800135a:	0003      	movs	r3, r0
 800135c:	61bb      	str	r3, [r7, #24]
        
        /* Wait till HSE is disabled */
        while(__HAL_RCC_GET_FLAG(RCC_FLAG_HSERDY) != RESET)
 800135e:	e008      	b.n	8001372 <HAL_RCC_OscConfig+0x12a>
        {
           if((HAL_GetTick() - tickstart ) > HSE_TIMEOUT_VALUE)
 8001360:	f7ff fcbc 	bl	8000cdc <HAL_GetTick>
 8001364:	0002      	movs	r2, r0
 8001366:	69bb      	ldr	r3, [r7, #24]
 8001368:	1ad3      	subs	r3, r2, r3
 800136a:	2b64      	cmp	r3, #100	; 0x64
 800136c:	d901      	bls.n	8001372 <HAL_RCC_OscConfig+0x12a>
          {
            return HAL_TIMEOUT;
 800136e:	2303      	movs	r3, #3
 8001370:	e277      	b.n	8001862 <HAL_RCC_OscConfig+0x61a>
        while(__HAL_RCC_GET_FLAG(RCC_FLAG_HSERDY) != RESET)
 8001372:	4b81      	ldr	r3, [pc, #516]	; (8001578 <HAL_RCC_OscConfig+0x330>)
 8001374:	681a      	ldr	r2, [r3, #0]
 8001376:	2380      	movs	r3, #128	; 0x80
 8001378:	029b      	lsls	r3, r3, #10
 800137a:	4013      	ands	r3, r2
 800137c:	d1f0      	bne.n	8001360 <HAL_RCC_OscConfig+0x118>
 800137e:	e000      	b.n	8001382 <HAL_RCC_OscConfig+0x13a>
      if((__HAL_RCC_GET_FLAG(RCC_FLAG_HSERDY) != RESET) && (RCC_OscInitStruct->HSEState == RCC_HSE_OFF))
 8001380:	46c0      	nop			; (mov r8, r8)
        }
      }
    }
  }
  /*----------------------------- HSI Configuration --------------------------*/ 
  if(((RCC_OscInitStruct->OscillatorType) & RCC_OSCILLATORTYPE_HSI) == RCC_OSCILLATORTYPE_HSI)
 8001382:	687b      	ldr	r3, [r7, #4]
 8001384:	681b      	ldr	r3, [r3, #0]
 8001386:	2202      	movs	r2, #2
 8001388:	4013      	ands	r3, r2
 800138a:	d100      	bne.n	800138e <HAL_RCC_OscConfig+0x146>
 800138c:	e069      	b.n	8001462 <HAL_RCC_OscConfig+0x21a>
    /* Check the parameters */
    assert_param(IS_RCC_HSI(RCC_OscInitStruct->HSIState));
    assert_param(IS_RCC_CALIBRATION_VALUE(RCC_OscInitStruct->HSICalibrationValue));
    
    /* Check if HSI is used as system clock or as PLL source when PLL is selected as system clock */ 
    if((__HAL_RCC_GET_SYSCLK_SOURCE() == RCC_SYSCLKSOURCE_STATUS_HSI) 
 800138e:	4b7a      	ldr	r3, [pc, #488]	; (8001578 <HAL_RCC_OscConfig+0x330>)
 8001390:	685b      	ldr	r3, [r3, #4]
 8001392:	220c      	movs	r2, #12
 8001394:	4013      	ands	r3, r2
 8001396:	d00b      	beq.n	80013b0 <HAL_RCC_OscConfig+0x168>
       || ((__HAL_RCC_GET_SYSCLK_SOURCE() == RCC_SYSCLKSOURCE_STATUS_PLLCLK) && (__HAL_RCC_GET_PLL_OSCSOURCE() == RCC_PLLSOURCE_HSI)))
 8001398:	4b77      	ldr	r3, [pc, #476]	; (8001578 <HAL_RCC_OscConfig+0x330>)
 800139a:	685b      	ldr	r3, [r3, #4]
 800139c:	220c      	movs	r2, #12
 800139e:	4013      	ands	r3, r2
 80013a0:	2b08      	cmp	r3, #8
 80013a2:	d11c      	bne.n	80013de <HAL_RCC_OscConfig+0x196>
 80013a4:	4b74      	ldr	r3, [pc, #464]	; (8001578 <HAL_RCC_OscConfig+0x330>)
 80013a6:	685a      	ldr	r2, [r3, #4]
 80013a8:	2380      	movs	r3, #128	; 0x80
 80013aa:	025b      	lsls	r3, r3, #9
 80013ac:	4013      	ands	r3, r2
 80013ae:	d116      	bne.n	80013de <HAL_RCC_OscConfig+0x196>
    {
      /* When HSI is used as system clock it will not disabled */
      if((__HAL_RCC_GET_FLAG(RCC_FLAG_HSIRDY) != RESET) && (RCC_OscInitStruct->HSIState != RCC_HSI_ON))
 80013b0:	4b71      	ldr	r3, [pc, #452]	; (8001578 <HAL_RCC_OscConfig+0x330>)
 80013b2:	681b      	ldr	r3, [r3, #0]
 80013b4:	2202      	movs	r2, #2
 80013b6:	4013      	ands	r3, r2
 80013b8:	d005      	beq.n	80013c6 <HAL_RCC_OscConfig+0x17e>
 80013ba:	687b      	ldr	r3, [r7, #4]
 80013bc:	68db      	ldr	r3, [r3, #12]
 80013be:	2b01      	cmp	r3, #1
 80013c0:	d001      	beq.n	80013c6 <HAL_RCC_OscConfig+0x17e>
      {
        return HAL_ERROR;
 80013c2:	2301      	movs	r3, #1
 80013c4:	e24d      	b.n	8001862 <HAL_RCC_OscConfig+0x61a>
      }
      /* Otherwise, just the calibration is allowed */
      else
      {
        /* Adjusts the Internal High Speed oscillator (HSI) calibration value.*/
        __HAL_RCC_HSI_CALIBRATIONVALUE_ADJUST(RCC_OscInitStruct->HSICalibrationValue);
 80013c6:	4b6c      	ldr	r3, [pc, #432]	; (8001578 <HAL_RCC_OscConfig+0x330>)
 80013c8:	681b      	ldr	r3, [r3, #0]
 80013ca:	22f8      	movs	r2, #248	; 0xf8
 80013cc:	4393      	bics	r3, r2
 80013ce:	0019      	movs	r1, r3
 80013d0:	687b      	ldr	r3, [r7, #4]
 80013d2:	691b      	ldr	r3, [r3, #16]
 80013d4:	00da      	lsls	r2, r3, #3
 80013d6:	4b68      	ldr	r3, [pc, #416]	; (8001578 <HAL_RCC_OscConfig+0x330>)
 80013d8:	430a      	orrs	r2, r1
 80013da:	601a      	str	r2, [r3, #0]
      if((__HAL_RCC_GET_FLAG(RCC_FLAG_HSIRDY) != RESET) && (RCC_OscInitStruct->HSIState != RCC_HSI_ON))
 80013dc:	e041      	b.n	8001462 <HAL_RCC_OscConfig+0x21a>
      }
    }
    else
    {
      /* Check the HSI State */
      if(RCC_OscInitStruct->HSIState != RCC_HSI_OFF)
 80013de:	687b      	ldr	r3, [r7, #4]
 80013e0:	68db      	ldr	r3, [r3, #12]
 80013e2:	2b00      	cmp	r3, #0
 80013e4:	d024      	beq.n	8001430 <HAL_RCC_OscConfig+0x1e8>
      {
       /* Enable the Internal High Speed oscillator (HSI). */
        __HAL_RCC_HSI_ENABLE();
 80013e6:	4b64      	ldr	r3, [pc, #400]	; (8001578 <HAL_RCC_OscConfig+0x330>)
 80013e8:	681a      	ldr	r2, [r3, #0]
 80013ea:	4b63      	ldr	r3, [pc, #396]	; (8001578 <HAL_RCC_OscConfig+0x330>)
 80013ec:	2101      	movs	r1, #1
 80013ee:	430a      	orrs	r2, r1
 80013f0:	601a      	str	r2, [r3, #0]
        
        /* Get Start Tick */
        tickstart = HAL_GetTick();
 80013f2:	f7ff fc73 	bl	8000cdc <HAL_GetTick>
 80013f6:	0003      	movs	r3, r0
 80013f8:	61bb      	str	r3, [r7, #24]
        
        /* Wait till HSI is ready */
        while(__HAL_RCC_GET_FLAG(RCC_FLAG_HSIRDY) == RESET)
 80013fa:	e008      	b.n	800140e <HAL_RCC_OscConfig+0x1c6>
        {
          if((HAL_GetTick() - tickstart ) > HSI_TIMEOUT_VALUE)
 80013fc:	f7ff fc6e 	bl	8000cdc <HAL_GetTick>
 8001400:	0002      	movs	r2, r0
 8001402:	69bb      	ldr	r3, [r7, #24]
 8001404:	1ad3      	subs	r3, r2, r3
 8001406:	2b02      	cmp	r3, #2
 8001408:	d901      	bls.n	800140e <HAL_RCC_OscConfig+0x1c6>
          {
            return HAL_TIMEOUT;
 800140a:	2303      	movs	r3, #3
 800140c:	e229      	b.n	8001862 <HAL_RCC_OscConfig+0x61a>
        while(__HAL_RCC_GET_FLAG(RCC_FLAG_HSIRDY) == RESET)
 800140e:	4b5a      	ldr	r3, [pc, #360]	; (8001578 <HAL_RCC_OscConfig+0x330>)
 8001410:	681b      	ldr	r3, [r3, #0]
 8001412:	2202      	movs	r2, #2
 8001414:	4013      	ands	r3, r2
 8001416:	d0f1      	beq.n	80013fc <HAL_RCC_OscConfig+0x1b4>
          }
        }
                
        /* Adjusts the Internal High Speed oscillator (HSI) calibration value.*/
        __HAL_RCC_HSI_CALIBRATIONVALUE_ADJUST(RCC_OscInitStruct->HSICalibrationValue);
 8001418:	4b57      	ldr	r3, [pc, #348]	; (8001578 <HAL_RCC_OscConfig+0x330>)
 800141a:	681b      	ldr	r3, [r3, #0]
 800141c:	22f8      	movs	r2, #248	; 0xf8
 800141e:	4393      	bics	r3, r2
 8001420:	0019      	movs	r1, r3
 8001422:	687b      	ldr	r3, [r7, #4]
 8001424:	691b      	ldr	r3, [r3, #16]
 8001426:	00da      	lsls	r2, r3, #3
 8001428:	4b53      	ldr	r3, [pc, #332]	; (8001578 <HAL_RCC_OscConfig+0x330>)
 800142a:	430a      	orrs	r2, r1
 800142c:	601a      	str	r2, [r3, #0]
 800142e:	e018      	b.n	8001462 <HAL_RCC_OscConfig+0x21a>
      }
      else
      {
        /* Disable the Internal High Speed oscillator (HSI). */
        __HAL_RCC_HSI_DISABLE();
 8001430:	4b51      	ldr	r3, [pc, #324]	; (8001578 <HAL_RCC_OscConfig+0x330>)
 8001432:	681a      	ldr	r2, [r3, #0]
 8001434:	4b50      	ldr	r3, [pc, #320]	; (8001578 <HAL_RCC_OscConfig+0x330>)
 8001436:	2101      	movs	r1, #1
 8001438:	438a      	bics	r2, r1
 800143a:	601a      	str	r2, [r3, #0]
        
        /* Get Start Tick */
        tickstart = HAL_GetTick();
 800143c:	f7ff fc4e 	bl	8000cdc <HAL_GetTick>
 8001440:	0003      	movs	r3, r0
 8001442:	61bb      	str	r3, [r7, #24]
        
        /* Wait till HSI is disabled */
        while(__HAL_RCC_GET_FLAG(RCC_FLAG_HSIRDY) != RESET)
 8001444:	e008      	b.n	8001458 <HAL_RCC_OscConfig+0x210>
        {
          if((HAL_GetTick() - tickstart ) > HSI_TIMEOUT_VALUE)
 8001446:	f7ff fc49 	bl	8000cdc <HAL_GetTick>
 800144a:	0002      	movs	r2, r0
 800144c:	69bb      	ldr	r3, [r7, #24]
 800144e:	1ad3      	subs	r3, r2, r3
 8001450:	2b02      	cmp	r3, #2
 8001452:	d901      	bls.n	8001458 <HAL_RCC_OscConfig+0x210>
          {
            return HAL_TIMEOUT;
 8001454:	2303      	movs	r3, #3
 8001456:	e204      	b.n	8001862 <HAL_RCC_OscConfig+0x61a>
        while(__HAL_RCC_GET_FLAG(RCC_FLAG_HSIRDY) != RESET)
 8001458:	4b47      	ldr	r3, [pc, #284]	; (8001578 <HAL_RCC_OscConfig+0x330>)
 800145a:	681b      	ldr	r3, [r3, #0]
 800145c:	2202      	movs	r2, #2
 800145e:	4013      	ands	r3, r2
 8001460:	d1f1      	bne.n	8001446 <HAL_RCC_OscConfig+0x1fe>
        }
      }
    }
  }
  /*------------------------------ LSI Configuration -------------------------*/ 
  if(((RCC_OscInitStruct->OscillatorType) & RCC_OSCILLATORTYPE_LSI) == RCC_OSCILLATORTYPE_LSI)
 8001462:	687b      	ldr	r3, [r7, #4]
 8001464:	681b      	ldr	r3, [r3, #0]
 8001466:	2208      	movs	r2, #8
 8001468:	4013      	ands	r3, r2
 800146a:	d036      	beq.n	80014da <HAL_RCC_OscConfig+0x292>
  {
    /* Check the parameters */
    assert_param(IS_RCC_LSI(RCC_OscInitStruct->LSIState));
    
    /* Check the LSI State */
    if(RCC_OscInitStruct->LSIState != RCC_LSI_OFF)
 800146c:	687b      	ldr	r3, [r7, #4]
 800146e:	69db      	ldr	r3, [r3, #28]
 8001470:	2b00      	cmp	r3, #0
 8001472:	d019      	beq.n	80014a8 <HAL_RCC_OscConfig+0x260>
    {
      /* Enable the Internal Low Speed oscillator (LSI). */
      __HAL_RCC_LSI_ENABLE();
 8001474:	4b40      	ldr	r3, [pc, #256]	; (8001578 <HAL_RCC_OscConfig+0x330>)
 8001476:	6a5a      	ldr	r2, [r3, #36]	; 0x24
 8001478:	4b3f      	ldr	r3, [pc, #252]	; (8001578 <HAL_RCC_OscConfig+0x330>)
 800147a:	2101      	movs	r1, #1
 800147c:	430a      	orrs	r2, r1
 800147e:	625a      	str	r2, [r3, #36]	; 0x24
      
      /* Get Start Tick */
      tickstart = HAL_GetTick();
 8001480:	f7ff fc2c 	bl	8000cdc <HAL_GetTick>
 8001484:	0003      	movs	r3, r0
 8001486:	61bb      	str	r3, [r7, #24]
      
      /* Wait till LSI is ready */  
      while(__HAL_RCC_GET_FLAG(RCC_FLAG_LSIRDY) == RESET)
 8001488:	e008      	b.n	800149c <HAL_RCC_OscConfig+0x254>
      {
        if((HAL_GetTick() - tickstart ) > LSI_TIMEOUT_VALUE)
 800148a:	f7ff fc27 	bl	8000cdc <HAL_GetTick>
 800148e:	0002      	movs	r2, r0
 8001490:	69bb      	ldr	r3, [r7, #24]
 8001492:	1ad3      	subs	r3, r2, r3
 8001494:	2b02      	cmp	r3, #2
 8001496:	d901      	bls.n	800149c <HAL_RCC_OscConfig+0x254>
        {
          return HAL_TIMEOUT;
 8001498:	2303      	movs	r3, #3
 800149a:	e1e2      	b.n	8001862 <HAL_RCC_OscConfig+0x61a>
      while(__HAL_RCC_GET_FLAG(RCC_FLAG_LSIRDY) == RESET)
 800149c:	4b36      	ldr	r3, [pc, #216]	; (8001578 <HAL_RCC_OscConfig+0x330>)
 800149e:	6a5b      	ldr	r3, [r3, #36]	; 0x24
 80014a0:	2202      	movs	r2, #2
 80014a2:	4013      	ands	r3, r2
 80014a4:	d0f1      	beq.n	800148a <HAL_RCC_OscConfig+0x242>
 80014a6:	e018      	b.n	80014da <HAL_RCC_OscConfig+0x292>
      }
    }
    else
    {
      /* Disable the Internal Low Speed oscillator (LSI). */
      __HAL_RCC_LSI_DISABLE();
 80014a8:	4b33      	ldr	r3, [pc, #204]	; (8001578 <HAL_RCC_OscConfig+0x330>)
 80014aa:	6a5a      	ldr	r2, [r3, #36]	; 0x24
 80014ac:	4b32      	ldr	r3, [pc, #200]	; (8001578 <HAL_RCC_OscConfig+0x330>)
 80014ae:	2101      	movs	r1, #1
 80014b0:	438a      	bics	r2, r1
 80014b2:	625a      	str	r2, [r3, #36]	; 0x24
      
      /* Get Start Tick */
      tickstart = HAL_GetTick();
 80014b4:	f7ff fc12 	bl	8000cdc <HAL_GetTick>
 80014b8:	0003      	movs	r3, r0
 80014ba:	61bb      	str	r3, [r7, #24]
      
      /* Wait till LSI is disabled */  
      while(__HAL_RCC_GET_FLAG(RCC_FLAG_LSIRDY) != RESET)
 80014bc:	e008      	b.n	80014d0 <HAL_RCC_OscConfig+0x288>
      {
        if((HAL_GetTick() - tickstart ) > LSI_TIMEOUT_VALUE)
 80014be:	f7ff fc0d 	bl	8000cdc <HAL_GetTick>
 80014c2:	0002      	movs	r2, r0
 80014c4:	69bb      	ldr	r3, [r7, #24]
 80014c6:	1ad3      	subs	r3, r2, r3
 80014c8:	2b02      	cmp	r3, #2
 80014ca:	d901      	bls.n	80014d0 <HAL_RCC_OscConfig+0x288>
        {
          return HAL_TIMEOUT;
 80014cc:	2303      	movs	r3, #3
 80014ce:	e1c8      	b.n	8001862 <HAL_RCC_OscConfig+0x61a>
      while(__HAL_RCC_GET_FLAG(RCC_FLAG_LSIRDY) != RESET)
 80014d0:	4b29      	ldr	r3, [pc, #164]	; (8001578 <HAL_RCC_OscConfig+0x330>)
 80014d2:	6a5b      	ldr	r3, [r3, #36]	; 0x24
 80014d4:	2202      	movs	r2, #2
 80014d6:	4013      	ands	r3, r2
 80014d8:	d1f1      	bne.n	80014be <HAL_RCC_OscConfig+0x276>
        }
      }
    }
  }
  /*------------------------------ LSE Configuration -------------------------*/ 
  if(((RCC_OscInitStruct->OscillatorType) & RCC_OSCILLATORTYPE_LSE) == RCC_OSCILLATORTYPE_LSE)
 80014da:	687b      	ldr	r3, [r7, #4]
 80014dc:	681b      	ldr	r3, [r3, #0]
 80014de:	2204      	movs	r2, #4
 80014e0:	4013      	ands	r3, r2
 80014e2:	d100      	bne.n	80014e6 <HAL_RCC_OscConfig+0x29e>
 80014e4:	e0b6      	b.n	8001654 <HAL_RCC_OscConfig+0x40c>
  {
    FlagStatus       pwrclkchanged = RESET;
 80014e6:	231f      	movs	r3, #31
 80014e8:	18fb      	adds	r3, r7, r3
 80014ea:	2200      	movs	r2, #0
 80014ec:	701a      	strb	r2, [r3, #0]
    /* Check the parameters */
    assert_param(IS_RCC_LSE(RCC_OscInitStruct->LSEState));

    /* Update LSE configuration in Backup Domain control register    */
    /* Requires to enable write access to Backup Domain of necessary */
    if(__HAL_RCC_PWR_IS_CLK_DISABLED())
 80014ee:	4b22      	ldr	r3, [pc, #136]	; (8001578 <HAL_RCC_OscConfig+0x330>)
 80014f0:	69da      	ldr	r2, [r3, #28]
 80014f2:	2380      	movs	r3, #128	; 0x80
 80014f4:	055b      	lsls	r3, r3, #21
 80014f6:	4013      	ands	r3, r2
 80014f8:	d111      	bne.n	800151e <HAL_RCC_OscConfig+0x2d6>
    {
      __HAL_RCC_PWR_CLK_ENABLE();
 80014fa:	4b1f      	ldr	r3, [pc, #124]	; (8001578 <HAL_RCC_OscConfig+0x330>)
 80014fc:	69da      	ldr	r2, [r3, #28]
 80014fe:	4b1e      	ldr	r3, [pc, #120]	; (8001578 <HAL_RCC_OscConfig+0x330>)
 8001500:	2180      	movs	r1, #128	; 0x80
 8001502:	0549      	lsls	r1, r1, #21
 8001504:	430a      	orrs	r2, r1
 8001506:	61da      	str	r2, [r3, #28]
 8001508:	4b1b      	ldr	r3, [pc, #108]	; (8001578 <HAL_RCC_OscConfig+0x330>)
 800150a:	69da      	ldr	r2, [r3, #28]
 800150c:	2380      	movs	r3, #128	; 0x80
 800150e:	055b      	lsls	r3, r3, #21
 8001510:	4013      	ands	r3, r2
 8001512:	60fb      	str	r3, [r7, #12]
 8001514:	68fb      	ldr	r3, [r7, #12]
      pwrclkchanged = SET;
 8001516:	231f      	movs	r3, #31
 8001518:	18fb      	adds	r3, r7, r3
 800151a:	2201      	movs	r2, #1
 800151c:	701a      	strb	r2, [r3, #0]
    }
    
    if(HAL_IS_BIT_CLR(PWR->CR, PWR_CR_DBP))
 800151e:	4b19      	ldr	r3, [pc, #100]	; (8001584 <HAL_RCC_OscConfig+0x33c>)
 8001520:	681a      	ldr	r2, [r3, #0]
 8001522:	2380      	movs	r3, #128	; 0x80
 8001524:	005b      	lsls	r3, r3, #1
 8001526:	4013      	ands	r3, r2
 8001528:	d11a      	bne.n	8001560 <HAL_RCC_OscConfig+0x318>
    {
      /* Enable write access to Backup domain */
      SET_BIT(PWR->CR, PWR_CR_DBP);
 800152a:	4b16      	ldr	r3, [pc, #88]	; (8001584 <HAL_RCC_OscConfig+0x33c>)
 800152c:	681a      	ldr	r2, [r3, #0]
 800152e:	4b15      	ldr	r3, [pc, #84]	; (8001584 <HAL_RCC_OscConfig+0x33c>)
 8001530:	2180      	movs	r1, #128	; 0x80
 8001532:	0049      	lsls	r1, r1, #1
 8001534:	430a      	orrs	r2, r1
 8001536:	601a      	str	r2, [r3, #0]
      
      /* Wait for Backup domain Write protection disable */
      tickstart = HAL_GetTick();
 8001538:	f7ff fbd0 	bl	8000cdc <HAL_GetTick>
 800153c:	0003      	movs	r3, r0
 800153e:	61bb      	str	r3, [r7, #24]

      while(HAL_IS_BIT_CLR(PWR->CR, PWR_CR_DBP))
 8001540:	e008      	b.n	8001554 <HAL_RCC_OscConfig+0x30c>
      {
        if((HAL_GetTick() - tickstart) > RCC_DBP_TIMEOUT_VALUE)
 8001542:	f7ff fbcb 	bl	8000cdc <HAL_GetTick>
 8001546:	0002      	movs	r2, r0
 8001548:	69bb      	ldr	r3, [r7, #24]
 800154a:	1ad3      	subs	r3, r2, r3
 800154c:	2b64      	cmp	r3, #100	; 0x64
 800154e:	d901      	bls.n	8001554 <HAL_RCC_OscConfig+0x30c>
        {
          return HAL_TIMEOUT;
 8001550:	2303      	movs	r3, #3
 8001552:	e186      	b.n	8001862 <HAL_RCC_OscConfig+0x61a>
      while(HAL_IS_BIT_CLR(PWR->CR, PWR_CR_DBP))
 8001554:	4b0b      	ldr	r3, [pc, #44]	; (8001584 <HAL_RCC_OscConfig+0x33c>)
 8001556:	681a      	ldr	r2, [r3, #0]
 8001558:	2380      	movs	r3, #128	; 0x80
 800155a:	005b      	lsls	r3, r3, #1
 800155c:	4013      	ands	r3, r2
 800155e:	d0f0      	beq.n	8001542 <HAL_RCC_OscConfig+0x2fa>
        }
      }
    }

    /* Set the new LSE configuration -----------------------------------------*/
    __HAL_RCC_LSE_CONFIG(RCC_OscInitStruct->LSEState);
 8001560:	687b      	ldr	r3, [r7, #4]
 8001562:	689b      	ldr	r3, [r3, #8]
 8001564:	2b01      	cmp	r3, #1
 8001566:	d10f      	bne.n	8001588 <HAL_RCC_OscConfig+0x340>
 8001568:	4b03      	ldr	r3, [pc, #12]	; (8001578 <HAL_RCC_OscConfig+0x330>)
 800156a:	6a1a      	ldr	r2, [r3, #32]
 800156c:	4b02      	ldr	r3, [pc, #8]	; (8001578 <HAL_RCC_OscConfig+0x330>)
 800156e:	2101      	movs	r1, #1
 8001570:	430a      	orrs	r2, r1
 8001572:	621a      	str	r2, [r3, #32]
 8001574:	e036      	b.n	80015e4 <HAL_RCC_OscConfig+0x39c>
 8001576:	46c0      	nop			; (mov r8, r8)
 8001578:	40021000 	.word	0x40021000
 800157c:	fffeffff 	.word	0xfffeffff
 8001580:	fffbffff 	.word	0xfffbffff
 8001584:	40007000 	.word	0x40007000
 8001588:	687b      	ldr	r3, [r7, #4]
 800158a:	689b      	ldr	r3, [r3, #8]
 800158c:	2b00      	cmp	r3, #0
 800158e:	d10c      	bne.n	80015aa <HAL_RCC_OscConfig+0x362>
 8001590:	4bb6      	ldr	r3, [pc, #728]	; (800186c <HAL_RCC_OscConfig+0x624>)
 8001592:	6a1a      	ldr	r2, [r3, #32]
 8001594:	4bb5      	ldr	r3, [pc, #724]	; (800186c <HAL_RCC_OscConfig+0x624>)
 8001596:	2101      	movs	r1, #1
 8001598:	438a      	bics	r2, r1
 800159a:	621a      	str	r2, [r3, #32]
 800159c:	4bb3      	ldr	r3, [pc, #716]	; (800186c <HAL_RCC_OscConfig+0x624>)
 800159e:	6a1a      	ldr	r2, [r3, #32]
 80015a0:	4bb2      	ldr	r3, [pc, #712]	; (800186c <HAL_RCC_OscConfig+0x624>)
 80015a2:	2104      	movs	r1, #4
 80015a4:	438a      	bics	r2, r1
 80015a6:	621a      	str	r2, [r3, #32]
 80015a8:	e01c      	b.n	80015e4 <HAL_RCC_OscConfig+0x39c>
 80015aa:	687b      	ldr	r3, [r7, #4]
 80015ac:	689b      	ldr	r3, [r3, #8]
 80015ae:	2b05      	cmp	r3, #5
 80015b0:	d10c      	bne.n	80015cc <HAL_RCC_OscConfig+0x384>
 80015b2:	4bae      	ldr	r3, [pc, #696]	; (800186c <HAL_RCC_OscConfig+0x624>)
 80015b4:	6a1a      	ldr	r2, [r3, #32]
 80015b6:	4bad      	ldr	r3, [pc, #692]	; (800186c <HAL_RCC_OscConfig+0x624>)
 80015b8:	2104      	movs	r1, #4
 80015ba:	430a      	orrs	r2, r1
 80015bc:	621a      	str	r2, [r3, #32]
 80015be:	4bab      	ldr	r3, [pc, #684]	; (800186c <HAL_RCC_OscConfig+0x624>)
 80015c0:	6a1a      	ldr	r2, [r3, #32]
 80015c2:	4baa      	ldr	r3, [pc, #680]	; (800186c <HAL_RCC_OscConfig+0x624>)
 80015c4:	2101      	movs	r1, #1
 80015c6:	430a      	orrs	r2, r1
 80015c8:	621a      	str	r2, [r3, #32]
 80015ca:	e00b      	b.n	80015e4 <HAL_RCC_OscConfig+0x39c>
 80015cc:	4ba7      	ldr	r3, [pc, #668]	; (800186c <HAL_RCC_OscConfig+0x624>)
 80015ce:	6a1a      	ldr	r2, [r3, #32]
 80015d0:	4ba6      	ldr	r3, [pc, #664]	; (800186c <HAL_RCC_OscConfig+0x624>)
 80015d2:	2101      	movs	r1, #1
 80015d4:	438a      	bics	r2, r1
 80015d6:	621a      	str	r2, [r3, #32]
 80015d8:	4ba4      	ldr	r3, [pc, #656]	; (800186c <HAL_RCC_OscConfig+0x624>)
 80015da:	6a1a      	ldr	r2, [r3, #32]
 80015dc:	4ba3      	ldr	r3, [pc, #652]	; (800186c <HAL_RCC_OscConfig+0x624>)
 80015de:	2104      	movs	r1, #4
 80015e0:	438a      	bics	r2, r1
 80015e2:	621a      	str	r2, [r3, #32]
    /* Check the LSE State */
    if(RCC_OscInitStruct->LSEState != RCC_LSE_OFF)
 80015e4:	687b      	ldr	r3, [r7, #4]
 80015e6:	689b      	ldr	r3, [r3, #8]
 80015e8:	2b00      	cmp	r3, #0
 80015ea:	d014      	beq.n	8001616 <HAL_RCC_OscConfig+0x3ce>
    {
      /* Get Start Tick */
      tickstart = HAL_GetTick();
 80015ec:	f7ff fb76 	bl	8000cdc <HAL_GetTick>
 80015f0:	0003      	movs	r3, r0
 80015f2:	61bb      	str	r3, [r7, #24]
      
      /* Wait till LSE is ready */  
      while(__HAL_RCC_GET_FLAG(RCC_FLAG_LSERDY) == RESET)
 80015f4:	e009      	b.n	800160a <HAL_RCC_OscConfig+0x3c2>
      {
        if((HAL_GetTick() - tickstart ) > RCC_LSE_TIMEOUT_VALUE)
 80015f6:	f7ff fb71 	bl	8000cdc <HAL_GetTick>
 80015fa:	0002      	movs	r2, r0
 80015fc:	69bb      	ldr	r3, [r7, #24]
 80015fe:	1ad3      	subs	r3, r2, r3
 8001600:	4a9b      	ldr	r2, [pc, #620]	; (8001870 <HAL_RCC_OscConfig+0x628>)
 8001602:	4293      	cmp	r3, r2
 8001604:	d901      	bls.n	800160a <HAL_RCC_OscConfig+0x3c2>
        {
          return HAL_TIMEOUT;
 8001606:	2303      	movs	r3, #3
 8001608:	e12b      	b.n	8001862 <HAL_RCC_OscConfig+0x61a>
      while(__HAL_RCC_GET_FLAG(RCC_FLAG_LSERDY) == RESET)
 800160a:	4b98      	ldr	r3, [pc, #608]	; (800186c <HAL_RCC_OscConfig+0x624>)
 800160c:	6a1b      	ldr	r3, [r3, #32]
 800160e:	2202      	movs	r2, #2
 8001610:	4013      	ands	r3, r2
 8001612:	d0f0      	beq.n	80015f6 <HAL_RCC_OscConfig+0x3ae>
 8001614:	e013      	b.n	800163e <HAL_RCC_OscConfig+0x3f6>
      }
    }
    else
    {
      /* Get Start Tick */
      tickstart = HAL_GetTick();
 8001616:	f7ff fb61 	bl	8000cdc <HAL_GetTick>
 800161a:	0003      	movs	r3, r0
 800161c:	61bb      	str	r3, [r7, #24]
      
      /* Wait till LSE is disabled */  
      while(__HAL_RCC_GET_FLAG(RCC_FLAG_LSERDY) != RESET)
 800161e:	e009      	b.n	8001634 <HAL_RCC_OscConfig+0x3ec>
      {
        if((HAL_GetTick() - tickstart ) > RCC_LSE_TIMEOUT_VALUE)
 8001620:	f7ff fb5c 	bl	8000cdc <HAL_GetTick>
 8001624:	0002      	movs	r2, r0
 8001626:	69bb      	ldr	r3, [r7, #24]
 8001628:	1ad3      	subs	r3, r2, r3
 800162a:	4a91      	ldr	r2, [pc, #580]	; (8001870 <HAL_RCC_OscConfig+0x628>)
 800162c:	4293      	cmp	r3, r2
 800162e:	d901      	bls.n	8001634 <HAL_RCC_OscConfig+0x3ec>
        {
          return HAL_TIMEOUT;
 8001630:	2303      	movs	r3, #3
 8001632:	e116      	b.n	8001862 <HAL_RCC_OscConfig+0x61a>
      while(__HAL_RCC_GET_FLAG(RCC_FLAG_LSERDY) != RESET)
 8001634:	4b8d      	ldr	r3, [pc, #564]	; (800186c <HAL_RCC_OscConfig+0x624>)
 8001636:	6a1b      	ldr	r3, [r3, #32]
 8001638:	2202      	movs	r2, #2
 800163a:	4013      	ands	r3, r2
 800163c:	d1f0      	bne.n	8001620 <HAL_RCC_OscConfig+0x3d8>
        }
      }
    }

    /* Require to disable power clock if necessary */
    if(pwrclkchanged == SET)
 800163e:	231f      	movs	r3, #31
 8001640:	18fb      	adds	r3, r7, r3
 8001642:	781b      	ldrb	r3, [r3, #0]
 8001644:	2b01      	cmp	r3, #1
 8001646:	d105      	bne.n	8001654 <HAL_RCC_OscConfig+0x40c>
    {
      __HAL_RCC_PWR_CLK_DISABLE();
 8001648:	4b88      	ldr	r3, [pc, #544]	; (800186c <HAL_RCC_OscConfig+0x624>)
 800164a:	69da      	ldr	r2, [r3, #28]
 800164c:	4b87      	ldr	r3, [pc, #540]	; (800186c <HAL_RCC_OscConfig+0x624>)
 800164e:	4989      	ldr	r1, [pc, #548]	; (8001874 <HAL_RCC_OscConfig+0x62c>)
 8001650:	400a      	ands	r2, r1
 8001652:	61da      	str	r2, [r3, #28]
    }
  }

  /*----------------------------- HSI14 Configuration --------------------------*/
  if(((RCC_OscInitStruct->OscillatorType) & RCC_OSCILLATORTYPE_HSI14) == RCC_OSCILLATORTYPE_HSI14)
 8001654:	687b      	ldr	r3, [r7, #4]
 8001656:	681b      	ldr	r3, [r3, #0]
 8001658:	2210      	movs	r2, #16
 800165a:	4013      	ands	r3, r2
 800165c:	d063      	beq.n	8001726 <HAL_RCC_OscConfig+0x4de>
    /* Check the parameters */
    assert_param(IS_RCC_HSI14(RCC_OscInitStruct->HSI14State));
    assert_param(IS_RCC_CALIBRATION_VALUE(RCC_OscInitStruct->HSI14CalibrationValue));

    /* Check the HSI14 State */
    if(RCC_OscInitStruct->HSI14State == RCC_HSI14_ON)
 800165e:	687b      	ldr	r3, [r7, #4]
 8001660:	695b      	ldr	r3, [r3, #20]
 8001662:	2b01      	cmp	r3, #1
 8001664:	d12a      	bne.n	80016bc <HAL_RCC_OscConfig+0x474>
    {
      /* Disable ADC control of the Internal High Speed oscillator HSI14 */
      __HAL_RCC_HSI14ADC_DISABLE();
 8001666:	4b81      	ldr	r3, [pc, #516]	; (800186c <HAL_RCC_OscConfig+0x624>)
 8001668:	6b5a      	ldr	r2, [r3, #52]	; 0x34
 800166a:	4b80      	ldr	r3, [pc, #512]	; (800186c <HAL_RCC_OscConfig+0x624>)
 800166c:	2104      	movs	r1, #4
 800166e:	430a      	orrs	r2, r1
 8001670:	635a      	str	r2, [r3, #52]	; 0x34

      /* Enable the Internal High Speed oscillator (HSI). */
      __HAL_RCC_HSI14_ENABLE();
 8001672:	4b7e      	ldr	r3, [pc, #504]	; (800186c <HAL_RCC_OscConfig+0x624>)
 8001674:	6b5a      	ldr	r2, [r3, #52]	; 0x34
 8001676:	4b7d      	ldr	r3, [pc, #500]	; (800186c <HAL_RCC_OscConfig+0x624>)
 8001678:	2101      	movs	r1, #1
 800167a:	430a      	orrs	r2, r1
 800167c:	635a      	str	r2, [r3, #52]	; 0x34

      /* Get Start Tick */
      tickstart = HAL_GetTick();
 800167e:	f7ff fb2d 	bl	8000cdc <HAL_GetTick>
 8001682:	0003      	movs	r3, r0
 8001684:	61bb      	str	r3, [r7, #24]
      
      /* Wait till HSI is ready */  
      while(__HAL_RCC_GET_FLAG(RCC_FLAG_HSI14RDY) == RESET)
 8001686:	e008      	b.n	800169a <HAL_RCC_OscConfig+0x452>
      {
        if((HAL_GetTick() - tickstart) > HSI14_TIMEOUT_VALUE)
 8001688:	f7ff fb28 	bl	8000cdc <HAL_GetTick>
 800168c:	0002      	movs	r2, r0
 800168e:	69bb      	ldr	r3, [r7, #24]
 8001690:	1ad3      	subs	r3, r2, r3
 8001692:	2b02      	cmp	r3, #2
 8001694:	d901      	bls.n	800169a <HAL_RCC_OscConfig+0x452>
        {
          return HAL_TIMEOUT;
 8001696:	2303      	movs	r3, #3
 8001698:	e0e3      	b.n	8001862 <HAL_RCC_OscConfig+0x61a>
      while(__HAL_RCC_GET_FLAG(RCC_FLAG_HSI14RDY) == RESET)
 800169a:	4b74      	ldr	r3, [pc, #464]	; (800186c <HAL_RCC_OscConfig+0x624>)
 800169c:	6b5b      	ldr	r3, [r3, #52]	; 0x34
 800169e:	2202      	movs	r2, #2
 80016a0:	4013      	ands	r3, r2
 80016a2:	d0f1      	beq.n	8001688 <HAL_RCC_OscConfig+0x440>
        }      
      } 

      /* Adjusts the Internal High Speed oscillator 14Mhz (HSI14) calibration value. */
      __HAL_RCC_HSI14_CALIBRATIONVALUE_ADJUST(RCC_OscInitStruct->HSI14CalibrationValue);
 80016a4:	4b71      	ldr	r3, [pc, #452]	; (800186c <HAL_RCC_OscConfig+0x624>)
 80016a6:	6b5b      	ldr	r3, [r3, #52]	; 0x34
 80016a8:	22f8      	movs	r2, #248	; 0xf8
 80016aa:	4393      	bics	r3, r2
 80016ac:	0019      	movs	r1, r3
 80016ae:	687b      	ldr	r3, [r7, #4]
 80016b0:	699b      	ldr	r3, [r3, #24]
 80016b2:	00da      	lsls	r2, r3, #3
 80016b4:	4b6d      	ldr	r3, [pc, #436]	; (800186c <HAL_RCC_OscConfig+0x624>)
 80016b6:	430a      	orrs	r2, r1
 80016b8:	635a      	str	r2, [r3, #52]	; 0x34
 80016ba:	e034      	b.n	8001726 <HAL_RCC_OscConfig+0x4de>
    }
    else if(RCC_OscInitStruct->HSI14State == RCC_HSI14_ADC_CONTROL)
 80016bc:	687b      	ldr	r3, [r7, #4]
 80016be:	695b      	ldr	r3, [r3, #20]
 80016c0:	3305      	adds	r3, #5
 80016c2:	d111      	bne.n	80016e8 <HAL_RCC_OscConfig+0x4a0>
    {
      /* Enable ADC control of the Internal High Speed oscillator HSI14 */
      __HAL_RCC_HSI14ADC_ENABLE();
 80016c4:	4b69      	ldr	r3, [pc, #420]	; (800186c <HAL_RCC_OscConfig+0x624>)
 80016c6:	6b5a      	ldr	r2, [r3, #52]	; 0x34
 80016c8:	4b68      	ldr	r3, [pc, #416]	; (800186c <HAL_RCC_OscConfig+0x624>)
 80016ca:	2104      	movs	r1, #4
 80016cc:	438a      	bics	r2, r1
 80016ce:	635a      	str	r2, [r3, #52]	; 0x34

      /* Adjusts the Internal High Speed oscillator 14Mhz (HSI14) calibration value. */
      __HAL_RCC_HSI14_CALIBRATIONVALUE_ADJUST(RCC_OscInitStruct->HSI14CalibrationValue);
 80016d0:	4b66      	ldr	r3, [pc, #408]	; (800186c <HAL_RCC_OscConfig+0x624>)
 80016d2:	6b5b      	ldr	r3, [r3, #52]	; 0x34
 80016d4:	22f8      	movs	r2, #248	; 0xf8
 80016d6:	4393      	bics	r3, r2
 80016d8:	0019      	movs	r1, r3
 80016da:	687b      	ldr	r3, [r7, #4]
 80016dc:	699b      	ldr	r3, [r3, #24]
 80016de:	00da      	lsls	r2, r3, #3
 80016e0:	4b62      	ldr	r3, [pc, #392]	; (800186c <HAL_RCC_OscConfig+0x624>)
 80016e2:	430a      	orrs	r2, r1
 80016e4:	635a      	str	r2, [r3, #52]	; 0x34
 80016e6:	e01e      	b.n	8001726 <HAL_RCC_OscConfig+0x4de>
    }
    else
    {
      /* Disable ADC control of the Internal High Speed oscillator HSI14 */
      __HAL_RCC_HSI14ADC_DISABLE();
 80016e8:	4b60      	ldr	r3, [pc, #384]	; (800186c <HAL_RCC_OscConfig+0x624>)
 80016ea:	6b5a      	ldr	r2, [r3, #52]	; 0x34
 80016ec:	4b5f      	ldr	r3, [pc, #380]	; (800186c <HAL_RCC_OscConfig+0x624>)
 80016ee:	2104      	movs	r1, #4
 80016f0:	430a      	orrs	r2, r1
 80016f2:	635a      	str	r2, [r3, #52]	; 0x34

      /* Disable the Internal High Speed oscillator (HSI). */
      __HAL_RCC_HSI14_DISABLE();
 80016f4:	4b5d      	ldr	r3, [pc, #372]	; (800186c <HAL_RCC_OscConfig+0x624>)
 80016f6:	6b5a      	ldr	r2, [r3, #52]	; 0x34
 80016f8:	4b5c      	ldr	r3, [pc, #368]	; (800186c <HAL_RCC_OscConfig+0x624>)
 80016fa:	2101      	movs	r1, #1
 80016fc:	438a      	bics	r2, r1
 80016fe:	635a      	str	r2, [r3, #52]	; 0x34

      /* Get Start Tick */
      tickstart = HAL_GetTick();
 8001700:	f7ff faec 	bl	8000cdc <HAL_GetTick>
 8001704:	0003      	movs	r3, r0
 8001706:	61bb      	str	r3, [r7, #24]
      
      /* Wait till HSI is ready */  
      while(__HAL_RCC_GET_FLAG(RCC_FLAG_HSI14RDY) != RESET)
 8001708:	e008      	b.n	800171c <HAL_RCC_OscConfig+0x4d4>
      {
        if((HAL_GetTick() - tickstart) > HSI14_TIMEOUT_VALUE)
 800170a:	f7ff fae7 	bl	8000cdc <HAL_GetTick>
 800170e:	0002      	movs	r2, r0
 8001710:	69bb      	ldr	r3, [r7, #24]
 8001712:	1ad3      	subs	r3, r2, r3
 8001714:	2b02      	cmp	r3, #2
 8001716:	d901      	bls.n	800171c <HAL_RCC_OscConfig+0x4d4>
        {
          return HAL_TIMEOUT;
 8001718:	2303      	movs	r3, #3
 800171a:	e0a2      	b.n	8001862 <HAL_RCC_OscConfig+0x61a>
      while(__HAL_RCC_GET_FLAG(RCC_FLAG_HSI14RDY) != RESET)
 800171c:	4b53      	ldr	r3, [pc, #332]	; (800186c <HAL_RCC_OscConfig+0x624>)
 800171e:	6b5b      	ldr	r3, [r3, #52]	; 0x34
 8001720:	2202      	movs	r2, #2
 8001722:	4013      	ands	r3, r2
 8001724:	d1f1      	bne.n	800170a <HAL_RCC_OscConfig+0x4c2>
#endif /* RCC_HSI48_SUPPORT */
       
  /*-------------------------------- PLL Configuration -----------------------*/
  /* Check the parameters */
  assert_param(IS_RCC_PLL(RCC_OscInitStruct->PLL.PLLState));
  if ((RCC_OscInitStruct->PLL.PLLState) != RCC_PLL_NONE)
 8001726:	687b      	ldr	r3, [r7, #4]
 8001728:	6a1b      	ldr	r3, [r3, #32]
 800172a:	2b00      	cmp	r3, #0
 800172c:	d100      	bne.n	8001730 <HAL_RCC_OscConfig+0x4e8>
 800172e:	e097      	b.n	8001860 <HAL_RCC_OscConfig+0x618>
  {
    /* Check if the PLL is used as system clock or not */
    if(__HAL_RCC_GET_SYSCLK_SOURCE() != RCC_SYSCLKSOURCE_STATUS_PLLCLK)
 8001730:	4b4e      	ldr	r3, [pc, #312]	; (800186c <HAL_RCC_OscConfig+0x624>)
 8001732:	685b      	ldr	r3, [r3, #4]
 8001734:	220c      	movs	r2, #12
 8001736:	4013      	ands	r3, r2
 8001738:	2b08      	cmp	r3, #8
 800173a:	d100      	bne.n	800173e <HAL_RCC_OscConfig+0x4f6>
 800173c:	e06b      	b.n	8001816 <HAL_RCC_OscConfig+0x5ce>
    { 
      if((RCC_OscInitStruct->PLL.PLLState) == RCC_PLL_ON)
 800173e:	687b      	ldr	r3, [r7, #4]
 8001740:	6a1b      	ldr	r3, [r3, #32]
 8001742:	2b02      	cmp	r3, #2
 8001744:	d14c      	bne.n	80017e0 <HAL_RCC_OscConfig+0x598>
        assert_param(IS_RCC_PLLSOURCE(RCC_OscInitStruct->PLL.PLLSource));
        assert_param(IS_RCC_PLL_MUL(RCC_OscInitStruct->PLL.PLLMUL));
        assert_param(IS_RCC_PREDIV(RCC_OscInitStruct->PLL.PREDIV));
  
        /* Disable the main PLL. */
        __HAL_RCC_PLL_DISABLE();
 8001746:	4b49      	ldr	r3, [pc, #292]	; (800186c <HAL_RCC_OscConfig+0x624>)
 8001748:	681a      	ldr	r2, [r3, #0]
 800174a:	4b48      	ldr	r3, [pc, #288]	; (800186c <HAL_RCC_OscConfig+0x624>)
 800174c:	494a      	ldr	r1, [pc, #296]	; (8001878 <HAL_RCC_OscConfig+0x630>)
 800174e:	400a      	ands	r2, r1
 8001750:	601a      	str	r2, [r3, #0]
        
        /* Get Start Tick */
        tickstart = HAL_GetTick();
 8001752:	f7ff fac3 	bl	8000cdc <HAL_GetTick>
 8001756:	0003      	movs	r3, r0
 8001758:	61bb      	str	r3, [r7, #24]
        
        /* Wait till PLL is disabled */
        while(__HAL_RCC_GET_FLAG(RCC_FLAG_PLLRDY)  != RESET)
 800175a:	e008      	b.n	800176e <HAL_RCC_OscConfig+0x526>
        {
          if((HAL_GetTick() - tickstart ) > PLL_TIMEOUT_VALUE)
 800175c:	f7ff fabe 	bl	8000cdc <HAL_GetTick>
 8001760:	0002      	movs	r2, r0
 8001762:	69bb      	ldr	r3, [r7, #24]
 8001764:	1ad3      	subs	r3, r2, r3
 8001766:	2b02      	cmp	r3, #2
 8001768:	d901      	bls.n	800176e <HAL_RCC_OscConfig+0x526>
          {
            return HAL_TIMEOUT;
 800176a:	2303      	movs	r3, #3
 800176c:	e079      	b.n	8001862 <HAL_RCC_OscConfig+0x61a>
        while(__HAL_RCC_GET_FLAG(RCC_FLAG_PLLRDY)  != RESET)
 800176e:	4b3f      	ldr	r3, [pc, #252]	; (800186c <HAL_RCC_OscConfig+0x624>)
 8001770:	681a      	ldr	r2, [r3, #0]
 8001772:	2380      	movs	r3, #128	; 0x80
 8001774:	049b      	lsls	r3, r3, #18
 8001776:	4013      	ands	r3, r2
 8001778:	d1f0      	bne.n	800175c <HAL_RCC_OscConfig+0x514>
          }
        }

        /* Configure the main PLL clock source, predivider and multiplication factor. */
        __HAL_RCC_PLL_CONFIG(RCC_OscInitStruct->PLL.PLLSource,
 800177a:	4b3c      	ldr	r3, [pc, #240]	; (800186c <HAL_RCC_OscConfig+0x624>)
 800177c:	6adb      	ldr	r3, [r3, #44]	; 0x2c
 800177e:	220f      	movs	r2, #15
 8001780:	4393      	bics	r3, r2
 8001782:	0019      	movs	r1, r3
 8001784:	687b      	ldr	r3, [r7, #4]
 8001786:	6ada      	ldr	r2, [r3, #44]	; 0x2c
 8001788:	4b38      	ldr	r3, [pc, #224]	; (800186c <HAL_RCC_OscConfig+0x624>)
 800178a:	430a      	orrs	r2, r1
 800178c:	62da      	str	r2, [r3, #44]	; 0x2c
 800178e:	4b37      	ldr	r3, [pc, #220]	; (800186c <HAL_RCC_OscConfig+0x624>)
 8001790:	685b      	ldr	r3, [r3, #4]
 8001792:	4a3a      	ldr	r2, [pc, #232]	; (800187c <HAL_RCC_OscConfig+0x634>)
 8001794:	4013      	ands	r3, r2
 8001796:	0019      	movs	r1, r3
 8001798:	687b      	ldr	r3, [r7, #4]
 800179a:	6a9a      	ldr	r2, [r3, #40]	; 0x28
 800179c:	687b      	ldr	r3, [r7, #4]
 800179e:	6a5b      	ldr	r3, [r3, #36]	; 0x24
 80017a0:	431a      	orrs	r2, r3
 80017a2:	4b32      	ldr	r3, [pc, #200]	; (800186c <HAL_RCC_OscConfig+0x624>)
 80017a4:	430a      	orrs	r2, r1
 80017a6:	605a      	str	r2, [r3, #4]
                             RCC_OscInitStruct->PLL.PREDIV,
                             RCC_OscInitStruct->PLL.PLLMUL);
        /* Enable the main PLL. */
        __HAL_RCC_PLL_ENABLE();
 80017a8:	4b30      	ldr	r3, [pc, #192]	; (800186c <HAL_RCC_OscConfig+0x624>)
 80017aa:	681a      	ldr	r2, [r3, #0]
 80017ac:	4b2f      	ldr	r3, [pc, #188]	; (800186c <HAL_RCC_OscConfig+0x624>)
 80017ae:	2180      	movs	r1, #128	; 0x80
 80017b0:	0449      	lsls	r1, r1, #17
 80017b2:	430a      	orrs	r2, r1
 80017b4:	601a      	str	r2, [r3, #0]
        
        /* Get Start Tick */
        tickstart = HAL_GetTick();
 80017b6:	f7ff fa91 	bl	8000cdc <HAL_GetTick>
 80017ba:	0003      	movs	r3, r0
 80017bc:	61bb      	str	r3, [r7, #24]
        
        /* Wait till PLL is ready */
        while(__HAL_RCC_GET_FLAG(RCC_FLAG_PLLRDY)  == RESET)
 80017be:	e008      	b.n	80017d2 <HAL_RCC_OscConfig+0x58a>
        {
          if((HAL_GetTick() - tickstart ) > PLL_TIMEOUT_VALUE)
 80017c0:	f7ff fa8c 	bl	8000cdc <HAL_GetTick>
 80017c4:	0002      	movs	r2, r0
 80017c6:	69bb      	ldr	r3, [r7, #24]
 80017c8:	1ad3      	subs	r3, r2, r3
 80017ca:	2b02      	cmp	r3, #2
 80017cc:	d901      	bls.n	80017d2 <HAL_RCC_OscConfig+0x58a>
          {
            return HAL_TIMEOUT;
 80017ce:	2303      	movs	r3, #3
 80017d0:	e047      	b.n	8001862 <HAL_RCC_OscConfig+0x61a>
        while(__HAL_RCC_GET_FLAG(RCC_FLAG_PLLRDY)  == RESET)
 80017d2:	4b26      	ldr	r3, [pc, #152]	; (800186c <HAL_RCC_OscConfig+0x624>)
 80017d4:	681a      	ldr	r2, [r3, #0]
 80017d6:	2380      	movs	r3, #128	; 0x80
 80017d8:	049b      	lsls	r3, r3, #18
 80017da:	4013      	ands	r3, r2
 80017dc:	d0f0      	beq.n	80017c0 <HAL_RCC_OscConfig+0x578>
 80017de:	e03f      	b.n	8001860 <HAL_RCC_OscConfig+0x618>
        }
      }
      else
      {
        /* Disable the main PLL. */
        __HAL_RCC_PLL_DISABLE();
 80017e0:	4b22      	ldr	r3, [pc, #136]	; (800186c <HAL_RCC_OscConfig+0x624>)
 80017e2:	681a      	ldr	r2, [r3, #0]
 80017e4:	4b21      	ldr	r3, [pc, #132]	; (800186c <HAL_RCC_OscConfig+0x624>)
 80017e6:	4924      	ldr	r1, [pc, #144]	; (8001878 <HAL_RCC_OscConfig+0x630>)
 80017e8:	400a      	ands	r2, r1
 80017ea:	601a      	str	r2, [r3, #0]
 
        /* Get Start Tick */
        tickstart = HAL_GetTick();
 80017ec:	f7ff fa76 	bl	8000cdc <HAL_GetTick>
 80017f0:	0003      	movs	r3, r0
 80017f2:	61bb      	str	r3, [r7, #24]
        
        /* Wait till PLL is disabled */  
        while(__HAL_RCC_GET_FLAG(RCC_FLAG_PLLRDY)  != RESET)
 80017f4:	e008      	b.n	8001808 <HAL_RCC_OscConfig+0x5c0>
        {
          if((HAL_GetTick() - tickstart ) > PLL_TIMEOUT_VALUE)
 80017f6:	f7ff fa71 	bl	8000cdc <HAL_GetTick>
 80017fa:	0002      	movs	r2, r0
 80017fc:	69bb      	ldr	r3, [r7, #24]
 80017fe:	1ad3      	subs	r3, r2, r3
 8001800:	2b02      	cmp	r3, #2
 8001802:	d901      	bls.n	8001808 <HAL_RCC_OscConfig+0x5c0>
          {
            return HAL_TIMEOUT;
 8001804:	2303      	movs	r3, #3
 8001806:	e02c      	b.n	8001862 <HAL_RCC_OscConfig+0x61a>
        while(__HAL_RCC_GET_FLAG(RCC_FLAG_PLLRDY)  != RESET)
 8001808:	4b18      	ldr	r3, [pc, #96]	; (800186c <HAL_RCC_OscConfig+0x624>)
 800180a:	681a      	ldr	r2, [r3, #0]
 800180c:	2380      	movs	r3, #128	; 0x80
 800180e:	049b      	lsls	r3, r3, #18
 8001810:	4013      	ands	r3, r2
 8001812:	d1f0      	bne.n	80017f6 <HAL_RCC_OscConfig+0x5ae>
 8001814:	e024      	b.n	8001860 <HAL_RCC_OscConfig+0x618>
      }
    }
    else
    {
      /* Check if there is a request to disable the PLL used as System clock source */
      if((RCC_OscInitStruct->PLL.PLLState) == RCC_PLL_OFF)
 8001816:	687b      	ldr	r3, [r7, #4]
 8001818:	6a1b      	ldr	r3, [r3, #32]
 800181a:	2b01      	cmp	r3, #1
 800181c:	d101      	bne.n	8001822 <HAL_RCC_OscConfig+0x5da>
      {
        return HAL_ERROR;
 800181e:	2301      	movs	r3, #1
 8001820:	e01f      	b.n	8001862 <HAL_RCC_OscConfig+0x61a>
      }
      else
      {
        /* Do not return HAL_ERROR if request repeats the current configuration */
        pll_config  = RCC->CFGR;
 8001822:	4b12      	ldr	r3, [pc, #72]	; (800186c <HAL_RCC_OscConfig+0x624>)
 8001824:	685b      	ldr	r3, [r3, #4]
 8001826:	617b      	str	r3, [r7, #20]
        pll_config2 = RCC->CFGR2;
 8001828:	4b10      	ldr	r3, [pc, #64]	; (800186c <HAL_RCC_OscConfig+0x624>)
 800182a:	6adb      	ldr	r3, [r3, #44]	; 0x2c
 800182c:	613b      	str	r3, [r7, #16]
        if((READ_BIT(pll_config,  RCC_CFGR_PLLSRC)  != RCC_OscInitStruct->PLL.PLLSource) ||
 800182e:	697a      	ldr	r2, [r7, #20]
 8001830:	2380      	movs	r3, #128	; 0x80
 8001832:	025b      	lsls	r3, r3, #9
 8001834:	401a      	ands	r2, r3
 8001836:	687b      	ldr	r3, [r7, #4]
 8001838:	6a5b      	ldr	r3, [r3, #36]	; 0x24
 800183a:	429a      	cmp	r2, r3
 800183c:	d10e      	bne.n	800185c <HAL_RCC_OscConfig+0x614>
           (READ_BIT(pll_config2, RCC_CFGR2_PREDIV) != RCC_OscInitStruct->PLL.PREDIV)    ||
 800183e:	693b      	ldr	r3, [r7, #16]
 8001840:	220f      	movs	r2, #15
 8001842:	401a      	ands	r2, r3
 8001844:	687b      	ldr	r3, [r7, #4]
 8001846:	6adb      	ldr	r3, [r3, #44]	; 0x2c
        if((READ_BIT(pll_config,  RCC_CFGR_PLLSRC)  != RCC_OscInitStruct->PLL.PLLSource) ||
 8001848:	429a      	cmp	r2, r3
 800184a:	d107      	bne.n	800185c <HAL_RCC_OscConfig+0x614>
           (READ_BIT(pll_config,  RCC_CFGR_PLLMUL)  != RCC_OscInitStruct->PLL.PLLMUL))
 800184c:	697a      	ldr	r2, [r7, #20]
 800184e:	23f0      	movs	r3, #240	; 0xf0
 8001850:	039b      	lsls	r3, r3, #14
 8001852:	401a      	ands	r2, r3
 8001854:	687b      	ldr	r3, [r7, #4]
 8001856:	6a9b      	ldr	r3, [r3, #40]	; 0x28
           (READ_BIT(pll_config2, RCC_CFGR2_PREDIV) != RCC_OscInitStruct->PLL.PREDIV)    ||
 8001858:	429a      	cmp	r2, r3
 800185a:	d001      	beq.n	8001860 <HAL_RCC_OscConfig+0x618>
        {
          return HAL_ERROR;
 800185c:	2301      	movs	r3, #1
 800185e:	e000      	b.n	8001862 <HAL_RCC_OscConfig+0x61a>
        }
      }
    }
  }

  return HAL_OK;
 8001860:	2300      	movs	r3, #0
}
 8001862:	0018      	movs	r0, r3
 8001864:	46bd      	mov	sp, r7
 8001866:	b008      	add	sp, #32
 8001868:	bd80      	pop	{r7, pc}
 800186a:	46c0      	nop			; (mov r8, r8)
 800186c:	40021000 	.word	0x40021000
 8001870:	00001388 	.word	0x00001388
 8001874:	efffffff 	.word	0xefffffff
 8001878:	feffffff 	.word	0xfeffffff
 800187c:	ffc2ffff 	.word	0xffc2ffff

08001880 <HAL_RCC_ClockConfig>:
  *         You can use @ref HAL_RCC_GetClockConfig() function to know which clock is
  *         currently used as system clock source.
  * @retval HAL status
  */
HAL_StatusTypeDef HAL_RCC_ClockConfig(RCC_ClkInitTypeDef  *RCC_ClkInitStruct, uint32_t FLatency)
{
 8001880:	b580      	push	{r7, lr}
 8001882:	b084      	sub	sp, #16
 8001884:	af00      	add	r7, sp, #0
 8001886:	6078      	str	r0, [r7, #4]
 8001888:	6039      	str	r1, [r7, #0]
  uint32_t tickstart;

  /* Check Null pointer */
  if(RCC_ClkInitStruct == NULL)
 800188a:	687b      	ldr	r3, [r7, #4]
 800188c:	2b00      	cmp	r3, #0
 800188e:	d101      	bne.n	8001894 <HAL_RCC_ClockConfig+0x14>
  {
    return HAL_ERROR;
 8001890:	2301      	movs	r3, #1
 8001892:	e0b3      	b.n	80019fc <HAL_RCC_ClockConfig+0x17c>
  /* To correctly read data from FLASH memory, the number of wait states (LATENCY) 
  must be correctly programmed according to the frequency of the CPU clock 
    (HCLK) of the device. */

  /* Increasing the number of wait states because of higher CPU frequency */
  if(FLatency > __HAL_FLASH_GET_LATENCY())
 8001894:	4b5b      	ldr	r3, [pc, #364]	; (8001a04 <HAL_RCC_ClockConfig+0x184>)
 8001896:	681b      	ldr	r3, [r3, #0]
 8001898:	2201      	movs	r2, #1
 800189a:	4013      	ands	r3, r2
 800189c:	683a      	ldr	r2, [r7, #0]
 800189e:	429a      	cmp	r2, r3
 80018a0:	d911      	bls.n	80018c6 <HAL_RCC_ClockConfig+0x46>
  {    
    /* Program the new number of wait states to the LATENCY bits in the FLASH_ACR register */
    __HAL_FLASH_SET_LATENCY(FLatency);
 80018a2:	4b58      	ldr	r3, [pc, #352]	; (8001a04 <HAL_RCC_ClockConfig+0x184>)
 80018a4:	681b      	ldr	r3, [r3, #0]
 80018a6:	2201      	movs	r2, #1
 80018a8:	4393      	bics	r3, r2
 80018aa:	0019      	movs	r1, r3
 80018ac:	4b55      	ldr	r3, [pc, #340]	; (8001a04 <HAL_RCC_ClockConfig+0x184>)
 80018ae:	683a      	ldr	r2, [r7, #0]
 80018b0:	430a      	orrs	r2, r1
 80018b2:	601a      	str	r2, [r3, #0]
    
    /* Check that the new number of wait states is taken into account to access the Flash
    memory by reading the FLASH_ACR register */
    if(__HAL_FLASH_GET_LATENCY() != FLatency)
 80018b4:	4b53      	ldr	r3, [pc, #332]	; (8001a04 <HAL_RCC_ClockConfig+0x184>)
 80018b6:	681b      	ldr	r3, [r3, #0]
 80018b8:	2201      	movs	r2, #1
 80018ba:	4013      	ands	r3, r2
 80018bc:	683a      	ldr	r2, [r7, #0]
 80018be:	429a      	cmp	r2, r3
 80018c0:	d001      	beq.n	80018c6 <HAL_RCC_ClockConfig+0x46>
    {
      return HAL_ERROR;
 80018c2:	2301      	movs	r3, #1
 80018c4:	e09a      	b.n	80019fc <HAL_RCC_ClockConfig+0x17c>
    }
  }

  /*-------------------------- HCLK Configuration --------------------------*/
  if(((RCC_ClkInitStruct->ClockType) & RCC_CLOCKTYPE_HCLK) == RCC_CLOCKTYPE_HCLK)
 80018c6:	687b      	ldr	r3, [r7, #4]
 80018c8:	681b      	ldr	r3, [r3, #0]
 80018ca:	2202      	movs	r2, #2
 80018cc:	4013      	ands	r3, r2
 80018ce:	d015      	beq.n	80018fc <HAL_RCC_ClockConfig+0x7c>
  {
    /* Set the highest APB divider in order to ensure that we do not go through
       a non-spec phase whatever we decrease or increase HCLK. */
    if(((RCC_ClkInitStruct->ClockType) & RCC_CLOCKTYPE_PCLK1) == RCC_CLOCKTYPE_PCLK1)
 80018d0:	687b      	ldr	r3, [r7, #4]
 80018d2:	681b      	ldr	r3, [r3, #0]
 80018d4:	2204      	movs	r2, #4
 80018d6:	4013      	ands	r3, r2
 80018d8:	d006      	beq.n	80018e8 <HAL_RCC_ClockConfig+0x68>
    {
      MODIFY_REG(RCC->CFGR, RCC_CFGR_PPRE, RCC_HCLK_DIV16);
 80018da:	4b4b      	ldr	r3, [pc, #300]	; (8001a08 <HAL_RCC_ClockConfig+0x188>)
 80018dc:	685a      	ldr	r2, [r3, #4]
 80018de:	4b4a      	ldr	r3, [pc, #296]	; (8001a08 <HAL_RCC_ClockConfig+0x188>)
 80018e0:	21e0      	movs	r1, #224	; 0xe0
 80018e2:	00c9      	lsls	r1, r1, #3
 80018e4:	430a      	orrs	r2, r1
 80018e6:	605a      	str	r2, [r3, #4]
    }

    /* Set the new HCLK clock divider */
    assert_param(IS_RCC_HCLK(RCC_ClkInitStruct->AHBCLKDivider));
    MODIFY_REG(RCC->CFGR, RCC_CFGR_HPRE, RCC_ClkInitStruct->AHBCLKDivider);
 80018e8:	4b47      	ldr	r3, [pc, #284]	; (8001a08 <HAL_RCC_ClockConfig+0x188>)
 80018ea:	685b      	ldr	r3, [r3, #4]
 80018ec:	22f0      	movs	r2, #240	; 0xf0
 80018ee:	4393      	bics	r3, r2
 80018f0:	0019      	movs	r1, r3
 80018f2:	687b      	ldr	r3, [r7, #4]
 80018f4:	689a      	ldr	r2, [r3, #8]
 80018f6:	4b44      	ldr	r3, [pc, #272]	; (8001a08 <HAL_RCC_ClockConfig+0x188>)
 80018f8:	430a      	orrs	r2, r1
 80018fa:	605a      	str	r2, [r3, #4]
  }

  /*------------------------- SYSCLK Configuration ---------------------------*/ 
  if(((RCC_ClkInitStruct->ClockType) & RCC_CLOCKTYPE_SYSCLK) == RCC_CLOCKTYPE_SYSCLK)
 80018fc:	687b      	ldr	r3, [r7, #4]
 80018fe:	681b      	ldr	r3, [r3, #0]
 8001900:	2201      	movs	r2, #1
 8001902:	4013      	ands	r3, r2
 8001904:	d040      	beq.n	8001988 <HAL_RCC_ClockConfig+0x108>
  {
    assert_param(IS_RCC_SYSCLKSOURCE(RCC_ClkInitStruct->SYSCLKSource));
    
    /* HSE is selected as System Clock Source */
    if(RCC_ClkInitStruct->SYSCLKSource == RCC_SYSCLKSOURCE_HSE)
 8001906:	687b      	ldr	r3, [r7, #4]
 8001908:	685b      	ldr	r3, [r3, #4]
 800190a:	2b01      	cmp	r3, #1
 800190c:	d107      	bne.n	800191e <HAL_RCC_ClockConfig+0x9e>
    {
      /* Check the HSE ready flag */  
      if(__HAL_RCC_GET_FLAG(RCC_FLAG_HSERDY) == RESET)
 800190e:	4b3e      	ldr	r3, [pc, #248]	; (8001a08 <HAL_RCC_ClockConfig+0x188>)
 8001910:	681a      	ldr	r2, [r3, #0]
 8001912:	2380      	movs	r3, #128	; 0x80
 8001914:	029b      	lsls	r3, r3, #10
 8001916:	4013      	ands	r3, r2
 8001918:	d114      	bne.n	8001944 <HAL_RCC_ClockConfig+0xc4>
      {
        return HAL_ERROR;
 800191a:	2301      	movs	r3, #1
 800191c:	e06e      	b.n	80019fc <HAL_RCC_ClockConfig+0x17c>
      }
    }
    /* PLL is selected as System Clock Source */
    else if(RCC_ClkInitStruct->SYSCLKSource == RCC_SYSCLKSOURCE_PLLCLK)
 800191e:	687b      	ldr	r3, [r7, #4]
 8001920:	685b      	ldr	r3, [r3, #4]
 8001922:	2b02      	cmp	r3, #2
 8001924:	d107      	bne.n	8001936 <HAL_RCC_ClockConfig+0xb6>
    {
      /* Check the PLL ready flag */  
      if(__HAL_RCC_GET_FLAG(RCC_FLAG_PLLRDY) == RESET)
 8001926:	4b38      	ldr	r3, [pc, #224]	; (8001a08 <HAL_RCC_ClockConfig+0x188>)
 8001928:	681a      	ldr	r2, [r3, #0]
 800192a:	2380      	movs	r3, #128	; 0x80
 800192c:	049b      	lsls	r3, r3, #18
 800192e:	4013      	ands	r3, r2
 8001930:	d108      	bne.n	8001944 <HAL_RCC_ClockConfig+0xc4>
      {
        return HAL_ERROR;
 8001932:	2301      	movs	r3, #1
 8001934:	e062      	b.n	80019fc <HAL_RCC_ClockConfig+0x17c>
#endif /* RCC_CFGR_SWS_HSI48 */
    /* HSI is selected as System Clock Source */
    else
    {
      /* Check the HSI ready flag */  
      if(__HAL_RCC_GET_FLAG(RCC_FLAG_HSIRDY) == RESET)
 8001936:	4b34      	ldr	r3, [pc, #208]	; (8001a08 <HAL_RCC_ClockConfig+0x188>)
 8001938:	681b      	ldr	r3, [r3, #0]
 800193a:	2202      	movs	r2, #2
 800193c:	4013      	ands	r3, r2
 800193e:	d101      	bne.n	8001944 <HAL_RCC_ClockConfig+0xc4>
      {
        return HAL_ERROR;
 8001940:	2301      	movs	r3, #1
 8001942:	e05b      	b.n	80019fc <HAL_RCC_ClockConfig+0x17c>
      }
    }
    __HAL_RCC_SYSCLK_CONFIG(RCC_ClkInitStruct->SYSCLKSource);
 8001944:	4b30      	ldr	r3, [pc, #192]	; (8001a08 <HAL_RCC_ClockConfig+0x188>)
 8001946:	685b      	ldr	r3, [r3, #4]
 8001948:	2203      	movs	r2, #3
 800194a:	4393      	bics	r3, r2
 800194c:	0019      	movs	r1, r3
 800194e:	687b      	ldr	r3, [r7, #4]
 8001950:	685a      	ldr	r2, [r3, #4]
 8001952:	4b2d      	ldr	r3, [pc, #180]	; (8001a08 <HAL_RCC_ClockConfig+0x188>)
 8001954:	430a      	orrs	r2, r1
 8001956:	605a      	str	r2, [r3, #4]

    /* Get Start Tick */
    tickstart = HAL_GetTick();
 8001958:	f7ff f9c0 	bl	8000cdc <HAL_GetTick>
 800195c:	0003      	movs	r3, r0
 800195e:	60fb      	str	r3, [r7, #12]
    
    while (__HAL_RCC_GET_SYSCLK_SOURCE() != (RCC_ClkInitStruct->SYSCLKSource << RCC_CFGR_SWS_Pos))
 8001960:	e009      	b.n	8001976 <HAL_RCC_ClockConfig+0xf6>
    {
      if((HAL_GetTick() - tickstart ) > CLOCKSWITCH_TIMEOUT_VALUE)
 8001962:	f7ff f9bb 	bl	8000cdc <HAL_GetTick>
 8001966:	0002      	movs	r2, r0
 8001968:	68fb      	ldr	r3, [r7, #12]
 800196a:	1ad3      	subs	r3, r2, r3
 800196c:	4a27      	ldr	r2, [pc, #156]	; (8001a0c <HAL_RCC_ClockConfig+0x18c>)
 800196e:	4293      	cmp	r3, r2
 8001970:	d901      	bls.n	8001976 <HAL_RCC_ClockConfig+0xf6>
      {
        return HAL_TIMEOUT;
 8001972:	2303      	movs	r3, #3
 8001974:	e042      	b.n	80019fc <HAL_RCC_ClockConfig+0x17c>
    while (__HAL_RCC_GET_SYSCLK_SOURCE() != (RCC_ClkInitStruct->SYSCLKSource << RCC_CFGR_SWS_Pos))
 8001976:	4b24      	ldr	r3, [pc, #144]	; (8001a08 <HAL_RCC_ClockConfig+0x188>)
 8001978:	685b      	ldr	r3, [r3, #4]
 800197a:	220c      	movs	r2, #12
 800197c:	401a      	ands	r2, r3
 800197e:	687b      	ldr	r3, [r7, #4]
 8001980:	685b      	ldr	r3, [r3, #4]
 8001982:	009b      	lsls	r3, r3, #2
 8001984:	429a      	cmp	r2, r3
 8001986:	d1ec      	bne.n	8001962 <HAL_RCC_ClockConfig+0xe2>
      }
    }
  }

  /* Decreasing the number of wait states because of lower CPU frequency */
  if(FLatency < __HAL_FLASH_GET_LATENCY())
 8001988:	4b1e      	ldr	r3, [pc, #120]	; (8001a04 <HAL_RCC_ClockConfig+0x184>)
 800198a:	681b      	ldr	r3, [r3, #0]
 800198c:	2201      	movs	r2, #1
 800198e:	4013      	ands	r3, r2
 8001990:	683a      	ldr	r2, [r7, #0]
 8001992:	429a      	cmp	r2, r3
 8001994:	d211      	bcs.n	80019ba <HAL_RCC_ClockConfig+0x13a>
  {    
    /* Program the new number of wait states to the LATENCY bits in the FLASH_ACR register */
    __HAL_FLASH_SET_LATENCY(FLatency);
 8001996:	4b1b      	ldr	r3, [pc, #108]	; (8001a04 <HAL_RCC_ClockConfig+0x184>)
 8001998:	681b      	ldr	r3, [r3, #0]
 800199a:	2201      	movs	r2, #1
 800199c:	4393      	bics	r3, r2
 800199e:	0019      	movs	r1, r3
 80019a0:	4b18      	ldr	r3, [pc, #96]	; (8001a04 <HAL_RCC_ClockConfig+0x184>)
 80019a2:	683a      	ldr	r2, [r7, #0]
 80019a4:	430a      	orrs	r2, r1
 80019a6:	601a      	str	r2, [r3, #0]
    
    /* Check that the new number of wait states is taken into account to access the Flash
    memory by reading the FLASH_ACR register */
    if(__HAL_FLASH_GET_LATENCY() != FLatency)
 80019a8:	4b16      	ldr	r3, [pc, #88]	; (8001a04 <HAL_RCC_ClockConfig+0x184>)
 80019aa:	681b      	ldr	r3, [r3, #0]
 80019ac:	2201      	movs	r2, #1
 80019ae:	4013      	ands	r3, r2
 80019b0:	683a      	ldr	r2, [r7, #0]
 80019b2:	429a      	cmp	r2, r3
 80019b4:	d001      	beq.n	80019ba <HAL_RCC_ClockConfig+0x13a>
    {
      return HAL_ERROR;
 80019b6:	2301      	movs	r3, #1
 80019b8:	e020      	b.n	80019fc <HAL_RCC_ClockConfig+0x17c>
    }
  }    

  /*-------------------------- PCLK1 Configuration ---------------------------*/ 
  if(((RCC_ClkInitStruct->ClockType) & RCC_CLOCKTYPE_PCLK1) == RCC_CLOCKTYPE_PCLK1)
 80019ba:	687b      	ldr	r3, [r7, #4]
 80019bc:	681b      	ldr	r3, [r3, #0]
 80019be:	2204      	movs	r2, #4
 80019c0:	4013      	ands	r3, r2
 80019c2:	d009      	beq.n	80019d8 <HAL_RCC_ClockConfig+0x158>
  {
    assert_param(IS_RCC_PCLK(RCC_ClkInitStruct->APB1CLKDivider));
    MODIFY_REG(RCC->CFGR, RCC_CFGR_PPRE, RCC_ClkInitStruct->APB1CLKDivider);
 80019c4:	4b10      	ldr	r3, [pc, #64]	; (8001a08 <HAL_RCC_ClockConfig+0x188>)
 80019c6:	685b      	ldr	r3, [r3, #4]
 80019c8:	4a11      	ldr	r2, [pc, #68]	; (8001a10 <HAL_RCC_ClockConfig+0x190>)
 80019ca:	4013      	ands	r3, r2
 80019cc:	0019      	movs	r1, r3
 80019ce:	687b      	ldr	r3, [r7, #4]
 80019d0:	68da      	ldr	r2, [r3, #12]
 80019d2:	4b0d      	ldr	r3, [pc, #52]	; (8001a08 <HAL_RCC_ClockConfig+0x188>)
 80019d4:	430a      	orrs	r2, r1
 80019d6:	605a      	str	r2, [r3, #4]
  }
  
  /* Update the SystemCoreClock global variable */
  SystemCoreClock = HAL_RCC_GetSysClockFreq() >> AHBPrescTable[(RCC->CFGR & RCC_CFGR_HPRE)>> RCC_CFGR_HPRE_BITNUMBER];
 80019d8:	f000 f820 	bl	8001a1c <HAL_RCC_GetSysClockFreq>
 80019dc:	0001      	movs	r1, r0
 80019de:	4b0a      	ldr	r3, [pc, #40]	; (8001a08 <HAL_RCC_ClockConfig+0x188>)
 80019e0:	685b      	ldr	r3, [r3, #4]
 80019e2:	091b      	lsrs	r3, r3, #4
 80019e4:	220f      	movs	r2, #15
 80019e6:	4013      	ands	r3, r2
 80019e8:	4a0a      	ldr	r2, [pc, #40]	; (8001a14 <HAL_RCC_ClockConfig+0x194>)
 80019ea:	5cd3      	ldrb	r3, [r2, r3]
 80019ec:	000a      	movs	r2, r1
 80019ee:	40da      	lsrs	r2, r3
 80019f0:	4b09      	ldr	r3, [pc, #36]	; (8001a18 <HAL_RCC_ClockConfig+0x198>)
 80019f2:	601a      	str	r2, [r3, #0]

  /* Configure the source of time base considering new system clocks settings*/
  HAL_InitTick (TICK_INT_PRIORITY);
 80019f4:	2000      	movs	r0, #0
 80019f6:	f7ff f92b 	bl	8000c50 <HAL_InitTick>
  
  return HAL_OK;
 80019fa:	2300      	movs	r3, #0
}
 80019fc:	0018      	movs	r0, r3
 80019fe:	46bd      	mov	sp, r7
 8001a00:	b004      	add	sp, #16
 8001a02:	bd80      	pop	{r7, pc}
 8001a04:	40022000 	.word	0x40022000
 8001a08:	40021000 	.word	0x40021000
 8001a0c:	00001388 	.word	0x00001388
 8001a10:	fffff8ff 	.word	0xfffff8ff
 8001a14:	080028ec 	.word	0x080028ec
 8001a18:	20000000 	.word	0x20000000

08001a1c <HAL_RCC_GetSysClockFreq>:
  *         right SYSCLK value. Otherwise, any configuration based on this function will be incorrect.
  *         
  * @retval SYSCLK frequency
  */
uint32_t HAL_RCC_GetSysClockFreq(void)
{
 8001a1c:	b590      	push	{r4, r7, lr}
 8001a1e:	b08f      	sub	sp, #60	; 0x3c
 8001a20:	af00      	add	r7, sp, #0
  const uint8_t aPLLMULFactorTable[16] = { 2U,  3U,  4U,  5U,  6U,  7U,  8U,  9U,
 8001a22:	2314      	movs	r3, #20
 8001a24:	18fb      	adds	r3, r7, r3
 8001a26:	4a2b      	ldr	r2, [pc, #172]	; (8001ad4 <HAL_RCC_GetSysClockFreq+0xb8>)
 8001a28:	ca13      	ldmia	r2!, {r0, r1, r4}
 8001a2a:	c313      	stmia	r3!, {r0, r1, r4}
 8001a2c:	6812      	ldr	r2, [r2, #0]
 8001a2e:	601a      	str	r2, [r3, #0]
                                         10U, 11U, 12U, 13U, 14U, 15U, 16U, 16U};
  const uint8_t aPredivFactorTable[16] = { 1U, 2U,  3U,  4U,  5U,  6U,  7U,  8U,
 8001a30:	1d3b      	adds	r3, r7, #4
 8001a32:	4a29      	ldr	r2, [pc, #164]	; (8001ad8 <HAL_RCC_GetSysClockFreq+0xbc>)
 8001a34:	ca13      	ldmia	r2!, {r0, r1, r4}
 8001a36:	c313      	stmia	r3!, {r0, r1, r4}
 8001a38:	6812      	ldr	r2, [r2, #0]
 8001a3a:	601a      	str	r2, [r3, #0]
                                           9U,10U, 11U, 12U, 13U, 14U, 15U, 16U};

  uint32_t tmpreg = 0U, prediv = 0U, pllclk = 0U, pllmul = 0U;
 8001a3c:	2300      	movs	r3, #0
 8001a3e:	62fb      	str	r3, [r7, #44]	; 0x2c
 8001a40:	2300      	movs	r3, #0
 8001a42:	62bb      	str	r3, [r7, #40]	; 0x28
 8001a44:	2300      	movs	r3, #0
 8001a46:	637b      	str	r3, [r7, #52]	; 0x34
 8001a48:	2300      	movs	r3, #0
 8001a4a:	627b      	str	r3, [r7, #36]	; 0x24
  uint32_t sysclockfreq = 0U;
 8001a4c:	2300      	movs	r3, #0
 8001a4e:	633b      	str	r3, [r7, #48]	; 0x30
  
  tmpreg = RCC->CFGR;
 8001a50:	4b22      	ldr	r3, [pc, #136]	; (8001adc <HAL_RCC_GetSysClockFreq+0xc0>)
 8001a52:	685b      	ldr	r3, [r3, #4]
 8001a54:	62fb      	str	r3, [r7, #44]	; 0x2c
  
  /* Get SYSCLK source -------------------------------------------------------*/
  switch (tmpreg & RCC_CFGR_SWS)
 8001a56:	6afb      	ldr	r3, [r7, #44]	; 0x2c
 8001a58:	220c      	movs	r2, #12
 8001a5a:	4013      	ands	r3, r2
 8001a5c:	2b04      	cmp	r3, #4
 8001a5e:	d002      	beq.n	8001a66 <HAL_RCC_GetSysClockFreq+0x4a>
 8001a60:	2b08      	cmp	r3, #8
 8001a62:	d003      	beq.n	8001a6c <HAL_RCC_GetSysClockFreq+0x50>
 8001a64:	e02d      	b.n	8001ac2 <HAL_RCC_GetSysClockFreq+0xa6>
  {
    case RCC_SYSCLKSOURCE_STATUS_HSE:  /* HSE used as system clock */
    {
      sysclockfreq = HSE_VALUE;
 8001a66:	4b1e      	ldr	r3, [pc, #120]	; (8001ae0 <HAL_RCC_GetSysClockFreq+0xc4>)
 8001a68:	633b      	str	r3, [r7, #48]	; 0x30
      break;
 8001a6a:	e02d      	b.n	8001ac8 <HAL_RCC_GetSysClockFreq+0xac>
    }
    case RCC_SYSCLKSOURCE_STATUS_PLLCLK:  /* PLL used as system clock */
    {
      pllmul = aPLLMULFactorTable[(uint32_t)(tmpreg & RCC_CFGR_PLLMUL) >> RCC_CFGR_PLLMUL_BITNUMBER];
 8001a6c:	6afb      	ldr	r3, [r7, #44]	; 0x2c
 8001a6e:	0c9b      	lsrs	r3, r3, #18
 8001a70:	220f      	movs	r2, #15
 8001a72:	4013      	ands	r3, r2
 8001a74:	2214      	movs	r2, #20
 8001a76:	18ba      	adds	r2, r7, r2
 8001a78:	5cd3      	ldrb	r3, [r2, r3]
 8001a7a:	627b      	str	r3, [r7, #36]	; 0x24
      prediv = aPredivFactorTable[(uint32_t)(RCC->CFGR2 & RCC_CFGR2_PREDIV) >> RCC_CFGR2_PREDIV_BITNUMBER];
 8001a7c:	4b17      	ldr	r3, [pc, #92]	; (8001adc <HAL_RCC_GetSysClockFreq+0xc0>)
 8001a7e:	6adb      	ldr	r3, [r3, #44]	; 0x2c
 8001a80:	220f      	movs	r2, #15
 8001a82:	4013      	ands	r3, r2
 8001a84:	1d3a      	adds	r2, r7, #4
 8001a86:	5cd3      	ldrb	r3, [r2, r3]
 8001a88:	62bb      	str	r3, [r7, #40]	; 0x28
      if ((tmpreg & RCC_CFGR_PLLSRC) == RCC_PLLSOURCE_HSE)
 8001a8a:	6afa      	ldr	r2, [r7, #44]	; 0x2c
 8001a8c:	2380      	movs	r3, #128	; 0x80
 8001a8e:	025b      	lsls	r3, r3, #9
 8001a90:	4013      	ands	r3, r2
 8001a92:	d009      	beq.n	8001aa8 <HAL_RCC_GetSysClockFreq+0x8c>
      {
        /* HSE used as PLL clock source : PLLCLK = HSE/PREDIV * PLLMUL */
        pllclk = (uint32_t)((uint64_t) HSE_VALUE / (uint64_t) (prediv)) * ((uint64_t) pllmul);
 8001a94:	6ab9      	ldr	r1, [r7, #40]	; 0x28
 8001a96:	4812      	ldr	r0, [pc, #72]	; (8001ae0 <HAL_RCC_GetSysClockFreq+0xc4>)
 8001a98:	f7fe fb36 	bl	8000108 <__udivsi3>
 8001a9c:	0003      	movs	r3, r0
 8001a9e:	001a      	movs	r2, r3
 8001aa0:	6a7b      	ldr	r3, [r7, #36]	; 0x24
 8001aa2:	4353      	muls	r3, r2
 8001aa4:	637b      	str	r3, [r7, #52]	; 0x34
 8001aa6:	e009      	b.n	8001abc <HAL_RCC_GetSysClockFreq+0xa0>
#if  (defined(STM32F042x6) || defined(STM32F048xx) || defined(STM32F070x6) || defined(STM32F071xB) || defined(STM32F072xB) || defined(STM32F078xx) || defined(STM32F070xB) || defined(STM32F091xC) || defined(STM32F098xx) || defined(STM32F030xC))
        /* HSI used as PLL clock source : PLLCLK = HSI/PREDIV * PLLMUL */
        pllclk = (uint32_t)((uint64_t) HSI_VALUE / (uint64_t) (prediv)) * ((uint64_t) pllmul);
#else
        /* HSI used as PLL clock source : PLLCLK = HSI/2 * PLLMUL */
        pllclk = (uint32_t)((uint64_t) (HSI_VALUE >> 1U) * ((uint64_t) pllmul));
 8001aa8:	6a79      	ldr	r1, [r7, #36]	; 0x24
 8001aaa:	000a      	movs	r2, r1
 8001aac:	0152      	lsls	r2, r2, #5
 8001aae:	1a52      	subs	r2, r2, r1
 8001ab0:	0193      	lsls	r3, r2, #6
 8001ab2:	1a9b      	subs	r3, r3, r2
 8001ab4:	00db      	lsls	r3, r3, #3
 8001ab6:	185b      	adds	r3, r3, r1
 8001ab8:	021b      	lsls	r3, r3, #8
 8001aba:	637b      	str	r3, [r7, #52]	; 0x34
#endif
      }
      sysclockfreq = pllclk;
 8001abc:	6b7b      	ldr	r3, [r7, #52]	; 0x34
 8001abe:	633b      	str	r3, [r7, #48]	; 0x30
      break;
 8001ac0:	e002      	b.n	8001ac8 <HAL_RCC_GetSysClockFreq+0xac>
    }
#endif /* RCC_CFGR_SWS_HSI48 */
    case RCC_SYSCLKSOURCE_STATUS_HSI:  /* HSI used as system clock source */
    default: /* HSI used as system clock */
    {
      sysclockfreq = HSI_VALUE;
 8001ac2:	4b07      	ldr	r3, [pc, #28]	; (8001ae0 <HAL_RCC_GetSysClockFreq+0xc4>)
 8001ac4:	633b      	str	r3, [r7, #48]	; 0x30
      break;
 8001ac6:	46c0      	nop			; (mov r8, r8)
    }
  }
  return sysclockfreq;
 8001ac8:	6b3b      	ldr	r3, [r7, #48]	; 0x30
}
 8001aca:	0018      	movs	r0, r3
 8001acc:	46bd      	mov	sp, r7
 8001ace:	b00f      	add	sp, #60	; 0x3c
 8001ad0:	bd90      	pop	{r4, r7, pc}
 8001ad2:	46c0      	nop			; (mov r8, r8)
 8001ad4:	080028cc 	.word	0x080028cc
 8001ad8:	080028dc 	.word	0x080028dc
 8001adc:	40021000 	.word	0x40021000
 8001ae0:	007a1200 	.word	0x007a1200

08001ae4 <HAL_TIM_Base_Init>:
  *         Ex: call @ref HAL_TIM_Base_DeInit() before HAL_TIM_Base_Init()
  * @param  htim TIM Base handle
  * @retval HAL status
  */
HAL_StatusTypeDef HAL_TIM_Base_Init(TIM_HandleTypeDef *htim)
{
 8001ae4:	b580      	push	{r7, lr}
 8001ae6:	b082      	sub	sp, #8
 8001ae8:	af00      	add	r7, sp, #0
 8001aea:	6078      	str	r0, [r7, #4]
  /* Check the TIM handle allocation */
  if (htim == NULL)
 8001aec:	687b      	ldr	r3, [r7, #4]
 8001aee:	2b00      	cmp	r3, #0
 8001af0:	d101      	bne.n	8001af6 <HAL_TIM_Base_Init+0x12>
  {
    return HAL_ERROR;
 8001af2:	2301      	movs	r3, #1
 8001af4:	e01e      	b.n	8001b34 <HAL_TIM_Base_Init+0x50>
  assert_param(IS_TIM_INSTANCE(htim->Instance));
  assert_param(IS_TIM_COUNTER_MODE(htim->Init.CounterMode));
  assert_param(IS_TIM_CLOCKDIVISION_DIV(htim->Init.ClockDivision));
  assert_param(IS_TIM_AUTORELOAD_PRELOAD(htim->Init.AutoReloadPreload));

  if (htim->State == HAL_TIM_STATE_RESET)
 8001af6:	687b      	ldr	r3, [r7, #4]
 8001af8:	223d      	movs	r2, #61	; 0x3d
 8001afa:	5c9b      	ldrb	r3, [r3, r2]
 8001afc:	b2db      	uxtb	r3, r3
 8001afe:	2b00      	cmp	r3, #0
 8001b00:	d107      	bne.n	8001b12 <HAL_TIM_Base_Init+0x2e>
  {
    /* Allocate lock resource and initialize it */
    htim->Lock = HAL_UNLOCKED;
 8001b02:	687b      	ldr	r3, [r7, #4]
 8001b04:	223c      	movs	r2, #60	; 0x3c
 8001b06:	2100      	movs	r1, #0
 8001b08:	5499      	strb	r1, [r3, r2]
    }
    /* Init the low level hardware : GPIO, CLOCK, NVIC */
    htim->Base_MspInitCallback(htim);
#else
    /* Init the low level hardware : GPIO, CLOCK, NVIC */
    HAL_TIM_Base_MspInit(htim);
 8001b0a:	687b      	ldr	r3, [r7, #4]
 8001b0c:	0018      	movs	r0, r3
 8001b0e:	f7fe ffbd 	bl	8000a8c <HAL_TIM_Base_MspInit>
#endif /* USE_HAL_TIM_REGISTER_CALLBACKS */
  }

  /* Set the TIM state */
  htim->State = HAL_TIM_STATE_BUSY;
 8001b12:	687b      	ldr	r3, [r7, #4]
 8001b14:	223d      	movs	r2, #61	; 0x3d
 8001b16:	2102      	movs	r1, #2
 8001b18:	5499      	strb	r1, [r3, r2]

  /* Set the Time Base configuration */
  TIM_Base_SetConfig(htim->Instance, &htim->Init);
 8001b1a:	687b      	ldr	r3, [r7, #4]
 8001b1c:	681a      	ldr	r2, [r3, #0]
 8001b1e:	687b      	ldr	r3, [r7, #4]
 8001b20:	3304      	adds	r3, #4
 8001b22:	0019      	movs	r1, r3
 8001b24:	0010      	movs	r0, r2
 8001b26:	f000 fb2d 	bl	8002184 <TIM_Base_SetConfig>

  /* Initialize the TIM state*/
  htim->State = HAL_TIM_STATE_READY;
 8001b2a:	687b      	ldr	r3, [r7, #4]
 8001b2c:	223d      	movs	r2, #61	; 0x3d
 8001b2e:	2101      	movs	r1, #1
 8001b30:	5499      	strb	r1, [r3, r2]

  return HAL_OK;
 8001b32:	2300      	movs	r3, #0
}
 8001b34:	0018      	movs	r0, r3
 8001b36:	46bd      	mov	sp, r7
 8001b38:	b002      	add	sp, #8
 8001b3a:	bd80      	pop	{r7, pc}

08001b3c <HAL_TIM_Base_Start>:
  * @brief  Starts the TIM Base generation.
  * @param  htim TIM Base handle
  * @retval HAL status
  */
HAL_StatusTypeDef HAL_TIM_Base_Start(TIM_HandleTypeDef *htim)
{
 8001b3c:	b580      	push	{r7, lr}
 8001b3e:	b084      	sub	sp, #16
 8001b40:	af00      	add	r7, sp, #0
 8001b42:	6078      	str	r0, [r7, #4]

  /* Check the parameters */
  assert_param(IS_TIM_INSTANCE(htim->Instance));

  /* Set the TIM state */
  htim->State = HAL_TIM_STATE_BUSY;
 8001b44:	687b      	ldr	r3, [r7, #4]
 8001b46:	223d      	movs	r2, #61	; 0x3d
 8001b48:	2102      	movs	r1, #2
 8001b4a:	5499      	strb	r1, [r3, r2]

  /* Enable the Peripheral, except in trigger mode where enable is automatically done with trigger */
  tmpsmcr = htim->Instance->SMCR & TIM_SMCR_SMS;
 8001b4c:	687b      	ldr	r3, [r7, #4]
 8001b4e:	681b      	ldr	r3, [r3, #0]
 8001b50:	689b      	ldr	r3, [r3, #8]
 8001b52:	2207      	movs	r2, #7
 8001b54:	4013      	ands	r3, r2
 8001b56:	60fb      	str	r3, [r7, #12]
  if (!IS_TIM_SLAVEMODE_TRIGGER_ENABLED(tmpsmcr))
 8001b58:	68fb      	ldr	r3, [r7, #12]
 8001b5a:	2b06      	cmp	r3, #6
 8001b5c:	d007      	beq.n	8001b6e <HAL_TIM_Base_Start+0x32>
  {
    __HAL_TIM_ENABLE(htim);
 8001b5e:	687b      	ldr	r3, [r7, #4]
 8001b60:	681b      	ldr	r3, [r3, #0]
 8001b62:	681a      	ldr	r2, [r3, #0]
 8001b64:	687b      	ldr	r3, [r7, #4]
 8001b66:	681b      	ldr	r3, [r3, #0]
 8001b68:	2101      	movs	r1, #1
 8001b6a:	430a      	orrs	r2, r1
 8001b6c:	601a      	str	r2, [r3, #0]
  }

  /* Change the TIM state*/
  htim->State = HAL_TIM_STATE_READY;
 8001b6e:	687b      	ldr	r3, [r7, #4]
 8001b70:	223d      	movs	r2, #61	; 0x3d
 8001b72:	2101      	movs	r1, #1
 8001b74:	5499      	strb	r1, [r3, r2]

  /* Return function status */
  return HAL_OK;
 8001b76:	2300      	movs	r3, #0
}
 8001b78:	0018      	movs	r0, r3
 8001b7a:	46bd      	mov	sp, r7
 8001b7c:	b004      	add	sp, #16
 8001b7e:	bd80      	pop	{r7, pc}

08001b80 <HAL_TIM_PWM_Init>:
  *         Ex: call @ref HAL_TIM_PWM_DeInit() before HAL_TIM_PWM_Init()
  * @param  htim TIM PWM handle
  * @retval HAL status
  */
HAL_StatusTypeDef HAL_TIM_PWM_Init(TIM_HandleTypeDef *htim)
{
 8001b80:	b580      	push	{r7, lr}
 8001b82:	b082      	sub	sp, #8
 8001b84:	af00      	add	r7, sp, #0
 8001b86:	6078      	str	r0, [r7, #4]
  /* Check the TIM handle allocation */
  if (htim == NULL)
 8001b88:	687b      	ldr	r3, [r7, #4]
 8001b8a:	2b00      	cmp	r3, #0
 8001b8c:	d101      	bne.n	8001b92 <HAL_TIM_PWM_Init+0x12>
  {
    return HAL_ERROR;
 8001b8e:	2301      	movs	r3, #1
 8001b90:	e01e      	b.n	8001bd0 <HAL_TIM_PWM_Init+0x50>
  assert_param(IS_TIM_INSTANCE(htim->Instance));
  assert_param(IS_TIM_COUNTER_MODE(htim->Init.CounterMode));
  assert_param(IS_TIM_CLOCKDIVISION_DIV(htim->Init.ClockDivision));
  assert_param(IS_TIM_AUTORELOAD_PRELOAD(htim->Init.AutoReloadPreload));

  if (htim->State == HAL_TIM_STATE_RESET)
 8001b92:	687b      	ldr	r3, [r7, #4]
 8001b94:	223d      	movs	r2, #61	; 0x3d
 8001b96:	5c9b      	ldrb	r3, [r3, r2]
 8001b98:	b2db      	uxtb	r3, r3
 8001b9a:	2b00      	cmp	r3, #0
 8001b9c:	d107      	bne.n	8001bae <HAL_TIM_PWM_Init+0x2e>
  {
    /* Allocate lock resource and initialize it */
    htim->Lock = HAL_UNLOCKED;
 8001b9e:	687b      	ldr	r3, [r7, #4]
 8001ba0:	223c      	movs	r2, #60	; 0x3c
 8001ba2:	2100      	movs	r1, #0
 8001ba4:	5499      	strb	r1, [r3, r2]
    }
    /* Init the low level hardware : GPIO, CLOCK, NVIC */
    htim->PWM_MspInitCallback(htim);
#else
    /* Init the low level hardware : GPIO, CLOCK, NVIC and DMA */
    HAL_TIM_PWM_MspInit(htim);
 8001ba6:	687b      	ldr	r3, [r7, #4]
 8001ba8:	0018      	movs	r0, r3
 8001baa:	f7fe fed5 	bl	8000958 <HAL_TIM_PWM_MspInit>
#endif /* USE_HAL_TIM_REGISTER_CALLBACKS */
  }

  /* Set the TIM state */
  htim->State = HAL_TIM_STATE_BUSY;
 8001bae:	687b      	ldr	r3, [r7, #4]
 8001bb0:	223d      	movs	r2, #61	; 0x3d
 8001bb2:	2102      	movs	r1, #2
 8001bb4:	5499      	strb	r1, [r3, r2]

  /* Init the base time for the PWM */
  TIM_Base_SetConfig(htim->Instance, &htim->Init);
 8001bb6:	687b      	ldr	r3, [r7, #4]
 8001bb8:	681a      	ldr	r2, [r3, #0]
 8001bba:	687b      	ldr	r3, [r7, #4]
 8001bbc:	3304      	adds	r3, #4
 8001bbe:	0019      	movs	r1, r3
 8001bc0:	0010      	movs	r0, r2
 8001bc2:	f000 fadf 	bl	8002184 <TIM_Base_SetConfig>

  /* Initialize the TIM state*/
  htim->State = HAL_TIM_STATE_READY;
 8001bc6:	687b      	ldr	r3, [r7, #4]
 8001bc8:	223d      	movs	r2, #61	; 0x3d
 8001bca:	2101      	movs	r1, #1
 8001bcc:	5499      	strb	r1, [r3, r2]

  return HAL_OK;
 8001bce:	2300      	movs	r3, #0
}
 8001bd0:	0018      	movs	r0, r3
 8001bd2:	46bd      	mov	sp, r7
 8001bd4:	b002      	add	sp, #8
 8001bd6:	bd80      	pop	{r7, pc}

08001bd8 <HAL_TIM_PWM_Start>:
  *            @arg TIM_CHANNEL_3: TIM Channel 3 selected
  *            @arg TIM_CHANNEL_4: TIM Channel 4 selected
  * @retval HAL status
  */
HAL_StatusTypeDef HAL_TIM_PWM_Start(TIM_HandleTypeDef *htim, uint32_t Channel)
{
 8001bd8:	b580      	push	{r7, lr}
 8001bda:	b084      	sub	sp, #16
 8001bdc:	af00      	add	r7, sp, #0
 8001bde:	6078      	str	r0, [r7, #4]
 8001be0:	6039      	str	r1, [r7, #0]

  /* Check the parameters */
  assert_param(IS_TIM_CCX_INSTANCE(htim->Instance, Channel));

  /* Enable the Capture compare channel */
  TIM_CCxChannelCmd(htim->Instance, Channel, TIM_CCx_ENABLE);
 8001be2:	687b      	ldr	r3, [r7, #4]
 8001be4:	681b      	ldr	r3, [r3, #0]
 8001be6:	6839      	ldr	r1, [r7, #0]
 8001be8:	2201      	movs	r2, #1
 8001bea:	0018      	movs	r0, r3
 8001bec:	f000 fd46 	bl	800267c <TIM_CCxChannelCmd>

  if (IS_TIM_BREAK_INSTANCE(htim->Instance) != RESET)
 8001bf0:	687b      	ldr	r3, [r7, #4]
 8001bf2:	681b      	ldr	r3, [r3, #0]
 8001bf4:	4a1a      	ldr	r2, [pc, #104]	; (8001c60 <HAL_TIM_PWM_Start+0x88>)
 8001bf6:	4293      	cmp	r3, r2
 8001bf8:	d00e      	beq.n	8001c18 <HAL_TIM_PWM_Start+0x40>
 8001bfa:	687b      	ldr	r3, [r7, #4]
 8001bfc:	681b      	ldr	r3, [r3, #0]
 8001bfe:	4a19      	ldr	r2, [pc, #100]	; (8001c64 <HAL_TIM_PWM_Start+0x8c>)
 8001c00:	4293      	cmp	r3, r2
 8001c02:	d009      	beq.n	8001c18 <HAL_TIM_PWM_Start+0x40>
 8001c04:	687b      	ldr	r3, [r7, #4]
 8001c06:	681b      	ldr	r3, [r3, #0]
 8001c08:	4a17      	ldr	r2, [pc, #92]	; (8001c68 <HAL_TIM_PWM_Start+0x90>)
 8001c0a:	4293      	cmp	r3, r2
 8001c0c:	d004      	beq.n	8001c18 <HAL_TIM_PWM_Start+0x40>
 8001c0e:	687b      	ldr	r3, [r7, #4]
 8001c10:	681b      	ldr	r3, [r3, #0]
 8001c12:	4a16      	ldr	r2, [pc, #88]	; (8001c6c <HAL_TIM_PWM_Start+0x94>)
 8001c14:	4293      	cmp	r3, r2
 8001c16:	d101      	bne.n	8001c1c <HAL_TIM_PWM_Start+0x44>
 8001c18:	2301      	movs	r3, #1
 8001c1a:	e000      	b.n	8001c1e <HAL_TIM_PWM_Start+0x46>
 8001c1c:	2300      	movs	r3, #0
 8001c1e:	2b00      	cmp	r3, #0
 8001c20:	d008      	beq.n	8001c34 <HAL_TIM_PWM_Start+0x5c>
  {
    /* Enable the main output */
    __HAL_TIM_MOE_ENABLE(htim);
 8001c22:	687b      	ldr	r3, [r7, #4]
 8001c24:	681b      	ldr	r3, [r3, #0]
 8001c26:	6c5a      	ldr	r2, [r3, #68]	; 0x44
 8001c28:	687b      	ldr	r3, [r7, #4]
 8001c2a:	681b      	ldr	r3, [r3, #0]
 8001c2c:	2180      	movs	r1, #128	; 0x80
 8001c2e:	0209      	lsls	r1, r1, #8
 8001c30:	430a      	orrs	r2, r1
 8001c32:	645a      	str	r2, [r3, #68]	; 0x44
  }

  /* Enable the Peripheral, except in trigger mode where enable is automatically done with trigger */
  tmpsmcr = htim->Instance->SMCR & TIM_SMCR_SMS;
 8001c34:	687b      	ldr	r3, [r7, #4]
 8001c36:	681b      	ldr	r3, [r3, #0]
 8001c38:	689b      	ldr	r3, [r3, #8]
 8001c3a:	2207      	movs	r2, #7
 8001c3c:	4013      	ands	r3, r2
 8001c3e:	60fb      	str	r3, [r7, #12]
  if (!IS_TIM_SLAVEMODE_TRIGGER_ENABLED(tmpsmcr))
 8001c40:	68fb      	ldr	r3, [r7, #12]
 8001c42:	2b06      	cmp	r3, #6
 8001c44:	d007      	beq.n	8001c56 <HAL_TIM_PWM_Start+0x7e>
  {
    __HAL_TIM_ENABLE(htim);
 8001c46:	687b      	ldr	r3, [r7, #4]
 8001c48:	681b      	ldr	r3, [r3, #0]
 8001c4a:	681a      	ldr	r2, [r3, #0]
 8001c4c:	687b      	ldr	r3, [r7, #4]
 8001c4e:	681b      	ldr	r3, [r3, #0]
 8001c50:	2101      	movs	r1, #1
 8001c52:	430a      	orrs	r2, r1
 8001c54:	601a      	str	r2, [r3, #0]
  }

  /* Return function status */
  return HAL_OK;
 8001c56:	2300      	movs	r3, #0
}
 8001c58:	0018      	movs	r0, r3
 8001c5a:	46bd      	mov	sp, r7
 8001c5c:	b004      	add	sp, #16
 8001c5e:	bd80      	pop	{r7, pc}
 8001c60:	40012c00 	.word	0x40012c00
 8001c64:	40014000 	.word	0x40014000
 8001c68:	40014400 	.word	0x40014400
 8001c6c:	40014800 	.word	0x40014800

08001c70 <HAL_TIM_Encoder_Init>:
  * @param  htim TIM Encoder Interface handle
  * @param  sConfig TIM Encoder Interface configuration structure
  * @retval HAL status
  */
HAL_StatusTypeDef HAL_TIM_Encoder_Init(TIM_HandleTypeDef *htim,  TIM_Encoder_InitTypeDef *sConfig)
{
 8001c70:	b580      	push	{r7, lr}
 8001c72:	b086      	sub	sp, #24
 8001c74:	af00      	add	r7, sp, #0
 8001c76:	6078      	str	r0, [r7, #4]
 8001c78:	6039      	str	r1, [r7, #0]
  uint32_t tmpsmcr;
  uint32_t tmpccmr1;
  uint32_t tmpccer;

  /* Check the TIM handle allocation */
  if (htim == NULL)
 8001c7a:	687b      	ldr	r3, [r7, #4]
 8001c7c:	2b00      	cmp	r3, #0
 8001c7e:	d101      	bne.n	8001c84 <HAL_TIM_Encoder_Init+0x14>
  {
    return HAL_ERROR;
 8001c80:	2301      	movs	r3, #1
 8001c82:	e07c      	b.n	8001d7e <HAL_TIM_Encoder_Init+0x10e>
  assert_param(IS_TIM_IC_PRESCALER(sConfig->IC1Prescaler));
  assert_param(IS_TIM_IC_PRESCALER(sConfig->IC2Prescaler));
  assert_param(IS_TIM_IC_FILTER(sConfig->IC1Filter));
  assert_param(IS_TIM_IC_FILTER(sConfig->IC2Filter));

  if (htim->State == HAL_TIM_STATE_RESET)
 8001c84:	687b      	ldr	r3, [r7, #4]
 8001c86:	223d      	movs	r2, #61	; 0x3d
 8001c88:	5c9b      	ldrb	r3, [r3, r2]
 8001c8a:	b2db      	uxtb	r3, r3
 8001c8c:	2b00      	cmp	r3, #0
 8001c8e:	d107      	bne.n	8001ca0 <HAL_TIM_Encoder_Init+0x30>
  {
    /* Allocate lock resource and initialize it */
    htim->Lock = HAL_UNLOCKED;
 8001c90:	687b      	ldr	r3, [r7, #4]
 8001c92:	223c      	movs	r2, #60	; 0x3c
 8001c94:	2100      	movs	r1, #0
 8001c96:	5499      	strb	r1, [r3, r2]
    }
    /* Init the low level hardware : GPIO, CLOCK, NVIC */
    htim->Encoder_MspInitCallback(htim);
#else
    /* Init the low level hardware : GPIO, CLOCK, NVIC and DMA */
    HAL_TIM_Encoder_MspInit(htim);
 8001c98:	687b      	ldr	r3, [r7, #4]
 8001c9a:	0018      	movs	r0, r3
 8001c9c:	f7fe fe7c 	bl	8000998 <HAL_TIM_Encoder_MspInit>
#endif /* USE_HAL_TIM_REGISTER_CALLBACKS */
  }

  /* Set the TIM state */
  htim->State = HAL_TIM_STATE_BUSY;
 8001ca0:	687b      	ldr	r3, [r7, #4]
 8001ca2:	223d      	movs	r2, #61	; 0x3d
 8001ca4:	2102      	movs	r1, #2
 8001ca6:	5499      	strb	r1, [r3, r2]

  /* Reset the SMS and ECE bits */
  htim->Instance->SMCR &= ~(TIM_SMCR_SMS | TIM_SMCR_ECE);
 8001ca8:	687b      	ldr	r3, [r7, #4]
 8001caa:	681b      	ldr	r3, [r3, #0]
 8001cac:	689a      	ldr	r2, [r3, #8]
 8001cae:	687b      	ldr	r3, [r7, #4]
 8001cb0:	681b      	ldr	r3, [r3, #0]
 8001cb2:	4935      	ldr	r1, [pc, #212]	; (8001d88 <HAL_TIM_Encoder_Init+0x118>)
 8001cb4:	400a      	ands	r2, r1
 8001cb6:	609a      	str	r2, [r3, #8]

  /* Configure the Time base in the Encoder Mode */
  TIM_Base_SetConfig(htim->Instance, &htim->Init);
 8001cb8:	687b      	ldr	r3, [r7, #4]
 8001cba:	681a      	ldr	r2, [r3, #0]
 8001cbc:	687b      	ldr	r3, [r7, #4]
 8001cbe:	3304      	adds	r3, #4
 8001cc0:	0019      	movs	r1, r3
 8001cc2:	0010      	movs	r0, r2
 8001cc4:	f000 fa5e 	bl	8002184 <TIM_Base_SetConfig>

  /* Get the TIMx SMCR register value */
  tmpsmcr = htim->Instance->SMCR;
 8001cc8:	687b      	ldr	r3, [r7, #4]
 8001cca:	681b      	ldr	r3, [r3, #0]
 8001ccc:	689b      	ldr	r3, [r3, #8]
 8001cce:	617b      	str	r3, [r7, #20]

  /* Get the TIMx CCMR1 register value */
  tmpccmr1 = htim->Instance->CCMR1;
 8001cd0:	687b      	ldr	r3, [r7, #4]
 8001cd2:	681b      	ldr	r3, [r3, #0]
 8001cd4:	699b      	ldr	r3, [r3, #24]
 8001cd6:	613b      	str	r3, [r7, #16]

  /* Get the TIMx CCER register value */
  tmpccer = htim->Instance->CCER;
 8001cd8:	687b      	ldr	r3, [r7, #4]
 8001cda:	681b      	ldr	r3, [r3, #0]
 8001cdc:	6a1b      	ldr	r3, [r3, #32]
 8001cde:	60fb      	str	r3, [r7, #12]

  /* Set the encoder Mode */
  tmpsmcr |= sConfig->EncoderMode;
 8001ce0:	683b      	ldr	r3, [r7, #0]
 8001ce2:	681b      	ldr	r3, [r3, #0]
 8001ce4:	697a      	ldr	r2, [r7, #20]
 8001ce6:	4313      	orrs	r3, r2
 8001ce8:	617b      	str	r3, [r7, #20]

  /* Select the Capture Compare 1 and the Capture Compare 2 as input */
  tmpccmr1 &= ~(TIM_CCMR1_CC1S | TIM_CCMR1_CC2S);
 8001cea:	693b      	ldr	r3, [r7, #16]
 8001cec:	4a27      	ldr	r2, [pc, #156]	; (8001d8c <HAL_TIM_Encoder_Init+0x11c>)
 8001cee:	4013      	ands	r3, r2
 8001cf0:	613b      	str	r3, [r7, #16]
  tmpccmr1 |= (sConfig->IC1Selection | (sConfig->IC2Selection << 8U));
 8001cf2:	683b      	ldr	r3, [r7, #0]
 8001cf4:	689a      	ldr	r2, [r3, #8]
 8001cf6:	683b      	ldr	r3, [r7, #0]
 8001cf8:	699b      	ldr	r3, [r3, #24]
 8001cfa:	021b      	lsls	r3, r3, #8
 8001cfc:	4313      	orrs	r3, r2
 8001cfe:	693a      	ldr	r2, [r7, #16]
 8001d00:	4313      	orrs	r3, r2
 8001d02:	613b      	str	r3, [r7, #16]

  /* Set the Capture Compare 1 and the Capture Compare 2 prescalers and filters */
  tmpccmr1 &= ~(TIM_CCMR1_IC1PSC | TIM_CCMR1_IC2PSC);
 8001d04:	693b      	ldr	r3, [r7, #16]
 8001d06:	4a22      	ldr	r2, [pc, #136]	; (8001d90 <HAL_TIM_Encoder_Init+0x120>)
 8001d08:	4013      	ands	r3, r2
 8001d0a:	613b      	str	r3, [r7, #16]
  tmpccmr1 &= ~(TIM_CCMR1_IC1F | TIM_CCMR1_IC2F);
 8001d0c:	693b      	ldr	r3, [r7, #16]
 8001d0e:	4a21      	ldr	r2, [pc, #132]	; (8001d94 <HAL_TIM_Encoder_Init+0x124>)
 8001d10:	4013      	ands	r3, r2
 8001d12:	613b      	str	r3, [r7, #16]
  tmpccmr1 |= sConfig->IC1Prescaler | (sConfig->IC2Prescaler << 8U);
 8001d14:	683b      	ldr	r3, [r7, #0]
 8001d16:	68da      	ldr	r2, [r3, #12]
 8001d18:	683b      	ldr	r3, [r7, #0]
 8001d1a:	69db      	ldr	r3, [r3, #28]
 8001d1c:	021b      	lsls	r3, r3, #8
 8001d1e:	4313      	orrs	r3, r2
 8001d20:	693a      	ldr	r2, [r7, #16]
 8001d22:	4313      	orrs	r3, r2
 8001d24:	613b      	str	r3, [r7, #16]
  tmpccmr1 |= (sConfig->IC1Filter << 4U) | (sConfig->IC2Filter << 12U);
 8001d26:	683b      	ldr	r3, [r7, #0]
 8001d28:	691b      	ldr	r3, [r3, #16]
 8001d2a:	011a      	lsls	r2, r3, #4
 8001d2c:	683b      	ldr	r3, [r7, #0]
 8001d2e:	6a1b      	ldr	r3, [r3, #32]
 8001d30:	031b      	lsls	r3, r3, #12
 8001d32:	4313      	orrs	r3, r2
 8001d34:	693a      	ldr	r2, [r7, #16]
 8001d36:	4313      	orrs	r3, r2
 8001d38:	613b      	str	r3, [r7, #16]

  /* Set the TI1 and the TI2 Polarities */
  tmpccer &= ~(TIM_CCER_CC1P | TIM_CCER_CC2P);
 8001d3a:	68fb      	ldr	r3, [r7, #12]
 8001d3c:	2222      	movs	r2, #34	; 0x22
 8001d3e:	4393      	bics	r3, r2
 8001d40:	60fb      	str	r3, [r7, #12]
  tmpccer &= ~(TIM_CCER_CC1NP | TIM_CCER_CC2NP);
 8001d42:	68fb      	ldr	r3, [r7, #12]
 8001d44:	2288      	movs	r2, #136	; 0x88
 8001d46:	4393      	bics	r3, r2
 8001d48:	60fb      	str	r3, [r7, #12]
  tmpccer |= sConfig->IC1Polarity | (sConfig->IC2Polarity << 4U);
 8001d4a:	683b      	ldr	r3, [r7, #0]
 8001d4c:	685a      	ldr	r2, [r3, #4]
 8001d4e:	683b      	ldr	r3, [r7, #0]
 8001d50:	695b      	ldr	r3, [r3, #20]
 8001d52:	011b      	lsls	r3, r3, #4
 8001d54:	4313      	orrs	r3, r2
 8001d56:	68fa      	ldr	r2, [r7, #12]
 8001d58:	4313      	orrs	r3, r2
 8001d5a:	60fb      	str	r3, [r7, #12]

  /* Write to TIMx SMCR */
  htim->Instance->SMCR = tmpsmcr;
 8001d5c:	687b      	ldr	r3, [r7, #4]
 8001d5e:	681b      	ldr	r3, [r3, #0]
 8001d60:	697a      	ldr	r2, [r7, #20]
 8001d62:	609a      	str	r2, [r3, #8]

  /* Write to TIMx CCMR1 */
  htim->Instance->CCMR1 = tmpccmr1;
 8001d64:	687b      	ldr	r3, [r7, #4]
 8001d66:	681b      	ldr	r3, [r3, #0]
 8001d68:	693a      	ldr	r2, [r7, #16]
 8001d6a:	619a      	str	r2, [r3, #24]

  /* Write to TIMx CCER */
  htim->Instance->CCER = tmpccer;
 8001d6c:	687b      	ldr	r3, [r7, #4]
 8001d6e:	681b      	ldr	r3, [r3, #0]
 8001d70:	68fa      	ldr	r2, [r7, #12]
 8001d72:	621a      	str	r2, [r3, #32]

  /* Initialize the TIM state*/
  htim->State = HAL_TIM_STATE_READY;
 8001d74:	687b      	ldr	r3, [r7, #4]
 8001d76:	223d      	movs	r2, #61	; 0x3d
 8001d78:	2101      	movs	r1, #1
 8001d7a:	5499      	strb	r1, [r3, r2]

  return HAL_OK;
 8001d7c:	2300      	movs	r3, #0
}
 8001d7e:	0018      	movs	r0, r3
 8001d80:	46bd      	mov	sp, r7
 8001d82:	b006      	add	sp, #24
 8001d84:	bd80      	pop	{r7, pc}
 8001d86:	46c0      	nop			; (mov r8, r8)
 8001d88:	ffffbff8 	.word	0xffffbff8
 8001d8c:	fffffcfc 	.word	0xfffffcfc
 8001d90:	fffff3f3 	.word	0xfffff3f3
 8001d94:	ffff0f0f 	.word	0xffff0f0f

08001d98 <HAL_TIM_IRQHandler>:
  * @brief  This function handles TIM interrupts requests.
  * @param  htim TIM  handle
  * @retval None
  */
void HAL_TIM_IRQHandler(TIM_HandleTypeDef *htim)
{
 8001d98:	b580      	push	{r7, lr}
 8001d9a:	b082      	sub	sp, #8
 8001d9c:	af00      	add	r7, sp, #0
 8001d9e:	6078      	str	r0, [r7, #4]
  /* Capture compare 1 event */
  if (__HAL_TIM_GET_FLAG(htim, TIM_FLAG_CC1) != RESET)
 8001da0:	687b      	ldr	r3, [r7, #4]
 8001da2:	681b      	ldr	r3, [r3, #0]
 8001da4:	691b      	ldr	r3, [r3, #16]
 8001da6:	2202      	movs	r2, #2
 8001da8:	4013      	ands	r3, r2
 8001daa:	2b02      	cmp	r3, #2
 8001dac:	d124      	bne.n	8001df8 <HAL_TIM_IRQHandler+0x60>
  {
    if (__HAL_TIM_GET_IT_SOURCE(htim, TIM_IT_CC1) != RESET)
 8001dae:	687b      	ldr	r3, [r7, #4]
 8001db0:	681b      	ldr	r3, [r3, #0]
 8001db2:	68db      	ldr	r3, [r3, #12]
 8001db4:	2202      	movs	r2, #2
 8001db6:	4013      	ands	r3, r2
 8001db8:	2b02      	cmp	r3, #2
 8001dba:	d11d      	bne.n	8001df8 <HAL_TIM_IRQHandler+0x60>
    {
      {
        __HAL_TIM_CLEAR_IT(htim, TIM_IT_CC1);
 8001dbc:	687b      	ldr	r3, [r7, #4]
 8001dbe:	681b      	ldr	r3, [r3, #0]
 8001dc0:	2203      	movs	r2, #3
 8001dc2:	4252      	negs	r2, r2
 8001dc4:	611a      	str	r2, [r3, #16]
        htim->Channel = HAL_TIM_ACTIVE_CHANNEL_1;
 8001dc6:	687b      	ldr	r3, [r7, #4]
 8001dc8:	2201      	movs	r2, #1
 8001dca:	771a      	strb	r2, [r3, #28]

        /* Input capture event */
        if ((htim->Instance->CCMR1 & TIM_CCMR1_CC1S) != 0x00U)
 8001dcc:	687b      	ldr	r3, [r7, #4]
 8001dce:	681b      	ldr	r3, [r3, #0]
 8001dd0:	699b      	ldr	r3, [r3, #24]
 8001dd2:	2203      	movs	r2, #3
 8001dd4:	4013      	ands	r3, r2
 8001dd6:	d004      	beq.n	8001de2 <HAL_TIM_IRQHandler+0x4a>
        {
#if (USE_HAL_TIM_REGISTER_CALLBACKS == 1)
          htim->IC_CaptureCallback(htim);
#else
          HAL_TIM_IC_CaptureCallback(htim);
 8001dd8:	687b      	ldr	r3, [r7, #4]
 8001dda:	0018      	movs	r0, r3
 8001ddc:	f000 f9ba 	bl	8002154 <HAL_TIM_IC_CaptureCallback>
 8001de0:	e007      	b.n	8001df2 <HAL_TIM_IRQHandler+0x5a>
        {
#if (USE_HAL_TIM_REGISTER_CALLBACKS == 1)
          htim->OC_DelayElapsedCallback(htim);
          htim->PWM_PulseFinishedCallback(htim);
#else
          HAL_TIM_OC_DelayElapsedCallback(htim);
 8001de2:	687b      	ldr	r3, [r7, #4]
 8001de4:	0018      	movs	r0, r3
 8001de6:	f000 f9ad 	bl	8002144 <HAL_TIM_OC_DelayElapsedCallback>
          HAL_TIM_PWM_PulseFinishedCallback(htim);
 8001dea:	687b      	ldr	r3, [r7, #4]
 8001dec:	0018      	movs	r0, r3
 8001dee:	f000 f9b9 	bl	8002164 <HAL_TIM_PWM_PulseFinishedCallback>
#endif /* USE_HAL_TIM_REGISTER_CALLBACKS */
        }
        htim->Channel = HAL_TIM_ACTIVE_CHANNEL_CLEARED;
 8001df2:	687b      	ldr	r3, [r7, #4]
 8001df4:	2200      	movs	r2, #0
 8001df6:	771a      	strb	r2, [r3, #28]
      }
    }
  }
  /* Capture compare 2 event */
  if (__HAL_TIM_GET_FLAG(htim, TIM_FLAG_CC2) != RESET)
 8001df8:	687b      	ldr	r3, [r7, #4]
 8001dfa:	681b      	ldr	r3, [r3, #0]
 8001dfc:	691b      	ldr	r3, [r3, #16]
 8001dfe:	2204      	movs	r2, #4
 8001e00:	4013      	ands	r3, r2
 8001e02:	2b04      	cmp	r3, #4
 8001e04:	d125      	bne.n	8001e52 <HAL_TIM_IRQHandler+0xba>
  {
    if (__HAL_TIM_GET_IT_SOURCE(htim, TIM_IT_CC2) != RESET)
 8001e06:	687b      	ldr	r3, [r7, #4]
 8001e08:	681b      	ldr	r3, [r3, #0]
 8001e0a:	68db      	ldr	r3, [r3, #12]
 8001e0c:	2204      	movs	r2, #4
 8001e0e:	4013      	ands	r3, r2
 8001e10:	2b04      	cmp	r3, #4
 8001e12:	d11e      	bne.n	8001e52 <HAL_TIM_IRQHandler+0xba>
    {
      __HAL_TIM_CLEAR_IT(htim, TIM_IT_CC2);
 8001e14:	687b      	ldr	r3, [r7, #4]
 8001e16:	681b      	ldr	r3, [r3, #0]
 8001e18:	2205      	movs	r2, #5
 8001e1a:	4252      	negs	r2, r2
 8001e1c:	611a      	str	r2, [r3, #16]
      htim->Channel = HAL_TIM_ACTIVE_CHANNEL_2;
 8001e1e:	687b      	ldr	r3, [r7, #4]
 8001e20:	2202      	movs	r2, #2
 8001e22:	771a      	strb	r2, [r3, #28]
      /* Input capture event */
      if ((htim->Instance->CCMR1 & TIM_CCMR1_CC2S) != 0x00U)
 8001e24:	687b      	ldr	r3, [r7, #4]
 8001e26:	681b      	ldr	r3, [r3, #0]
 8001e28:	699a      	ldr	r2, [r3, #24]
 8001e2a:	23c0      	movs	r3, #192	; 0xc0
 8001e2c:	009b      	lsls	r3, r3, #2
 8001e2e:	4013      	ands	r3, r2
 8001e30:	d004      	beq.n	8001e3c <HAL_TIM_IRQHandler+0xa4>
      {
#if (USE_HAL_TIM_REGISTER_CALLBACKS == 1)
        htim->IC_CaptureCallback(htim);
#else
        HAL_TIM_IC_CaptureCallback(htim);
 8001e32:	687b      	ldr	r3, [r7, #4]
 8001e34:	0018      	movs	r0, r3
 8001e36:	f000 f98d 	bl	8002154 <HAL_TIM_IC_CaptureCallback>
 8001e3a:	e007      	b.n	8001e4c <HAL_TIM_IRQHandler+0xb4>
      {
#if (USE_HAL_TIM_REGISTER_CALLBACKS == 1)
        htim->OC_DelayElapsedCallback(htim);
        htim->PWM_PulseFinishedCallback(htim);
#else
        HAL_TIM_OC_DelayElapsedCallback(htim);
 8001e3c:	687b      	ldr	r3, [r7, #4]
 8001e3e:	0018      	movs	r0, r3
 8001e40:	f000 f980 	bl	8002144 <HAL_TIM_OC_DelayElapsedCallback>
        HAL_TIM_PWM_PulseFinishedCallback(htim);
 8001e44:	687b      	ldr	r3, [r7, #4]
 8001e46:	0018      	movs	r0, r3
 8001e48:	f000 f98c 	bl	8002164 <HAL_TIM_PWM_PulseFinishedCallback>
#endif /* USE_HAL_TIM_REGISTER_CALLBACKS */
      }
      htim->Channel = HAL_TIM_ACTIVE_CHANNEL_CLEARED;
 8001e4c:	687b      	ldr	r3, [r7, #4]
 8001e4e:	2200      	movs	r2, #0
 8001e50:	771a      	strb	r2, [r3, #28]
    }
  }
  /* Capture compare 3 event */
  if (__HAL_TIM_GET_FLAG(htim, TIM_FLAG_CC3) != RESET)
 8001e52:	687b      	ldr	r3, [r7, #4]
 8001e54:	681b      	ldr	r3, [r3, #0]
 8001e56:	691b      	ldr	r3, [r3, #16]
 8001e58:	2208      	movs	r2, #8
 8001e5a:	4013      	ands	r3, r2
 8001e5c:	2b08      	cmp	r3, #8
 8001e5e:	d124      	bne.n	8001eaa <HAL_TIM_IRQHandler+0x112>
  {
    if (__HAL_TIM_GET_IT_SOURCE(htim, TIM_IT_CC3) != RESET)
 8001e60:	687b      	ldr	r3, [r7, #4]
 8001e62:	681b      	ldr	r3, [r3, #0]
 8001e64:	68db      	ldr	r3, [r3, #12]
 8001e66:	2208      	movs	r2, #8
 8001e68:	4013      	ands	r3, r2
 8001e6a:	2b08      	cmp	r3, #8
 8001e6c:	d11d      	bne.n	8001eaa <HAL_TIM_IRQHandler+0x112>
    {
      __HAL_TIM_CLEAR_IT(htim, TIM_IT_CC3);
 8001e6e:	687b      	ldr	r3, [r7, #4]
 8001e70:	681b      	ldr	r3, [r3, #0]
 8001e72:	2209      	movs	r2, #9
 8001e74:	4252      	negs	r2, r2
 8001e76:	611a      	str	r2, [r3, #16]
      htim->Channel = HAL_TIM_ACTIVE_CHANNEL_3;
 8001e78:	687b      	ldr	r3, [r7, #4]
 8001e7a:	2204      	movs	r2, #4
 8001e7c:	771a      	strb	r2, [r3, #28]
      /* Input capture event */
      if ((htim->Instance->CCMR2 & TIM_CCMR2_CC3S) != 0x00U)
 8001e7e:	687b      	ldr	r3, [r7, #4]
 8001e80:	681b      	ldr	r3, [r3, #0]
 8001e82:	69db      	ldr	r3, [r3, #28]
 8001e84:	2203      	movs	r2, #3
 8001e86:	4013      	ands	r3, r2
 8001e88:	d004      	beq.n	8001e94 <HAL_TIM_IRQHandler+0xfc>
      {
#if (USE_HAL_TIM_REGISTER_CALLBACKS == 1)
        htim->IC_CaptureCallback(htim);
#else
        HAL_TIM_IC_CaptureCallback(htim);
 8001e8a:	687b      	ldr	r3, [r7, #4]
 8001e8c:	0018      	movs	r0, r3
 8001e8e:	f000 f961 	bl	8002154 <HAL_TIM_IC_CaptureCallback>
 8001e92:	e007      	b.n	8001ea4 <HAL_TIM_IRQHandler+0x10c>
      {
#if (USE_HAL_TIM_REGISTER_CALLBACKS == 1)
        htim->OC_DelayElapsedCallback(htim);
        htim->PWM_PulseFinishedCallback(htim);
#else
        HAL_TIM_OC_DelayElapsedCallback(htim);
 8001e94:	687b      	ldr	r3, [r7, #4]
 8001e96:	0018      	movs	r0, r3
 8001e98:	f000 f954 	bl	8002144 <HAL_TIM_OC_DelayElapsedCallback>
        HAL_TIM_PWM_PulseFinishedCallback(htim);
 8001e9c:	687b      	ldr	r3, [r7, #4]
 8001e9e:	0018      	movs	r0, r3
 8001ea0:	f000 f960 	bl	8002164 <HAL_TIM_PWM_PulseFinishedCallback>
#endif /* USE_HAL_TIM_REGISTER_CALLBACKS */
      }
      htim->Channel = HAL_TIM_ACTIVE_CHANNEL_CLEARED;
 8001ea4:	687b      	ldr	r3, [r7, #4]
 8001ea6:	2200      	movs	r2, #0
 8001ea8:	771a      	strb	r2, [r3, #28]
    }
  }
  /* Capture compare 4 event */
  if (__HAL_TIM_GET_FLAG(htim, TIM_FLAG_CC4) != RESET)
 8001eaa:	687b      	ldr	r3, [r7, #4]
 8001eac:	681b      	ldr	r3, [r3, #0]
 8001eae:	691b      	ldr	r3, [r3, #16]
 8001eb0:	2210      	movs	r2, #16
 8001eb2:	4013      	ands	r3, r2
 8001eb4:	2b10      	cmp	r3, #16
 8001eb6:	d125      	bne.n	8001f04 <HAL_TIM_IRQHandler+0x16c>
  {
    if (__HAL_TIM_GET_IT_SOURCE(htim, TIM_IT_CC4) != RESET)
 8001eb8:	687b      	ldr	r3, [r7, #4]
 8001eba:	681b      	ldr	r3, [r3, #0]
 8001ebc:	68db      	ldr	r3, [r3, #12]
 8001ebe:	2210      	movs	r2, #16
 8001ec0:	4013      	ands	r3, r2
 8001ec2:	2b10      	cmp	r3, #16
 8001ec4:	d11e      	bne.n	8001f04 <HAL_TIM_IRQHandler+0x16c>
    {
      __HAL_TIM_CLEAR_IT(htim, TIM_IT_CC4);
 8001ec6:	687b      	ldr	r3, [r7, #4]
 8001ec8:	681b      	ldr	r3, [r3, #0]
 8001eca:	2211      	movs	r2, #17
 8001ecc:	4252      	negs	r2, r2
 8001ece:	611a      	str	r2, [r3, #16]
      htim->Channel = HAL_TIM_ACTIVE_CHANNEL_4;
 8001ed0:	687b      	ldr	r3, [r7, #4]
 8001ed2:	2208      	movs	r2, #8
 8001ed4:	771a      	strb	r2, [r3, #28]
      /* Input capture event */
      if ((htim->Instance->CCMR2 & TIM_CCMR2_CC4S) != 0x00U)
 8001ed6:	687b      	ldr	r3, [r7, #4]
 8001ed8:	681b      	ldr	r3, [r3, #0]
 8001eda:	69da      	ldr	r2, [r3, #28]
 8001edc:	23c0      	movs	r3, #192	; 0xc0
 8001ede:	009b      	lsls	r3, r3, #2
 8001ee0:	4013      	ands	r3, r2
 8001ee2:	d004      	beq.n	8001eee <HAL_TIM_IRQHandler+0x156>
      {
#if (USE_HAL_TIM_REGISTER_CALLBACKS == 1)
        htim->IC_CaptureCallback(htim);
#else
        HAL_TIM_IC_CaptureCallback(htim);
 8001ee4:	687b      	ldr	r3, [r7, #4]
 8001ee6:	0018      	movs	r0, r3
 8001ee8:	f000 f934 	bl	8002154 <HAL_TIM_IC_CaptureCallback>
 8001eec:	e007      	b.n	8001efe <HAL_TIM_IRQHandler+0x166>
      {
#if (USE_HAL_TIM_REGISTER_CALLBACKS == 1)
        htim->OC_DelayElapsedCallback(htim);
        htim->PWM_PulseFinishedCallback(htim);
#else
        HAL_TIM_OC_DelayElapsedCallback(htim);
 8001eee:	687b      	ldr	r3, [r7, #4]
 8001ef0:	0018      	movs	r0, r3
 8001ef2:	f000 f927 	bl	8002144 <HAL_TIM_OC_DelayElapsedCallback>
        HAL_TIM_PWM_PulseFinishedCallback(htim);
 8001ef6:	687b      	ldr	r3, [r7, #4]
 8001ef8:	0018      	movs	r0, r3
 8001efa:	f000 f933 	bl	8002164 <HAL_TIM_PWM_PulseFinishedCallback>
#endif /* USE_HAL_TIM_REGISTER_CALLBACKS */
      }
      htim->Channel = HAL_TIM_ACTIVE_CHANNEL_CLEARED;
 8001efe:	687b      	ldr	r3, [r7, #4]
 8001f00:	2200      	movs	r2, #0
 8001f02:	771a      	strb	r2, [r3, #28]
    }
  }
  /* TIM Update event */
  if (__HAL_TIM_GET_FLAG(htim, TIM_FLAG_UPDATE) != RESET)
 8001f04:	687b      	ldr	r3, [r7, #4]
 8001f06:	681b      	ldr	r3, [r3, #0]
 8001f08:	691b      	ldr	r3, [r3, #16]
 8001f0a:	2201      	movs	r2, #1
 8001f0c:	4013      	ands	r3, r2
 8001f0e:	2b01      	cmp	r3, #1
 8001f10:	d10f      	bne.n	8001f32 <HAL_TIM_IRQHandler+0x19a>
  {
    if (__HAL_TIM_GET_IT_SOURCE(htim, TIM_IT_UPDATE) != RESET)
 8001f12:	687b      	ldr	r3, [r7, #4]
 8001f14:	681b      	ldr	r3, [r3, #0]
 8001f16:	68db      	ldr	r3, [r3, #12]
 8001f18:	2201      	movs	r2, #1
 8001f1a:	4013      	ands	r3, r2
 8001f1c:	2b01      	cmp	r3, #1
 8001f1e:	d108      	bne.n	8001f32 <HAL_TIM_IRQHandler+0x19a>
    {
      __HAL_TIM_CLEAR_IT(htim, TIM_IT_UPDATE);
 8001f20:	687b      	ldr	r3, [r7, #4]
 8001f22:	681b      	ldr	r3, [r3, #0]
 8001f24:	2202      	movs	r2, #2
 8001f26:	4252      	negs	r2, r2
 8001f28:	611a      	str	r2, [r3, #16]
#if (USE_HAL_TIM_REGISTER_CALLBACKS == 1)
      htim->PeriodElapsedCallback(htim);
#else
      HAL_TIM_PeriodElapsedCallback(htim);
 8001f2a:	687b      	ldr	r3, [r7, #4]
 8001f2c:	0018      	movs	r0, r3
 8001f2e:	f000 f901 	bl	8002134 <HAL_TIM_PeriodElapsedCallback>
#endif /* USE_HAL_TIM_REGISTER_CALLBACKS */
    }
  }
  /* TIM Break input event */
  if (__HAL_TIM_GET_FLAG(htim, TIM_FLAG_BREAK) != RESET)
 8001f32:	687b      	ldr	r3, [r7, #4]
 8001f34:	681b      	ldr	r3, [r3, #0]
 8001f36:	691b      	ldr	r3, [r3, #16]
 8001f38:	2280      	movs	r2, #128	; 0x80
 8001f3a:	4013      	ands	r3, r2
 8001f3c:	2b80      	cmp	r3, #128	; 0x80
 8001f3e:	d10f      	bne.n	8001f60 <HAL_TIM_IRQHandler+0x1c8>
  {
    if (__HAL_TIM_GET_IT_SOURCE(htim, TIM_IT_BREAK) != RESET)
 8001f40:	687b      	ldr	r3, [r7, #4]
 8001f42:	681b      	ldr	r3, [r3, #0]
 8001f44:	68db      	ldr	r3, [r3, #12]
 8001f46:	2280      	movs	r2, #128	; 0x80
 8001f48:	4013      	ands	r3, r2
 8001f4a:	2b80      	cmp	r3, #128	; 0x80
 8001f4c:	d108      	bne.n	8001f60 <HAL_TIM_IRQHandler+0x1c8>
    {
      __HAL_TIM_CLEAR_IT(htim, TIM_IT_BREAK);
 8001f4e:	687b      	ldr	r3, [r7, #4]
 8001f50:	681b      	ldr	r3, [r3, #0]
 8001f52:	2281      	movs	r2, #129	; 0x81
 8001f54:	4252      	negs	r2, r2
 8001f56:	611a      	str	r2, [r3, #16]
#if (USE_HAL_TIM_REGISTER_CALLBACKS == 1)
      htim->BreakCallback(htim);
#else
      HAL_TIMEx_BreakCallback(htim);
 8001f58:	687b      	ldr	r3, [r7, #4]
 8001f5a:	0018      	movs	r0, r3
 8001f5c:	f000 fc76 	bl	800284c <HAL_TIMEx_BreakCallback>
#endif /* USE_HAL_TIM_REGISTER_CALLBACKS */
    }
  }
  /* TIM Trigger detection event */
  if (__HAL_TIM_GET_FLAG(htim, TIM_FLAG_TRIGGER) != RESET)
 8001f60:	687b      	ldr	r3, [r7, #4]
 8001f62:	681b      	ldr	r3, [r3, #0]
 8001f64:	691b      	ldr	r3, [r3, #16]
 8001f66:	2240      	movs	r2, #64	; 0x40
 8001f68:	4013      	ands	r3, r2
 8001f6a:	2b40      	cmp	r3, #64	; 0x40
 8001f6c:	d10f      	bne.n	8001f8e <HAL_TIM_IRQHandler+0x1f6>
  {
    if (__HAL_TIM_GET_IT_SOURCE(htim, TIM_IT_TRIGGER) != RESET)
 8001f6e:	687b      	ldr	r3, [r7, #4]
 8001f70:	681b      	ldr	r3, [r3, #0]
 8001f72:	68db      	ldr	r3, [r3, #12]
 8001f74:	2240      	movs	r2, #64	; 0x40
 8001f76:	4013      	ands	r3, r2
 8001f78:	2b40      	cmp	r3, #64	; 0x40
 8001f7a:	d108      	bne.n	8001f8e <HAL_TIM_IRQHandler+0x1f6>
    {
      __HAL_TIM_CLEAR_IT(htim, TIM_IT_TRIGGER);
 8001f7c:	687b      	ldr	r3, [r7, #4]
 8001f7e:	681b      	ldr	r3, [r3, #0]
 8001f80:	2241      	movs	r2, #65	; 0x41
 8001f82:	4252      	negs	r2, r2
 8001f84:	611a      	str	r2, [r3, #16]
#if (USE_HAL_TIM_REGISTER_CALLBACKS == 1)
      htim->TriggerCallback(htim);
#else
      HAL_TIM_TriggerCallback(htim);
 8001f86:	687b      	ldr	r3, [r7, #4]
 8001f88:	0018      	movs	r0, r3
 8001f8a:	f000 f8f3 	bl	8002174 <HAL_TIM_TriggerCallback>
#endif /* USE_HAL_TIM_REGISTER_CALLBACKS */
    }
  }
  /* TIM commutation event */
  if (__HAL_TIM_GET_FLAG(htim, TIM_FLAG_COM) != RESET)
 8001f8e:	687b      	ldr	r3, [r7, #4]
 8001f90:	681b      	ldr	r3, [r3, #0]
 8001f92:	691b      	ldr	r3, [r3, #16]
 8001f94:	2220      	movs	r2, #32
 8001f96:	4013      	ands	r3, r2
 8001f98:	2b20      	cmp	r3, #32
 8001f9a:	d10f      	bne.n	8001fbc <HAL_TIM_IRQHandler+0x224>
  {
    if (__HAL_TIM_GET_IT_SOURCE(htim, TIM_IT_COM) != RESET)
 8001f9c:	687b      	ldr	r3, [r7, #4]
 8001f9e:	681b      	ldr	r3, [r3, #0]
 8001fa0:	68db      	ldr	r3, [r3, #12]
 8001fa2:	2220      	movs	r2, #32
 8001fa4:	4013      	ands	r3, r2
 8001fa6:	2b20      	cmp	r3, #32
 8001fa8:	d108      	bne.n	8001fbc <HAL_TIM_IRQHandler+0x224>
    {
      __HAL_TIM_CLEAR_IT(htim, TIM_FLAG_COM);
 8001faa:	687b      	ldr	r3, [r7, #4]
 8001fac:	681b      	ldr	r3, [r3, #0]
 8001fae:	2221      	movs	r2, #33	; 0x21
 8001fb0:	4252      	negs	r2, r2
 8001fb2:	611a      	str	r2, [r3, #16]
#if (USE_HAL_TIM_REGISTER_CALLBACKS == 1)
      htim->CommutationCallback(htim);
#else
      HAL_TIMEx_CommutCallback(htim);
 8001fb4:	687b      	ldr	r3, [r7, #4]
 8001fb6:	0018      	movs	r0, r3
 8001fb8:	f000 fc40 	bl	800283c <HAL_TIMEx_CommutCallback>
#endif /* USE_HAL_TIM_REGISTER_CALLBACKS */
    }
  }
}
 8001fbc:	46c0      	nop			; (mov r8, r8)
 8001fbe:	46bd      	mov	sp, r7
 8001fc0:	b002      	add	sp, #8
 8001fc2:	bd80      	pop	{r7, pc}

08001fc4 <HAL_TIM_PWM_ConfigChannel>:
  * @retval HAL status
  */
HAL_StatusTypeDef HAL_TIM_PWM_ConfigChannel(TIM_HandleTypeDef *htim,
                                            TIM_OC_InitTypeDef *sConfig,
                                            uint32_t Channel)
{
 8001fc4:	b580      	push	{r7, lr}
 8001fc6:	b084      	sub	sp, #16
 8001fc8:	af00      	add	r7, sp, #0
 8001fca:	60f8      	str	r0, [r7, #12]
 8001fcc:	60b9      	str	r1, [r7, #8]
 8001fce:	607a      	str	r2, [r7, #4]
  assert_param(IS_TIM_PWM_MODE(sConfig->OCMode));
  assert_param(IS_TIM_OC_POLARITY(sConfig->OCPolarity));
  assert_param(IS_TIM_FAST_STATE(sConfig->OCFastMode));

  /* Process Locked */
  __HAL_LOCK(htim);
 8001fd0:	68fb      	ldr	r3, [r7, #12]
 8001fd2:	223c      	movs	r2, #60	; 0x3c
 8001fd4:	5c9b      	ldrb	r3, [r3, r2]
 8001fd6:	2b01      	cmp	r3, #1
 8001fd8:	d101      	bne.n	8001fde <HAL_TIM_PWM_ConfigChannel+0x1a>
 8001fda:	2302      	movs	r3, #2
 8001fdc:	e0a4      	b.n	8002128 <HAL_TIM_PWM_ConfigChannel+0x164>
 8001fde:	68fb      	ldr	r3, [r7, #12]
 8001fe0:	223c      	movs	r2, #60	; 0x3c
 8001fe2:	2101      	movs	r1, #1
 8001fe4:	5499      	strb	r1, [r3, r2]

  htim->State = HAL_TIM_STATE_BUSY;
 8001fe6:	68fb      	ldr	r3, [r7, #12]
 8001fe8:	223d      	movs	r2, #61	; 0x3d
 8001fea:	2102      	movs	r1, #2
 8001fec:	5499      	strb	r1, [r3, r2]

  switch (Channel)
 8001fee:	687b      	ldr	r3, [r7, #4]
 8001ff0:	2b04      	cmp	r3, #4
 8001ff2:	d029      	beq.n	8002048 <HAL_TIM_PWM_ConfigChannel+0x84>
 8001ff4:	d802      	bhi.n	8001ffc <HAL_TIM_PWM_ConfigChannel+0x38>
 8001ff6:	2b00      	cmp	r3, #0
 8001ff8:	d005      	beq.n	8002006 <HAL_TIM_PWM_ConfigChannel+0x42>
      htim->Instance->CCMR2 |= sConfig->OCFastMode << 8U;
      break;
    }

    default:
      break;
 8001ffa:	e08c      	b.n	8002116 <HAL_TIM_PWM_ConfigChannel+0x152>
  switch (Channel)
 8001ffc:	2b08      	cmp	r3, #8
 8001ffe:	d046      	beq.n	800208e <HAL_TIM_PWM_ConfigChannel+0xca>
 8002000:	2b0c      	cmp	r3, #12
 8002002:	d065      	beq.n	80020d0 <HAL_TIM_PWM_ConfigChannel+0x10c>
      break;
 8002004:	e087      	b.n	8002116 <HAL_TIM_PWM_ConfigChannel+0x152>
      TIM_OC1_SetConfig(htim->Instance, sConfig);
 8002006:	68fb      	ldr	r3, [r7, #12]
 8002008:	681b      	ldr	r3, [r3, #0]
 800200a:	68ba      	ldr	r2, [r7, #8]
 800200c:	0011      	movs	r1, r2
 800200e:	0018      	movs	r0, r3
 8002010:	f000 f938 	bl	8002284 <TIM_OC1_SetConfig>
      htim->Instance->CCMR1 |= TIM_CCMR1_OC1PE;
 8002014:	68fb      	ldr	r3, [r7, #12]
 8002016:	681b      	ldr	r3, [r3, #0]
 8002018:	699a      	ldr	r2, [r3, #24]
 800201a:	68fb      	ldr	r3, [r7, #12]
 800201c:	681b      	ldr	r3, [r3, #0]
 800201e:	2108      	movs	r1, #8
 8002020:	430a      	orrs	r2, r1
 8002022:	619a      	str	r2, [r3, #24]
      htim->Instance->CCMR1 &= ~TIM_CCMR1_OC1FE;
 8002024:	68fb      	ldr	r3, [r7, #12]
 8002026:	681b      	ldr	r3, [r3, #0]
 8002028:	699a      	ldr	r2, [r3, #24]
 800202a:	68fb      	ldr	r3, [r7, #12]
 800202c:	681b      	ldr	r3, [r3, #0]
 800202e:	2104      	movs	r1, #4
 8002030:	438a      	bics	r2, r1
 8002032:	619a      	str	r2, [r3, #24]
      htim->Instance->CCMR1 |= sConfig->OCFastMode;
 8002034:	68fb      	ldr	r3, [r7, #12]
 8002036:	681b      	ldr	r3, [r3, #0]
 8002038:	6999      	ldr	r1, [r3, #24]
 800203a:	68bb      	ldr	r3, [r7, #8]
 800203c:	691a      	ldr	r2, [r3, #16]
 800203e:	68fb      	ldr	r3, [r7, #12]
 8002040:	681b      	ldr	r3, [r3, #0]
 8002042:	430a      	orrs	r2, r1
 8002044:	619a      	str	r2, [r3, #24]
      break;
 8002046:	e066      	b.n	8002116 <HAL_TIM_PWM_ConfigChannel+0x152>
      TIM_OC2_SetConfig(htim->Instance, sConfig);
 8002048:	68fb      	ldr	r3, [r7, #12]
 800204a:	681b      	ldr	r3, [r3, #0]
 800204c:	68ba      	ldr	r2, [r7, #8]
 800204e:	0011      	movs	r1, r2
 8002050:	0018      	movs	r0, r3
 8002052:	f000 f99f 	bl	8002394 <TIM_OC2_SetConfig>
      htim->Instance->CCMR1 |= TIM_CCMR1_OC2PE;
 8002056:	68fb      	ldr	r3, [r7, #12]
 8002058:	681b      	ldr	r3, [r3, #0]
 800205a:	699a      	ldr	r2, [r3, #24]
 800205c:	68fb      	ldr	r3, [r7, #12]
 800205e:	681b      	ldr	r3, [r3, #0]
 8002060:	2180      	movs	r1, #128	; 0x80
 8002062:	0109      	lsls	r1, r1, #4
 8002064:	430a      	orrs	r2, r1
 8002066:	619a      	str	r2, [r3, #24]
      htim->Instance->CCMR1 &= ~TIM_CCMR1_OC2FE;
 8002068:	68fb      	ldr	r3, [r7, #12]
 800206a:	681b      	ldr	r3, [r3, #0]
 800206c:	699a      	ldr	r2, [r3, #24]
 800206e:	68fb      	ldr	r3, [r7, #12]
 8002070:	681b      	ldr	r3, [r3, #0]
 8002072:	492f      	ldr	r1, [pc, #188]	; (8002130 <HAL_TIM_PWM_ConfigChannel+0x16c>)
 8002074:	400a      	ands	r2, r1
 8002076:	619a      	str	r2, [r3, #24]
      htim->Instance->CCMR1 |= sConfig->OCFastMode << 8U;
 8002078:	68fb      	ldr	r3, [r7, #12]
 800207a:	681b      	ldr	r3, [r3, #0]
 800207c:	6999      	ldr	r1, [r3, #24]
 800207e:	68bb      	ldr	r3, [r7, #8]
 8002080:	691b      	ldr	r3, [r3, #16]
 8002082:	021a      	lsls	r2, r3, #8
 8002084:	68fb      	ldr	r3, [r7, #12]
 8002086:	681b      	ldr	r3, [r3, #0]
 8002088:	430a      	orrs	r2, r1
 800208a:	619a      	str	r2, [r3, #24]
      break;
 800208c:	e043      	b.n	8002116 <HAL_TIM_PWM_ConfigChannel+0x152>
      TIM_OC3_SetConfig(htim->Instance, sConfig);
 800208e:	68fb      	ldr	r3, [r7, #12]
 8002090:	681b      	ldr	r3, [r3, #0]
 8002092:	68ba      	ldr	r2, [r7, #8]
 8002094:	0011      	movs	r1, r2
 8002096:	0018      	movs	r0, r3
 8002098:	f000 fa00 	bl	800249c <TIM_OC3_SetConfig>
      htim->Instance->CCMR2 |= TIM_CCMR2_OC3PE;
 800209c:	68fb      	ldr	r3, [r7, #12]
 800209e:	681b      	ldr	r3, [r3, #0]
 80020a0:	69da      	ldr	r2, [r3, #28]
 80020a2:	68fb      	ldr	r3, [r7, #12]
 80020a4:	681b      	ldr	r3, [r3, #0]
 80020a6:	2108      	movs	r1, #8
 80020a8:	430a      	orrs	r2, r1
 80020aa:	61da      	str	r2, [r3, #28]
      htim->Instance->CCMR2 &= ~TIM_CCMR2_OC3FE;
 80020ac:	68fb      	ldr	r3, [r7, #12]
 80020ae:	681b      	ldr	r3, [r3, #0]
 80020b0:	69da      	ldr	r2, [r3, #28]
 80020b2:	68fb      	ldr	r3, [r7, #12]
 80020b4:	681b      	ldr	r3, [r3, #0]
 80020b6:	2104      	movs	r1, #4
 80020b8:	438a      	bics	r2, r1
 80020ba:	61da      	str	r2, [r3, #28]
      htim->Instance->CCMR2 |= sConfig->OCFastMode;
 80020bc:	68fb      	ldr	r3, [r7, #12]
 80020be:	681b      	ldr	r3, [r3, #0]
 80020c0:	69d9      	ldr	r1, [r3, #28]
 80020c2:	68bb      	ldr	r3, [r7, #8]
 80020c4:	691a      	ldr	r2, [r3, #16]
 80020c6:	68fb      	ldr	r3, [r7, #12]
 80020c8:	681b      	ldr	r3, [r3, #0]
 80020ca:	430a      	orrs	r2, r1
 80020cc:	61da      	str	r2, [r3, #28]
      break;
 80020ce:	e022      	b.n	8002116 <HAL_TIM_PWM_ConfigChannel+0x152>
      TIM_OC4_SetConfig(htim->Instance, sConfig);
 80020d0:	68fb      	ldr	r3, [r7, #12]
 80020d2:	681b      	ldr	r3, [r3, #0]
 80020d4:	68ba      	ldr	r2, [r7, #8]
 80020d6:	0011      	movs	r1, r2
 80020d8:	0018      	movs	r0, r3
 80020da:	f000 fa65 	bl	80025a8 <TIM_OC4_SetConfig>
      htim->Instance->CCMR2 |= TIM_CCMR2_OC4PE;
 80020de:	68fb      	ldr	r3, [r7, #12]
 80020e0:	681b      	ldr	r3, [r3, #0]
 80020e2:	69da      	ldr	r2, [r3, #28]
 80020e4:	68fb      	ldr	r3, [r7, #12]
 80020e6:	681b      	ldr	r3, [r3, #0]
 80020e8:	2180      	movs	r1, #128	; 0x80
 80020ea:	0109      	lsls	r1, r1, #4
 80020ec:	430a      	orrs	r2, r1
 80020ee:	61da      	str	r2, [r3, #28]
      htim->Instance->CCMR2 &= ~TIM_CCMR2_OC4FE;
 80020f0:	68fb      	ldr	r3, [r7, #12]
 80020f2:	681b      	ldr	r3, [r3, #0]
 80020f4:	69da      	ldr	r2, [r3, #28]
 80020f6:	68fb      	ldr	r3, [r7, #12]
 80020f8:	681b      	ldr	r3, [r3, #0]
 80020fa:	490d      	ldr	r1, [pc, #52]	; (8002130 <HAL_TIM_PWM_ConfigChannel+0x16c>)
 80020fc:	400a      	ands	r2, r1
 80020fe:	61da      	str	r2, [r3, #28]
      htim->Instance->CCMR2 |= sConfig->OCFastMode << 8U;
 8002100:	68fb      	ldr	r3, [r7, #12]
 8002102:	681b      	ldr	r3, [r3, #0]
 8002104:	69d9      	ldr	r1, [r3, #28]
 8002106:	68bb      	ldr	r3, [r7, #8]
 8002108:	691b      	ldr	r3, [r3, #16]
 800210a:	021a      	lsls	r2, r3, #8
 800210c:	68fb      	ldr	r3, [r7, #12]
 800210e:	681b      	ldr	r3, [r3, #0]
 8002110:	430a      	orrs	r2, r1
 8002112:	61da      	str	r2, [r3, #28]
      break;
 8002114:	46c0      	nop			; (mov r8, r8)
  }

  htim->State = HAL_TIM_STATE_READY;
 8002116:	68fb      	ldr	r3, [r7, #12]
 8002118:	223d      	movs	r2, #61	; 0x3d
 800211a:	2101      	movs	r1, #1
 800211c:	5499      	strb	r1, [r3, r2]

  __HAL_UNLOCK(htim);
 800211e:	68fb      	ldr	r3, [r7, #12]
 8002120:	223c      	movs	r2, #60	; 0x3c
 8002122:	2100      	movs	r1, #0
 8002124:	5499      	strb	r1, [r3, r2]

  return HAL_OK;
 8002126:	2300      	movs	r3, #0
}
 8002128:	0018      	movs	r0, r3
 800212a:	46bd      	mov	sp, r7
 800212c:	b004      	add	sp, #16
 800212e:	bd80      	pop	{r7, pc}
 8002130:	fffffbff 	.word	0xfffffbff

08002134 <HAL_TIM_PeriodElapsedCallback>:
  * @brief  Period elapsed callback in non-blocking mode
  * @param  htim TIM handle
  * @retval None
  */
__weak void HAL_TIM_PeriodElapsedCallback(TIM_HandleTypeDef *htim)
{
 8002134:	b580      	push	{r7, lr}
 8002136:	b082      	sub	sp, #8
 8002138:	af00      	add	r7, sp, #0
 800213a:	6078      	str	r0, [r7, #4]
  UNUSED(htim);

  /* NOTE : This function should not be modified, when the callback is needed,
            the HAL_TIM_PeriodElapsedCallback could be implemented in the user file
   */
}
 800213c:	46c0      	nop			; (mov r8, r8)
 800213e:	46bd      	mov	sp, r7
 8002140:	b002      	add	sp, #8
 8002142:	bd80      	pop	{r7, pc}

08002144 <HAL_TIM_OC_DelayElapsedCallback>:
  * @brief  Output Compare callback in non-blocking mode
  * @param  htim TIM OC handle
  * @retval None
  */
__weak void HAL_TIM_OC_DelayElapsedCallback(TIM_HandleTypeDef *htim)
{
 8002144:	b580      	push	{r7, lr}
 8002146:	b082      	sub	sp, #8
 8002148:	af00      	add	r7, sp, #0
 800214a:	6078      	str	r0, [r7, #4]
  UNUSED(htim);

  /* NOTE : This function should not be modified, when the callback is needed,
            the HAL_TIM_OC_DelayElapsedCallback could be implemented in the user file
   */
}
 800214c:	46c0      	nop			; (mov r8, r8)
 800214e:	46bd      	mov	sp, r7
 8002150:	b002      	add	sp, #8
 8002152:	bd80      	pop	{r7, pc}

08002154 <HAL_TIM_IC_CaptureCallback>:
  * @brief  Input Capture callback in non-blocking mode
  * @param  htim TIM IC handle
  * @retval None
  */
__weak void HAL_TIM_IC_CaptureCallback(TIM_HandleTypeDef *htim)
{
 8002154:	b580      	push	{r7, lr}
 8002156:	b082      	sub	sp, #8
 8002158:	af00      	add	r7, sp, #0
 800215a:	6078      	str	r0, [r7, #4]
  UNUSED(htim);

  /* NOTE : This function should not be modified, when the callback is needed,
            the HAL_TIM_IC_CaptureCallback could be implemented in the user file
   */
}
 800215c:	46c0      	nop			; (mov r8, r8)
 800215e:	46bd      	mov	sp, r7
 8002160:	b002      	add	sp, #8
 8002162:	bd80      	pop	{r7, pc}

08002164 <HAL_TIM_PWM_PulseFinishedCallback>:
  * @brief  PWM Pulse finished callback in non-blocking mode
  * @param  htim TIM handle
  * @retval None
  */
__weak void HAL_TIM_PWM_PulseFinishedCallback(TIM_HandleTypeDef *htim)
{
 8002164:	b580      	push	{r7, lr}
 8002166:	b082      	sub	sp, #8
 8002168:	af00      	add	r7, sp, #0
 800216a:	6078      	str	r0, [r7, #4]
  UNUSED(htim);

  /* NOTE : This function should not be modified, when the callback is needed,
            the HAL_TIM_PWM_PulseFinishedCallback could be implemented in the user file
   */
}
 800216c:	46c0      	nop			; (mov r8, r8)
 800216e:	46bd      	mov	sp, r7
 8002170:	b002      	add	sp, #8
 8002172:	bd80      	pop	{r7, pc}

08002174 <HAL_TIM_TriggerCallback>:
  * @brief  Hall Trigger detection callback in non-blocking mode
  * @param  htim TIM handle
  * @retval None
  */
__weak void HAL_TIM_TriggerCallback(TIM_HandleTypeDef *htim)
{
 8002174:	b580      	push	{r7, lr}
 8002176:	b082      	sub	sp, #8
 8002178:	af00      	add	r7, sp, #0
 800217a:	6078      	str	r0, [r7, #4]
  UNUSED(htim);

  /* NOTE : This function should not be modified, when the callback is needed,
            the HAL_TIM_TriggerCallback could be implemented in the user file
   */
}
 800217c:	46c0      	nop			; (mov r8, r8)
 800217e:	46bd      	mov	sp, r7
 8002180:	b002      	add	sp, #8
 8002182:	bd80      	pop	{r7, pc}

08002184 <TIM_Base_SetConfig>:
  * @param  TIMx TIM peripheral
  * @param  Structure TIM Base configuration structure
  * @retval None
  */
void TIM_Base_SetConfig(TIM_TypeDef *TIMx, TIM_Base_InitTypeDef *Structure)
{
 8002184:	b580      	push	{r7, lr}
 8002186:	b084      	sub	sp, #16
 8002188:	af00      	add	r7, sp, #0
 800218a:	6078      	str	r0, [r7, #4]
 800218c:	6039      	str	r1, [r7, #0]
  uint32_t tmpcr1;
  tmpcr1 = TIMx->CR1;
 800218e:	687b      	ldr	r3, [r7, #4]
 8002190:	681b      	ldr	r3, [r3, #0]
 8002192:	60fb      	str	r3, [r7, #12]

  /* Set TIM Time Base Unit parameters ---------------------------------------*/
  if (IS_TIM_COUNTER_MODE_SELECT_INSTANCE(TIMx))
 8002194:	687b      	ldr	r3, [r7, #4]
 8002196:	4a34      	ldr	r2, [pc, #208]	; (8002268 <TIM_Base_SetConfig+0xe4>)
 8002198:	4293      	cmp	r3, r2
 800219a:	d008      	beq.n	80021ae <TIM_Base_SetConfig+0x2a>
 800219c:	687a      	ldr	r2, [r7, #4]
 800219e:	2380      	movs	r3, #128	; 0x80
 80021a0:	05db      	lsls	r3, r3, #23
 80021a2:	429a      	cmp	r2, r3
 80021a4:	d003      	beq.n	80021ae <TIM_Base_SetConfig+0x2a>
 80021a6:	687b      	ldr	r3, [r7, #4]
 80021a8:	4a30      	ldr	r2, [pc, #192]	; (800226c <TIM_Base_SetConfig+0xe8>)
 80021aa:	4293      	cmp	r3, r2
 80021ac:	d108      	bne.n	80021c0 <TIM_Base_SetConfig+0x3c>
  {
    /* Select the Counter Mode */
    tmpcr1 &= ~(TIM_CR1_DIR | TIM_CR1_CMS);
 80021ae:	68fb      	ldr	r3, [r7, #12]
 80021b0:	2270      	movs	r2, #112	; 0x70
 80021b2:	4393      	bics	r3, r2
 80021b4:	60fb      	str	r3, [r7, #12]
    tmpcr1 |= Structure->CounterMode;
 80021b6:	683b      	ldr	r3, [r7, #0]
 80021b8:	685b      	ldr	r3, [r3, #4]
 80021ba:	68fa      	ldr	r2, [r7, #12]
 80021bc:	4313      	orrs	r3, r2
 80021be:	60fb      	str	r3, [r7, #12]
  }

  if (IS_TIM_CLOCK_DIVISION_INSTANCE(TIMx))
 80021c0:	687b      	ldr	r3, [r7, #4]
 80021c2:	4a29      	ldr	r2, [pc, #164]	; (8002268 <TIM_Base_SetConfig+0xe4>)
 80021c4:	4293      	cmp	r3, r2
 80021c6:	d018      	beq.n	80021fa <TIM_Base_SetConfig+0x76>
 80021c8:	687a      	ldr	r2, [r7, #4]
 80021ca:	2380      	movs	r3, #128	; 0x80
 80021cc:	05db      	lsls	r3, r3, #23
 80021ce:	429a      	cmp	r2, r3
 80021d0:	d013      	beq.n	80021fa <TIM_Base_SetConfig+0x76>
 80021d2:	687b      	ldr	r3, [r7, #4]
 80021d4:	4a25      	ldr	r2, [pc, #148]	; (800226c <TIM_Base_SetConfig+0xe8>)
 80021d6:	4293      	cmp	r3, r2
 80021d8:	d00f      	beq.n	80021fa <TIM_Base_SetConfig+0x76>
 80021da:	687b      	ldr	r3, [r7, #4]
 80021dc:	4a24      	ldr	r2, [pc, #144]	; (8002270 <TIM_Base_SetConfig+0xec>)
 80021de:	4293      	cmp	r3, r2
 80021e0:	d00b      	beq.n	80021fa <TIM_Base_SetConfig+0x76>
 80021e2:	687b      	ldr	r3, [r7, #4]
 80021e4:	4a23      	ldr	r2, [pc, #140]	; (8002274 <TIM_Base_SetConfig+0xf0>)
 80021e6:	4293      	cmp	r3, r2
 80021e8:	d007      	beq.n	80021fa <TIM_Base_SetConfig+0x76>
 80021ea:	687b      	ldr	r3, [r7, #4]
 80021ec:	4a22      	ldr	r2, [pc, #136]	; (8002278 <TIM_Base_SetConfig+0xf4>)
 80021ee:	4293      	cmp	r3, r2
 80021f0:	d003      	beq.n	80021fa <TIM_Base_SetConfig+0x76>
 80021f2:	687b      	ldr	r3, [r7, #4]
 80021f4:	4a21      	ldr	r2, [pc, #132]	; (800227c <TIM_Base_SetConfig+0xf8>)
 80021f6:	4293      	cmp	r3, r2
 80021f8:	d108      	bne.n	800220c <TIM_Base_SetConfig+0x88>
  {
    /* Set the clock division */
    tmpcr1 &= ~TIM_CR1_CKD;
 80021fa:	68fb      	ldr	r3, [r7, #12]
 80021fc:	4a20      	ldr	r2, [pc, #128]	; (8002280 <TIM_Base_SetConfig+0xfc>)
 80021fe:	4013      	ands	r3, r2
 8002200:	60fb      	str	r3, [r7, #12]
    tmpcr1 |= (uint32_t)Structure->ClockDivision;
 8002202:	683b      	ldr	r3, [r7, #0]
 8002204:	68db      	ldr	r3, [r3, #12]
 8002206:	68fa      	ldr	r2, [r7, #12]
 8002208:	4313      	orrs	r3, r2
 800220a:	60fb      	str	r3, [r7, #12]
  }

  /* Set the auto-reload preload */
  MODIFY_REG(tmpcr1, TIM_CR1_ARPE, Structure->AutoReloadPreload);
 800220c:	68fb      	ldr	r3, [r7, #12]
 800220e:	2280      	movs	r2, #128	; 0x80
 8002210:	4393      	bics	r3, r2
 8002212:	001a      	movs	r2, r3
 8002214:	683b      	ldr	r3, [r7, #0]
 8002216:	695b      	ldr	r3, [r3, #20]
 8002218:	4313      	orrs	r3, r2
 800221a:	60fb      	str	r3, [r7, #12]

  TIMx->CR1 = tmpcr1;
 800221c:	687b      	ldr	r3, [r7, #4]
 800221e:	68fa      	ldr	r2, [r7, #12]
 8002220:	601a      	str	r2, [r3, #0]

  /* Set the Autoreload value */
  TIMx->ARR = (uint32_t)Structure->Period ;
 8002222:	683b      	ldr	r3, [r7, #0]
 8002224:	689a      	ldr	r2, [r3, #8]
 8002226:	687b      	ldr	r3, [r7, #4]
 8002228:	62da      	str	r2, [r3, #44]	; 0x2c

  /* Set the Prescaler value */
  TIMx->PSC = Structure->Prescaler;
 800222a:	683b      	ldr	r3, [r7, #0]
 800222c:	681a      	ldr	r2, [r3, #0]
 800222e:	687b      	ldr	r3, [r7, #4]
 8002230:	629a      	str	r2, [r3, #40]	; 0x28

  if (IS_TIM_REPETITION_COUNTER_INSTANCE(TIMx))
 8002232:	687b      	ldr	r3, [r7, #4]
 8002234:	4a0c      	ldr	r2, [pc, #48]	; (8002268 <TIM_Base_SetConfig+0xe4>)
 8002236:	4293      	cmp	r3, r2
 8002238:	d00b      	beq.n	8002252 <TIM_Base_SetConfig+0xce>
 800223a:	687b      	ldr	r3, [r7, #4]
 800223c:	4a0d      	ldr	r2, [pc, #52]	; (8002274 <TIM_Base_SetConfig+0xf0>)
 800223e:	4293      	cmp	r3, r2
 8002240:	d007      	beq.n	8002252 <TIM_Base_SetConfig+0xce>
 8002242:	687b      	ldr	r3, [r7, #4]
 8002244:	4a0c      	ldr	r2, [pc, #48]	; (8002278 <TIM_Base_SetConfig+0xf4>)
 8002246:	4293      	cmp	r3, r2
 8002248:	d003      	beq.n	8002252 <TIM_Base_SetConfig+0xce>
 800224a:	687b      	ldr	r3, [r7, #4]
 800224c:	4a0b      	ldr	r2, [pc, #44]	; (800227c <TIM_Base_SetConfig+0xf8>)
 800224e:	4293      	cmp	r3, r2
 8002250:	d103      	bne.n	800225a <TIM_Base_SetConfig+0xd6>
  {
    /* Set the Repetition Counter value */
    TIMx->RCR = Structure->RepetitionCounter;
 8002252:	683b      	ldr	r3, [r7, #0]
 8002254:	691a      	ldr	r2, [r3, #16]
 8002256:	687b      	ldr	r3, [r7, #4]
 8002258:	631a      	str	r2, [r3, #48]	; 0x30
  }

  /* Generate an update event to reload the Prescaler
     and the repetition counter (only for advanced timer) value immediately */
  TIMx->EGR = TIM_EGR_UG;
 800225a:	687b      	ldr	r3, [r7, #4]
 800225c:	2201      	movs	r2, #1
 800225e:	615a      	str	r2, [r3, #20]
}
 8002260:	46c0      	nop			; (mov r8, r8)
 8002262:	46bd      	mov	sp, r7
 8002264:	b004      	add	sp, #16
 8002266:	bd80      	pop	{r7, pc}
 8002268:	40012c00 	.word	0x40012c00
 800226c:	40000400 	.word	0x40000400
 8002270:	40002000 	.word	0x40002000
 8002274:	40014000 	.word	0x40014000
 8002278:	40014400 	.word	0x40014400
 800227c:	40014800 	.word	0x40014800
 8002280:	fffffcff 	.word	0xfffffcff

08002284 <TIM_OC1_SetConfig>:
  * @param  TIMx to select the TIM peripheral
  * @param  OC_Config The ouput configuration structure
  * @retval None
  */
static void TIM_OC1_SetConfig(TIM_TypeDef *TIMx, TIM_OC_InitTypeDef *OC_Config)
{
 8002284:	b580      	push	{r7, lr}
 8002286:	b086      	sub	sp, #24
 8002288:	af00      	add	r7, sp, #0
 800228a:	6078      	str	r0, [r7, #4]
 800228c:	6039      	str	r1, [r7, #0]
  uint32_t tmpccmrx;
  uint32_t tmpccer;
  uint32_t tmpcr2;

  /* Disable the Channel 1: Reset the CC1E Bit */
  TIMx->CCER &= ~TIM_CCER_CC1E;
 800228e:	687b      	ldr	r3, [r7, #4]
 8002290:	6a1b      	ldr	r3, [r3, #32]
 8002292:	2201      	movs	r2, #1
 8002294:	4393      	bics	r3, r2
 8002296:	001a      	movs	r2, r3
 8002298:	687b      	ldr	r3, [r7, #4]
 800229a:	621a      	str	r2, [r3, #32]

  /* Get the TIMx CCER register value */
  tmpccer = TIMx->CCER;
 800229c:	687b      	ldr	r3, [r7, #4]
 800229e:	6a1b      	ldr	r3, [r3, #32]
 80022a0:	617b      	str	r3, [r7, #20]
  /* Get the TIMx CR2 register value */
  tmpcr2 =  TIMx->CR2;
 80022a2:	687b      	ldr	r3, [r7, #4]
 80022a4:	685b      	ldr	r3, [r3, #4]
 80022a6:	613b      	str	r3, [r7, #16]

  /* Get the TIMx CCMR1 register value */
  tmpccmrx = TIMx->CCMR1;
 80022a8:	687b      	ldr	r3, [r7, #4]
 80022aa:	699b      	ldr	r3, [r3, #24]
 80022ac:	60fb      	str	r3, [r7, #12]

  /* Reset the Output Compare Mode Bits */
  tmpccmrx &= ~TIM_CCMR1_OC1M;
 80022ae:	68fb      	ldr	r3, [r7, #12]
 80022b0:	2270      	movs	r2, #112	; 0x70
 80022b2:	4393      	bics	r3, r2
 80022b4:	60fb      	str	r3, [r7, #12]
  tmpccmrx &= ~TIM_CCMR1_CC1S;
 80022b6:	68fb      	ldr	r3, [r7, #12]
 80022b8:	2203      	movs	r2, #3
 80022ba:	4393      	bics	r3, r2
 80022bc:	60fb      	str	r3, [r7, #12]
  /* Select the Output Compare Mode */
  tmpccmrx |= OC_Config->OCMode;
 80022be:	683b      	ldr	r3, [r7, #0]
 80022c0:	681b      	ldr	r3, [r3, #0]
 80022c2:	68fa      	ldr	r2, [r7, #12]
 80022c4:	4313      	orrs	r3, r2
 80022c6:	60fb      	str	r3, [r7, #12]

  /* Reset the Output Polarity level */
  tmpccer &= ~TIM_CCER_CC1P;
 80022c8:	697b      	ldr	r3, [r7, #20]
 80022ca:	2202      	movs	r2, #2
 80022cc:	4393      	bics	r3, r2
 80022ce:	617b      	str	r3, [r7, #20]
  /* Set the Output Compare Polarity */
  tmpccer |= OC_Config->OCPolarity;
 80022d0:	683b      	ldr	r3, [r7, #0]
 80022d2:	689b      	ldr	r3, [r3, #8]
 80022d4:	697a      	ldr	r2, [r7, #20]
 80022d6:	4313      	orrs	r3, r2
 80022d8:	617b      	str	r3, [r7, #20]

  if (IS_TIM_CCXN_INSTANCE(TIMx, TIM_CHANNEL_1))
 80022da:	687b      	ldr	r3, [r7, #4]
 80022dc:	4a27      	ldr	r2, [pc, #156]	; (800237c <TIM_OC1_SetConfig+0xf8>)
 80022de:	4293      	cmp	r3, r2
 80022e0:	d00b      	beq.n	80022fa <TIM_OC1_SetConfig+0x76>
 80022e2:	687b      	ldr	r3, [r7, #4]
 80022e4:	4a26      	ldr	r2, [pc, #152]	; (8002380 <TIM_OC1_SetConfig+0xfc>)
 80022e6:	4293      	cmp	r3, r2
 80022e8:	d007      	beq.n	80022fa <TIM_OC1_SetConfig+0x76>
 80022ea:	687b      	ldr	r3, [r7, #4]
 80022ec:	4a25      	ldr	r2, [pc, #148]	; (8002384 <TIM_OC1_SetConfig+0x100>)
 80022ee:	4293      	cmp	r3, r2
 80022f0:	d003      	beq.n	80022fa <TIM_OC1_SetConfig+0x76>
 80022f2:	687b      	ldr	r3, [r7, #4]
 80022f4:	4a24      	ldr	r2, [pc, #144]	; (8002388 <TIM_OC1_SetConfig+0x104>)
 80022f6:	4293      	cmp	r3, r2
 80022f8:	d10c      	bne.n	8002314 <TIM_OC1_SetConfig+0x90>
  {
    /* Check parameters */
    assert_param(IS_TIM_OCN_POLARITY(OC_Config->OCNPolarity));

    /* Reset the Output N Polarity level */
    tmpccer &= ~TIM_CCER_CC1NP;
 80022fa:	697b      	ldr	r3, [r7, #20]
 80022fc:	2208      	movs	r2, #8
 80022fe:	4393      	bics	r3, r2
 8002300:	617b      	str	r3, [r7, #20]
    /* Set the Output N Polarity */
    tmpccer |= OC_Config->OCNPolarity;
 8002302:	683b      	ldr	r3, [r7, #0]
 8002304:	68db      	ldr	r3, [r3, #12]
 8002306:	697a      	ldr	r2, [r7, #20]
 8002308:	4313      	orrs	r3, r2
 800230a:	617b      	str	r3, [r7, #20]
    /* Reset the Output N State */
    tmpccer &= ~TIM_CCER_CC1NE;
 800230c:	697b      	ldr	r3, [r7, #20]
 800230e:	2204      	movs	r2, #4
 8002310:	4393      	bics	r3, r2
 8002312:	617b      	str	r3, [r7, #20]
  }

  if (IS_TIM_BREAK_INSTANCE(TIMx))
 8002314:	687b      	ldr	r3, [r7, #4]
 8002316:	4a19      	ldr	r2, [pc, #100]	; (800237c <TIM_OC1_SetConfig+0xf8>)
 8002318:	4293      	cmp	r3, r2
 800231a:	d00b      	beq.n	8002334 <TIM_OC1_SetConfig+0xb0>
 800231c:	687b      	ldr	r3, [r7, #4]
 800231e:	4a18      	ldr	r2, [pc, #96]	; (8002380 <TIM_OC1_SetConfig+0xfc>)
 8002320:	4293      	cmp	r3, r2
 8002322:	d007      	beq.n	8002334 <TIM_OC1_SetConfig+0xb0>
 8002324:	687b      	ldr	r3, [r7, #4]
 8002326:	4a17      	ldr	r2, [pc, #92]	; (8002384 <TIM_OC1_SetConfig+0x100>)
 8002328:	4293      	cmp	r3, r2
 800232a:	d003      	beq.n	8002334 <TIM_OC1_SetConfig+0xb0>
 800232c:	687b      	ldr	r3, [r7, #4]
 800232e:	4a16      	ldr	r2, [pc, #88]	; (8002388 <TIM_OC1_SetConfig+0x104>)
 8002330:	4293      	cmp	r3, r2
 8002332:	d111      	bne.n	8002358 <TIM_OC1_SetConfig+0xd4>
    /* Check parameters */
    assert_param(IS_TIM_OCNIDLE_STATE(OC_Config->OCNIdleState));
    assert_param(IS_TIM_OCIDLE_STATE(OC_Config->OCIdleState));

    /* Reset the Output Compare and Output Compare N IDLE State */
    tmpcr2 &= ~TIM_CR2_OIS1;
 8002334:	693b      	ldr	r3, [r7, #16]
 8002336:	4a15      	ldr	r2, [pc, #84]	; (800238c <TIM_OC1_SetConfig+0x108>)
 8002338:	4013      	ands	r3, r2
 800233a:	613b      	str	r3, [r7, #16]
    tmpcr2 &= ~TIM_CR2_OIS1N;
 800233c:	693b      	ldr	r3, [r7, #16]
 800233e:	4a14      	ldr	r2, [pc, #80]	; (8002390 <TIM_OC1_SetConfig+0x10c>)
 8002340:	4013      	ands	r3, r2
 8002342:	613b      	str	r3, [r7, #16]
    /* Set the Output Idle state */
    tmpcr2 |= OC_Config->OCIdleState;
 8002344:	683b      	ldr	r3, [r7, #0]
 8002346:	695b      	ldr	r3, [r3, #20]
 8002348:	693a      	ldr	r2, [r7, #16]
 800234a:	4313      	orrs	r3, r2
 800234c:	613b      	str	r3, [r7, #16]
    /* Set the Output N Idle state */
    tmpcr2 |= OC_Config->OCNIdleState;
 800234e:	683b      	ldr	r3, [r7, #0]
 8002350:	699b      	ldr	r3, [r3, #24]
 8002352:	693a      	ldr	r2, [r7, #16]
 8002354:	4313      	orrs	r3, r2
 8002356:	613b      	str	r3, [r7, #16]
  }

  /* Write to TIMx CR2 */
  TIMx->CR2 = tmpcr2;
 8002358:	687b      	ldr	r3, [r7, #4]
 800235a:	693a      	ldr	r2, [r7, #16]
 800235c:	605a      	str	r2, [r3, #4]

  /* Write to TIMx CCMR1 */
  TIMx->CCMR1 = tmpccmrx;
 800235e:	687b      	ldr	r3, [r7, #4]
 8002360:	68fa      	ldr	r2, [r7, #12]
 8002362:	619a      	str	r2, [r3, #24]

  /* Set the Capture Compare Register value */
  TIMx->CCR1 = OC_Config->Pulse;
 8002364:	683b      	ldr	r3, [r7, #0]
 8002366:	685a      	ldr	r2, [r3, #4]
 8002368:	687b      	ldr	r3, [r7, #4]
 800236a:	635a      	str	r2, [r3, #52]	; 0x34

  /* Write to TIMx CCER */
  TIMx->CCER = tmpccer;
 800236c:	687b      	ldr	r3, [r7, #4]
 800236e:	697a      	ldr	r2, [r7, #20]
 8002370:	621a      	str	r2, [r3, #32]
}
 8002372:	46c0      	nop			; (mov r8, r8)
 8002374:	46bd      	mov	sp, r7
 8002376:	b006      	add	sp, #24
 8002378:	bd80      	pop	{r7, pc}
 800237a:	46c0      	nop			; (mov r8, r8)
 800237c:	40012c00 	.word	0x40012c00
 8002380:	40014000 	.word	0x40014000
 8002384:	40014400 	.word	0x40014400
 8002388:	40014800 	.word	0x40014800
 800238c:	fffffeff 	.word	0xfffffeff
 8002390:	fffffdff 	.word	0xfffffdff

08002394 <TIM_OC2_SetConfig>:
  * @param  TIMx to select the TIM peripheral
  * @param  OC_Config The ouput configuration structure
  * @retval None
  */
void TIM_OC2_SetConfig(TIM_TypeDef *TIMx, TIM_OC_InitTypeDef *OC_Config)
{
 8002394:	b580      	push	{r7, lr}
 8002396:	b086      	sub	sp, #24
 8002398:	af00      	add	r7, sp, #0
 800239a:	6078      	str	r0, [r7, #4]
 800239c:	6039      	str	r1, [r7, #0]
  uint32_t tmpccmrx;
  uint32_t tmpccer;
  uint32_t tmpcr2;

  /* Disable the Channel 2: Reset the CC2E Bit */
  TIMx->CCER &= ~TIM_CCER_CC2E;
 800239e:	687b      	ldr	r3, [r7, #4]
 80023a0:	6a1b      	ldr	r3, [r3, #32]
 80023a2:	2210      	movs	r2, #16
 80023a4:	4393      	bics	r3, r2
 80023a6:	001a      	movs	r2, r3
 80023a8:	687b      	ldr	r3, [r7, #4]
 80023aa:	621a      	str	r2, [r3, #32]

  /* Get the TIMx CCER register value */
  tmpccer = TIMx->CCER;
 80023ac:	687b      	ldr	r3, [r7, #4]
 80023ae:	6a1b      	ldr	r3, [r3, #32]
 80023b0:	617b      	str	r3, [r7, #20]
  /* Get the TIMx CR2 register value */
  tmpcr2 =  TIMx->CR2;
 80023b2:	687b      	ldr	r3, [r7, #4]
 80023b4:	685b      	ldr	r3, [r3, #4]
 80023b6:	613b      	str	r3, [r7, #16]

  /* Get the TIMx CCMR1 register value */
  tmpccmrx = TIMx->CCMR1;
 80023b8:	687b      	ldr	r3, [r7, #4]
 80023ba:	699b      	ldr	r3, [r3, #24]
 80023bc:	60fb      	str	r3, [r7, #12]

  /* Reset the Output Compare mode and Capture/Compare selection Bits */
  tmpccmrx &= ~TIM_CCMR1_OC2M;
 80023be:	68fb      	ldr	r3, [r7, #12]
 80023c0:	4a2e      	ldr	r2, [pc, #184]	; (800247c <TIM_OC2_SetConfig+0xe8>)
 80023c2:	4013      	ands	r3, r2
 80023c4:	60fb      	str	r3, [r7, #12]
  tmpccmrx &= ~TIM_CCMR1_CC2S;
 80023c6:	68fb      	ldr	r3, [r7, #12]
 80023c8:	4a2d      	ldr	r2, [pc, #180]	; (8002480 <TIM_OC2_SetConfig+0xec>)
 80023ca:	4013      	ands	r3, r2
 80023cc:	60fb      	str	r3, [r7, #12]

  /* Select the Output Compare Mode */
  tmpccmrx |= (OC_Config->OCMode << 8U);
 80023ce:	683b      	ldr	r3, [r7, #0]
 80023d0:	681b      	ldr	r3, [r3, #0]
 80023d2:	021b      	lsls	r3, r3, #8
 80023d4:	68fa      	ldr	r2, [r7, #12]
 80023d6:	4313      	orrs	r3, r2
 80023d8:	60fb      	str	r3, [r7, #12]

  /* Reset the Output Polarity level */
  tmpccer &= ~TIM_CCER_CC2P;
 80023da:	697b      	ldr	r3, [r7, #20]
 80023dc:	2220      	movs	r2, #32
 80023de:	4393      	bics	r3, r2
 80023e0:	617b      	str	r3, [r7, #20]
  /* Set the Output Compare Polarity */
  tmpccer |= (OC_Config->OCPolarity << 4U);
 80023e2:	683b      	ldr	r3, [r7, #0]
 80023e4:	689b      	ldr	r3, [r3, #8]
 80023e6:	011b      	lsls	r3, r3, #4
 80023e8:	697a      	ldr	r2, [r7, #20]
 80023ea:	4313      	orrs	r3, r2
 80023ec:	617b      	str	r3, [r7, #20]

  if (IS_TIM_CCXN_INSTANCE(TIMx, TIM_CHANNEL_2))
 80023ee:	687b      	ldr	r3, [r7, #4]
 80023f0:	4a24      	ldr	r2, [pc, #144]	; (8002484 <TIM_OC2_SetConfig+0xf0>)
 80023f2:	4293      	cmp	r3, r2
 80023f4:	d10d      	bne.n	8002412 <TIM_OC2_SetConfig+0x7e>
  {
    assert_param(IS_TIM_OCN_POLARITY(OC_Config->OCNPolarity));

    /* Reset the Output N Polarity level */
    tmpccer &= ~TIM_CCER_CC2NP;
 80023f6:	697b      	ldr	r3, [r7, #20]
 80023f8:	2280      	movs	r2, #128	; 0x80
 80023fa:	4393      	bics	r3, r2
 80023fc:	617b      	str	r3, [r7, #20]
    /* Set the Output N Polarity */
    tmpccer |= (OC_Config->OCNPolarity << 4U);
 80023fe:	683b      	ldr	r3, [r7, #0]
 8002400:	68db      	ldr	r3, [r3, #12]
 8002402:	011b      	lsls	r3, r3, #4
 8002404:	697a      	ldr	r2, [r7, #20]
 8002406:	4313      	orrs	r3, r2
 8002408:	617b      	str	r3, [r7, #20]
    /* Reset the Output N State */
    tmpccer &= ~TIM_CCER_CC2NE;
 800240a:	697b      	ldr	r3, [r7, #20]
 800240c:	2240      	movs	r2, #64	; 0x40
 800240e:	4393      	bics	r3, r2
 8002410:	617b      	str	r3, [r7, #20]

  }

  if (IS_TIM_BREAK_INSTANCE(TIMx))
 8002412:	687b      	ldr	r3, [r7, #4]
 8002414:	4a1b      	ldr	r2, [pc, #108]	; (8002484 <TIM_OC2_SetConfig+0xf0>)
 8002416:	4293      	cmp	r3, r2
 8002418:	d00b      	beq.n	8002432 <TIM_OC2_SetConfig+0x9e>
 800241a:	687b      	ldr	r3, [r7, #4]
 800241c:	4a1a      	ldr	r2, [pc, #104]	; (8002488 <TIM_OC2_SetConfig+0xf4>)
 800241e:	4293      	cmp	r3, r2
 8002420:	d007      	beq.n	8002432 <TIM_OC2_SetConfig+0x9e>
 8002422:	687b      	ldr	r3, [r7, #4]
 8002424:	4a19      	ldr	r2, [pc, #100]	; (800248c <TIM_OC2_SetConfig+0xf8>)
 8002426:	4293      	cmp	r3, r2
 8002428:	d003      	beq.n	8002432 <TIM_OC2_SetConfig+0x9e>
 800242a:	687b      	ldr	r3, [r7, #4]
 800242c:	4a18      	ldr	r2, [pc, #96]	; (8002490 <TIM_OC2_SetConfig+0xfc>)
 800242e:	4293      	cmp	r3, r2
 8002430:	d113      	bne.n	800245a <TIM_OC2_SetConfig+0xc6>
    /* Check parameters */
    assert_param(IS_TIM_OCNIDLE_STATE(OC_Config->OCNIdleState));
    assert_param(IS_TIM_OCIDLE_STATE(OC_Config->OCIdleState));

    /* Reset the Output Compare and Output Compare N IDLE State */
    tmpcr2 &= ~TIM_CR2_OIS2;
 8002432:	693b      	ldr	r3, [r7, #16]
 8002434:	4a17      	ldr	r2, [pc, #92]	; (8002494 <TIM_OC2_SetConfig+0x100>)
 8002436:	4013      	ands	r3, r2
 8002438:	613b      	str	r3, [r7, #16]
    tmpcr2 &= ~TIM_CR2_OIS2N;
 800243a:	693b      	ldr	r3, [r7, #16]
 800243c:	4a16      	ldr	r2, [pc, #88]	; (8002498 <TIM_OC2_SetConfig+0x104>)
 800243e:	4013      	ands	r3, r2
 8002440:	613b      	str	r3, [r7, #16]
    /* Set the Output Idle state */
    tmpcr2 |= (OC_Config->OCIdleState << 2U);
 8002442:	683b      	ldr	r3, [r7, #0]
 8002444:	695b      	ldr	r3, [r3, #20]
 8002446:	009b      	lsls	r3, r3, #2
 8002448:	693a      	ldr	r2, [r7, #16]
 800244a:	4313      	orrs	r3, r2
 800244c:	613b      	str	r3, [r7, #16]
    /* Set the Output N Idle state */
    tmpcr2 |= (OC_Config->OCNIdleState << 2U);
 800244e:	683b      	ldr	r3, [r7, #0]
 8002450:	699b      	ldr	r3, [r3, #24]
 8002452:	009b      	lsls	r3, r3, #2
 8002454:	693a      	ldr	r2, [r7, #16]
 8002456:	4313      	orrs	r3, r2
 8002458:	613b      	str	r3, [r7, #16]
  }

  /* Write to TIMx CR2 */
  TIMx->CR2 = tmpcr2;
 800245a:	687b      	ldr	r3, [r7, #4]
 800245c:	693a      	ldr	r2, [r7, #16]
 800245e:	605a      	str	r2, [r3, #4]

  /* Write to TIMx CCMR1 */
  TIMx->CCMR1 = tmpccmrx;
 8002460:	687b      	ldr	r3, [r7, #4]
 8002462:	68fa      	ldr	r2, [r7, #12]
 8002464:	619a      	str	r2, [r3, #24]

  /* Set the Capture Compare Register value */
  TIMx->CCR2 = OC_Config->Pulse;
 8002466:	683b      	ldr	r3, [r7, #0]
 8002468:	685a      	ldr	r2, [r3, #4]
 800246a:	687b      	ldr	r3, [r7, #4]
 800246c:	639a      	str	r2, [r3, #56]	; 0x38

  /* Write to TIMx CCER */
  TIMx->CCER = tmpccer;
 800246e:	687b      	ldr	r3, [r7, #4]
 8002470:	697a      	ldr	r2, [r7, #20]
 8002472:	621a      	str	r2, [r3, #32]
}
 8002474:	46c0      	nop			; (mov r8, r8)
 8002476:	46bd      	mov	sp, r7
 8002478:	b006      	add	sp, #24
 800247a:	bd80      	pop	{r7, pc}
 800247c:	ffff8fff 	.word	0xffff8fff
 8002480:	fffffcff 	.word	0xfffffcff
 8002484:	40012c00 	.word	0x40012c00
 8002488:	40014000 	.word	0x40014000
 800248c:	40014400 	.word	0x40014400
 8002490:	40014800 	.word	0x40014800
 8002494:	fffffbff 	.word	0xfffffbff
 8002498:	fffff7ff 	.word	0xfffff7ff

0800249c <TIM_OC3_SetConfig>:
  * @param  TIMx to select the TIM peripheral
  * @param  OC_Config The ouput configuration structure
  * @retval None
  */
static void TIM_OC3_SetConfig(TIM_TypeDef *TIMx, TIM_OC_InitTypeDef *OC_Config)
{
 800249c:	b580      	push	{r7, lr}
 800249e:	b086      	sub	sp, #24
 80024a0:	af00      	add	r7, sp, #0
 80024a2:	6078      	str	r0, [r7, #4]
 80024a4:	6039      	str	r1, [r7, #0]
  uint32_t tmpccmrx;
  uint32_t tmpccer;
  uint32_t tmpcr2;

  /* Disable the Channel 3: Reset the CC2E Bit */
  TIMx->CCER &= ~TIM_CCER_CC3E;
 80024a6:	687b      	ldr	r3, [r7, #4]
 80024a8:	6a1b      	ldr	r3, [r3, #32]
 80024aa:	4a35      	ldr	r2, [pc, #212]	; (8002580 <TIM_OC3_SetConfig+0xe4>)
 80024ac:	401a      	ands	r2, r3
 80024ae:	687b      	ldr	r3, [r7, #4]
 80024b0:	621a      	str	r2, [r3, #32]

  /* Get the TIMx CCER register value */
  tmpccer = TIMx->CCER;
 80024b2:	687b      	ldr	r3, [r7, #4]
 80024b4:	6a1b      	ldr	r3, [r3, #32]
 80024b6:	617b      	str	r3, [r7, #20]
  /* Get the TIMx CR2 register value */
  tmpcr2 =  TIMx->CR2;
 80024b8:	687b      	ldr	r3, [r7, #4]
 80024ba:	685b      	ldr	r3, [r3, #4]
 80024bc:	613b      	str	r3, [r7, #16]

  /* Get the TIMx CCMR2 register value */
  tmpccmrx = TIMx->CCMR2;
 80024be:	687b      	ldr	r3, [r7, #4]
 80024c0:	69db      	ldr	r3, [r3, #28]
 80024c2:	60fb      	str	r3, [r7, #12]

  /* Reset the Output Compare mode and Capture/Compare selection Bits */
  tmpccmrx &= ~TIM_CCMR2_OC3M;
 80024c4:	68fb      	ldr	r3, [r7, #12]
 80024c6:	2270      	movs	r2, #112	; 0x70
 80024c8:	4393      	bics	r3, r2
 80024ca:	60fb      	str	r3, [r7, #12]
  tmpccmrx &= ~TIM_CCMR2_CC3S;
 80024cc:	68fb      	ldr	r3, [r7, #12]
 80024ce:	2203      	movs	r2, #3
 80024d0:	4393      	bics	r3, r2
 80024d2:	60fb      	str	r3, [r7, #12]
  /* Select the Output Compare Mode */
  tmpccmrx |= OC_Config->OCMode;
 80024d4:	683b      	ldr	r3, [r7, #0]
 80024d6:	681b      	ldr	r3, [r3, #0]
 80024d8:	68fa      	ldr	r2, [r7, #12]
 80024da:	4313      	orrs	r3, r2
 80024dc:	60fb      	str	r3, [r7, #12]

  /* Reset the Output Polarity level */
  tmpccer &= ~TIM_CCER_CC3P;
 80024de:	697b      	ldr	r3, [r7, #20]
 80024e0:	4a28      	ldr	r2, [pc, #160]	; (8002584 <TIM_OC3_SetConfig+0xe8>)
 80024e2:	4013      	ands	r3, r2
 80024e4:	617b      	str	r3, [r7, #20]
  /* Set the Output Compare Polarity */
  tmpccer |= (OC_Config->OCPolarity << 8U);
 80024e6:	683b      	ldr	r3, [r7, #0]
 80024e8:	689b      	ldr	r3, [r3, #8]
 80024ea:	021b      	lsls	r3, r3, #8
 80024ec:	697a      	ldr	r2, [r7, #20]
 80024ee:	4313      	orrs	r3, r2
 80024f0:	617b      	str	r3, [r7, #20]

  if (IS_TIM_CCXN_INSTANCE(TIMx, TIM_CHANNEL_3))
 80024f2:	687b      	ldr	r3, [r7, #4]
 80024f4:	4a24      	ldr	r2, [pc, #144]	; (8002588 <TIM_OC3_SetConfig+0xec>)
 80024f6:	4293      	cmp	r3, r2
 80024f8:	d10d      	bne.n	8002516 <TIM_OC3_SetConfig+0x7a>
  {
    assert_param(IS_TIM_OCN_POLARITY(OC_Config->OCNPolarity));

    /* Reset the Output N Polarity level */
    tmpccer &= ~TIM_CCER_CC3NP;
 80024fa:	697b      	ldr	r3, [r7, #20]
 80024fc:	4a23      	ldr	r2, [pc, #140]	; (800258c <TIM_OC3_SetConfig+0xf0>)
 80024fe:	4013      	ands	r3, r2
 8002500:	617b      	str	r3, [r7, #20]
    /* Set the Output N Polarity */
    tmpccer |= (OC_Config->OCNPolarity << 8U);
 8002502:	683b      	ldr	r3, [r7, #0]
 8002504:	68db      	ldr	r3, [r3, #12]
 8002506:	021b      	lsls	r3, r3, #8
 8002508:	697a      	ldr	r2, [r7, #20]
 800250a:	4313      	orrs	r3, r2
 800250c:	617b      	str	r3, [r7, #20]
    /* Reset the Output N State */
    tmpccer &= ~TIM_CCER_CC3NE;
 800250e:	697b      	ldr	r3, [r7, #20]
 8002510:	4a1f      	ldr	r2, [pc, #124]	; (8002590 <TIM_OC3_SetConfig+0xf4>)
 8002512:	4013      	ands	r3, r2
 8002514:	617b      	str	r3, [r7, #20]
  }

  if (IS_TIM_BREAK_INSTANCE(TIMx))
 8002516:	687b      	ldr	r3, [r7, #4]
 8002518:	4a1b      	ldr	r2, [pc, #108]	; (8002588 <TIM_OC3_SetConfig+0xec>)
 800251a:	4293      	cmp	r3, r2
 800251c:	d00b      	beq.n	8002536 <TIM_OC3_SetConfig+0x9a>
 800251e:	687b      	ldr	r3, [r7, #4]
 8002520:	4a1c      	ldr	r2, [pc, #112]	; (8002594 <TIM_OC3_SetConfig+0xf8>)
 8002522:	4293      	cmp	r3, r2
 8002524:	d007      	beq.n	8002536 <TIM_OC3_SetConfig+0x9a>
 8002526:	687b      	ldr	r3, [r7, #4]
 8002528:	4a1b      	ldr	r2, [pc, #108]	; (8002598 <TIM_OC3_SetConfig+0xfc>)
 800252a:	4293      	cmp	r3, r2
 800252c:	d003      	beq.n	8002536 <TIM_OC3_SetConfig+0x9a>
 800252e:	687b      	ldr	r3, [r7, #4]
 8002530:	4a1a      	ldr	r2, [pc, #104]	; (800259c <TIM_OC3_SetConfig+0x100>)
 8002532:	4293      	cmp	r3, r2
 8002534:	d113      	bne.n	800255e <TIM_OC3_SetConfig+0xc2>
    /* Check parameters */
    assert_param(IS_TIM_OCNIDLE_STATE(OC_Config->OCNIdleState));
    assert_param(IS_TIM_OCIDLE_STATE(OC_Config->OCIdleState));

    /* Reset the Output Compare and Output Compare N IDLE State */
    tmpcr2 &= ~TIM_CR2_OIS3;
 8002536:	693b      	ldr	r3, [r7, #16]
 8002538:	4a19      	ldr	r2, [pc, #100]	; (80025a0 <TIM_OC3_SetConfig+0x104>)
 800253a:	4013      	ands	r3, r2
 800253c:	613b      	str	r3, [r7, #16]
    tmpcr2 &= ~TIM_CR2_OIS3N;
 800253e:	693b      	ldr	r3, [r7, #16]
 8002540:	4a18      	ldr	r2, [pc, #96]	; (80025a4 <TIM_OC3_SetConfig+0x108>)
 8002542:	4013      	ands	r3, r2
 8002544:	613b      	str	r3, [r7, #16]
    /* Set the Output Idle state */
    tmpcr2 |= (OC_Config->OCIdleState << 4U);
 8002546:	683b      	ldr	r3, [r7, #0]
 8002548:	695b      	ldr	r3, [r3, #20]
 800254a:	011b      	lsls	r3, r3, #4
 800254c:	693a      	ldr	r2, [r7, #16]
 800254e:	4313      	orrs	r3, r2
 8002550:	613b      	str	r3, [r7, #16]
    /* Set the Output N Idle state */
    tmpcr2 |= (OC_Config->OCNIdleState << 4U);
 8002552:	683b      	ldr	r3, [r7, #0]
 8002554:	699b      	ldr	r3, [r3, #24]
 8002556:	011b      	lsls	r3, r3, #4
 8002558:	693a      	ldr	r2, [r7, #16]
 800255a:	4313      	orrs	r3, r2
 800255c:	613b      	str	r3, [r7, #16]
  }

  /* Write to TIMx CR2 */
  TIMx->CR2 = tmpcr2;
 800255e:	687b      	ldr	r3, [r7, #4]
 8002560:	693a      	ldr	r2, [r7, #16]
 8002562:	605a      	str	r2, [r3, #4]

  /* Write to TIMx CCMR2 */
  TIMx->CCMR2 = tmpccmrx;
 8002564:	687b      	ldr	r3, [r7, #4]
 8002566:	68fa      	ldr	r2, [r7, #12]
 8002568:	61da      	str	r2, [r3, #28]

  /* Set the Capture Compare Register value */
  TIMx->CCR3 = OC_Config->Pulse;
 800256a:	683b      	ldr	r3, [r7, #0]
 800256c:	685a      	ldr	r2, [r3, #4]
 800256e:	687b      	ldr	r3, [r7, #4]
 8002570:	63da      	str	r2, [r3, #60]	; 0x3c

  /* Write to TIMx CCER */
  TIMx->CCER = tmpccer;
 8002572:	687b      	ldr	r3, [r7, #4]
 8002574:	697a      	ldr	r2, [r7, #20]
 8002576:	621a      	str	r2, [r3, #32]
}
 8002578:	46c0      	nop			; (mov r8, r8)
 800257a:	46bd      	mov	sp, r7
 800257c:	b006      	add	sp, #24
 800257e:	bd80      	pop	{r7, pc}
 8002580:	fffffeff 	.word	0xfffffeff
 8002584:	fffffdff 	.word	0xfffffdff
 8002588:	40012c00 	.word	0x40012c00
 800258c:	fffff7ff 	.word	0xfffff7ff
 8002590:	fffffbff 	.word	0xfffffbff
 8002594:	40014000 	.word	0x40014000
 8002598:	40014400 	.word	0x40014400
 800259c:	40014800 	.word	0x40014800
 80025a0:	ffffefff 	.word	0xffffefff
 80025a4:	ffffdfff 	.word	0xffffdfff

080025a8 <TIM_OC4_SetConfig>:
  * @param  TIMx to select the TIM peripheral
  * @param  OC_Config The ouput configuration structure
  * @retval None
  */
static void TIM_OC4_SetConfig(TIM_TypeDef *TIMx, TIM_OC_InitTypeDef *OC_Config)
{
 80025a8:	b580      	push	{r7, lr}
 80025aa:	b086      	sub	sp, #24
 80025ac:	af00      	add	r7, sp, #0
 80025ae:	6078      	str	r0, [r7, #4]
 80025b0:	6039      	str	r1, [r7, #0]
  uint32_t tmpccmrx;
  uint32_t tmpccer;
  uint32_t tmpcr2;

  /* Disable the Channel 4: Reset the CC4E Bit */
  TIMx->CCER &= ~TIM_CCER_CC4E;
 80025b2:	687b      	ldr	r3, [r7, #4]
 80025b4:	6a1b      	ldr	r3, [r3, #32]
 80025b6:	4a28      	ldr	r2, [pc, #160]	; (8002658 <TIM_OC4_SetConfig+0xb0>)
 80025b8:	401a      	ands	r2, r3
 80025ba:	687b      	ldr	r3, [r7, #4]
 80025bc:	621a      	str	r2, [r3, #32]

  /* Get the TIMx CCER register value */
  tmpccer = TIMx->CCER;
 80025be:	687b      	ldr	r3, [r7, #4]
 80025c0:	6a1b      	ldr	r3, [r3, #32]
 80025c2:	613b      	str	r3, [r7, #16]
  /* Get the TIMx CR2 register value */
  tmpcr2 =  TIMx->CR2;
 80025c4:	687b      	ldr	r3, [r7, #4]
 80025c6:	685b      	ldr	r3, [r3, #4]
 80025c8:	617b      	str	r3, [r7, #20]

  /* Get the TIMx CCMR2 register value */
  tmpccmrx = TIMx->CCMR2;
 80025ca:	687b      	ldr	r3, [r7, #4]
 80025cc:	69db      	ldr	r3, [r3, #28]
 80025ce:	60fb      	str	r3, [r7, #12]

  /* Reset the Output Compare mode and Capture/Compare selection Bits */
  tmpccmrx &= ~TIM_CCMR2_OC4M;
 80025d0:	68fb      	ldr	r3, [r7, #12]
 80025d2:	4a22      	ldr	r2, [pc, #136]	; (800265c <TIM_OC4_SetConfig+0xb4>)
 80025d4:	4013      	ands	r3, r2
 80025d6:	60fb      	str	r3, [r7, #12]
  tmpccmrx &= ~TIM_CCMR2_CC4S;
 80025d8:	68fb      	ldr	r3, [r7, #12]
 80025da:	4a21      	ldr	r2, [pc, #132]	; (8002660 <TIM_OC4_SetConfig+0xb8>)
 80025dc:	4013      	ands	r3, r2
 80025de:	60fb      	str	r3, [r7, #12]

  /* Select the Output Compare Mode */
  tmpccmrx |= (OC_Config->OCMode << 8U);
 80025e0:	683b      	ldr	r3, [r7, #0]
 80025e2:	681b      	ldr	r3, [r3, #0]
 80025e4:	021b      	lsls	r3, r3, #8
 80025e6:	68fa      	ldr	r2, [r7, #12]
 80025e8:	4313      	orrs	r3, r2
 80025ea:	60fb      	str	r3, [r7, #12]

  /* Reset the Output Polarity level */
  tmpccer &= ~TIM_CCER_CC4P;
 80025ec:	693b      	ldr	r3, [r7, #16]
 80025ee:	4a1d      	ldr	r2, [pc, #116]	; (8002664 <TIM_OC4_SetConfig+0xbc>)
 80025f0:	4013      	ands	r3, r2
 80025f2:	613b      	str	r3, [r7, #16]
  /* Set the Output Compare Polarity */
  tmpccer |= (OC_Config->OCPolarity << 12U);
 80025f4:	683b      	ldr	r3, [r7, #0]
 80025f6:	689b      	ldr	r3, [r3, #8]
 80025f8:	031b      	lsls	r3, r3, #12
 80025fa:	693a      	ldr	r2, [r7, #16]
 80025fc:	4313      	orrs	r3, r2
 80025fe:	613b      	str	r3, [r7, #16]

  if (IS_TIM_BREAK_INSTANCE(TIMx))
 8002600:	687b      	ldr	r3, [r7, #4]
 8002602:	4a19      	ldr	r2, [pc, #100]	; (8002668 <TIM_OC4_SetConfig+0xc0>)
 8002604:	4293      	cmp	r3, r2
 8002606:	d00b      	beq.n	8002620 <TIM_OC4_SetConfig+0x78>
 8002608:	687b      	ldr	r3, [r7, #4]
 800260a:	4a18      	ldr	r2, [pc, #96]	; (800266c <TIM_OC4_SetConfig+0xc4>)
 800260c:	4293      	cmp	r3, r2
 800260e:	d007      	beq.n	8002620 <TIM_OC4_SetConfig+0x78>
 8002610:	687b      	ldr	r3, [r7, #4]
 8002612:	4a17      	ldr	r2, [pc, #92]	; (8002670 <TIM_OC4_SetConfig+0xc8>)
 8002614:	4293      	cmp	r3, r2
 8002616:	d003      	beq.n	8002620 <TIM_OC4_SetConfig+0x78>
 8002618:	687b      	ldr	r3, [r7, #4]
 800261a:	4a16      	ldr	r2, [pc, #88]	; (8002674 <TIM_OC4_SetConfig+0xcc>)
 800261c:	4293      	cmp	r3, r2
 800261e:	d109      	bne.n	8002634 <TIM_OC4_SetConfig+0x8c>
  {
    /* Check parameters */
    assert_param(IS_TIM_OCIDLE_STATE(OC_Config->OCIdleState));

    /* Reset the Output Compare IDLE State */
    tmpcr2 &= ~TIM_CR2_OIS4;
 8002620:	697b      	ldr	r3, [r7, #20]
 8002622:	4a15      	ldr	r2, [pc, #84]	; (8002678 <TIM_OC4_SetConfig+0xd0>)
 8002624:	4013      	ands	r3, r2
 8002626:	617b      	str	r3, [r7, #20]

    /* Set the Output Idle state */
    tmpcr2 |= (OC_Config->OCIdleState << 6U);
 8002628:	683b      	ldr	r3, [r7, #0]
 800262a:	695b      	ldr	r3, [r3, #20]
 800262c:	019b      	lsls	r3, r3, #6
 800262e:	697a      	ldr	r2, [r7, #20]
 8002630:	4313      	orrs	r3, r2
 8002632:	617b      	str	r3, [r7, #20]
  }

  /* Write to TIMx CR2 */
  TIMx->CR2 = tmpcr2;
 8002634:	687b      	ldr	r3, [r7, #4]
 8002636:	697a      	ldr	r2, [r7, #20]
 8002638:	605a      	str	r2, [r3, #4]

  /* Write to TIMx CCMR2 */
  TIMx->CCMR2 = tmpccmrx;
 800263a:	687b      	ldr	r3, [r7, #4]
 800263c:	68fa      	ldr	r2, [r7, #12]
 800263e:	61da      	str	r2, [r3, #28]

  /* Set the Capture Compare Register value */
  TIMx->CCR4 = OC_Config->Pulse;
 8002640:	683b      	ldr	r3, [r7, #0]
 8002642:	685a      	ldr	r2, [r3, #4]
 8002644:	687b      	ldr	r3, [r7, #4]
 8002646:	641a      	str	r2, [r3, #64]	; 0x40

  /* Write to TIMx CCER */
  TIMx->CCER = tmpccer;
 8002648:	687b      	ldr	r3, [r7, #4]
 800264a:	693a      	ldr	r2, [r7, #16]
 800264c:	621a      	str	r2, [r3, #32]
}
 800264e:	46c0      	nop			; (mov r8, r8)
 8002650:	46bd      	mov	sp, r7
 8002652:	b006      	add	sp, #24
 8002654:	bd80      	pop	{r7, pc}
 8002656:	46c0      	nop			; (mov r8, r8)
 8002658:	ffffefff 	.word	0xffffefff
 800265c:	ffff8fff 	.word	0xffff8fff
 8002660:	fffffcff 	.word	0xfffffcff
 8002664:	ffffdfff 	.word	0xffffdfff
 8002668:	40012c00 	.word	0x40012c00
 800266c:	40014000 	.word	0x40014000
 8002670:	40014400 	.word	0x40014400
 8002674:	40014800 	.word	0x40014800
 8002678:	ffffbfff 	.word	0xffffbfff

0800267c <TIM_CCxChannelCmd>:
  * @param  ChannelState specifies the TIM Channel CCxE bit new state.
  *          This parameter can be: TIM_CCx_ENABLE or TIM_CCx_DISABLE.
  * @retval None
  */
void TIM_CCxChannelCmd(TIM_TypeDef *TIMx, uint32_t Channel, uint32_t ChannelState)
{
 800267c:	b580      	push	{r7, lr}
 800267e:	b086      	sub	sp, #24
 8002680:	af00      	add	r7, sp, #0
 8002682:	60f8      	str	r0, [r7, #12]
 8002684:	60b9      	str	r1, [r7, #8]
 8002686:	607a      	str	r2, [r7, #4]

  /* Check the parameters */
  assert_param(IS_TIM_CC1_INSTANCE(TIMx));
  assert_param(IS_TIM_CHANNELS(Channel));

  tmp = TIM_CCER_CC1E << (Channel & 0x1FU); /* 0x1FU = 31 bits max shift */
 8002688:	68bb      	ldr	r3, [r7, #8]
 800268a:	221f      	movs	r2, #31
 800268c:	4013      	ands	r3, r2
 800268e:	2201      	movs	r2, #1
 8002690:	409a      	lsls	r2, r3
 8002692:	0013      	movs	r3, r2
 8002694:	617b      	str	r3, [r7, #20]

  /* Reset the CCxE Bit */
  TIMx->CCER &= ~tmp;
 8002696:	68fb      	ldr	r3, [r7, #12]
 8002698:	6a1b      	ldr	r3, [r3, #32]
 800269a:	697a      	ldr	r2, [r7, #20]
 800269c:	43d2      	mvns	r2, r2
 800269e:	401a      	ands	r2, r3
 80026a0:	68fb      	ldr	r3, [r7, #12]
 80026a2:	621a      	str	r2, [r3, #32]

  /* Set or reset the CCxE Bit */
  TIMx->CCER |= (uint32_t)(ChannelState << (Channel & 0x1FU)); /* 0x1FU = 31 bits max shift */
 80026a4:	68fb      	ldr	r3, [r7, #12]
 80026a6:	6a1a      	ldr	r2, [r3, #32]
 80026a8:	68bb      	ldr	r3, [r7, #8]
 80026aa:	211f      	movs	r1, #31
 80026ac:	400b      	ands	r3, r1
 80026ae:	6879      	ldr	r1, [r7, #4]
 80026b0:	4099      	lsls	r1, r3
 80026b2:	000b      	movs	r3, r1
 80026b4:	431a      	orrs	r2, r3
 80026b6:	68fb      	ldr	r3, [r7, #12]
 80026b8:	621a      	str	r2, [r3, #32]
}
 80026ba:	46c0      	nop			; (mov r8, r8)
 80026bc:	46bd      	mov	sp, r7
 80026be:	b006      	add	sp, #24
 80026c0:	bd80      	pop	{r7, pc}
	...

080026c4 <HAL_TIMEx_MasterConfigSynchronization>:
  *         mode.
  * @retval HAL status
  */
HAL_StatusTypeDef HAL_TIMEx_MasterConfigSynchronization(TIM_HandleTypeDef *htim,
                                                        TIM_MasterConfigTypeDef *sMasterConfig)
{
 80026c4:	b580      	push	{r7, lr}
 80026c6:	b084      	sub	sp, #16
 80026c8:	af00      	add	r7, sp, #0
 80026ca:	6078      	str	r0, [r7, #4]
 80026cc:	6039      	str	r1, [r7, #0]
  assert_param(IS_TIM_MASTER_INSTANCE(htim->Instance));
  assert_param(IS_TIM_TRGO_SOURCE(sMasterConfig->MasterOutputTrigger));
  assert_param(IS_TIM_MSM_STATE(sMasterConfig->MasterSlaveMode));

  /* Check input state */
  __HAL_LOCK(htim);
 80026ce:	687b      	ldr	r3, [r7, #4]
 80026d0:	223c      	movs	r2, #60	; 0x3c
 80026d2:	5c9b      	ldrb	r3, [r3, r2]
 80026d4:	2b01      	cmp	r3, #1
 80026d6:	d101      	bne.n	80026dc <HAL_TIMEx_MasterConfigSynchronization+0x18>
 80026d8:	2302      	movs	r3, #2
 80026da:	e047      	b.n	800276c <HAL_TIMEx_MasterConfigSynchronization+0xa8>
 80026dc:	687b      	ldr	r3, [r7, #4]
 80026de:	223c      	movs	r2, #60	; 0x3c
 80026e0:	2101      	movs	r1, #1
 80026e2:	5499      	strb	r1, [r3, r2]

  /* Change the handler state */
  htim->State = HAL_TIM_STATE_BUSY;
 80026e4:	687b      	ldr	r3, [r7, #4]
 80026e6:	223d      	movs	r2, #61	; 0x3d
 80026e8:	2102      	movs	r1, #2
 80026ea:	5499      	strb	r1, [r3, r2]

  /* Get the TIMx CR2 register value */
  tmpcr2 = htim->Instance->CR2;
 80026ec:	687b      	ldr	r3, [r7, #4]
 80026ee:	681b      	ldr	r3, [r3, #0]
 80026f0:	685b      	ldr	r3, [r3, #4]
 80026f2:	60fb      	str	r3, [r7, #12]

  /* Get the TIMx SMCR register value */
  tmpsmcr = htim->Instance->SMCR;
 80026f4:	687b      	ldr	r3, [r7, #4]
 80026f6:	681b      	ldr	r3, [r3, #0]
 80026f8:	689b      	ldr	r3, [r3, #8]
 80026fa:	60bb      	str	r3, [r7, #8]

  /* Reset the MMS Bits */
  tmpcr2 &= ~TIM_CR2_MMS;
 80026fc:	68fb      	ldr	r3, [r7, #12]
 80026fe:	2270      	movs	r2, #112	; 0x70
 8002700:	4393      	bics	r3, r2
 8002702:	60fb      	str	r3, [r7, #12]
  /* Select the TRGO source */
  tmpcr2 |=  sMasterConfig->MasterOutputTrigger;
 8002704:	683b      	ldr	r3, [r7, #0]
 8002706:	681b      	ldr	r3, [r3, #0]
 8002708:	68fa      	ldr	r2, [r7, #12]
 800270a:	4313      	orrs	r3, r2
 800270c:	60fb      	str	r3, [r7, #12]

  /* Update TIMx CR2 */
  htim->Instance->CR2 = tmpcr2;
 800270e:	687b      	ldr	r3, [r7, #4]
 8002710:	681b      	ldr	r3, [r3, #0]
 8002712:	68fa      	ldr	r2, [r7, #12]
 8002714:	605a      	str	r2, [r3, #4]

  if (IS_TIM_SLAVE_INSTANCE(htim->Instance))
 8002716:	687b      	ldr	r3, [r7, #4]
 8002718:	681b      	ldr	r3, [r3, #0]
 800271a:	4a16      	ldr	r2, [pc, #88]	; (8002774 <HAL_TIMEx_MasterConfigSynchronization+0xb0>)
 800271c:	4293      	cmp	r3, r2
 800271e:	d00f      	beq.n	8002740 <HAL_TIMEx_MasterConfigSynchronization+0x7c>
 8002720:	687b      	ldr	r3, [r7, #4]
 8002722:	681a      	ldr	r2, [r3, #0]
 8002724:	2380      	movs	r3, #128	; 0x80
 8002726:	05db      	lsls	r3, r3, #23
 8002728:	429a      	cmp	r2, r3
 800272a:	d009      	beq.n	8002740 <HAL_TIMEx_MasterConfigSynchronization+0x7c>
 800272c:	687b      	ldr	r3, [r7, #4]
 800272e:	681b      	ldr	r3, [r3, #0]
 8002730:	4a11      	ldr	r2, [pc, #68]	; (8002778 <HAL_TIMEx_MasterConfigSynchronization+0xb4>)
 8002732:	4293      	cmp	r3, r2
 8002734:	d004      	beq.n	8002740 <HAL_TIMEx_MasterConfigSynchronization+0x7c>
 8002736:	687b      	ldr	r3, [r7, #4]
 8002738:	681b      	ldr	r3, [r3, #0]
 800273a:	4a10      	ldr	r2, [pc, #64]	; (800277c <HAL_TIMEx_MasterConfigSynchronization+0xb8>)
 800273c:	4293      	cmp	r3, r2
 800273e:	d10c      	bne.n	800275a <HAL_TIMEx_MasterConfigSynchronization+0x96>
  {
    /* Reset the MSM Bit */
    tmpsmcr &= ~TIM_SMCR_MSM;
 8002740:	68bb      	ldr	r3, [r7, #8]
 8002742:	2280      	movs	r2, #128	; 0x80
 8002744:	4393      	bics	r3, r2
 8002746:	60bb      	str	r3, [r7, #8]
    /* Set master mode */
    tmpsmcr |= sMasterConfig->MasterSlaveMode;
 8002748:	683b      	ldr	r3, [r7, #0]
 800274a:	685b      	ldr	r3, [r3, #4]
 800274c:	68ba      	ldr	r2, [r7, #8]
 800274e:	4313      	orrs	r3, r2
 8002750:	60bb      	str	r3, [r7, #8]

    /* Update TIMx SMCR */
    htim->Instance->SMCR = tmpsmcr;
 8002752:	687b      	ldr	r3, [r7, #4]
 8002754:	681b      	ldr	r3, [r3, #0]
 8002756:	68ba      	ldr	r2, [r7, #8]
 8002758:	609a      	str	r2, [r3, #8]
  }

  /* Change the htim state */
  htim->State = HAL_TIM_STATE_READY;
 800275a:	687b      	ldr	r3, [r7, #4]
 800275c:	223d      	movs	r2, #61	; 0x3d
 800275e:	2101      	movs	r1, #1
 8002760:	5499      	strb	r1, [r3, r2]

  __HAL_UNLOCK(htim);
 8002762:	687b      	ldr	r3, [r7, #4]
 8002764:	223c      	movs	r2, #60	; 0x3c
 8002766:	2100      	movs	r1, #0
 8002768:	5499      	strb	r1, [r3, r2]

  return HAL_OK;
 800276a:	2300      	movs	r3, #0
}
 800276c:	0018      	movs	r0, r3
 800276e:	46bd      	mov	sp, r7
 8002770:	b004      	add	sp, #16
 8002772:	bd80      	pop	{r7, pc}
 8002774:	40012c00 	.word	0x40012c00
 8002778:	40000400 	.word	0x40000400
 800277c:	40014000 	.word	0x40014000

08002780 <HAL_TIMEx_ConfigBreakDeadTime>:
  *         interrupt can be enabled by calling the @ref __HAL_TIM_ENABLE_IT macro.
  * @retval HAL status
  */
HAL_StatusTypeDef HAL_TIMEx_ConfigBreakDeadTime(TIM_HandleTypeDef *htim,
                                                TIM_BreakDeadTimeConfigTypeDef *sBreakDeadTimeConfig)
{
 8002780:	b580      	push	{r7, lr}
 8002782:	b084      	sub	sp, #16
 8002784:	af00      	add	r7, sp, #0
 8002786:	6078      	str	r0, [r7, #4]
 8002788:	6039      	str	r1, [r7, #0]
  /* Keep this variable initialized to 0 as it is used to configure BDTR register */
  uint32_t tmpbdtr = 0U;
 800278a:	2300      	movs	r3, #0
 800278c:	60fb      	str	r3, [r7, #12]
  assert_param(IS_TIM_BREAK_STATE(sBreakDeadTimeConfig->BreakState));
  assert_param(IS_TIM_BREAK_POLARITY(sBreakDeadTimeConfig->BreakPolarity));
  assert_param(IS_TIM_AUTOMATIC_OUTPUT_STATE(sBreakDeadTimeConfig->AutomaticOutput));

  /* Check input state */
  __HAL_LOCK(htim);
 800278e:	687b      	ldr	r3, [r7, #4]
 8002790:	223c      	movs	r2, #60	; 0x3c
 8002792:	5c9b      	ldrb	r3, [r3, r2]
 8002794:	2b01      	cmp	r3, #1
 8002796:	d101      	bne.n	800279c <HAL_TIMEx_ConfigBreakDeadTime+0x1c>
 8002798:	2302      	movs	r3, #2
 800279a:	e03e      	b.n	800281a <HAL_TIMEx_ConfigBreakDeadTime+0x9a>
 800279c:	687b      	ldr	r3, [r7, #4]
 800279e:	223c      	movs	r2, #60	; 0x3c
 80027a0:	2101      	movs	r1, #1
 80027a2:	5499      	strb	r1, [r3, r2]

  /* Set the Lock level, the Break enable Bit and the Polarity, the OSSR State,
     the OSSI State, the dead time value and the Automatic Output Enable Bit */

  /* Set the BDTR bits */
  MODIFY_REG(tmpbdtr, TIM_BDTR_DTG, sBreakDeadTimeConfig->DeadTime);
 80027a4:	68fb      	ldr	r3, [r7, #12]
 80027a6:	22ff      	movs	r2, #255	; 0xff
 80027a8:	4393      	bics	r3, r2
 80027aa:	001a      	movs	r2, r3
 80027ac:	683b      	ldr	r3, [r7, #0]
 80027ae:	68db      	ldr	r3, [r3, #12]
 80027b0:	4313      	orrs	r3, r2
 80027b2:	60fb      	str	r3, [r7, #12]
  MODIFY_REG(tmpbdtr, TIM_BDTR_LOCK, sBreakDeadTimeConfig->LockLevel);
 80027b4:	68fb      	ldr	r3, [r7, #12]
 80027b6:	4a1b      	ldr	r2, [pc, #108]	; (8002824 <HAL_TIMEx_ConfigBreakDeadTime+0xa4>)
 80027b8:	401a      	ands	r2, r3
 80027ba:	683b      	ldr	r3, [r7, #0]
 80027bc:	689b      	ldr	r3, [r3, #8]
 80027be:	4313      	orrs	r3, r2
 80027c0:	60fb      	str	r3, [r7, #12]
  MODIFY_REG(tmpbdtr, TIM_BDTR_OSSI, sBreakDeadTimeConfig->OffStateIDLEMode);
 80027c2:	68fb      	ldr	r3, [r7, #12]
 80027c4:	4a18      	ldr	r2, [pc, #96]	; (8002828 <HAL_TIMEx_ConfigBreakDeadTime+0xa8>)
 80027c6:	401a      	ands	r2, r3
 80027c8:	683b      	ldr	r3, [r7, #0]
 80027ca:	685b      	ldr	r3, [r3, #4]
 80027cc:	4313      	orrs	r3, r2
 80027ce:	60fb      	str	r3, [r7, #12]
  MODIFY_REG(tmpbdtr, TIM_BDTR_OSSR, sBreakDeadTimeConfig->OffStateRunMode);
 80027d0:	68fb      	ldr	r3, [r7, #12]
 80027d2:	4a16      	ldr	r2, [pc, #88]	; (800282c <HAL_TIMEx_ConfigBreakDeadTime+0xac>)
 80027d4:	401a      	ands	r2, r3
 80027d6:	683b      	ldr	r3, [r7, #0]
 80027d8:	681b      	ldr	r3, [r3, #0]
 80027da:	4313      	orrs	r3, r2
 80027dc:	60fb      	str	r3, [r7, #12]
  MODIFY_REG(tmpbdtr, TIM_BDTR_BKE, sBreakDeadTimeConfig->BreakState);
 80027de:	68fb      	ldr	r3, [r7, #12]
 80027e0:	4a13      	ldr	r2, [pc, #76]	; (8002830 <HAL_TIMEx_ConfigBreakDeadTime+0xb0>)
 80027e2:	401a      	ands	r2, r3
 80027e4:	683b      	ldr	r3, [r7, #0]
 80027e6:	691b      	ldr	r3, [r3, #16]
 80027e8:	4313      	orrs	r3, r2
 80027ea:	60fb      	str	r3, [r7, #12]
  MODIFY_REG(tmpbdtr, TIM_BDTR_BKP, sBreakDeadTimeConfig->BreakPolarity);
 80027ec:	68fb      	ldr	r3, [r7, #12]
 80027ee:	4a11      	ldr	r2, [pc, #68]	; (8002834 <HAL_TIMEx_ConfigBreakDeadTime+0xb4>)
 80027f0:	401a      	ands	r2, r3
 80027f2:	683b      	ldr	r3, [r7, #0]
 80027f4:	695b      	ldr	r3, [r3, #20]
 80027f6:	4313      	orrs	r3, r2
 80027f8:	60fb      	str	r3, [r7, #12]
  MODIFY_REG(tmpbdtr, TIM_BDTR_AOE, sBreakDeadTimeConfig->AutomaticOutput);
 80027fa:	68fb      	ldr	r3, [r7, #12]
 80027fc:	4a0e      	ldr	r2, [pc, #56]	; (8002838 <HAL_TIMEx_ConfigBreakDeadTime+0xb8>)
 80027fe:	401a      	ands	r2, r3
 8002800:	683b      	ldr	r3, [r7, #0]
 8002802:	69db      	ldr	r3, [r3, #28]
 8002804:	4313      	orrs	r3, r2
 8002806:	60fb      	str	r3, [r7, #12]


  /* Set TIMx_BDTR */
  htim->Instance->BDTR = tmpbdtr;
 8002808:	687b      	ldr	r3, [r7, #4]
 800280a:	681b      	ldr	r3, [r3, #0]
 800280c:	68fa      	ldr	r2, [r7, #12]
 800280e:	645a      	str	r2, [r3, #68]	; 0x44

  __HAL_UNLOCK(htim);
 8002810:	687b      	ldr	r3, [r7, #4]
 8002812:	223c      	movs	r2, #60	; 0x3c
 8002814:	2100      	movs	r1, #0
 8002816:	5499      	strb	r1, [r3, r2]

  return HAL_OK;
 8002818:	2300      	movs	r3, #0
}
 800281a:	0018      	movs	r0, r3
 800281c:	46bd      	mov	sp, r7
 800281e:	b004      	add	sp, #16
 8002820:	bd80      	pop	{r7, pc}
 8002822:	46c0      	nop			; (mov r8, r8)
 8002824:	fffffcff 	.word	0xfffffcff
 8002828:	fffffbff 	.word	0xfffffbff
 800282c:	fffff7ff 	.word	0xfffff7ff
 8002830:	ffffefff 	.word	0xffffefff
 8002834:	ffffdfff 	.word	0xffffdfff
 8002838:	ffffbfff 	.word	0xffffbfff

0800283c <HAL_TIMEx_CommutCallback>:
  * @brief  Hall commutation changed callback in non-blocking mode
  * @param  htim TIM handle
  * @retval None
  */
__weak void HAL_TIMEx_CommutCallback(TIM_HandleTypeDef *htim)
{
 800283c:	b580      	push	{r7, lr}
 800283e:	b082      	sub	sp, #8
 8002840:	af00      	add	r7, sp, #0
 8002842:	6078      	str	r0, [r7, #4]
  UNUSED(htim);

  /* NOTE : This function should not be modified, when the callback is needed,
            the HAL_TIMEx_CommutCallback could be implemented in the user file
   */
}
 8002844:	46c0      	nop			; (mov r8, r8)
 8002846:	46bd      	mov	sp, r7
 8002848:	b002      	add	sp, #8
 800284a:	bd80      	pop	{r7, pc}

0800284c <HAL_TIMEx_BreakCallback>:
  * @brief  Hall Break detection callback in non-blocking mode
  * @param  htim TIM handle
  * @retval None
  */
__weak void HAL_TIMEx_BreakCallback(TIM_HandleTypeDef *htim)
{
 800284c:	b580      	push	{r7, lr}
 800284e:	b082      	sub	sp, #8
 8002850:	af00      	add	r7, sp, #0
 8002852:	6078      	str	r0, [r7, #4]
  UNUSED(htim);

  /* NOTE : This function should not be modified, when the callback is needed,
            the HAL_TIMEx_BreakCallback could be implemented in the user file
   */
}
 8002854:	46c0      	nop			; (mov r8, r8)
 8002856:	46bd      	mov	sp, r7
 8002858:	b002      	add	sp, #8
 800285a:	bd80      	pop	{r7, pc}

0800285c <__libc_init_array>:
 800285c:	b570      	push	{r4, r5, r6, lr}
 800285e:	2600      	movs	r6, #0
 8002860:	4d0c      	ldr	r5, [pc, #48]	; (8002894 <__libc_init_array+0x38>)
 8002862:	4c0d      	ldr	r4, [pc, #52]	; (8002898 <__libc_init_array+0x3c>)
 8002864:	1b64      	subs	r4, r4, r5
 8002866:	10a4      	asrs	r4, r4, #2
 8002868:	42a6      	cmp	r6, r4
 800286a:	d109      	bne.n	8002880 <__libc_init_array+0x24>
 800286c:	2600      	movs	r6, #0
 800286e:	f000 f821 	bl	80028b4 <_init>
 8002872:	4d0a      	ldr	r5, [pc, #40]	; (800289c <__libc_init_array+0x40>)
 8002874:	4c0a      	ldr	r4, [pc, #40]	; (80028a0 <__libc_init_array+0x44>)
 8002876:	1b64      	subs	r4, r4, r5
 8002878:	10a4      	asrs	r4, r4, #2
 800287a:	42a6      	cmp	r6, r4
 800287c:	d105      	bne.n	800288a <__libc_init_array+0x2e>
 800287e:	bd70      	pop	{r4, r5, r6, pc}
 8002880:	00b3      	lsls	r3, r6, #2
 8002882:	58eb      	ldr	r3, [r5, r3]
 8002884:	4798      	blx	r3
 8002886:	3601      	adds	r6, #1
 8002888:	e7ee      	b.n	8002868 <__libc_init_array+0xc>
 800288a:	00b3      	lsls	r3, r6, #2
 800288c:	58eb      	ldr	r3, [r5, r3]
 800288e:	4798      	blx	r3
 8002890:	3601      	adds	r6, #1
 8002892:	e7f2      	b.n	800287a <__libc_init_array+0x1e>
 8002894:	080028fc 	.word	0x080028fc
 8002898:	080028fc 	.word	0x080028fc
 800289c:	080028fc 	.word	0x080028fc
 80028a0:	08002900 	.word	0x08002900

080028a4 <memset>:
 80028a4:	0003      	movs	r3, r0
 80028a6:	1812      	adds	r2, r2, r0
 80028a8:	4293      	cmp	r3, r2
 80028aa:	d100      	bne.n	80028ae <memset+0xa>
 80028ac:	4770      	bx	lr
 80028ae:	7019      	strb	r1, [r3, #0]
 80028b0:	3301      	adds	r3, #1
 80028b2:	e7f9      	b.n	80028a8 <memset+0x4>

080028b4 <_init>:
 80028b4:	b5f8      	push	{r3, r4, r5, r6, r7, lr}
 80028b6:	46c0      	nop			; (mov r8, r8)
 80028b8:	bcf8      	pop	{r3, r4, r5, r6, r7}
 80028ba:	bc08      	pop	{r3}
 80028bc:	469e      	mov	lr, r3
 80028be:	4770      	bx	lr

080028c0 <_fini>:
 80028c0:	b5f8      	push	{r3, r4, r5, r6, r7, lr}
 80028c2:	46c0      	nop			; (mov r8, r8)
 80028c4:	bcf8      	pop	{r3, r4, r5, r6, r7}
 80028c6:	bc08      	pop	{r3}
 80028c8:	469e      	mov	lr, r3
 80028ca:	4770      	bx	lr
