
UV_LED_DRIVER_SW_STM32L051.elf:     file format elf32-littlearm

Sections:
Idx Name          Size      VMA       LMA       File off  Algn
  0 .isr_vector   000000c0  08000000  08000000  00010000  2**0
                  CONTENTS, ALLOC, LOAD, READONLY, DATA
  1 .text         00002828  080000c0  080000c0  000100c0  2**2
                  CONTENTS, ALLOC, LOAD, READONLY, CODE
  2 .rodata       00000030  080028e8  080028e8  000128e8  2**2
                  CONTENTS, ALLOC, LOAD, READONLY, DATA
  3 .ARM.extab    00000000  08002918  08002918  0002000c  2**0
                  CONTENTS
  4 .ARM          00000000  08002918  08002918  0002000c  2**0
                  CONTENTS
  5 .preinit_array 00000000  08002918  08002918  0002000c  2**0
                  CONTENTS, ALLOC, LOAD, DATA
  6 .init_array   00000004  08002918  08002918  00012918  2**2
                  CONTENTS, ALLOC, LOAD, DATA
  7 .fini_array   00000004  0800291c  0800291c  0001291c  2**2
                  CONTENTS, ALLOC, LOAD, DATA
  8 .data         0000000c  20000000  08002920  00020000  2**2
                  CONTENTS, ALLOC, LOAD, DATA
  9 .bss          00000124  2000000c  0800292c  0002000c  2**2
                  ALLOC
 10 ._user_heap_stack 00000600  20000130  0800292c  00020130  2**0
                  ALLOC
 11 .ARM.attributes 00000028  00000000  00000000  0002000c  2**0
                  CONTENTS, READONLY
 12 .debug_info   0000792f  00000000  00000000  00020034  2**0
                  CONTENTS, READONLY, DEBUGGING
 13 .debug_abbrev 0000159a  00000000  00000000  00027963  2**0
                  CONTENTS, READONLY, DEBUGGING
 14 .debug_aranges 000008f0  00000000  00000000  00028f00  2**3
                  CONTENTS, READONLY, DEBUGGING
 15 .debug_ranges 00000828  00000000  00000000  000297f0  2**3
                  CONTENTS, READONLY, DEBUGGING
 16 .debug_macro  0000daff  00000000  00000000  0002a018  2**0
                  CONTENTS, READONLY, DEBUGGING
 17 .debug_line   000070ca  00000000  00000000  00037b17  2**0
                  CONTENTS, READONLY, DEBUGGING
 18 .debug_str    0004fa8a  00000000  00000000  0003ebe1  2**0
                  CONTENTS, READONLY, DEBUGGING
 19 .comment      0000007b  00000000  00000000  0008e66b  2**0
                  CONTENTS, READONLY
 20 .debug_frame  00001f34  00000000  00000000  0008e6e8  2**2
                  CONTENTS, READONLY, DEBUGGING

Disassembly of section .text:

080000c0 <__do_global_dtors_aux>:
 80000c0:	b510      	push	{r4, lr}
 80000c2:	4c06      	ldr	r4, [pc, #24]	; (80000dc <__do_global_dtors_aux+0x1c>)
 80000c4:	7823      	ldrb	r3, [r4, #0]
 80000c6:	2b00      	cmp	r3, #0
 80000c8:	d107      	bne.n	80000da <__do_global_dtors_aux+0x1a>
 80000ca:	4b05      	ldr	r3, [pc, #20]	; (80000e0 <__do_global_dtors_aux+0x20>)
 80000cc:	2b00      	cmp	r3, #0
 80000ce:	d002      	beq.n	80000d6 <__do_global_dtors_aux+0x16>
 80000d0:	4804      	ldr	r0, [pc, #16]	; (80000e4 <__do_global_dtors_aux+0x24>)
 80000d2:	e000      	b.n	80000d6 <__do_global_dtors_aux+0x16>
 80000d4:	bf00      	nop
 80000d6:	2301      	movs	r3, #1
 80000d8:	7023      	strb	r3, [r4, #0]
 80000da:	bd10      	pop	{r4, pc}
 80000dc:	2000000c 	.word	0x2000000c
 80000e0:	00000000 	.word	0x00000000
 80000e4:	080028d0 	.word	0x080028d0

080000e8 <frame_dummy>:
 80000e8:	4b04      	ldr	r3, [pc, #16]	; (80000fc <frame_dummy+0x14>)
 80000ea:	b510      	push	{r4, lr}
 80000ec:	2b00      	cmp	r3, #0
 80000ee:	d003      	beq.n	80000f8 <frame_dummy+0x10>
 80000f0:	4903      	ldr	r1, [pc, #12]	; (8000100 <frame_dummy+0x18>)
 80000f2:	4804      	ldr	r0, [pc, #16]	; (8000104 <frame_dummy+0x1c>)
 80000f4:	e000      	b.n	80000f8 <frame_dummy+0x10>
 80000f6:	bf00      	nop
 80000f8:	bd10      	pop	{r4, pc}
 80000fa:	46c0      	nop			; (mov r8, r8)
 80000fc:	00000000 	.word	0x00000000
 8000100:	20000010 	.word	0x20000010
 8000104:	080028d0 	.word	0x080028d0

08000108 <__udivsi3>:
 8000108:	2200      	movs	r2, #0
 800010a:	0843      	lsrs	r3, r0, #1
 800010c:	428b      	cmp	r3, r1
 800010e:	d374      	bcc.n	80001fa <__udivsi3+0xf2>
 8000110:	0903      	lsrs	r3, r0, #4
 8000112:	428b      	cmp	r3, r1
 8000114:	d35f      	bcc.n	80001d6 <__udivsi3+0xce>
 8000116:	0a03      	lsrs	r3, r0, #8
 8000118:	428b      	cmp	r3, r1
 800011a:	d344      	bcc.n	80001a6 <__udivsi3+0x9e>
 800011c:	0b03      	lsrs	r3, r0, #12
 800011e:	428b      	cmp	r3, r1
 8000120:	d328      	bcc.n	8000174 <__udivsi3+0x6c>
 8000122:	0c03      	lsrs	r3, r0, #16
 8000124:	428b      	cmp	r3, r1
 8000126:	d30d      	bcc.n	8000144 <__udivsi3+0x3c>
 8000128:	22ff      	movs	r2, #255	; 0xff
 800012a:	0209      	lsls	r1, r1, #8
 800012c:	ba12      	rev	r2, r2
 800012e:	0c03      	lsrs	r3, r0, #16
 8000130:	428b      	cmp	r3, r1
 8000132:	d302      	bcc.n	800013a <__udivsi3+0x32>
 8000134:	1212      	asrs	r2, r2, #8
 8000136:	0209      	lsls	r1, r1, #8
 8000138:	d065      	beq.n	8000206 <__udivsi3+0xfe>
 800013a:	0b03      	lsrs	r3, r0, #12
 800013c:	428b      	cmp	r3, r1
 800013e:	d319      	bcc.n	8000174 <__udivsi3+0x6c>
 8000140:	e000      	b.n	8000144 <__udivsi3+0x3c>
 8000142:	0a09      	lsrs	r1, r1, #8
 8000144:	0bc3      	lsrs	r3, r0, #15
 8000146:	428b      	cmp	r3, r1
 8000148:	d301      	bcc.n	800014e <__udivsi3+0x46>
 800014a:	03cb      	lsls	r3, r1, #15
 800014c:	1ac0      	subs	r0, r0, r3
 800014e:	4152      	adcs	r2, r2
 8000150:	0b83      	lsrs	r3, r0, #14
 8000152:	428b      	cmp	r3, r1
 8000154:	d301      	bcc.n	800015a <__udivsi3+0x52>
 8000156:	038b      	lsls	r3, r1, #14
 8000158:	1ac0      	subs	r0, r0, r3
 800015a:	4152      	adcs	r2, r2
 800015c:	0b43      	lsrs	r3, r0, #13
 800015e:	428b      	cmp	r3, r1
 8000160:	d301      	bcc.n	8000166 <__udivsi3+0x5e>
 8000162:	034b      	lsls	r3, r1, #13
 8000164:	1ac0      	subs	r0, r0, r3
 8000166:	4152      	adcs	r2, r2
 8000168:	0b03      	lsrs	r3, r0, #12
 800016a:	428b      	cmp	r3, r1
 800016c:	d301      	bcc.n	8000172 <__udivsi3+0x6a>
 800016e:	030b      	lsls	r3, r1, #12
 8000170:	1ac0      	subs	r0, r0, r3
 8000172:	4152      	adcs	r2, r2
 8000174:	0ac3      	lsrs	r3, r0, #11
 8000176:	428b      	cmp	r3, r1
 8000178:	d301      	bcc.n	800017e <__udivsi3+0x76>
 800017a:	02cb      	lsls	r3, r1, #11
 800017c:	1ac0      	subs	r0, r0, r3
 800017e:	4152      	adcs	r2, r2
 8000180:	0a83      	lsrs	r3, r0, #10
 8000182:	428b      	cmp	r3, r1
 8000184:	d301      	bcc.n	800018a <__udivsi3+0x82>
 8000186:	028b      	lsls	r3, r1, #10
 8000188:	1ac0      	subs	r0, r0, r3
 800018a:	4152      	adcs	r2, r2
 800018c:	0a43      	lsrs	r3, r0, #9
 800018e:	428b      	cmp	r3, r1
 8000190:	d301      	bcc.n	8000196 <__udivsi3+0x8e>
 8000192:	024b      	lsls	r3, r1, #9
 8000194:	1ac0      	subs	r0, r0, r3
 8000196:	4152      	adcs	r2, r2
 8000198:	0a03      	lsrs	r3, r0, #8
 800019a:	428b      	cmp	r3, r1
 800019c:	d301      	bcc.n	80001a2 <__udivsi3+0x9a>
 800019e:	020b      	lsls	r3, r1, #8
 80001a0:	1ac0      	subs	r0, r0, r3
 80001a2:	4152      	adcs	r2, r2
 80001a4:	d2cd      	bcs.n	8000142 <__udivsi3+0x3a>
 80001a6:	09c3      	lsrs	r3, r0, #7
 80001a8:	428b      	cmp	r3, r1
 80001aa:	d301      	bcc.n	80001b0 <__udivsi3+0xa8>
 80001ac:	01cb      	lsls	r3, r1, #7
 80001ae:	1ac0      	subs	r0, r0, r3
 80001b0:	4152      	adcs	r2, r2
 80001b2:	0983      	lsrs	r3, r0, #6
 80001b4:	428b      	cmp	r3, r1
 80001b6:	d301      	bcc.n	80001bc <__udivsi3+0xb4>
 80001b8:	018b      	lsls	r3, r1, #6
 80001ba:	1ac0      	subs	r0, r0, r3
 80001bc:	4152      	adcs	r2, r2
 80001be:	0943      	lsrs	r3, r0, #5
 80001c0:	428b      	cmp	r3, r1
 80001c2:	d301      	bcc.n	80001c8 <__udivsi3+0xc0>
 80001c4:	014b      	lsls	r3, r1, #5
 80001c6:	1ac0      	subs	r0, r0, r3
 80001c8:	4152      	adcs	r2, r2
 80001ca:	0903      	lsrs	r3, r0, #4
 80001cc:	428b      	cmp	r3, r1
 80001ce:	d301      	bcc.n	80001d4 <__udivsi3+0xcc>
 80001d0:	010b      	lsls	r3, r1, #4
 80001d2:	1ac0      	subs	r0, r0, r3
 80001d4:	4152      	adcs	r2, r2
 80001d6:	08c3      	lsrs	r3, r0, #3
 80001d8:	428b      	cmp	r3, r1
 80001da:	d301      	bcc.n	80001e0 <__udivsi3+0xd8>
 80001dc:	00cb      	lsls	r3, r1, #3
 80001de:	1ac0      	subs	r0, r0, r3
 80001e0:	4152      	adcs	r2, r2
 80001e2:	0883      	lsrs	r3, r0, #2
 80001e4:	428b      	cmp	r3, r1
 80001e6:	d301      	bcc.n	80001ec <__udivsi3+0xe4>
 80001e8:	008b      	lsls	r3, r1, #2
 80001ea:	1ac0      	subs	r0, r0, r3
 80001ec:	4152      	adcs	r2, r2
 80001ee:	0843      	lsrs	r3, r0, #1
 80001f0:	428b      	cmp	r3, r1
 80001f2:	d301      	bcc.n	80001f8 <__udivsi3+0xf0>
 80001f4:	004b      	lsls	r3, r1, #1
 80001f6:	1ac0      	subs	r0, r0, r3
 80001f8:	4152      	adcs	r2, r2
 80001fa:	1a41      	subs	r1, r0, r1
 80001fc:	d200      	bcs.n	8000200 <__udivsi3+0xf8>
 80001fe:	4601      	mov	r1, r0
 8000200:	4152      	adcs	r2, r2
 8000202:	4610      	mov	r0, r2
 8000204:	4770      	bx	lr
 8000206:	e7ff      	b.n	8000208 <__udivsi3+0x100>
 8000208:	b501      	push	{r0, lr}
 800020a:	2000      	movs	r0, #0
 800020c:	f000 f806 	bl	800021c <__aeabi_idiv0>
 8000210:	bd02      	pop	{r1, pc}
 8000212:	46c0      	nop			; (mov r8, r8)

08000214 <__aeabi_uidivmod>:
 8000214:	2900      	cmp	r1, #0
 8000216:	d0f7      	beq.n	8000208 <__udivsi3+0x100>
 8000218:	e776      	b.n	8000108 <__udivsi3>
 800021a:	4770      	bx	lr

0800021c <__aeabi_idiv0>:
 800021c:	4770      	bx	lr
 800021e:	46c0      	nop			; (mov r8, r8)

08000220 <MX_GPIO_Init>:
        * Output
        * EVENT_OUT
        * EXTI
*/
void MX_GPIO_Init(void)
{
 8000220:	b590      	push	{r4, r7, lr}
 8000222:	b089      	sub	sp, #36	; 0x24
 8000224:	af00      	add	r7, sp, #0

  GPIO_InitTypeDef GPIO_InitStruct = {0};
 8000226:	240c      	movs	r4, #12
 8000228:	193b      	adds	r3, r7, r4
 800022a:	0018      	movs	r0, r3
 800022c:	2314      	movs	r3, #20
 800022e:	001a      	movs	r2, r3
 8000230:	2100      	movs	r1, #0
 8000232:	f002 fb45 	bl	80028c0 <memset>

  /* GPIO Ports Clock Enable */
  __HAL_RCC_GPIOA_CLK_ENABLE();
 8000236:	4b28      	ldr	r3, [pc, #160]	; (80002d8 <MX_GPIO_Init+0xb8>)
 8000238:	695a      	ldr	r2, [r3, #20]
 800023a:	4b27      	ldr	r3, [pc, #156]	; (80002d8 <MX_GPIO_Init+0xb8>)
 800023c:	2180      	movs	r1, #128	; 0x80
 800023e:	0289      	lsls	r1, r1, #10
 8000240:	430a      	orrs	r2, r1
 8000242:	615a      	str	r2, [r3, #20]
 8000244:	4b24      	ldr	r3, [pc, #144]	; (80002d8 <MX_GPIO_Init+0xb8>)
 8000246:	695a      	ldr	r2, [r3, #20]
 8000248:	2380      	movs	r3, #128	; 0x80
 800024a:	029b      	lsls	r3, r3, #10
 800024c:	4013      	ands	r3, r2
 800024e:	60bb      	str	r3, [r7, #8]
 8000250:	68bb      	ldr	r3, [r7, #8]
  __HAL_RCC_GPIOB_CLK_ENABLE();
 8000252:	4b21      	ldr	r3, [pc, #132]	; (80002d8 <MX_GPIO_Init+0xb8>)
 8000254:	695a      	ldr	r2, [r3, #20]
 8000256:	4b20      	ldr	r3, [pc, #128]	; (80002d8 <MX_GPIO_Init+0xb8>)
 8000258:	2180      	movs	r1, #128	; 0x80
 800025a:	02c9      	lsls	r1, r1, #11
 800025c:	430a      	orrs	r2, r1
 800025e:	615a      	str	r2, [r3, #20]
 8000260:	4b1d      	ldr	r3, [pc, #116]	; (80002d8 <MX_GPIO_Init+0xb8>)
 8000262:	695a      	ldr	r2, [r3, #20]
 8000264:	2380      	movs	r3, #128	; 0x80
 8000266:	02db      	lsls	r3, r3, #11
 8000268:	4013      	ands	r3, r2
 800026a:	607b      	str	r3, [r7, #4]
 800026c:	687b      	ldr	r3, [r7, #4]

  /*Configure GPIO pin Output Level */
  HAL_GPIO_WritePin(GPIOA, STATUS_BLUE_Pin|STATUS_GREEN_Pin|STATUS_RED_Pin, GPIO_PIN_RESET);
 800026e:	2390      	movs	r3, #144	; 0x90
 8000270:	05db      	lsls	r3, r3, #23
 8000272:	2200      	movs	r2, #0
 8000274:	2107      	movs	r1, #7
 8000276:	0018      	movs	r0, r3
 8000278:	f000 ff96 	bl	80011a8 <HAL_GPIO_WritePin>

  /*Configure GPIO pins : PAPin PAPin PAPin */
  GPIO_InitStruct.Pin = STATUS_BLUE_Pin|STATUS_GREEN_Pin|STATUS_RED_Pin;
 800027c:	193b      	adds	r3, r7, r4
 800027e:	2207      	movs	r2, #7
 8000280:	601a      	str	r2, [r3, #0]
  GPIO_InitStruct.Mode = GPIO_MODE_OUTPUT_PP;
 8000282:	193b      	adds	r3, r7, r4
 8000284:	2201      	movs	r2, #1
 8000286:	605a      	str	r2, [r3, #4]
  GPIO_InitStruct.Pull = GPIO_NOPULL;
 8000288:	193b      	adds	r3, r7, r4
 800028a:	2200      	movs	r2, #0
 800028c:	609a      	str	r2, [r3, #8]
  GPIO_InitStruct.Speed = GPIO_SPEED_FREQ_LOW;
 800028e:	193b      	adds	r3, r7, r4
 8000290:	2200      	movs	r2, #0
 8000292:	60da      	str	r2, [r3, #12]
  HAL_GPIO_Init(GPIOA, &GPIO_InitStruct);
 8000294:	193a      	adds	r2, r7, r4
 8000296:	2390      	movs	r3, #144	; 0x90
 8000298:	05db      	lsls	r3, r3, #23
 800029a:	0011      	movs	r1, r2
 800029c:	0018      	movs	r0, r3
 800029e:	f000 fe13 	bl	8000ec8 <HAL_GPIO_Init>

  /*Configure GPIO pin : PtPin */
  GPIO_InitStruct.Pin = ENABLE_LED_Pin;
 80002a2:	193b      	adds	r3, r7, r4
 80002a4:	2201      	movs	r2, #1
 80002a6:	601a      	str	r2, [r3, #0]
  GPIO_InitStruct.Mode = GPIO_MODE_IT_FALLING;
 80002a8:	193b      	adds	r3, r7, r4
 80002aa:	4a0c      	ldr	r2, [pc, #48]	; (80002dc <MX_GPIO_Init+0xbc>)
 80002ac:	605a      	str	r2, [r3, #4]
  GPIO_InitStruct.Pull = GPIO_PULLUP;
 80002ae:	193b      	adds	r3, r7, r4
 80002b0:	2201      	movs	r2, #1
 80002b2:	609a      	str	r2, [r3, #8]
  HAL_GPIO_Init(ENABLE_LED_GPIO_Port, &GPIO_InitStruct);
 80002b4:	193b      	adds	r3, r7, r4
 80002b6:	4a0a      	ldr	r2, [pc, #40]	; (80002e0 <MX_GPIO_Init+0xc0>)
 80002b8:	0019      	movs	r1, r3
 80002ba:	0010      	movs	r0, r2
 80002bc:	f000 fe04 	bl	8000ec8 <HAL_GPIO_Init>

  /* EXTI interrupt init*/
  HAL_NVIC_SetPriority(EXTI0_1_IRQn, 0, 0);
 80002c0:	2200      	movs	r2, #0
 80002c2:	2100      	movs	r1, #0
 80002c4:	2005      	movs	r0, #5
 80002c6:	f000 fdcd 	bl	8000e64 <HAL_NVIC_SetPriority>
  HAL_NVIC_EnableIRQ(EXTI0_1_IRQn);
 80002ca:	2005      	movs	r0, #5
 80002cc:	f000 fddf 	bl	8000e8e <HAL_NVIC_EnableIRQ>

}
 80002d0:	46c0      	nop			; (mov r8, r8)
 80002d2:	46bd      	mov	sp, r7
 80002d4:	b009      	add	sp, #36	; 0x24
 80002d6:	bd90      	pop	{r4, r7, pc}
 80002d8:	40021000 	.word	0x40021000
 80002dc:	10210000 	.word	0x10210000
 80002e0:	48000400 	.word	0x48000400

080002e4 <main>:
/**
  * @brief  The application entry point.
  * @retval int
  */
int main(void)
{
 80002e4:	b580      	push	{r7, lr}
 80002e6:	b082      	sub	sp, #8
 80002e8:	af00      	add	r7, sp, #0
  /* USER CODE END 1 */

  /* MCU Configuration--------------------------------------------------------*/

  /* Reset of all peripherals, Initializes the Flash interface and the Systick. */
  HAL_Init();
 80002ea:	f000 fcab 	bl	8000c44 <HAL_Init>
  /* USER CODE BEGIN Init */

  /* USER CODE END Init */

  /* Configure the system clock */
  SystemClock_Config();
 80002ee:	f000 f8cd 	bl	800048c <SystemClock_Config>
  /* USER CODE BEGIN SysInit */

  /* USER CODE END SysInit */

  /* Initialize all configured peripherals */
  MX_GPIO_Init();
 80002f2:	f7ff ff95 	bl	8000220 <MX_GPIO_Init>
  MX_TIM1_Init();
 80002f6:	f000 f9af 	bl	8000658 <MX_TIM1_Init>
  MX_TIM17_Init();
 80002fa:	f000 fb13 	bl	8000924 <MX_TIM17_Init>
  MX_TIM14_Init();
 80002fe:	f000 fac3 	bl	8000888 <MX_TIM14_Init>
  MX_TIM2_Init();
 8000302:	f000 fa5f 	bl	80007c4 <MX_TIM2_Init>
  /* USER CODE BEGIN 2 */

  // PWM OUTPUTS
  HAL_TIM_Base_Start(&htim17);
 8000306:	4b5a      	ldr	r3, [pc, #360]	; (8000470 <main+0x18c>)
 8000308:	0018      	movs	r0, r3
 800030a:	f001 fc25 	bl	8001b58 <HAL_TIM_Base_Start>
  HAL_TIM_PWM_Start(&htim1, TIM_CHANNEL_1);
 800030e:	4b59      	ldr	r3, [pc, #356]	; (8000474 <main+0x190>)
 8000310:	2100      	movs	r1, #0
 8000312:	0018      	movs	r0, r3
 8000314:	f001 fc6e 	bl	8001bf4 <HAL_TIM_PWM_Start>
  HAL_TIM_PWM_Start(&htim1, TIM_CHANNEL_2);
 8000318:	4b56      	ldr	r3, [pc, #344]	; (8000474 <main+0x190>)
 800031a:	2104      	movs	r1, #4
 800031c:	0018      	movs	r0, r3
 800031e:	f001 fc69 	bl	8001bf4 <HAL_TIM_PWM_Start>
  HAL_TIM_PWM_Start(&htim1, TIM_CHANNEL_3);
 8000322:	4b54      	ldr	r3, [pc, #336]	; (8000474 <main+0x190>)
 8000324:	2108      	movs	r1, #8
 8000326:	0018      	movs	r0, r3
 8000328:	f001 fc64 	bl	8001bf4 <HAL_TIM_PWM_Start>
  HAL_TIM_PWM_Start(&htim1, TIM_CHANNEL_4);
 800032c:	4b51      	ldr	r3, [pc, #324]	; (8000474 <main+0x190>)
 800032e:	210c      	movs	r1, #12
 8000330:	0018      	movs	r0, r3
 8000332:	f001 fc5f 	bl	8001bf4 <HAL_TIM_PWM_Start>
  HAL_TIM_PWM_Start(&htim14, TIM_CHANNEL_1);
 8000336:	4b50      	ldr	r3, [pc, #320]	; (8000478 <main+0x194>)
 8000338:	2100      	movs	r1, #0
 800033a:	0018      	movs	r0, r3
 800033c:	f001 fc5a 	bl	8001bf4 <HAL_TIM_PWM_Start>

  TIM1->ARR = 0xFF;		// 	255
 8000340:	4b4e      	ldr	r3, [pc, #312]	; (800047c <main+0x198>)
 8000342:	22ff      	movs	r2, #255	; 0xff
 8000344:	62da      	str	r2, [r3, #44]	; 0x2c
  TIM1->CCR1 = 0x00;	// 	31	12.5%
 8000346:	4b4d      	ldr	r3, [pc, #308]	; (800047c <main+0x198>)
 8000348:	2200      	movs	r2, #0
 800034a:	635a      	str	r2, [r3, #52]	; 0x34
  TIM1->CCR2 = 0x00;	//	63	25%
 800034c:	4b4b      	ldr	r3, [pc, #300]	; (800047c <main+0x198>)
 800034e:	2200      	movs	r2, #0
 8000350:	639a      	str	r2, [r3, #56]	; 0x38
  TIM1->CCR3 = 0x00;	//	127 50%
 8000352:	4b4a      	ldr	r3, [pc, #296]	; (800047c <main+0x198>)
 8000354:	2200      	movs	r2, #0
 8000356:	63da      	str	r2, [r3, #60]	; 0x3c
  TIM1->CCR4 = 0x00;	//  191 75%
 8000358:	4b48      	ldr	r3, [pc, #288]	; (800047c <main+0x198>)
 800035a:	2200      	movs	r2, #0
 800035c:	641a      	str	r2, [r3, #64]	; 0x40

  TIM14->ARR = 0xFF;	// 	255
 800035e:	4b48      	ldr	r3, [pc, #288]	; (8000480 <main+0x19c>)
 8000360:	22ff      	movs	r2, #255	; 0xff
 8000362:	62da      	str	r2, [r3, #44]	; 0x2c
  TIM14->CCR1 = 0x00;	// 	31	12.5%
 8000364:	4b46      	ldr	r3, [pc, #280]	; (8000480 <main+0x19c>)
 8000366:	2200      	movs	r2, #0
 8000368:	635a      	str	r2, [r3, #52]	; 0x34

  // LED OUTPUT
  HAL_GPIO_WritePin(GPIOA, STATUS_BLUE_Pin, GPIO_PIN_SET);
 800036a:	2390      	movs	r3, #144	; 0x90
 800036c:	05db      	lsls	r3, r3, #23
 800036e:	2201      	movs	r2, #1
 8000370:	2101      	movs	r1, #1
 8000372:	0018      	movs	r0, r3
 8000374:	f000 ff18 	bl	80011a8 <HAL_GPIO_WritePin>
  HAL_GPIO_WritePin(GPIOA, STATUS_RED_Pin, GPIO_PIN_RESET);
 8000378:	2390      	movs	r3, #144	; 0x90
 800037a:	05db      	lsls	r3, r3, #23
 800037c:	2200      	movs	r2, #0
 800037e:	2104      	movs	r1, #4
 8000380:	0018      	movs	r0, r3
 8000382:	f000 ff11 	bl	80011a8 <HAL_GPIO_WritePin>
  HAL_GPIO_WritePin(GPIOA, STATUS_GREEN_Pin, GPIO_PIN_SET);
 8000386:	2390      	movs	r3, #144	; 0x90
 8000388:	05db      	lsls	r3, r3, #23
 800038a:	2201      	movs	r2, #1
 800038c:	2102      	movs	r1, #2
 800038e:	0018      	movs	r0, r3
 8000390:	f000 ff0a 	bl	80011a8 <HAL_GPIO_WritePin>

  // rotary encoder
  HAL_TIM_Base_Start(&htim2);
 8000394:	4b3b      	ldr	r3, [pc, #236]	; (8000484 <main+0x1a0>)
 8000396:	0018      	movs	r0, r3
 8000398:	f001 fbde 	bl	8001b58 <HAL_TIM_Base_Start>
  uint8_t previous_encoder_dir = (TIM2->CR1 & TIM_CR1_DIR);
 800039c:	2380      	movs	r3, #128	; 0x80
 800039e:	05db      	lsls	r3, r3, #23
 80003a0:	681b      	ldr	r3, [r3, #0]
 80003a2:	b2da      	uxtb	r2, r3
 80003a4:	1dfb      	adds	r3, r7, #7
 80003a6:	2110      	movs	r1, #16
 80003a8:	400a      	ands	r2, r1
 80003aa:	701a      	strb	r2, [r3, #0]
  /* USER CODE BEGIN WHILE */
  while (1)
  {


	  	uint8_t new_encoder_dir = (TIM2->CR1 & TIM_CR1_DIR);
 80003ac:	2380      	movs	r3, #128	; 0x80
 80003ae:	05db      	lsls	r3, r3, #23
 80003b0:	681b      	ldr	r3, [r3, #0]
 80003b2:	b2da      	uxtb	r2, r3
 80003b4:	1dbb      	adds	r3, r7, #6
 80003b6:	2110      	movs	r1, #16
 80003b8:	400a      	ands	r2, r1
 80003ba:	701a      	strb	r2, [r3, #0]

	  	// encoder direction has changed from increasing to decreasing
		if( (previous_encoder_dir) && (!new_encoder_dir) )
 80003bc:	1dfb      	adds	r3, r7, #7
 80003be:	781b      	ldrb	r3, [r3, #0]
 80003c0:	2b00      	cmp	r3, #0
 80003c2:	d02b      	beq.n	800041c <main+0x138>
 80003c4:	1dbb      	adds	r3, r7, #6
 80003c6:	781b      	ldrb	r3, [r3, #0]
 80003c8:	2b00      	cmp	r3, #0
 80003ca:	d127      	bne.n	800041c <main+0x138>
		{
			// prevent the CCR registers from rolling around to value above MAX_ENCODER_LIMIT
			// This will prevent sudden output change from 0% to 100% duty cycle!
			if((TIM1->CCR1-ENCODER_MODIFY_VALUE) < MAX_ENCODER_LIMIT)
 80003cc:	4b2b      	ldr	r3, [pc, #172]	; (800047c <main+0x198>)
 80003ce:	6b5b      	ldr	r3, [r3, #52]	; 0x34
 80003d0:	3b01      	subs	r3, #1
 80003d2:	4a2d      	ldr	r2, [pc, #180]	; (8000488 <main+0x1a4>)
 80003d4:	4293      	cmp	r3, r2
 80003d6:	d818      	bhi.n	800040a <main+0x126>
			{
				TIM1->CCR1 = TIM1->CCR1 - ENCODER_MODIFY_VALUE;
 80003d8:	4b28      	ldr	r3, [pc, #160]	; (800047c <main+0x198>)
 80003da:	6b5a      	ldr	r2, [r3, #52]	; 0x34
 80003dc:	4b27      	ldr	r3, [pc, #156]	; (800047c <main+0x198>)
 80003de:	3a01      	subs	r2, #1
 80003e0:	635a      	str	r2, [r3, #52]	; 0x34
				TIM1->CCR2 = TIM1->CCR1 - ENCODER_MODIFY_VALUE;
 80003e2:	4b26      	ldr	r3, [pc, #152]	; (800047c <main+0x198>)
 80003e4:	6b5a      	ldr	r2, [r3, #52]	; 0x34
 80003e6:	4b25      	ldr	r3, [pc, #148]	; (800047c <main+0x198>)
 80003e8:	3a01      	subs	r2, #1
 80003ea:	639a      	str	r2, [r3, #56]	; 0x38
				TIM1->CCR3 = TIM1->CCR3 - ENCODER_MODIFY_VALUE;
 80003ec:	4b23      	ldr	r3, [pc, #140]	; (800047c <main+0x198>)
 80003ee:	6bda      	ldr	r2, [r3, #60]	; 0x3c
 80003f0:	4b22      	ldr	r3, [pc, #136]	; (800047c <main+0x198>)
 80003f2:	3a01      	subs	r2, #1
 80003f4:	63da      	str	r2, [r3, #60]	; 0x3c
				TIM1->CCR4 = TIM1->CCR4 - ENCODER_MODIFY_VALUE;
 80003f6:	4b21      	ldr	r3, [pc, #132]	; (800047c <main+0x198>)
 80003f8:	6c1a      	ldr	r2, [r3, #64]	; 0x40
 80003fa:	4b20      	ldr	r3, [pc, #128]	; (800047c <main+0x198>)
 80003fc:	3a01      	subs	r2, #1
 80003fe:	641a      	str	r2, [r3, #64]	; 0x40
				TIM14->CCR1 = TIM14->CCR1 - ENCODER_MODIFY_VALUE;
 8000400:	4b1f      	ldr	r3, [pc, #124]	; (8000480 <main+0x19c>)
 8000402:	6b5a      	ldr	r2, [r3, #52]	; 0x34
 8000404:	4b1e      	ldr	r3, [pc, #120]	; (8000480 <main+0x19c>)
 8000406:	3a01      	subs	r2, #1
 8000408:	635a      	str	r2, [r3, #52]	; 0x34
			}
			previous_encoder_dir = (TIM2->CR1 & TIM_CR1_DIR);
 800040a:	2380      	movs	r3, #128	; 0x80
 800040c:	05db      	lsls	r3, r3, #23
 800040e:	681b      	ldr	r3, [r3, #0]
 8000410:	b2da      	uxtb	r2, r3
 8000412:	1dfb      	adds	r3, r7, #7
 8000414:	2110      	movs	r1, #16
 8000416:	400a      	ands	r2, r1
 8000418:	701a      	strb	r2, [r3, #0]
 800041a:	e028      	b.n	800046e <main+0x18a>
		}
		// encoder direction has changed from decreasing to increasing
		else if( (!previous_encoder_dir) && (new_encoder_dir) )
 800041c:	1dfb      	adds	r3, r7, #7
 800041e:	781b      	ldrb	r3, [r3, #0]
 8000420:	2b00      	cmp	r3, #0
 8000422:	d1c3      	bne.n	80003ac <main+0xc8>
 8000424:	1dbb      	adds	r3, r7, #6
 8000426:	781b      	ldrb	r3, [r3, #0]
 8000428:	2b00      	cmp	r3, #0
 800042a:	d0bf      	beq.n	80003ac <main+0xc8>
		{
			TIM1->CCR1 = TIM1->CCR1 + ENCODER_MODIFY_VALUE;
 800042c:	4b13      	ldr	r3, [pc, #76]	; (800047c <main+0x198>)
 800042e:	6b5a      	ldr	r2, [r3, #52]	; 0x34
 8000430:	4b12      	ldr	r3, [pc, #72]	; (800047c <main+0x198>)
 8000432:	3201      	adds	r2, #1
 8000434:	635a      	str	r2, [r3, #52]	; 0x34
			TIM1->CCR2 = TIM1->CCR2 + ENCODER_MODIFY_VALUE;
 8000436:	4b11      	ldr	r3, [pc, #68]	; (800047c <main+0x198>)
 8000438:	6b9a      	ldr	r2, [r3, #56]	; 0x38
 800043a:	4b10      	ldr	r3, [pc, #64]	; (800047c <main+0x198>)
 800043c:	3201      	adds	r2, #1
 800043e:	639a      	str	r2, [r3, #56]	; 0x38
			TIM1->CCR3 = TIM1->CCR3 + ENCODER_MODIFY_VALUE;
 8000440:	4b0e      	ldr	r3, [pc, #56]	; (800047c <main+0x198>)
 8000442:	6bda      	ldr	r2, [r3, #60]	; 0x3c
 8000444:	4b0d      	ldr	r3, [pc, #52]	; (800047c <main+0x198>)
 8000446:	3201      	adds	r2, #1
 8000448:	63da      	str	r2, [r3, #60]	; 0x3c
			TIM1->CCR4 = TIM1->CCR4 + ENCODER_MODIFY_VALUE;
 800044a:	4b0c      	ldr	r3, [pc, #48]	; (800047c <main+0x198>)
 800044c:	6c1a      	ldr	r2, [r3, #64]	; 0x40
 800044e:	4b0b      	ldr	r3, [pc, #44]	; (800047c <main+0x198>)
 8000450:	3201      	adds	r2, #1
 8000452:	641a      	str	r2, [r3, #64]	; 0x40
			TIM14->CCR1 = TIM14->CCR1 + ENCODER_MODIFY_VALUE;
 8000454:	4b0a      	ldr	r3, [pc, #40]	; (8000480 <main+0x19c>)
 8000456:	6b5a      	ldr	r2, [r3, #52]	; 0x34
 8000458:	4b09      	ldr	r3, [pc, #36]	; (8000480 <main+0x19c>)
 800045a:	3201      	adds	r2, #1
 800045c:	635a      	str	r2, [r3, #52]	; 0x34

			previous_encoder_dir = (TIM2->CR1 & TIM_CR1_DIR);
 800045e:	2380      	movs	r3, #128	; 0x80
 8000460:	05db      	lsls	r3, r3, #23
 8000462:	681b      	ldr	r3, [r3, #0]
 8000464:	b2da      	uxtb	r2, r3
 8000466:	1dfb      	adds	r3, r7, #7
 8000468:	2110      	movs	r1, #16
 800046a:	400a      	ands	r2, r1
 800046c:	701a      	strb	r2, [r3, #0]
  {
 800046e:	e79d      	b.n	80003ac <main+0xc8>
 8000470:	2000002c 	.word	0x2000002c
 8000474:	2000006c 	.word	0x2000006c
 8000478:	200000ec 	.word	0x200000ec
 800047c:	40012c00 	.word	0x40012c00
 8000480:	40002000 	.word	0x40002000
 8000484:	200000ac 	.word	0x200000ac
 8000488:	000002a7 	.word	0x000002a7

0800048c <SystemClock_Config>:
/**
  * @brief System Clock Configuration
  * @retval None
  */
void SystemClock_Config(void)
{
 800048c:	b590      	push	{r4, r7, lr}
 800048e:	b091      	sub	sp, #68	; 0x44
 8000490:	af00      	add	r7, sp, #0
  RCC_OscInitTypeDef RCC_OscInitStruct = {0};
 8000492:	2410      	movs	r4, #16
 8000494:	193b      	adds	r3, r7, r4
 8000496:	0018      	movs	r0, r3
 8000498:	2330      	movs	r3, #48	; 0x30
 800049a:	001a      	movs	r2, r3
 800049c:	2100      	movs	r1, #0
 800049e:	f002 fa0f 	bl	80028c0 <memset>
  RCC_ClkInitTypeDef RCC_ClkInitStruct = {0};
 80004a2:	003b      	movs	r3, r7
 80004a4:	0018      	movs	r0, r3
 80004a6:	2310      	movs	r3, #16
 80004a8:	001a      	movs	r2, r3
 80004aa:	2100      	movs	r1, #0
 80004ac:	f002 fa08 	bl	80028c0 <memset>

  /** Initializes the CPU, AHB and APB busses clocks 
  */
  RCC_OscInitStruct.OscillatorType = RCC_OSCILLATORTYPE_HSI;
 80004b0:	0021      	movs	r1, r4
 80004b2:	187b      	adds	r3, r7, r1
 80004b4:	2202      	movs	r2, #2
 80004b6:	601a      	str	r2, [r3, #0]
  RCC_OscInitStruct.HSIState = RCC_HSI_ON;
 80004b8:	187b      	adds	r3, r7, r1
 80004ba:	2201      	movs	r2, #1
 80004bc:	60da      	str	r2, [r3, #12]
  RCC_OscInitStruct.HSICalibrationValue = RCC_HSICALIBRATION_DEFAULT;
 80004be:	187b      	adds	r3, r7, r1
 80004c0:	2210      	movs	r2, #16
 80004c2:	611a      	str	r2, [r3, #16]
  RCC_OscInitStruct.PLL.PLLState = RCC_PLL_NONE;
 80004c4:	187b      	adds	r3, r7, r1
 80004c6:	2200      	movs	r2, #0
 80004c8:	621a      	str	r2, [r3, #32]
  if (HAL_RCC_OscConfig(&RCC_OscInitStruct) != HAL_OK)
 80004ca:	187b      	adds	r3, r7, r1
 80004cc:	0018      	movs	r0, r3
 80004ce:	f000 fec9 	bl	8001264 <HAL_RCC_OscConfig>
 80004d2:	1e03      	subs	r3, r0, #0
 80004d4:	d001      	beq.n	80004da <SystemClock_Config+0x4e>
  {
    Error_Handler();
 80004d6:	f000 f819 	bl	800050c <Error_Handler>
  }
  /** Initializes the CPU, AHB and APB busses clocks 
  */
  RCC_ClkInitStruct.ClockType = RCC_CLOCKTYPE_HCLK|RCC_CLOCKTYPE_SYSCLK
 80004da:	003b      	movs	r3, r7
 80004dc:	2207      	movs	r2, #7
 80004de:	601a      	str	r2, [r3, #0]
                              |RCC_CLOCKTYPE_PCLK1;
  RCC_ClkInitStruct.SYSCLKSource = RCC_SYSCLKSOURCE_HSI;
 80004e0:	003b      	movs	r3, r7
 80004e2:	2200      	movs	r2, #0
 80004e4:	605a      	str	r2, [r3, #4]
  RCC_ClkInitStruct.AHBCLKDivider = RCC_SYSCLK_DIV1;
 80004e6:	003b      	movs	r3, r7
 80004e8:	2200      	movs	r2, #0
 80004ea:	609a      	str	r2, [r3, #8]
  RCC_ClkInitStruct.APB1CLKDivider = RCC_HCLK_DIV1;
 80004ec:	003b      	movs	r3, r7
 80004ee:	2200      	movs	r2, #0
 80004f0:	60da      	str	r2, [r3, #12]

  if (HAL_RCC_ClockConfig(&RCC_ClkInitStruct, FLASH_LATENCY_0) != HAL_OK)
 80004f2:	003b      	movs	r3, r7
 80004f4:	2100      	movs	r1, #0
 80004f6:	0018      	movs	r0, r3
 80004f8:	f001 f9d0 	bl	800189c <HAL_RCC_ClockConfig>
 80004fc:	1e03      	subs	r3, r0, #0
 80004fe:	d001      	beq.n	8000504 <SystemClock_Config+0x78>
  {
    Error_Handler();
 8000500:	f000 f804 	bl	800050c <Error_Handler>
  }
}
 8000504:	46c0      	nop			; (mov r8, r8)
 8000506:	46bd      	mov	sp, r7
 8000508:	b011      	add	sp, #68	; 0x44
 800050a:	bd90      	pop	{r4, r7, pc}

0800050c <Error_Handler>:
/**
  * @brief  This function is executed in case of error occurrence.
  * @retval None
  */
void Error_Handler(void)
{
 800050c:	b580      	push	{r7, lr}
 800050e:	af00      	add	r7, sp, #0
  /* USER CODE BEGIN Error_Handler_Debug */
  /* User can add his own implementation to report the HAL error return state */

  /* USER CODE END Error_Handler_Debug */
}
 8000510:	46c0      	nop			; (mov r8, r8)
 8000512:	46bd      	mov	sp, r7
 8000514:	bd80      	pop	{r7, pc}
	...

08000518 <HAL_MspInit>:
/* USER CODE END 0 */
/**
  * Initializes the Global MSP.
  */
void HAL_MspInit(void)
{
 8000518:	b580      	push	{r7, lr}
 800051a:	b082      	sub	sp, #8
 800051c:	af00      	add	r7, sp, #0
  /* USER CODE BEGIN MspInit 0 */

  /* USER CODE END MspInit 0 */

  __HAL_RCC_SYSCFG_CLK_ENABLE();
 800051e:	4b0f      	ldr	r3, [pc, #60]	; (800055c <HAL_MspInit+0x44>)
 8000520:	699a      	ldr	r2, [r3, #24]
 8000522:	4b0e      	ldr	r3, [pc, #56]	; (800055c <HAL_MspInit+0x44>)
 8000524:	2101      	movs	r1, #1
 8000526:	430a      	orrs	r2, r1
 8000528:	619a      	str	r2, [r3, #24]
 800052a:	4b0c      	ldr	r3, [pc, #48]	; (800055c <HAL_MspInit+0x44>)
 800052c:	699b      	ldr	r3, [r3, #24]
 800052e:	2201      	movs	r2, #1
 8000530:	4013      	ands	r3, r2
 8000532:	607b      	str	r3, [r7, #4]
 8000534:	687b      	ldr	r3, [r7, #4]
  __HAL_RCC_PWR_CLK_ENABLE();
 8000536:	4b09      	ldr	r3, [pc, #36]	; (800055c <HAL_MspInit+0x44>)
 8000538:	69da      	ldr	r2, [r3, #28]
 800053a:	4b08      	ldr	r3, [pc, #32]	; (800055c <HAL_MspInit+0x44>)
 800053c:	2180      	movs	r1, #128	; 0x80
 800053e:	0549      	lsls	r1, r1, #21
 8000540:	430a      	orrs	r2, r1
 8000542:	61da      	str	r2, [r3, #28]
 8000544:	4b05      	ldr	r3, [pc, #20]	; (800055c <HAL_MspInit+0x44>)
 8000546:	69da      	ldr	r2, [r3, #28]
 8000548:	2380      	movs	r3, #128	; 0x80
 800054a:	055b      	lsls	r3, r3, #21
 800054c:	4013      	ands	r3, r2
 800054e:	603b      	str	r3, [r7, #0]
 8000550:	683b      	ldr	r3, [r7, #0]
  /* System interrupt init*/

  /* USER CODE BEGIN MspInit 1 */

  /* USER CODE END MspInit 1 */
}
 8000552:	46c0      	nop			; (mov r8, r8)
 8000554:	46bd      	mov	sp, r7
 8000556:	b002      	add	sp, #8
 8000558:	bd80      	pop	{r7, pc}
 800055a:	46c0      	nop			; (mov r8, r8)
 800055c:	40021000 	.word	0x40021000

08000560 <NMI_Handler>:
/******************************************************************************/
/**
  * @brief This function handles Non maskable interrupt.
  */
void NMI_Handler(void)
{
 8000560:	b580      	push	{r7, lr}
 8000562:	af00      	add	r7, sp, #0

  /* USER CODE END NonMaskableInt_IRQn 0 */
  /* USER CODE BEGIN NonMaskableInt_IRQn 1 */

  /* USER CODE END NonMaskableInt_IRQn 1 */
}
 8000564:	46c0      	nop			; (mov r8, r8)
 8000566:	46bd      	mov	sp, r7
 8000568:	bd80      	pop	{r7, pc}

0800056a <HardFault_Handler>:

/**
  * @brief This function handles Hard fault interrupt.
  */
void HardFault_Handler(void)
{
 800056a:	b580      	push	{r7, lr}
 800056c:	af00      	add	r7, sp, #0
  /* USER CODE BEGIN HardFault_IRQn 0 */

  /* USER CODE END HardFault_IRQn 0 */
  while (1)
 800056e:	e7fe      	b.n	800056e <HardFault_Handler+0x4>

08000570 <SVC_Handler>:

/**
  * @brief This function handles System service call via SWI instruction.
  */
void SVC_Handler(void)
{
 8000570:	b580      	push	{r7, lr}
 8000572:	af00      	add	r7, sp, #0

  /* USER CODE END SVC_IRQn 0 */
  /* USER CODE BEGIN SVC_IRQn 1 */

  /* USER CODE END SVC_IRQn 1 */
}
 8000574:	46c0      	nop			; (mov r8, r8)
 8000576:	46bd      	mov	sp, r7
 8000578:	bd80      	pop	{r7, pc}

0800057a <PendSV_Handler>:

/**
  * @brief This function handles Pendable request for system service.
  */
void PendSV_Handler(void)
{
 800057a:	b580      	push	{r7, lr}
 800057c:	af00      	add	r7, sp, #0

  /* USER CODE END PendSV_IRQn 0 */
  /* USER CODE BEGIN PendSV_IRQn 1 */

  /* USER CODE END PendSV_IRQn 1 */
}
 800057e:	46c0      	nop			; (mov r8, r8)
 8000580:	46bd      	mov	sp, r7
 8000582:	bd80      	pop	{r7, pc}

08000584 <SysTick_Handler>:

/**
  * @brief This function handles System tick timer.
  */
void SysTick_Handler(void)
{
 8000584:	b580      	push	{r7, lr}
 8000586:	af00      	add	r7, sp, #0
  /* USER CODE BEGIN SysTick_IRQn 0 */

  /* USER CODE END SysTick_IRQn 0 */
  HAL_IncTick();
 8000588:	f000 fba4 	bl	8000cd4 <HAL_IncTick>
  /* USER CODE BEGIN SysTick_IRQn 1 */

  /* USER CODE END SysTick_IRQn 1 */
}
 800058c:	46c0      	nop			; (mov r8, r8)
 800058e:	46bd      	mov	sp, r7
 8000590:	bd80      	pop	{r7, pc}
	...

08000594 <EXTI0_1_IRQHandler>:

/**
  * @brief This function handles EXTI line 0 and 1 interrupts.
  */
void EXTI0_1_IRQHandler(void)
{
 8000594:	b580      	push	{r7, lr}
 8000596:	b082      	sub	sp, #8
 8000598:	af00      	add	r7, sp, #0
  /* USER CODE BEGIN EXTI0_1_IRQn 0 */
	uint16_t interrupt_time = TIM17->CNT;
 800059a:	4b22      	ldr	r3, [pc, #136]	; (8000624 <EXTI0_1_IRQHandler+0x90>)
 800059c:	6a5a      	ldr	r2, [r3, #36]	; 0x24
 800059e:	1dbb      	adds	r3, r7, #6
 80005a0:	801a      	strh	r2, [r3, #0]
	if ((interrupt_time - last_interrupt_time) > MAX_DEBOUNCE_DELAY)
 80005a2:	1dbb      	adds	r3, r7, #6
 80005a4:	881b      	ldrh	r3, [r3, #0]
 80005a6:	4a20      	ldr	r2, [pc, #128]	; (8000628 <EXTI0_1_IRQHandler+0x94>)
 80005a8:	8812      	ldrh	r2, [r2, #0]
 80005aa:	1a9b      	subs	r3, r3, r2
 80005ac:	2baf      	cmp	r3, #175	; 0xaf
 80005ae:	dd2e      	ble.n	800060e <EXTI0_1_IRQHandler+0x7a>
	{
		HAL_GPIO_TogglePin(GPIOA, STATUS_GREEN_Pin);
 80005b0:	2390      	movs	r3, #144	; 0x90
 80005b2:	05db      	lsls	r3, r3, #23
 80005b4:	2102      	movs	r1, #2
 80005b6:	0018      	movs	r0, r3
 80005b8:	f000 fe13 	bl	80011e2 <HAL_GPIO_TogglePin>
		HAL_GPIO_TogglePin(GPIOA, STATUS_RED_Pin);
 80005bc:	2390      	movs	r3, #144	; 0x90
 80005be:	05db      	lsls	r3, r3, #23
 80005c0:	2104      	movs	r1, #4
 80005c2:	0018      	movs	r0, r3
 80005c4:	f000 fe0d 	bl	80011e2 <HAL_GPIO_TogglePin>
		TIM1->CCR1 ^= MAX_ENCODER_LIMIT;
 80005c8:	4b18      	ldr	r3, [pc, #96]	; (800062c <EXTI0_1_IRQHandler+0x98>)
 80005ca:	6b5a      	ldr	r2, [r3, #52]	; 0x34
 80005cc:	4b17      	ldr	r3, [pc, #92]	; (800062c <EXTI0_1_IRQHandler+0x98>)
 80005ce:	21aa      	movs	r1, #170	; 0xaa
 80005d0:	0089      	lsls	r1, r1, #2
 80005d2:	404a      	eors	r2, r1
 80005d4:	635a      	str	r2, [r3, #52]	; 0x34
		TIM1->CCR2 ^= MAX_ENCODER_LIMIT;
 80005d6:	4b15      	ldr	r3, [pc, #84]	; (800062c <EXTI0_1_IRQHandler+0x98>)
 80005d8:	6b9a      	ldr	r2, [r3, #56]	; 0x38
 80005da:	4b14      	ldr	r3, [pc, #80]	; (800062c <EXTI0_1_IRQHandler+0x98>)
 80005dc:	21aa      	movs	r1, #170	; 0xaa
 80005de:	0089      	lsls	r1, r1, #2
 80005e0:	404a      	eors	r2, r1
 80005e2:	639a      	str	r2, [r3, #56]	; 0x38
		TIM1->CCR3 ^= MAX_ENCODER_LIMIT;
 80005e4:	4b11      	ldr	r3, [pc, #68]	; (800062c <EXTI0_1_IRQHandler+0x98>)
 80005e6:	6bda      	ldr	r2, [r3, #60]	; 0x3c
 80005e8:	4b10      	ldr	r3, [pc, #64]	; (800062c <EXTI0_1_IRQHandler+0x98>)
 80005ea:	21aa      	movs	r1, #170	; 0xaa
 80005ec:	0089      	lsls	r1, r1, #2
 80005ee:	404a      	eors	r2, r1
 80005f0:	63da      	str	r2, [r3, #60]	; 0x3c
		TIM1->CCR4 ^= MAX_ENCODER_LIMIT;
 80005f2:	4b0e      	ldr	r3, [pc, #56]	; (800062c <EXTI0_1_IRQHandler+0x98>)
 80005f4:	6c1a      	ldr	r2, [r3, #64]	; 0x40
 80005f6:	4b0d      	ldr	r3, [pc, #52]	; (800062c <EXTI0_1_IRQHandler+0x98>)
 80005f8:	21aa      	movs	r1, #170	; 0xaa
 80005fa:	0089      	lsls	r1, r1, #2
 80005fc:	404a      	eors	r2, r1
 80005fe:	641a      	str	r2, [r3, #64]	; 0x40
		TIM14->CCR1 ^= MAX_ENCODER_LIMIT;
 8000600:	4b0b      	ldr	r3, [pc, #44]	; (8000630 <EXTI0_1_IRQHandler+0x9c>)
 8000602:	6b5a      	ldr	r2, [r3, #52]	; 0x34
 8000604:	4b0a      	ldr	r3, [pc, #40]	; (8000630 <EXTI0_1_IRQHandler+0x9c>)
 8000606:	21aa      	movs	r1, #170	; 0xaa
 8000608:	0089      	lsls	r1, r1, #2
 800060a:	404a      	eors	r2, r1
 800060c:	635a      	str	r2, [r3, #52]	; 0x34
	}
	last_interrupt_time = interrupt_time;
 800060e:	4b06      	ldr	r3, [pc, #24]	; (8000628 <EXTI0_1_IRQHandler+0x94>)
 8000610:	1dba      	adds	r2, r7, #6
 8000612:	8812      	ldrh	r2, [r2, #0]
 8000614:	801a      	strh	r2, [r3, #0]
  /* USER CODE END EXTI0_1_IRQn 0 */
  HAL_GPIO_EXTI_IRQHandler(GPIO_PIN_0);
 8000616:	2001      	movs	r0, #1
 8000618:	f000 fdfe 	bl	8001218 <HAL_GPIO_EXTI_IRQHandler>
  /* USER CODE BEGIN EXTI0_1_IRQn 1 */

  /* USER CODE END EXTI0_1_IRQn 1 */
}
 800061c:	46c0      	nop			; (mov r8, r8)
 800061e:	46bd      	mov	sp, r7
 8000620:	b002      	add	sp, #8
 8000622:	bd80      	pop	{r7, pc}
 8000624:	40014800 	.word	0x40014800
 8000628:	20000028 	.word	0x20000028
 800062c:	40012c00 	.word	0x40012c00
 8000630:	40002000 	.word	0x40002000

08000634 <TIM2_IRQHandler>:

/**
  * @brief This function handles TIM2 global interrupt.
  */
void TIM2_IRQHandler(void)
{
 8000634:	b580      	push	{r7, lr}
 8000636:	af00      	add	r7, sp, #0
  /* USER CODE BEGIN TIM2_IRQn 0 */

  /* USER CODE END TIM2_IRQn 0 */
  HAL_TIM_IRQHandler(&htim2);
 8000638:	4b03      	ldr	r3, [pc, #12]	; (8000648 <TIM2_IRQHandler+0x14>)
 800063a:	0018      	movs	r0, r3
 800063c:	f001 fbba 	bl	8001db4 <HAL_TIM_IRQHandler>
  /* USER CODE BEGIN TIM2_IRQn 1 */

  /* USER CODE END TIM2_IRQn 1 */
}
 8000640:	46c0      	nop			; (mov r8, r8)
 8000642:	46bd      	mov	sp, r7
 8000644:	bd80      	pop	{r7, pc}
 8000646:	46c0      	nop			; (mov r8, r8)
 8000648:	200000ac 	.word	0x200000ac

0800064c <SystemInit>:
  * @brief  Setup the microcontroller system.
  * @param  None
  * @retval None
  */
void SystemInit(void)
{
 800064c:	b580      	push	{r7, lr}
 800064e:	af00      	add	r7, sp, #0
                         before branch to main program. This call is made inside
                         the "startup_stm32f0xx.s" file.
                         User can setups the default system clock (System clock source, PLL Multiplier
                         and Divider factors, AHB/APBx prescalers and Flash settings).
   */
}
 8000650:	46c0      	nop			; (mov r8, r8)
 8000652:	46bd      	mov	sp, r7
 8000654:	bd80      	pop	{r7, pc}
	...

08000658 <MX_TIM1_Init>:
TIM_HandleTypeDef htim14;
TIM_HandleTypeDef htim17;

/* TIM1 init function */
void MX_TIM1_Init(void)
{
 8000658:	b580      	push	{r7, lr}
 800065a:	b092      	sub	sp, #72	; 0x48
 800065c:	af00      	add	r7, sp, #0
  TIM_MasterConfigTypeDef sMasterConfig = {0};
 800065e:	2340      	movs	r3, #64	; 0x40
 8000660:	18fb      	adds	r3, r7, r3
 8000662:	0018      	movs	r0, r3
 8000664:	2308      	movs	r3, #8
 8000666:	001a      	movs	r2, r3
 8000668:	2100      	movs	r1, #0
 800066a:	f002 f929 	bl	80028c0 <memset>
  TIM_OC_InitTypeDef sConfigOC = {0};
 800066e:	2324      	movs	r3, #36	; 0x24
 8000670:	18fb      	adds	r3, r7, r3
 8000672:	0018      	movs	r0, r3
 8000674:	231c      	movs	r3, #28
 8000676:	001a      	movs	r2, r3
 8000678:	2100      	movs	r1, #0
 800067a:	f002 f921 	bl	80028c0 <memset>
  TIM_BreakDeadTimeConfigTypeDef sBreakDeadTimeConfig = {0};
 800067e:	1d3b      	adds	r3, r7, #4
 8000680:	0018      	movs	r0, r3
 8000682:	2320      	movs	r3, #32
 8000684:	001a      	movs	r2, r3
 8000686:	2100      	movs	r1, #0
 8000688:	f002 f91a 	bl	80028c0 <memset>

  htim1.Instance = TIM1;
 800068c:	4b4b      	ldr	r3, [pc, #300]	; (80007bc <MX_TIM1_Init+0x164>)
 800068e:	4a4c      	ldr	r2, [pc, #304]	; (80007c0 <MX_TIM1_Init+0x168>)
 8000690:	601a      	str	r2, [r3, #0]
  htim1.Init.Prescaler = 0;
 8000692:	4b4a      	ldr	r3, [pc, #296]	; (80007bc <MX_TIM1_Init+0x164>)
 8000694:	2200      	movs	r2, #0
 8000696:	605a      	str	r2, [r3, #4]
  htim1.Init.CounterMode = TIM_COUNTERMODE_UP;
 8000698:	4b48      	ldr	r3, [pc, #288]	; (80007bc <MX_TIM1_Init+0x164>)
 800069a:	2200      	movs	r2, #0
 800069c:	609a      	str	r2, [r3, #8]
  htim1.Init.Period = 64;
 800069e:	4b47      	ldr	r3, [pc, #284]	; (80007bc <MX_TIM1_Init+0x164>)
 80006a0:	2240      	movs	r2, #64	; 0x40
 80006a2:	60da      	str	r2, [r3, #12]
  htim1.Init.ClockDivision = TIM_CLOCKDIVISION_DIV1;
 80006a4:	4b45      	ldr	r3, [pc, #276]	; (80007bc <MX_TIM1_Init+0x164>)
 80006a6:	2200      	movs	r2, #0
 80006a8:	611a      	str	r2, [r3, #16]
  htim1.Init.RepetitionCounter = 0;
 80006aa:	4b44      	ldr	r3, [pc, #272]	; (80007bc <MX_TIM1_Init+0x164>)
 80006ac:	2200      	movs	r2, #0
 80006ae:	615a      	str	r2, [r3, #20]
  htim1.Init.AutoReloadPreload = TIM_AUTORELOAD_PRELOAD_DISABLE;
 80006b0:	4b42      	ldr	r3, [pc, #264]	; (80007bc <MX_TIM1_Init+0x164>)
 80006b2:	2200      	movs	r2, #0
 80006b4:	619a      	str	r2, [r3, #24]
  if (HAL_TIM_PWM_Init(&htim1) != HAL_OK)
 80006b6:	4b41      	ldr	r3, [pc, #260]	; (80007bc <MX_TIM1_Init+0x164>)
 80006b8:	0018      	movs	r0, r3
 80006ba:	f001 fa6f 	bl	8001b9c <HAL_TIM_PWM_Init>
 80006be:	1e03      	subs	r3, r0, #0
 80006c0:	d001      	beq.n	80006c6 <MX_TIM1_Init+0x6e>
  {
    Error_Handler();
 80006c2:	f7ff ff23 	bl	800050c <Error_Handler>
  }
  sMasterConfig.MasterOutputTrigger = TIM_TRGO_RESET;
 80006c6:	2140      	movs	r1, #64	; 0x40
 80006c8:	187b      	adds	r3, r7, r1
 80006ca:	2200      	movs	r2, #0
 80006cc:	601a      	str	r2, [r3, #0]
  sMasterConfig.MasterSlaveMode = TIM_MASTERSLAVEMODE_DISABLE;
 80006ce:	187b      	adds	r3, r7, r1
 80006d0:	2200      	movs	r2, #0
 80006d2:	605a      	str	r2, [r3, #4]
  if (HAL_TIMEx_MasterConfigSynchronization(&htim1, &sMasterConfig) != HAL_OK)
 80006d4:	187a      	adds	r2, r7, r1
 80006d6:	4b39      	ldr	r3, [pc, #228]	; (80007bc <MX_TIM1_Init+0x164>)
 80006d8:	0011      	movs	r1, r2
 80006da:	0018      	movs	r0, r3
 80006dc:	f002 f800 	bl	80026e0 <HAL_TIMEx_MasterConfigSynchronization>
 80006e0:	1e03      	subs	r3, r0, #0
 80006e2:	d001      	beq.n	80006e8 <MX_TIM1_Init+0x90>
  {
    Error_Handler();
 80006e4:	f7ff ff12 	bl	800050c <Error_Handler>
  }
  sConfigOC.OCMode = TIM_OCMODE_PWM1;
 80006e8:	2124      	movs	r1, #36	; 0x24
 80006ea:	187b      	adds	r3, r7, r1
 80006ec:	2260      	movs	r2, #96	; 0x60
 80006ee:	601a      	str	r2, [r3, #0]
  sConfigOC.Pulse = 0;
 80006f0:	187b      	adds	r3, r7, r1
 80006f2:	2200      	movs	r2, #0
 80006f4:	605a      	str	r2, [r3, #4]
  sConfigOC.OCPolarity = TIM_OCPOLARITY_HIGH;
 80006f6:	187b      	adds	r3, r7, r1
 80006f8:	2200      	movs	r2, #0
 80006fa:	609a      	str	r2, [r3, #8]
  sConfigOC.OCNPolarity = TIM_OCNPOLARITY_HIGH;
 80006fc:	187b      	adds	r3, r7, r1
 80006fe:	2200      	movs	r2, #0
 8000700:	60da      	str	r2, [r3, #12]
  sConfigOC.OCFastMode = TIM_OCFAST_DISABLE;
 8000702:	187b      	adds	r3, r7, r1
 8000704:	2200      	movs	r2, #0
 8000706:	611a      	str	r2, [r3, #16]
  sConfigOC.OCIdleState = TIM_OCIDLESTATE_RESET;
 8000708:	187b      	adds	r3, r7, r1
 800070a:	2200      	movs	r2, #0
 800070c:	615a      	str	r2, [r3, #20]
  sConfigOC.OCNIdleState = TIM_OCNIDLESTATE_RESET;
 800070e:	187b      	adds	r3, r7, r1
 8000710:	2200      	movs	r2, #0
 8000712:	619a      	str	r2, [r3, #24]
  if (HAL_TIM_PWM_ConfigChannel(&htim1, &sConfigOC, TIM_CHANNEL_1) != HAL_OK)
 8000714:	1879      	adds	r1, r7, r1
 8000716:	4b29      	ldr	r3, [pc, #164]	; (80007bc <MX_TIM1_Init+0x164>)
 8000718:	2200      	movs	r2, #0
 800071a:	0018      	movs	r0, r3
 800071c:	f001 fc60 	bl	8001fe0 <HAL_TIM_PWM_ConfigChannel>
 8000720:	1e03      	subs	r3, r0, #0
 8000722:	d001      	beq.n	8000728 <MX_TIM1_Init+0xd0>
  {
    Error_Handler();
 8000724:	f7ff fef2 	bl	800050c <Error_Handler>
  }
  if (HAL_TIM_PWM_ConfigChannel(&htim1, &sConfigOC, TIM_CHANNEL_2) != HAL_OK)
 8000728:	2324      	movs	r3, #36	; 0x24
 800072a:	18f9      	adds	r1, r7, r3
 800072c:	4b23      	ldr	r3, [pc, #140]	; (80007bc <MX_TIM1_Init+0x164>)
 800072e:	2204      	movs	r2, #4
 8000730:	0018      	movs	r0, r3
 8000732:	f001 fc55 	bl	8001fe0 <HAL_TIM_PWM_ConfigChannel>
 8000736:	1e03      	subs	r3, r0, #0
 8000738:	d001      	beq.n	800073e <MX_TIM1_Init+0xe6>
  {
    Error_Handler();
 800073a:	f7ff fee7 	bl	800050c <Error_Handler>
  }
  if (HAL_TIM_PWM_ConfigChannel(&htim1, &sConfigOC, TIM_CHANNEL_3) != HAL_OK)
 800073e:	2324      	movs	r3, #36	; 0x24
 8000740:	18f9      	adds	r1, r7, r3
 8000742:	4b1e      	ldr	r3, [pc, #120]	; (80007bc <MX_TIM1_Init+0x164>)
 8000744:	2208      	movs	r2, #8
 8000746:	0018      	movs	r0, r3
 8000748:	f001 fc4a 	bl	8001fe0 <HAL_TIM_PWM_ConfigChannel>
 800074c:	1e03      	subs	r3, r0, #0
 800074e:	d001      	beq.n	8000754 <MX_TIM1_Init+0xfc>
  {
    Error_Handler();
 8000750:	f7ff fedc 	bl	800050c <Error_Handler>
  }
  if (HAL_TIM_PWM_ConfigChannel(&htim1, &sConfigOC, TIM_CHANNEL_4) != HAL_OK)
 8000754:	2324      	movs	r3, #36	; 0x24
 8000756:	18f9      	adds	r1, r7, r3
 8000758:	4b18      	ldr	r3, [pc, #96]	; (80007bc <MX_TIM1_Init+0x164>)
 800075a:	220c      	movs	r2, #12
 800075c:	0018      	movs	r0, r3
 800075e:	f001 fc3f 	bl	8001fe0 <HAL_TIM_PWM_ConfigChannel>
 8000762:	1e03      	subs	r3, r0, #0
 8000764:	d001      	beq.n	800076a <MX_TIM1_Init+0x112>
  {
    Error_Handler();
 8000766:	f7ff fed1 	bl	800050c <Error_Handler>
  }
  sBreakDeadTimeConfig.OffStateRunMode = TIM_OSSR_DISABLE;
 800076a:	1d3b      	adds	r3, r7, #4
 800076c:	2200      	movs	r2, #0
 800076e:	601a      	str	r2, [r3, #0]
  sBreakDeadTimeConfig.OffStateIDLEMode = TIM_OSSI_DISABLE;
 8000770:	1d3b      	adds	r3, r7, #4
 8000772:	2200      	movs	r2, #0
 8000774:	605a      	str	r2, [r3, #4]
  sBreakDeadTimeConfig.LockLevel = TIM_LOCKLEVEL_OFF;
 8000776:	1d3b      	adds	r3, r7, #4
 8000778:	2200      	movs	r2, #0
 800077a:	609a      	str	r2, [r3, #8]
  sBreakDeadTimeConfig.DeadTime = 0;
 800077c:	1d3b      	adds	r3, r7, #4
 800077e:	2200      	movs	r2, #0
 8000780:	60da      	str	r2, [r3, #12]
  sBreakDeadTimeConfig.BreakState = TIM_BREAK_DISABLE;
 8000782:	1d3b      	adds	r3, r7, #4
 8000784:	2200      	movs	r2, #0
 8000786:	611a      	str	r2, [r3, #16]
  sBreakDeadTimeConfig.BreakPolarity = TIM_BREAKPOLARITY_HIGH;
 8000788:	1d3b      	adds	r3, r7, #4
 800078a:	2280      	movs	r2, #128	; 0x80
 800078c:	0192      	lsls	r2, r2, #6
 800078e:	615a      	str	r2, [r3, #20]
  sBreakDeadTimeConfig.AutomaticOutput = TIM_AUTOMATICOUTPUT_DISABLE;
 8000790:	1d3b      	adds	r3, r7, #4
 8000792:	2200      	movs	r2, #0
 8000794:	61da      	str	r2, [r3, #28]
  if (HAL_TIMEx_ConfigBreakDeadTime(&htim1, &sBreakDeadTimeConfig) != HAL_OK)
 8000796:	1d3a      	adds	r2, r7, #4
 8000798:	4b08      	ldr	r3, [pc, #32]	; (80007bc <MX_TIM1_Init+0x164>)
 800079a:	0011      	movs	r1, r2
 800079c:	0018      	movs	r0, r3
 800079e:	f001 fffd 	bl	800279c <HAL_TIMEx_ConfigBreakDeadTime>
 80007a2:	1e03      	subs	r3, r0, #0
 80007a4:	d001      	beq.n	80007aa <MX_TIM1_Init+0x152>
  {
    Error_Handler();
 80007a6:	f7ff feb1 	bl	800050c <Error_Handler>
  }
  HAL_TIM_MspPostInit(&htim1);
 80007aa:	4b04      	ldr	r3, [pc, #16]	; (80007bc <MX_TIM1_Init+0x164>)
 80007ac:	0018      	movs	r0, r3
 80007ae:	f000 f9b1 	bl	8000b14 <HAL_TIM_MspPostInit>

}
 80007b2:	46c0      	nop			; (mov r8, r8)
 80007b4:	46bd      	mov	sp, r7
 80007b6:	b012      	add	sp, #72	; 0x48
 80007b8:	bd80      	pop	{r7, pc}
 80007ba:	46c0      	nop			; (mov r8, r8)
 80007bc:	2000006c 	.word	0x2000006c
 80007c0:	40012c00 	.word	0x40012c00

080007c4 <MX_TIM2_Init>:
/* TIM2 init function */
void MX_TIM2_Init(void)
{
 80007c4:	b590      	push	{r4, r7, lr}
 80007c6:	b08d      	sub	sp, #52	; 0x34
 80007c8:	af00      	add	r7, sp, #0
  TIM_Encoder_InitTypeDef sConfig = {0};
 80007ca:	240c      	movs	r4, #12
 80007cc:	193b      	adds	r3, r7, r4
 80007ce:	0018      	movs	r0, r3
 80007d0:	2324      	movs	r3, #36	; 0x24
 80007d2:	001a      	movs	r2, r3
 80007d4:	2100      	movs	r1, #0
 80007d6:	f002 f873 	bl	80028c0 <memset>
  TIM_MasterConfigTypeDef sMasterConfig = {0};
 80007da:	1d3b      	adds	r3, r7, #4
 80007dc:	0018      	movs	r0, r3
 80007de:	2308      	movs	r3, #8
 80007e0:	001a      	movs	r2, r3
 80007e2:	2100      	movs	r1, #0
 80007e4:	f002 f86c 	bl	80028c0 <memset>

  htim2.Instance = TIM2;
 80007e8:	4b26      	ldr	r3, [pc, #152]	; (8000884 <MX_TIM2_Init+0xc0>)
 80007ea:	2280      	movs	r2, #128	; 0x80
 80007ec:	05d2      	lsls	r2, r2, #23
 80007ee:	601a      	str	r2, [r3, #0]
  htim2.Init.Prescaler = 0;
 80007f0:	4b24      	ldr	r3, [pc, #144]	; (8000884 <MX_TIM2_Init+0xc0>)
 80007f2:	2200      	movs	r2, #0
 80007f4:	605a      	str	r2, [r3, #4]
  htim2.Init.CounterMode = TIM_COUNTERMODE_CENTERALIGNED3;
 80007f6:	4b23      	ldr	r3, [pc, #140]	; (8000884 <MX_TIM2_Init+0xc0>)
 80007f8:	2260      	movs	r2, #96	; 0x60
 80007fa:	609a      	str	r2, [r3, #8]
  htim2.Init.Period = 680;
 80007fc:	4b21      	ldr	r3, [pc, #132]	; (8000884 <MX_TIM2_Init+0xc0>)
 80007fe:	22aa      	movs	r2, #170	; 0xaa
 8000800:	0092      	lsls	r2, r2, #2
 8000802:	60da      	str	r2, [r3, #12]
  htim2.Init.ClockDivision = TIM_CLOCKDIVISION_DIV1;
 8000804:	4b1f      	ldr	r3, [pc, #124]	; (8000884 <MX_TIM2_Init+0xc0>)
 8000806:	2200      	movs	r2, #0
 8000808:	611a      	str	r2, [r3, #16]
  htim2.Init.AutoReloadPreload = TIM_AUTORELOAD_PRELOAD_DISABLE;
 800080a:	4b1e      	ldr	r3, [pc, #120]	; (8000884 <MX_TIM2_Init+0xc0>)
 800080c:	2200      	movs	r2, #0
 800080e:	619a      	str	r2, [r3, #24]
  sConfig.EncoderMode = TIM_ENCODERMODE_TI12;
 8000810:	0021      	movs	r1, r4
 8000812:	187b      	adds	r3, r7, r1
 8000814:	2203      	movs	r2, #3
 8000816:	601a      	str	r2, [r3, #0]
  sConfig.IC1Polarity = TIM_ICPOLARITY_RISING;
 8000818:	187b      	adds	r3, r7, r1
 800081a:	2200      	movs	r2, #0
 800081c:	605a      	str	r2, [r3, #4]
  sConfig.IC1Selection = TIM_ICSELECTION_DIRECTTI;
 800081e:	187b      	adds	r3, r7, r1
 8000820:	2201      	movs	r2, #1
 8000822:	609a      	str	r2, [r3, #8]
  sConfig.IC1Prescaler = TIM_ICPSC_DIV1;
 8000824:	187b      	adds	r3, r7, r1
 8000826:	2200      	movs	r2, #0
 8000828:	60da      	str	r2, [r3, #12]
  sConfig.IC1Filter = 0;
 800082a:	187b      	adds	r3, r7, r1
 800082c:	2200      	movs	r2, #0
 800082e:	611a      	str	r2, [r3, #16]
  sConfig.IC2Polarity = TIM_ICPOLARITY_RISING;
 8000830:	187b      	adds	r3, r7, r1
 8000832:	2200      	movs	r2, #0
 8000834:	615a      	str	r2, [r3, #20]
  sConfig.IC2Selection = TIM_ICSELECTION_DIRECTTI;
 8000836:	187b      	adds	r3, r7, r1
 8000838:	2201      	movs	r2, #1
 800083a:	619a      	str	r2, [r3, #24]
  sConfig.IC2Prescaler = TIM_ICPSC_DIV1;
 800083c:	187b      	adds	r3, r7, r1
 800083e:	2200      	movs	r2, #0
 8000840:	61da      	str	r2, [r3, #28]
  sConfig.IC2Filter = 0;
 8000842:	187b      	adds	r3, r7, r1
 8000844:	2200      	movs	r2, #0
 8000846:	621a      	str	r2, [r3, #32]
  if (HAL_TIM_Encoder_Init(&htim2, &sConfig) != HAL_OK)
 8000848:	187a      	adds	r2, r7, r1
 800084a:	4b0e      	ldr	r3, [pc, #56]	; (8000884 <MX_TIM2_Init+0xc0>)
 800084c:	0011      	movs	r1, r2
 800084e:	0018      	movs	r0, r3
 8000850:	f001 fa1c 	bl	8001c8c <HAL_TIM_Encoder_Init>
 8000854:	1e03      	subs	r3, r0, #0
 8000856:	d001      	beq.n	800085c <MX_TIM2_Init+0x98>
  {
    Error_Handler();
 8000858:	f7ff fe58 	bl	800050c <Error_Handler>
  }
  sMasterConfig.MasterOutputTrigger = TIM_TRGO_UPDATE;
 800085c:	1d3b      	adds	r3, r7, #4
 800085e:	2220      	movs	r2, #32
 8000860:	601a      	str	r2, [r3, #0]
  sMasterConfig.MasterSlaveMode = TIM_MASTERSLAVEMODE_DISABLE;
 8000862:	1d3b      	adds	r3, r7, #4
 8000864:	2200      	movs	r2, #0
 8000866:	605a      	str	r2, [r3, #4]
  if (HAL_TIMEx_MasterConfigSynchronization(&htim2, &sMasterConfig) != HAL_OK)
 8000868:	1d3a      	adds	r2, r7, #4
 800086a:	4b06      	ldr	r3, [pc, #24]	; (8000884 <MX_TIM2_Init+0xc0>)
 800086c:	0011      	movs	r1, r2
 800086e:	0018      	movs	r0, r3
 8000870:	f001 ff36 	bl	80026e0 <HAL_TIMEx_MasterConfigSynchronization>
 8000874:	1e03      	subs	r3, r0, #0
 8000876:	d001      	beq.n	800087c <MX_TIM2_Init+0xb8>
  {
    Error_Handler();
 8000878:	f7ff fe48 	bl	800050c <Error_Handler>
  }

}
 800087c:	46c0      	nop			; (mov r8, r8)
 800087e:	46bd      	mov	sp, r7
 8000880:	b00d      	add	sp, #52	; 0x34
 8000882:	bd90      	pop	{r4, r7, pc}
 8000884:	200000ac 	.word	0x200000ac

08000888 <MX_TIM14_Init>:
/* TIM14 init function */
void MX_TIM14_Init(void)
{
 8000888:	b580      	push	{r7, lr}
 800088a:	b088      	sub	sp, #32
 800088c:	af00      	add	r7, sp, #0
  TIM_OC_InitTypeDef sConfigOC = {0};
 800088e:	1d3b      	adds	r3, r7, #4
 8000890:	0018      	movs	r0, r3
 8000892:	231c      	movs	r3, #28
 8000894:	001a      	movs	r2, r3
 8000896:	2100      	movs	r1, #0
 8000898:	f002 f812 	bl	80028c0 <memset>

  htim14.Instance = TIM14;
 800089c:	4b1f      	ldr	r3, [pc, #124]	; (800091c <MX_TIM14_Init+0x94>)
 800089e:	4a20      	ldr	r2, [pc, #128]	; (8000920 <MX_TIM14_Init+0x98>)
 80008a0:	601a      	str	r2, [r3, #0]
  htim14.Init.Prescaler = 0;
 80008a2:	4b1e      	ldr	r3, [pc, #120]	; (800091c <MX_TIM14_Init+0x94>)
 80008a4:	2200      	movs	r2, #0
 80008a6:	605a      	str	r2, [r3, #4]
  htim14.Init.CounterMode = TIM_COUNTERMODE_UP;
 80008a8:	4b1c      	ldr	r3, [pc, #112]	; (800091c <MX_TIM14_Init+0x94>)
 80008aa:	2200      	movs	r2, #0
 80008ac:	609a      	str	r2, [r3, #8]
  htim14.Init.Period = 64;
 80008ae:	4b1b      	ldr	r3, [pc, #108]	; (800091c <MX_TIM14_Init+0x94>)
 80008b0:	2240      	movs	r2, #64	; 0x40
 80008b2:	60da      	str	r2, [r3, #12]
  htim14.Init.ClockDivision = TIM_CLOCKDIVISION_DIV1;
 80008b4:	4b19      	ldr	r3, [pc, #100]	; (800091c <MX_TIM14_Init+0x94>)
 80008b6:	2200      	movs	r2, #0
 80008b8:	611a      	str	r2, [r3, #16]
  htim14.Init.AutoReloadPreload = TIM_AUTORELOAD_PRELOAD_DISABLE;
 80008ba:	4b18      	ldr	r3, [pc, #96]	; (800091c <MX_TIM14_Init+0x94>)
 80008bc:	2200      	movs	r2, #0
 80008be:	619a      	str	r2, [r3, #24]
  if (HAL_TIM_Base_Init(&htim14) != HAL_OK)
 80008c0:	4b16      	ldr	r3, [pc, #88]	; (800091c <MX_TIM14_Init+0x94>)
 80008c2:	0018      	movs	r0, r3
 80008c4:	f001 f91c 	bl	8001b00 <HAL_TIM_Base_Init>
 80008c8:	1e03      	subs	r3, r0, #0
 80008ca:	d001      	beq.n	80008d0 <MX_TIM14_Init+0x48>
  {
    Error_Handler();
 80008cc:	f7ff fe1e 	bl	800050c <Error_Handler>
  }
  if (HAL_TIM_PWM_Init(&htim14) != HAL_OK)
 80008d0:	4b12      	ldr	r3, [pc, #72]	; (800091c <MX_TIM14_Init+0x94>)
 80008d2:	0018      	movs	r0, r3
 80008d4:	f001 f962 	bl	8001b9c <HAL_TIM_PWM_Init>
 80008d8:	1e03      	subs	r3, r0, #0
 80008da:	d001      	beq.n	80008e0 <MX_TIM14_Init+0x58>
  {
    Error_Handler();
 80008dc:	f7ff fe16 	bl	800050c <Error_Handler>
  }
  sConfigOC.OCMode = TIM_OCMODE_PWM1;
 80008e0:	1d3b      	adds	r3, r7, #4
 80008e2:	2260      	movs	r2, #96	; 0x60
 80008e4:	601a      	str	r2, [r3, #0]
  sConfigOC.Pulse = 0;
 80008e6:	1d3b      	adds	r3, r7, #4
 80008e8:	2200      	movs	r2, #0
 80008ea:	605a      	str	r2, [r3, #4]
  sConfigOC.OCPolarity = TIM_OCPOLARITY_HIGH;
 80008ec:	1d3b      	adds	r3, r7, #4
 80008ee:	2200      	movs	r2, #0
 80008f0:	609a      	str	r2, [r3, #8]
  sConfigOC.OCFastMode = TIM_OCFAST_DISABLE;
 80008f2:	1d3b      	adds	r3, r7, #4
 80008f4:	2200      	movs	r2, #0
 80008f6:	611a      	str	r2, [r3, #16]
  if (HAL_TIM_PWM_ConfigChannel(&htim14, &sConfigOC, TIM_CHANNEL_1) != HAL_OK)
 80008f8:	1d39      	adds	r1, r7, #4
 80008fa:	4b08      	ldr	r3, [pc, #32]	; (800091c <MX_TIM14_Init+0x94>)
 80008fc:	2200      	movs	r2, #0
 80008fe:	0018      	movs	r0, r3
 8000900:	f001 fb6e 	bl	8001fe0 <HAL_TIM_PWM_ConfigChannel>
 8000904:	1e03      	subs	r3, r0, #0
 8000906:	d001      	beq.n	800090c <MX_TIM14_Init+0x84>
  {
    Error_Handler();
 8000908:	f7ff fe00 	bl	800050c <Error_Handler>
  }
  HAL_TIM_MspPostInit(&htim14);
 800090c:	4b03      	ldr	r3, [pc, #12]	; (800091c <MX_TIM14_Init+0x94>)
 800090e:	0018      	movs	r0, r3
 8000910:	f000 f900 	bl	8000b14 <HAL_TIM_MspPostInit>

}
 8000914:	46c0      	nop			; (mov r8, r8)
 8000916:	46bd      	mov	sp, r7
 8000918:	b008      	add	sp, #32
 800091a:	bd80      	pop	{r7, pc}
 800091c:	200000ec 	.word	0x200000ec
 8000920:	40002000 	.word	0x40002000

08000924 <MX_TIM17_Init>:
/* TIM17 init function */
void MX_TIM17_Init(void)
{
 8000924:	b580      	push	{r7, lr}
 8000926:	af00      	add	r7, sp, #0

  htim17.Instance = TIM17;
 8000928:	4b0f      	ldr	r3, [pc, #60]	; (8000968 <MX_TIM17_Init+0x44>)
 800092a:	4a10      	ldr	r2, [pc, #64]	; (800096c <MX_TIM17_Init+0x48>)
 800092c:	601a      	str	r2, [r3, #0]
  htim17.Init.Prescaler = 65535;
 800092e:	4b0e      	ldr	r3, [pc, #56]	; (8000968 <MX_TIM17_Init+0x44>)
 8000930:	4a0f      	ldr	r2, [pc, #60]	; (8000970 <MX_TIM17_Init+0x4c>)
 8000932:	605a      	str	r2, [r3, #4]
  htim17.Init.CounterMode = TIM_COUNTERMODE_UP;
 8000934:	4b0c      	ldr	r3, [pc, #48]	; (8000968 <MX_TIM17_Init+0x44>)
 8000936:	2200      	movs	r2, #0
 8000938:	609a      	str	r2, [r3, #8]
  htim17.Init.Period = 65535;
 800093a:	4b0b      	ldr	r3, [pc, #44]	; (8000968 <MX_TIM17_Init+0x44>)
 800093c:	4a0c      	ldr	r2, [pc, #48]	; (8000970 <MX_TIM17_Init+0x4c>)
 800093e:	60da      	str	r2, [r3, #12]
  htim17.Init.ClockDivision = TIM_CLOCKDIVISION_DIV1;
 8000940:	4b09      	ldr	r3, [pc, #36]	; (8000968 <MX_TIM17_Init+0x44>)
 8000942:	2200      	movs	r2, #0
 8000944:	611a      	str	r2, [r3, #16]
  htim17.Init.RepetitionCounter = 0;
 8000946:	4b08      	ldr	r3, [pc, #32]	; (8000968 <MX_TIM17_Init+0x44>)
 8000948:	2200      	movs	r2, #0
 800094a:	615a      	str	r2, [r3, #20]
  htim17.Init.AutoReloadPreload = TIM_AUTORELOAD_PRELOAD_DISABLE;
 800094c:	4b06      	ldr	r3, [pc, #24]	; (8000968 <MX_TIM17_Init+0x44>)
 800094e:	2200      	movs	r2, #0
 8000950:	619a      	str	r2, [r3, #24]
  if (HAL_TIM_Base_Init(&htim17) != HAL_OK)
 8000952:	4b05      	ldr	r3, [pc, #20]	; (8000968 <MX_TIM17_Init+0x44>)
 8000954:	0018      	movs	r0, r3
 8000956:	f001 f8d3 	bl	8001b00 <HAL_TIM_Base_Init>
 800095a:	1e03      	subs	r3, r0, #0
 800095c:	d001      	beq.n	8000962 <MX_TIM17_Init+0x3e>
  {
    Error_Handler();
 800095e:	f7ff fdd5 	bl	800050c <Error_Handler>
  }

}
 8000962:	46c0      	nop			; (mov r8, r8)
 8000964:	46bd      	mov	sp, r7
 8000966:	bd80      	pop	{r7, pc}
 8000968:	2000002c 	.word	0x2000002c
 800096c:	40014800 	.word	0x40014800
 8000970:	0000ffff 	.word	0x0000ffff

08000974 <HAL_TIM_PWM_MspInit>:

void HAL_TIM_PWM_MspInit(TIM_HandleTypeDef* tim_pwmHandle)
{
 8000974:	b580      	push	{r7, lr}
 8000976:	b084      	sub	sp, #16
 8000978:	af00      	add	r7, sp, #0
 800097a:	6078      	str	r0, [r7, #4]

  if(tim_pwmHandle->Instance==TIM1)
 800097c:	687b      	ldr	r3, [r7, #4]
 800097e:	681b      	ldr	r3, [r3, #0]
 8000980:	4a0a      	ldr	r2, [pc, #40]	; (80009ac <HAL_TIM_PWM_MspInit+0x38>)
 8000982:	4293      	cmp	r3, r2
 8000984:	d10d      	bne.n	80009a2 <HAL_TIM_PWM_MspInit+0x2e>
  {
  /* USER CODE BEGIN TIM1_MspInit 0 */

  /* USER CODE END TIM1_MspInit 0 */
    /* TIM1 clock enable */
    __HAL_RCC_TIM1_CLK_ENABLE();
 8000986:	4b0a      	ldr	r3, [pc, #40]	; (80009b0 <HAL_TIM_PWM_MspInit+0x3c>)
 8000988:	699a      	ldr	r2, [r3, #24]
 800098a:	4b09      	ldr	r3, [pc, #36]	; (80009b0 <HAL_TIM_PWM_MspInit+0x3c>)
 800098c:	2180      	movs	r1, #128	; 0x80
 800098e:	0109      	lsls	r1, r1, #4
 8000990:	430a      	orrs	r2, r1
 8000992:	619a      	str	r2, [r3, #24]
 8000994:	4b06      	ldr	r3, [pc, #24]	; (80009b0 <HAL_TIM_PWM_MspInit+0x3c>)
 8000996:	699a      	ldr	r2, [r3, #24]
 8000998:	2380      	movs	r3, #128	; 0x80
 800099a:	011b      	lsls	r3, r3, #4
 800099c:	4013      	ands	r3, r2
 800099e:	60fb      	str	r3, [r7, #12]
 80009a0:	68fb      	ldr	r3, [r7, #12]
  /* USER CODE BEGIN TIM1_MspInit 1 */

  /* USER CODE END TIM1_MspInit 1 */
  }
}
 80009a2:	46c0      	nop			; (mov r8, r8)
 80009a4:	46bd      	mov	sp, r7
 80009a6:	b004      	add	sp, #16
 80009a8:	bd80      	pop	{r7, pc}
 80009aa:	46c0      	nop			; (mov r8, r8)
 80009ac:	40012c00 	.word	0x40012c00
 80009b0:	40021000 	.word	0x40021000

080009b4 <HAL_TIM_Encoder_MspInit>:

void HAL_TIM_Encoder_MspInit(TIM_HandleTypeDef* tim_encoderHandle)
{
 80009b4:	b590      	push	{r4, r7, lr}
 80009b6:	b08b      	sub	sp, #44	; 0x2c
 80009b8:	af00      	add	r7, sp, #0
 80009ba:	6078      	str	r0, [r7, #4]

  GPIO_InitTypeDef GPIO_InitStruct = {0};
 80009bc:	2314      	movs	r3, #20
 80009be:	18fb      	adds	r3, r7, r3
 80009c0:	0018      	movs	r0, r3
 80009c2:	2314      	movs	r3, #20
 80009c4:	001a      	movs	r2, r3
 80009c6:	2100      	movs	r1, #0
 80009c8:	f001 ff7a 	bl	80028c0 <memset>
  if(tim_encoderHandle->Instance==TIM2)
 80009cc:	687b      	ldr	r3, [r7, #4]
 80009ce:	681a      	ldr	r2, [r3, #0]
 80009d0:	2380      	movs	r3, #128	; 0x80
 80009d2:	05db      	lsls	r3, r3, #23
 80009d4:	429a      	cmp	r2, r3
 80009d6:	d15e      	bne.n	8000a96 <HAL_TIM_Encoder_MspInit+0xe2>
  {
  /* USER CODE BEGIN TIM2_MspInit 0 */

  /* USER CODE END TIM2_MspInit 0 */
    /* TIM2 clock enable */
    __HAL_RCC_TIM2_CLK_ENABLE();
 80009d8:	4b31      	ldr	r3, [pc, #196]	; (8000aa0 <HAL_TIM_Encoder_MspInit+0xec>)
 80009da:	69da      	ldr	r2, [r3, #28]
 80009dc:	4b30      	ldr	r3, [pc, #192]	; (8000aa0 <HAL_TIM_Encoder_MspInit+0xec>)
 80009de:	2101      	movs	r1, #1
 80009e0:	430a      	orrs	r2, r1
 80009e2:	61da      	str	r2, [r3, #28]
 80009e4:	4b2e      	ldr	r3, [pc, #184]	; (8000aa0 <HAL_TIM_Encoder_MspInit+0xec>)
 80009e6:	69db      	ldr	r3, [r3, #28]
 80009e8:	2201      	movs	r2, #1
 80009ea:	4013      	ands	r3, r2
 80009ec:	613b      	str	r3, [r7, #16]
 80009ee:	693b      	ldr	r3, [r7, #16]
  
    __HAL_RCC_GPIOA_CLK_ENABLE();
 80009f0:	4b2b      	ldr	r3, [pc, #172]	; (8000aa0 <HAL_TIM_Encoder_MspInit+0xec>)
 80009f2:	695a      	ldr	r2, [r3, #20]
 80009f4:	4b2a      	ldr	r3, [pc, #168]	; (8000aa0 <HAL_TIM_Encoder_MspInit+0xec>)
 80009f6:	2180      	movs	r1, #128	; 0x80
 80009f8:	0289      	lsls	r1, r1, #10
 80009fa:	430a      	orrs	r2, r1
 80009fc:	615a      	str	r2, [r3, #20]
 80009fe:	4b28      	ldr	r3, [pc, #160]	; (8000aa0 <HAL_TIM_Encoder_MspInit+0xec>)
 8000a00:	695a      	ldr	r2, [r3, #20]
 8000a02:	2380      	movs	r3, #128	; 0x80
 8000a04:	029b      	lsls	r3, r3, #10
 8000a06:	4013      	ands	r3, r2
 8000a08:	60fb      	str	r3, [r7, #12]
 8000a0a:	68fb      	ldr	r3, [r7, #12]
    __HAL_RCC_GPIOB_CLK_ENABLE();
 8000a0c:	4b24      	ldr	r3, [pc, #144]	; (8000aa0 <HAL_TIM_Encoder_MspInit+0xec>)
 8000a0e:	695a      	ldr	r2, [r3, #20]
 8000a10:	4b23      	ldr	r3, [pc, #140]	; (8000aa0 <HAL_TIM_Encoder_MspInit+0xec>)
 8000a12:	2180      	movs	r1, #128	; 0x80
 8000a14:	02c9      	lsls	r1, r1, #11
 8000a16:	430a      	orrs	r2, r1
 8000a18:	615a      	str	r2, [r3, #20]
 8000a1a:	4b21      	ldr	r3, [pc, #132]	; (8000aa0 <HAL_TIM_Encoder_MspInit+0xec>)
 8000a1c:	695a      	ldr	r2, [r3, #20]
 8000a1e:	2380      	movs	r3, #128	; 0x80
 8000a20:	02db      	lsls	r3, r3, #11
 8000a22:	4013      	ands	r3, r2
 8000a24:	60bb      	str	r3, [r7, #8]
 8000a26:	68bb      	ldr	r3, [r7, #8]
    /**TIM2 GPIO Configuration    
    PA15     ------> TIM2_CH1
    PB3     ------> TIM2_CH2 
    */
    GPIO_InitStruct.Pin = GPIO_PIN_15;
 8000a28:	2114      	movs	r1, #20
 8000a2a:	187b      	adds	r3, r7, r1
 8000a2c:	2280      	movs	r2, #128	; 0x80
 8000a2e:	0212      	lsls	r2, r2, #8
 8000a30:	601a      	str	r2, [r3, #0]
    GPIO_InitStruct.Mode = GPIO_MODE_AF_PP;
 8000a32:	000c      	movs	r4, r1
 8000a34:	193b      	adds	r3, r7, r4
 8000a36:	2202      	movs	r2, #2
 8000a38:	605a      	str	r2, [r3, #4]
    GPIO_InitStruct.Pull = GPIO_NOPULL;
 8000a3a:	193b      	adds	r3, r7, r4
 8000a3c:	2200      	movs	r2, #0
 8000a3e:	609a      	str	r2, [r3, #8]
    GPIO_InitStruct.Speed = GPIO_SPEED_FREQ_LOW;
 8000a40:	193b      	adds	r3, r7, r4
 8000a42:	2200      	movs	r2, #0
 8000a44:	60da      	str	r2, [r3, #12]
    GPIO_InitStruct.Alternate = GPIO_AF2_TIM2;
 8000a46:	193b      	adds	r3, r7, r4
 8000a48:	2202      	movs	r2, #2
 8000a4a:	611a      	str	r2, [r3, #16]
    HAL_GPIO_Init(GPIOA, &GPIO_InitStruct);
 8000a4c:	193a      	adds	r2, r7, r4
 8000a4e:	2390      	movs	r3, #144	; 0x90
 8000a50:	05db      	lsls	r3, r3, #23
 8000a52:	0011      	movs	r1, r2
 8000a54:	0018      	movs	r0, r3
 8000a56:	f000 fa37 	bl	8000ec8 <HAL_GPIO_Init>

    GPIO_InitStruct.Pin = GPIO_PIN_3;
 8000a5a:	0021      	movs	r1, r4
 8000a5c:	187b      	adds	r3, r7, r1
 8000a5e:	2208      	movs	r2, #8
 8000a60:	601a      	str	r2, [r3, #0]
    GPIO_InitStruct.Mode = GPIO_MODE_AF_PP;
 8000a62:	187b      	adds	r3, r7, r1
 8000a64:	2202      	movs	r2, #2
 8000a66:	605a      	str	r2, [r3, #4]
    GPIO_InitStruct.Pull = GPIO_NOPULL;
 8000a68:	187b      	adds	r3, r7, r1
 8000a6a:	2200      	movs	r2, #0
 8000a6c:	609a      	str	r2, [r3, #8]
    GPIO_InitStruct.Speed = GPIO_SPEED_FREQ_LOW;
 8000a6e:	187b      	adds	r3, r7, r1
 8000a70:	2200      	movs	r2, #0
 8000a72:	60da      	str	r2, [r3, #12]
    GPIO_InitStruct.Alternate = GPIO_AF2_TIM2;
 8000a74:	187b      	adds	r3, r7, r1
 8000a76:	2202      	movs	r2, #2
 8000a78:	611a      	str	r2, [r3, #16]
    HAL_GPIO_Init(GPIOB, &GPIO_InitStruct);
 8000a7a:	187b      	adds	r3, r7, r1
 8000a7c:	4a09      	ldr	r2, [pc, #36]	; (8000aa4 <HAL_TIM_Encoder_MspInit+0xf0>)
 8000a7e:	0019      	movs	r1, r3
 8000a80:	0010      	movs	r0, r2
 8000a82:	f000 fa21 	bl	8000ec8 <HAL_GPIO_Init>

    /* TIM2 interrupt Init */
    HAL_NVIC_SetPriority(TIM2_IRQn, 0, 0);
 8000a86:	2200      	movs	r2, #0
 8000a88:	2100      	movs	r1, #0
 8000a8a:	200f      	movs	r0, #15
 8000a8c:	f000 f9ea 	bl	8000e64 <HAL_NVIC_SetPriority>
    HAL_NVIC_EnableIRQ(TIM2_IRQn);
 8000a90:	200f      	movs	r0, #15
 8000a92:	f000 f9fc 	bl	8000e8e <HAL_NVIC_EnableIRQ>
  /* USER CODE BEGIN TIM2_MspInit 1 */

  /* USER CODE END TIM2_MspInit 1 */
  }
}
 8000a96:	46c0      	nop			; (mov r8, r8)
 8000a98:	46bd      	mov	sp, r7
 8000a9a:	b00b      	add	sp, #44	; 0x2c
 8000a9c:	bd90      	pop	{r4, r7, pc}
 8000a9e:	46c0      	nop			; (mov r8, r8)
 8000aa0:	40021000 	.word	0x40021000
 8000aa4:	48000400 	.word	0x48000400

08000aa8 <HAL_TIM_Base_MspInit>:

void HAL_TIM_Base_MspInit(TIM_HandleTypeDef* tim_baseHandle)
{
 8000aa8:	b580      	push	{r7, lr}
 8000aaa:	b084      	sub	sp, #16
 8000aac:	af00      	add	r7, sp, #0
 8000aae:	6078      	str	r0, [r7, #4]

  if(tim_baseHandle->Instance==TIM14)
 8000ab0:	687b      	ldr	r3, [r7, #4]
 8000ab2:	681b      	ldr	r3, [r3, #0]
 8000ab4:	4a14      	ldr	r2, [pc, #80]	; (8000b08 <HAL_TIM_Base_MspInit+0x60>)
 8000ab6:	4293      	cmp	r3, r2
 8000ab8:	d10e      	bne.n	8000ad8 <HAL_TIM_Base_MspInit+0x30>
  {
  /* USER CODE BEGIN TIM14_MspInit 0 */

  /* USER CODE END TIM14_MspInit 0 */
    /* TIM14 clock enable */
    __HAL_RCC_TIM14_CLK_ENABLE();
 8000aba:	4b14      	ldr	r3, [pc, #80]	; (8000b0c <HAL_TIM_Base_MspInit+0x64>)
 8000abc:	69da      	ldr	r2, [r3, #28]
 8000abe:	4b13      	ldr	r3, [pc, #76]	; (8000b0c <HAL_TIM_Base_MspInit+0x64>)
 8000ac0:	2180      	movs	r1, #128	; 0x80
 8000ac2:	0049      	lsls	r1, r1, #1
 8000ac4:	430a      	orrs	r2, r1
 8000ac6:	61da      	str	r2, [r3, #28]
 8000ac8:	4b10      	ldr	r3, [pc, #64]	; (8000b0c <HAL_TIM_Base_MspInit+0x64>)
 8000aca:	69da      	ldr	r2, [r3, #28]
 8000acc:	2380      	movs	r3, #128	; 0x80
 8000ace:	005b      	lsls	r3, r3, #1
 8000ad0:	4013      	ands	r3, r2
 8000ad2:	60fb      	str	r3, [r7, #12]
 8000ad4:	68fb      	ldr	r3, [r7, #12]
    __HAL_RCC_TIM17_CLK_ENABLE();
  /* USER CODE BEGIN TIM17_MspInit 1 */

  /* USER CODE END TIM17_MspInit 1 */
  }
}
 8000ad6:	e012      	b.n	8000afe <HAL_TIM_Base_MspInit+0x56>
  else if(tim_baseHandle->Instance==TIM17)
 8000ad8:	687b      	ldr	r3, [r7, #4]
 8000ada:	681b      	ldr	r3, [r3, #0]
 8000adc:	4a0c      	ldr	r2, [pc, #48]	; (8000b10 <HAL_TIM_Base_MspInit+0x68>)
 8000ade:	4293      	cmp	r3, r2
 8000ae0:	d10d      	bne.n	8000afe <HAL_TIM_Base_MspInit+0x56>
    __HAL_RCC_TIM17_CLK_ENABLE();
 8000ae2:	4b0a      	ldr	r3, [pc, #40]	; (8000b0c <HAL_TIM_Base_MspInit+0x64>)
 8000ae4:	699a      	ldr	r2, [r3, #24]
 8000ae6:	4b09      	ldr	r3, [pc, #36]	; (8000b0c <HAL_TIM_Base_MspInit+0x64>)
 8000ae8:	2180      	movs	r1, #128	; 0x80
 8000aea:	02c9      	lsls	r1, r1, #11
 8000aec:	430a      	orrs	r2, r1
 8000aee:	619a      	str	r2, [r3, #24]
 8000af0:	4b06      	ldr	r3, [pc, #24]	; (8000b0c <HAL_TIM_Base_MspInit+0x64>)
 8000af2:	699a      	ldr	r2, [r3, #24]
 8000af4:	2380      	movs	r3, #128	; 0x80
 8000af6:	02db      	lsls	r3, r3, #11
 8000af8:	4013      	ands	r3, r2
 8000afa:	60bb      	str	r3, [r7, #8]
 8000afc:	68bb      	ldr	r3, [r7, #8]
}
 8000afe:	46c0      	nop			; (mov r8, r8)
 8000b00:	46bd      	mov	sp, r7
 8000b02:	b004      	add	sp, #16
 8000b04:	bd80      	pop	{r7, pc}
 8000b06:	46c0      	nop			; (mov r8, r8)
 8000b08:	40002000 	.word	0x40002000
 8000b0c:	40021000 	.word	0x40021000
 8000b10:	40014800 	.word	0x40014800

08000b14 <HAL_TIM_MspPostInit>:
void HAL_TIM_MspPostInit(TIM_HandleTypeDef* timHandle)
{
 8000b14:	b580      	push	{r7, lr}
 8000b16:	b08a      	sub	sp, #40	; 0x28
 8000b18:	af00      	add	r7, sp, #0
 8000b1a:	6078      	str	r0, [r7, #4]

  GPIO_InitTypeDef GPIO_InitStruct = {0};
 8000b1c:	2314      	movs	r3, #20
 8000b1e:	18fb      	adds	r3, r7, r3
 8000b20:	0018      	movs	r0, r3
 8000b22:	2314      	movs	r3, #20
 8000b24:	001a      	movs	r2, r3
 8000b26:	2100      	movs	r1, #0
 8000b28:	f001 feca 	bl	80028c0 <memset>
  if(timHandle->Instance==TIM1)
 8000b2c:	687b      	ldr	r3, [r7, #4]
 8000b2e:	681b      	ldr	r3, [r3, #0]
 8000b30:	4a2b      	ldr	r2, [pc, #172]	; (8000be0 <HAL_TIM_MspPostInit+0xcc>)
 8000b32:	4293      	cmp	r3, r2
 8000b34:	d126      	bne.n	8000b84 <HAL_TIM_MspPostInit+0x70>
  {
  /* USER CODE BEGIN TIM1_MspPostInit 0 */

  /* USER CODE END TIM1_MspPostInit 0 */
    __HAL_RCC_GPIOA_CLK_ENABLE();
 8000b36:	4b2b      	ldr	r3, [pc, #172]	; (8000be4 <HAL_TIM_MspPostInit+0xd0>)
 8000b38:	695a      	ldr	r2, [r3, #20]
 8000b3a:	4b2a      	ldr	r3, [pc, #168]	; (8000be4 <HAL_TIM_MspPostInit+0xd0>)
 8000b3c:	2180      	movs	r1, #128	; 0x80
 8000b3e:	0289      	lsls	r1, r1, #10
 8000b40:	430a      	orrs	r2, r1
 8000b42:	615a      	str	r2, [r3, #20]
 8000b44:	4b27      	ldr	r3, [pc, #156]	; (8000be4 <HAL_TIM_MspPostInit+0xd0>)
 8000b46:	695a      	ldr	r2, [r3, #20]
 8000b48:	2380      	movs	r3, #128	; 0x80
 8000b4a:	029b      	lsls	r3, r3, #10
 8000b4c:	4013      	ands	r3, r2
 8000b4e:	613b      	str	r3, [r7, #16]
 8000b50:	693b      	ldr	r3, [r7, #16]
    PA8     ------> TIM1_CH1
    PA9     ------> TIM1_CH2
    PA10     ------> TIM1_CH3
    PA11     ------> TIM1_CH4 
    */
    GPIO_InitStruct.Pin = GPIO_PIN_8|GPIO_PIN_9|GPIO_PIN_10|GPIO_PIN_11;
 8000b52:	2114      	movs	r1, #20
 8000b54:	187b      	adds	r3, r7, r1
 8000b56:	22f0      	movs	r2, #240	; 0xf0
 8000b58:	0112      	lsls	r2, r2, #4
 8000b5a:	601a      	str	r2, [r3, #0]
    GPIO_InitStruct.Mode = GPIO_MODE_AF_PP;
 8000b5c:	187b      	adds	r3, r7, r1
 8000b5e:	2202      	movs	r2, #2
 8000b60:	605a      	str	r2, [r3, #4]
    GPIO_InitStruct.Pull = GPIO_NOPULL;
 8000b62:	187b      	adds	r3, r7, r1
 8000b64:	2200      	movs	r2, #0
 8000b66:	609a      	str	r2, [r3, #8]
    GPIO_InitStruct.Speed = GPIO_SPEED_FREQ_LOW;
 8000b68:	187b      	adds	r3, r7, r1
 8000b6a:	2200      	movs	r2, #0
 8000b6c:	60da      	str	r2, [r3, #12]
    GPIO_InitStruct.Alternate = GPIO_AF2_TIM1;
 8000b6e:	187b      	adds	r3, r7, r1
 8000b70:	2202      	movs	r2, #2
 8000b72:	611a      	str	r2, [r3, #16]
    HAL_GPIO_Init(GPIOA, &GPIO_InitStruct);
 8000b74:	187a      	adds	r2, r7, r1
 8000b76:	2390      	movs	r3, #144	; 0x90
 8000b78:	05db      	lsls	r3, r3, #23
 8000b7a:	0011      	movs	r1, r2
 8000b7c:	0018      	movs	r0, r3
 8000b7e:	f000 f9a3 	bl	8000ec8 <HAL_GPIO_Init>
  /* USER CODE BEGIN TIM14_MspPostInit 1 */

  /* USER CODE END TIM14_MspPostInit 1 */
  }

}
 8000b82:	e028      	b.n	8000bd6 <HAL_TIM_MspPostInit+0xc2>
  else if(timHandle->Instance==TIM14)
 8000b84:	687b      	ldr	r3, [r7, #4]
 8000b86:	681b      	ldr	r3, [r3, #0]
 8000b88:	4a17      	ldr	r2, [pc, #92]	; (8000be8 <HAL_TIM_MspPostInit+0xd4>)
 8000b8a:	4293      	cmp	r3, r2
 8000b8c:	d123      	bne.n	8000bd6 <HAL_TIM_MspPostInit+0xc2>
    __HAL_RCC_GPIOB_CLK_ENABLE();
 8000b8e:	4b15      	ldr	r3, [pc, #84]	; (8000be4 <HAL_TIM_MspPostInit+0xd0>)
 8000b90:	695a      	ldr	r2, [r3, #20]
 8000b92:	4b14      	ldr	r3, [pc, #80]	; (8000be4 <HAL_TIM_MspPostInit+0xd0>)
 8000b94:	2180      	movs	r1, #128	; 0x80
 8000b96:	02c9      	lsls	r1, r1, #11
 8000b98:	430a      	orrs	r2, r1
 8000b9a:	615a      	str	r2, [r3, #20]
 8000b9c:	4b11      	ldr	r3, [pc, #68]	; (8000be4 <HAL_TIM_MspPostInit+0xd0>)
 8000b9e:	695a      	ldr	r2, [r3, #20]
 8000ba0:	2380      	movs	r3, #128	; 0x80
 8000ba2:	02db      	lsls	r3, r3, #11
 8000ba4:	4013      	ands	r3, r2
 8000ba6:	60fb      	str	r3, [r7, #12]
 8000ba8:	68fb      	ldr	r3, [r7, #12]
    GPIO_InitStruct.Pin = GPIO_PIN_1;
 8000baa:	2114      	movs	r1, #20
 8000bac:	187b      	adds	r3, r7, r1
 8000bae:	2202      	movs	r2, #2
 8000bb0:	601a      	str	r2, [r3, #0]
    GPIO_InitStruct.Mode = GPIO_MODE_AF_PP;
 8000bb2:	187b      	adds	r3, r7, r1
 8000bb4:	2202      	movs	r2, #2
 8000bb6:	605a      	str	r2, [r3, #4]
    GPIO_InitStruct.Pull = GPIO_NOPULL;
 8000bb8:	187b      	adds	r3, r7, r1
 8000bba:	2200      	movs	r2, #0
 8000bbc:	609a      	str	r2, [r3, #8]
    GPIO_InitStruct.Speed = GPIO_SPEED_FREQ_LOW;
 8000bbe:	187b      	adds	r3, r7, r1
 8000bc0:	2200      	movs	r2, #0
 8000bc2:	60da      	str	r2, [r3, #12]
    GPIO_InitStruct.Alternate = GPIO_AF0_TIM14;
 8000bc4:	187b      	adds	r3, r7, r1
 8000bc6:	2200      	movs	r2, #0
 8000bc8:	611a      	str	r2, [r3, #16]
    HAL_GPIO_Init(GPIOB, &GPIO_InitStruct);
 8000bca:	187b      	adds	r3, r7, r1
 8000bcc:	4a07      	ldr	r2, [pc, #28]	; (8000bec <HAL_TIM_MspPostInit+0xd8>)
 8000bce:	0019      	movs	r1, r3
 8000bd0:	0010      	movs	r0, r2
 8000bd2:	f000 f979 	bl	8000ec8 <HAL_GPIO_Init>
}
 8000bd6:	46c0      	nop			; (mov r8, r8)
 8000bd8:	46bd      	mov	sp, r7
 8000bda:	b00a      	add	sp, #40	; 0x28
 8000bdc:	bd80      	pop	{r7, pc}
 8000bde:	46c0      	nop			; (mov r8, r8)
 8000be0:	40012c00 	.word	0x40012c00
 8000be4:	40021000 	.word	0x40021000
 8000be8:	40002000 	.word	0x40002000
 8000bec:	48000400 	.word	0x48000400

08000bf0 <Reset_Handler>:

  .section .text.Reset_Handler
  .weak Reset_Handler
  .type Reset_Handler, %function
Reset_Handler:
  ldr   r0, =_estack
 8000bf0:	480d      	ldr	r0, [pc, #52]	; (8000c28 <LoopForever+0x2>)
  mov   sp, r0          /* set stack pointer */
 8000bf2:	4685      	mov	sp, r0

/* Copy the data segment initializers from flash to SRAM */
  ldr r0, =_sdata
 8000bf4:	480d      	ldr	r0, [pc, #52]	; (8000c2c <LoopForever+0x6>)
  ldr r1, =_edata
 8000bf6:	490e      	ldr	r1, [pc, #56]	; (8000c30 <LoopForever+0xa>)
  ldr r2, =_sidata
 8000bf8:	4a0e      	ldr	r2, [pc, #56]	; (8000c34 <LoopForever+0xe>)
  movs r3, #0
 8000bfa:	2300      	movs	r3, #0
  b LoopCopyDataInit
 8000bfc:	e002      	b.n	8000c04 <LoopCopyDataInit>

08000bfe <CopyDataInit>:

CopyDataInit:
  ldr r4, [r2, r3]
 8000bfe:	58d4      	ldr	r4, [r2, r3]
  str r4, [r0, r3]
 8000c00:	50c4      	str	r4, [r0, r3]
  adds r3, r3, #4
 8000c02:	3304      	adds	r3, #4

08000c04 <LoopCopyDataInit>:

LoopCopyDataInit:
  adds r4, r0, r3
 8000c04:	18c4      	adds	r4, r0, r3
  cmp r4, r1
 8000c06:	428c      	cmp	r4, r1
  bcc CopyDataInit
 8000c08:	d3f9      	bcc.n	8000bfe <CopyDataInit>
  
/* Zero fill the bss segment. */
  ldr r2, =_sbss
 8000c0a:	4a0b      	ldr	r2, [pc, #44]	; (8000c38 <LoopForever+0x12>)
  ldr r4, =_ebss
 8000c0c:	4c0b      	ldr	r4, [pc, #44]	; (8000c3c <LoopForever+0x16>)
  movs r3, #0
 8000c0e:	2300      	movs	r3, #0
  b LoopFillZerobss
 8000c10:	e001      	b.n	8000c16 <LoopFillZerobss>

08000c12 <FillZerobss>:

FillZerobss:
  str  r3, [r2]
 8000c12:	6013      	str	r3, [r2, #0]
  adds r2, r2, #4
 8000c14:	3204      	adds	r2, #4

08000c16 <LoopFillZerobss>:

LoopFillZerobss:
  cmp r2, r4
 8000c16:	42a2      	cmp	r2, r4
  bcc FillZerobss
 8000c18:	d3fb      	bcc.n	8000c12 <FillZerobss>

/* Call the clock system intitialization function.*/
  bl  SystemInit
 8000c1a:	f7ff fd17 	bl	800064c <SystemInit>
/* Call static constructors */
  bl __libc_init_array
 8000c1e:	f001 fe2b 	bl	8002878 <__libc_init_array>
/* Call the application's entry point.*/
  bl main
 8000c22:	f7ff fb5f 	bl	80002e4 <main>

08000c26 <LoopForever>:

LoopForever:
    b LoopForever
 8000c26:	e7fe      	b.n	8000c26 <LoopForever>
  ldr   r0, =_estack
 8000c28:	20002000 	.word	0x20002000
  ldr r0, =_sdata
 8000c2c:	20000000 	.word	0x20000000
  ldr r1, =_edata
 8000c30:	2000000c 	.word	0x2000000c
  ldr r2, =_sidata
 8000c34:	08002920 	.word	0x08002920
  ldr r2, =_sbss
 8000c38:	2000000c 	.word	0x2000000c
  ldr r4, =_ebss
 8000c3c:	20000130 	.word	0x20000130

08000c40 <ADC1_COMP_IRQHandler>:
 * @retval : None
*/
    .section .text.Default_Handler,"ax",%progbits
Default_Handler:
Infinite_Loop:
  b Infinite_Loop
 8000c40:	e7fe      	b.n	8000c40 <ADC1_COMP_IRQHandler>
	...

08000c44 <HAL_Init>:
  *       In the default implementation,Systick is used as source of time base.
  *       The tick variable is incremented each 1ms in its ISR.
  * @retval HAL status
  */
HAL_StatusTypeDef HAL_Init(void)
{
 8000c44:	b580      	push	{r7, lr}
 8000c46:	af00      	add	r7, sp, #0
  /* Configure Flash prefetch */ 
#if (PREFETCH_ENABLE != 0)
  __HAL_FLASH_PREFETCH_BUFFER_ENABLE();
 8000c48:	4b07      	ldr	r3, [pc, #28]	; (8000c68 <HAL_Init+0x24>)
 8000c4a:	681a      	ldr	r2, [r3, #0]
 8000c4c:	4b06      	ldr	r3, [pc, #24]	; (8000c68 <HAL_Init+0x24>)
 8000c4e:	2110      	movs	r1, #16
 8000c50:	430a      	orrs	r2, r1
 8000c52:	601a      	str	r2, [r3, #0]
#endif /* PREFETCH_ENABLE */

  /* Use systick as time base source and configure 1ms tick (default clock after Reset is HSI) */

  HAL_InitTick(TICK_INT_PRIORITY);
 8000c54:	2000      	movs	r0, #0
 8000c56:	f000 f809 	bl	8000c6c <HAL_InitTick>

  /* Init the low level hardware */
  HAL_MspInit();
 8000c5a:	f7ff fc5d 	bl	8000518 <HAL_MspInit>

  /* Return function status */
  return HAL_OK;
 8000c5e:	2300      	movs	r3, #0
}
 8000c60:	0018      	movs	r0, r3
 8000c62:	46bd      	mov	sp, r7
 8000c64:	bd80      	pop	{r7, pc}
 8000c66:	46c0      	nop			; (mov r8, r8)
 8000c68:	40022000 	.word	0x40022000

08000c6c <HAL_InitTick>:
  *       implementation  in user file.
  * @param TickPriority Tick interrupt priority.
  * @retval HAL status
  */
__weak HAL_StatusTypeDef HAL_InitTick(uint32_t TickPriority)
{
 8000c6c:	b590      	push	{r4, r7, lr}
 8000c6e:	b083      	sub	sp, #12
 8000c70:	af00      	add	r7, sp, #0
 8000c72:	6078      	str	r0, [r7, #4]
  /*Configure the SysTick to have interrupt in 1ms time basis*/
  if (HAL_SYSTICK_Config(SystemCoreClock / (1000U / uwTickFreq)) > 0U)
 8000c74:	4b14      	ldr	r3, [pc, #80]	; (8000cc8 <HAL_InitTick+0x5c>)
 8000c76:	681c      	ldr	r4, [r3, #0]
 8000c78:	4b14      	ldr	r3, [pc, #80]	; (8000ccc <HAL_InitTick+0x60>)
 8000c7a:	781b      	ldrb	r3, [r3, #0]
 8000c7c:	0019      	movs	r1, r3
 8000c7e:	23fa      	movs	r3, #250	; 0xfa
 8000c80:	0098      	lsls	r0, r3, #2
 8000c82:	f7ff fa41 	bl	8000108 <__udivsi3>
 8000c86:	0003      	movs	r3, r0
 8000c88:	0019      	movs	r1, r3
 8000c8a:	0020      	movs	r0, r4
 8000c8c:	f7ff fa3c 	bl	8000108 <__udivsi3>
 8000c90:	0003      	movs	r3, r0
 8000c92:	0018      	movs	r0, r3
 8000c94:	f000 f90b 	bl	8000eae <HAL_SYSTICK_Config>
 8000c98:	1e03      	subs	r3, r0, #0
 8000c9a:	d001      	beq.n	8000ca0 <HAL_InitTick+0x34>
  {
    return HAL_ERROR;
 8000c9c:	2301      	movs	r3, #1
 8000c9e:	e00f      	b.n	8000cc0 <HAL_InitTick+0x54>
  }

  /* Configure the SysTick IRQ priority */
  if (TickPriority < (1UL << __NVIC_PRIO_BITS))
 8000ca0:	687b      	ldr	r3, [r7, #4]
 8000ca2:	2b03      	cmp	r3, #3
 8000ca4:	d80b      	bhi.n	8000cbe <HAL_InitTick+0x52>
  {
    HAL_NVIC_SetPriority(SysTick_IRQn, TickPriority, 0U);
 8000ca6:	6879      	ldr	r1, [r7, #4]
 8000ca8:	2301      	movs	r3, #1
 8000caa:	425b      	negs	r3, r3
 8000cac:	2200      	movs	r2, #0
 8000cae:	0018      	movs	r0, r3
 8000cb0:	f000 f8d8 	bl	8000e64 <HAL_NVIC_SetPriority>
    uwTickPrio = TickPriority;
 8000cb4:	4b06      	ldr	r3, [pc, #24]	; (8000cd0 <HAL_InitTick+0x64>)
 8000cb6:	687a      	ldr	r2, [r7, #4]
 8000cb8:	601a      	str	r2, [r3, #0]
  {
    return HAL_ERROR;
  }

   /* Return function status */
  return HAL_OK;
 8000cba:	2300      	movs	r3, #0
 8000cbc:	e000      	b.n	8000cc0 <HAL_InitTick+0x54>
    return HAL_ERROR;
 8000cbe:	2301      	movs	r3, #1
}
 8000cc0:	0018      	movs	r0, r3
 8000cc2:	46bd      	mov	sp, r7
 8000cc4:	b003      	add	sp, #12
 8000cc6:	bd90      	pop	{r4, r7, pc}
 8000cc8:	20000000 	.word	0x20000000
 8000ccc:	20000008 	.word	0x20000008
 8000cd0:	20000004 	.word	0x20000004

08000cd4 <HAL_IncTick>:
  * @note This function is declared as __weak to be overwritten in case of other 
  *       implementations in user file.
  * @retval None
  */
__weak void HAL_IncTick(void)
{
 8000cd4:	b580      	push	{r7, lr}
 8000cd6:	af00      	add	r7, sp, #0
  uwTick += uwTickFreq;
 8000cd8:	4b05      	ldr	r3, [pc, #20]	; (8000cf0 <HAL_IncTick+0x1c>)
 8000cda:	781b      	ldrb	r3, [r3, #0]
 8000cdc:	001a      	movs	r2, r3
 8000cde:	4b05      	ldr	r3, [pc, #20]	; (8000cf4 <HAL_IncTick+0x20>)
 8000ce0:	681b      	ldr	r3, [r3, #0]
 8000ce2:	18d2      	adds	r2, r2, r3
 8000ce4:	4b03      	ldr	r3, [pc, #12]	; (8000cf4 <HAL_IncTick+0x20>)
 8000ce6:	601a      	str	r2, [r3, #0]
}
 8000ce8:	46c0      	nop			; (mov r8, r8)
 8000cea:	46bd      	mov	sp, r7
 8000cec:	bd80      	pop	{r7, pc}
 8000cee:	46c0      	nop			; (mov r8, r8)
 8000cf0:	20000008 	.word	0x20000008
 8000cf4:	2000012c 	.word	0x2000012c

08000cf8 <HAL_GetTick>:
  * @note   This function is declared as __weak  to be overwritten  in case of other 
  *       implementations in user file.
  * @retval tick value
  */
__weak uint32_t HAL_GetTick(void)
{
 8000cf8:	b580      	push	{r7, lr}
 8000cfa:	af00      	add	r7, sp, #0
  return uwTick;
 8000cfc:	4b02      	ldr	r3, [pc, #8]	; (8000d08 <HAL_GetTick+0x10>)
 8000cfe:	681b      	ldr	r3, [r3, #0]
}
 8000d00:	0018      	movs	r0, r3
 8000d02:	46bd      	mov	sp, r7
 8000d04:	bd80      	pop	{r7, pc}
 8000d06:	46c0      	nop			; (mov r8, r8)
 8000d08:	2000012c 	.word	0x2000012c

08000d0c <__NVIC_EnableIRQ>:
  \details Enables a device specific interrupt in the NVIC interrupt controller.
  \param [in]      IRQn  Device specific interrupt number.
  \note    IRQn must not be negative.
 */
__STATIC_INLINE void __NVIC_EnableIRQ(IRQn_Type IRQn)
{
 8000d0c:	b580      	push	{r7, lr}
 8000d0e:	b082      	sub	sp, #8
 8000d10:	af00      	add	r7, sp, #0
 8000d12:	0002      	movs	r2, r0
 8000d14:	1dfb      	adds	r3, r7, #7
 8000d16:	701a      	strb	r2, [r3, #0]
  if ((int32_t)(IRQn) >= 0)
 8000d18:	1dfb      	adds	r3, r7, #7
 8000d1a:	781b      	ldrb	r3, [r3, #0]
 8000d1c:	2b7f      	cmp	r3, #127	; 0x7f
 8000d1e:	d809      	bhi.n	8000d34 <__NVIC_EnableIRQ+0x28>
  {
    NVIC->ISER[0U] = (uint32_t)(1UL << (((uint32_t)IRQn) & 0x1FUL));
 8000d20:	1dfb      	adds	r3, r7, #7
 8000d22:	781b      	ldrb	r3, [r3, #0]
 8000d24:	001a      	movs	r2, r3
 8000d26:	231f      	movs	r3, #31
 8000d28:	401a      	ands	r2, r3
 8000d2a:	4b04      	ldr	r3, [pc, #16]	; (8000d3c <__NVIC_EnableIRQ+0x30>)
 8000d2c:	2101      	movs	r1, #1
 8000d2e:	4091      	lsls	r1, r2
 8000d30:	000a      	movs	r2, r1
 8000d32:	601a      	str	r2, [r3, #0]
  }
}
 8000d34:	46c0      	nop			; (mov r8, r8)
 8000d36:	46bd      	mov	sp, r7
 8000d38:	b002      	add	sp, #8
 8000d3a:	bd80      	pop	{r7, pc}
 8000d3c:	e000e100 	.word	0xe000e100

08000d40 <__NVIC_SetPriority>:
  \param [in]      IRQn  Interrupt number.
  \param [in]  priority  Priority to set.
  \note    The priority cannot be set for every processor exception.
 */
__STATIC_INLINE void __NVIC_SetPriority(IRQn_Type IRQn, uint32_t priority)
{
 8000d40:	b590      	push	{r4, r7, lr}
 8000d42:	b083      	sub	sp, #12
 8000d44:	af00      	add	r7, sp, #0
 8000d46:	0002      	movs	r2, r0
 8000d48:	6039      	str	r1, [r7, #0]
 8000d4a:	1dfb      	adds	r3, r7, #7
 8000d4c:	701a      	strb	r2, [r3, #0]
  if ((int32_t)(IRQn) >= 0)
 8000d4e:	1dfb      	adds	r3, r7, #7
 8000d50:	781b      	ldrb	r3, [r3, #0]
 8000d52:	2b7f      	cmp	r3, #127	; 0x7f
 8000d54:	d828      	bhi.n	8000da8 <__NVIC_SetPriority+0x68>
  {
    NVIC->IP[_IP_IDX(IRQn)]  = ((uint32_t)(NVIC->IP[_IP_IDX(IRQn)]  & ~(0xFFUL << _BIT_SHIFT(IRQn))) |
 8000d56:	4a2f      	ldr	r2, [pc, #188]	; (8000e14 <__NVIC_SetPriority+0xd4>)
 8000d58:	1dfb      	adds	r3, r7, #7
 8000d5a:	781b      	ldrb	r3, [r3, #0]
 8000d5c:	b25b      	sxtb	r3, r3
 8000d5e:	089b      	lsrs	r3, r3, #2
 8000d60:	33c0      	adds	r3, #192	; 0xc0
 8000d62:	009b      	lsls	r3, r3, #2
 8000d64:	589b      	ldr	r3, [r3, r2]
 8000d66:	1dfa      	adds	r2, r7, #7
 8000d68:	7812      	ldrb	r2, [r2, #0]
 8000d6a:	0011      	movs	r1, r2
 8000d6c:	2203      	movs	r2, #3
 8000d6e:	400a      	ands	r2, r1
 8000d70:	00d2      	lsls	r2, r2, #3
 8000d72:	21ff      	movs	r1, #255	; 0xff
 8000d74:	4091      	lsls	r1, r2
 8000d76:	000a      	movs	r2, r1
 8000d78:	43d2      	mvns	r2, r2
 8000d7a:	401a      	ands	r2, r3
 8000d7c:	0011      	movs	r1, r2
       (((priority << (8U - __NVIC_PRIO_BITS)) & (uint32_t)0xFFUL) << _BIT_SHIFT(IRQn)));
 8000d7e:	683b      	ldr	r3, [r7, #0]
 8000d80:	019b      	lsls	r3, r3, #6
 8000d82:	22ff      	movs	r2, #255	; 0xff
 8000d84:	401a      	ands	r2, r3
 8000d86:	1dfb      	adds	r3, r7, #7
 8000d88:	781b      	ldrb	r3, [r3, #0]
 8000d8a:	0018      	movs	r0, r3
 8000d8c:	2303      	movs	r3, #3
 8000d8e:	4003      	ands	r3, r0
 8000d90:	00db      	lsls	r3, r3, #3
 8000d92:	409a      	lsls	r2, r3
    NVIC->IP[_IP_IDX(IRQn)]  = ((uint32_t)(NVIC->IP[_IP_IDX(IRQn)]  & ~(0xFFUL << _BIT_SHIFT(IRQn))) |
 8000d94:	481f      	ldr	r0, [pc, #124]	; (8000e14 <__NVIC_SetPriority+0xd4>)
 8000d96:	1dfb      	adds	r3, r7, #7
 8000d98:	781b      	ldrb	r3, [r3, #0]
 8000d9a:	b25b      	sxtb	r3, r3
 8000d9c:	089b      	lsrs	r3, r3, #2
 8000d9e:	430a      	orrs	r2, r1
 8000da0:	33c0      	adds	r3, #192	; 0xc0
 8000da2:	009b      	lsls	r3, r3, #2
 8000da4:	501a      	str	r2, [r3, r0]
  else
  {
    SCB->SHP[_SHP_IDX(IRQn)] = ((uint32_t)(SCB->SHP[_SHP_IDX(IRQn)] & ~(0xFFUL << _BIT_SHIFT(IRQn))) |
       (((priority << (8U - __NVIC_PRIO_BITS)) & (uint32_t)0xFFUL) << _BIT_SHIFT(IRQn)));
  }
}
 8000da6:	e031      	b.n	8000e0c <__NVIC_SetPriority+0xcc>
    SCB->SHP[_SHP_IDX(IRQn)] = ((uint32_t)(SCB->SHP[_SHP_IDX(IRQn)] & ~(0xFFUL << _BIT_SHIFT(IRQn))) |
 8000da8:	4a1b      	ldr	r2, [pc, #108]	; (8000e18 <__NVIC_SetPriority+0xd8>)
 8000daa:	1dfb      	adds	r3, r7, #7
 8000dac:	781b      	ldrb	r3, [r3, #0]
 8000dae:	0019      	movs	r1, r3
 8000db0:	230f      	movs	r3, #15
 8000db2:	400b      	ands	r3, r1
 8000db4:	3b08      	subs	r3, #8
 8000db6:	089b      	lsrs	r3, r3, #2
 8000db8:	3306      	adds	r3, #6
 8000dba:	009b      	lsls	r3, r3, #2
 8000dbc:	18d3      	adds	r3, r2, r3
 8000dbe:	3304      	adds	r3, #4
 8000dc0:	681b      	ldr	r3, [r3, #0]
 8000dc2:	1dfa      	adds	r2, r7, #7
 8000dc4:	7812      	ldrb	r2, [r2, #0]
 8000dc6:	0011      	movs	r1, r2
 8000dc8:	2203      	movs	r2, #3
 8000dca:	400a      	ands	r2, r1
 8000dcc:	00d2      	lsls	r2, r2, #3
 8000dce:	21ff      	movs	r1, #255	; 0xff
 8000dd0:	4091      	lsls	r1, r2
 8000dd2:	000a      	movs	r2, r1
 8000dd4:	43d2      	mvns	r2, r2
 8000dd6:	401a      	ands	r2, r3
 8000dd8:	0011      	movs	r1, r2
       (((priority << (8U - __NVIC_PRIO_BITS)) & (uint32_t)0xFFUL) << _BIT_SHIFT(IRQn)));
 8000dda:	683b      	ldr	r3, [r7, #0]
 8000ddc:	019b      	lsls	r3, r3, #6
 8000dde:	22ff      	movs	r2, #255	; 0xff
 8000de0:	401a      	ands	r2, r3
 8000de2:	1dfb      	adds	r3, r7, #7
 8000de4:	781b      	ldrb	r3, [r3, #0]
 8000de6:	0018      	movs	r0, r3
 8000de8:	2303      	movs	r3, #3
 8000dea:	4003      	ands	r3, r0
 8000dec:	00db      	lsls	r3, r3, #3
 8000dee:	409a      	lsls	r2, r3
    SCB->SHP[_SHP_IDX(IRQn)] = ((uint32_t)(SCB->SHP[_SHP_IDX(IRQn)] & ~(0xFFUL << _BIT_SHIFT(IRQn))) |
 8000df0:	4809      	ldr	r0, [pc, #36]	; (8000e18 <__NVIC_SetPriority+0xd8>)
 8000df2:	1dfb      	adds	r3, r7, #7
 8000df4:	781b      	ldrb	r3, [r3, #0]
 8000df6:	001c      	movs	r4, r3
 8000df8:	230f      	movs	r3, #15
 8000dfa:	4023      	ands	r3, r4
 8000dfc:	3b08      	subs	r3, #8
 8000dfe:	089b      	lsrs	r3, r3, #2
 8000e00:	430a      	orrs	r2, r1
 8000e02:	3306      	adds	r3, #6
 8000e04:	009b      	lsls	r3, r3, #2
 8000e06:	18c3      	adds	r3, r0, r3
 8000e08:	3304      	adds	r3, #4
 8000e0a:	601a      	str	r2, [r3, #0]
}
 8000e0c:	46c0      	nop			; (mov r8, r8)
 8000e0e:	46bd      	mov	sp, r7
 8000e10:	b003      	add	sp, #12
 8000e12:	bd90      	pop	{r4, r7, pc}
 8000e14:	e000e100 	.word	0xe000e100
 8000e18:	e000ed00 	.word	0xe000ed00

08000e1c <SysTick_Config>:
  \note    When the variable <b>__Vendor_SysTickConfig</b> is set to 1, then the
           function <b>SysTick_Config</b> is not included. In this case, the file <b><i>device</i>.h</b>
           must contain a vendor-specific implementation of this function.
 */
__STATIC_INLINE uint32_t SysTick_Config(uint32_t ticks)
{
 8000e1c:	b580      	push	{r7, lr}
 8000e1e:	b082      	sub	sp, #8
 8000e20:	af00      	add	r7, sp, #0
 8000e22:	6078      	str	r0, [r7, #4]
  if ((ticks - 1UL) > SysTick_LOAD_RELOAD_Msk)
 8000e24:	687b      	ldr	r3, [r7, #4]
 8000e26:	3b01      	subs	r3, #1
 8000e28:	4a0c      	ldr	r2, [pc, #48]	; (8000e5c <SysTick_Config+0x40>)
 8000e2a:	4293      	cmp	r3, r2
 8000e2c:	d901      	bls.n	8000e32 <SysTick_Config+0x16>
  {
    return (1UL);                                                   /* Reload value impossible */
 8000e2e:	2301      	movs	r3, #1
 8000e30:	e010      	b.n	8000e54 <SysTick_Config+0x38>
  }

  SysTick->LOAD  = (uint32_t)(ticks - 1UL);                         /* set reload register */
 8000e32:	4b0b      	ldr	r3, [pc, #44]	; (8000e60 <SysTick_Config+0x44>)
 8000e34:	687a      	ldr	r2, [r7, #4]
 8000e36:	3a01      	subs	r2, #1
 8000e38:	605a      	str	r2, [r3, #4]
  NVIC_SetPriority (SysTick_IRQn, (1UL << __NVIC_PRIO_BITS) - 1UL); /* set Priority for Systick Interrupt */
 8000e3a:	2301      	movs	r3, #1
 8000e3c:	425b      	negs	r3, r3
 8000e3e:	2103      	movs	r1, #3
 8000e40:	0018      	movs	r0, r3
 8000e42:	f7ff ff7d 	bl	8000d40 <__NVIC_SetPriority>
  SysTick->VAL   = 0UL;                                             /* Load the SysTick Counter Value */
 8000e46:	4b06      	ldr	r3, [pc, #24]	; (8000e60 <SysTick_Config+0x44>)
 8000e48:	2200      	movs	r2, #0
 8000e4a:	609a      	str	r2, [r3, #8]
  SysTick->CTRL  = SysTick_CTRL_CLKSOURCE_Msk |
 8000e4c:	4b04      	ldr	r3, [pc, #16]	; (8000e60 <SysTick_Config+0x44>)
 8000e4e:	2207      	movs	r2, #7
 8000e50:	601a      	str	r2, [r3, #0]
                   SysTick_CTRL_TICKINT_Msk   |
                   SysTick_CTRL_ENABLE_Msk;                         /* Enable SysTick IRQ and SysTick Timer */
  return (0UL);                                                     /* Function successful */
 8000e52:	2300      	movs	r3, #0
}
 8000e54:	0018      	movs	r0, r3
 8000e56:	46bd      	mov	sp, r7
 8000e58:	b002      	add	sp, #8
 8000e5a:	bd80      	pop	{r7, pc}
 8000e5c:	00ffffff 	.word	0x00ffffff
 8000e60:	e000e010 	.word	0xe000e010

08000e64 <HAL_NVIC_SetPriority>:
  *         with stm32f0xx devices, this parameter is a dummy value and it is ignored, because 
  *         no subpriority supported in Cortex M0 based products.   
  * @retval None
  */
void HAL_NVIC_SetPriority(IRQn_Type IRQn, uint32_t PreemptPriority, uint32_t SubPriority)
{ 
 8000e64:	b580      	push	{r7, lr}
 8000e66:	b084      	sub	sp, #16
 8000e68:	af00      	add	r7, sp, #0
 8000e6a:	60b9      	str	r1, [r7, #8]
 8000e6c:	607a      	str	r2, [r7, #4]
 8000e6e:	210f      	movs	r1, #15
 8000e70:	187b      	adds	r3, r7, r1
 8000e72:	1c02      	adds	r2, r0, #0
 8000e74:	701a      	strb	r2, [r3, #0]
  /* Check the parameters */
  assert_param(IS_NVIC_PREEMPTION_PRIORITY(PreemptPriority));
  NVIC_SetPriority(IRQn,PreemptPriority);
 8000e76:	68ba      	ldr	r2, [r7, #8]
 8000e78:	187b      	adds	r3, r7, r1
 8000e7a:	781b      	ldrb	r3, [r3, #0]
 8000e7c:	b25b      	sxtb	r3, r3
 8000e7e:	0011      	movs	r1, r2
 8000e80:	0018      	movs	r0, r3
 8000e82:	f7ff ff5d 	bl	8000d40 <__NVIC_SetPriority>
}
 8000e86:	46c0      	nop			; (mov r8, r8)
 8000e88:	46bd      	mov	sp, r7
 8000e8a:	b004      	add	sp, #16
 8000e8c:	bd80      	pop	{r7, pc}

08000e8e <HAL_NVIC_EnableIRQ>:
  *         This parameter can be an enumerator of IRQn_Type enumeration
  *         (For the complete STM32 Devices IRQ Channels list, please refer to the appropriate CMSIS device file (stm32f0xxxx.h))
  * @retval None
  */
void HAL_NVIC_EnableIRQ(IRQn_Type IRQn)
{
 8000e8e:	b580      	push	{r7, lr}
 8000e90:	b082      	sub	sp, #8
 8000e92:	af00      	add	r7, sp, #0
 8000e94:	0002      	movs	r2, r0
 8000e96:	1dfb      	adds	r3, r7, #7
 8000e98:	701a      	strb	r2, [r3, #0]
  /* Check the parameters */
  assert_param(IS_NVIC_DEVICE_IRQ(IRQn));
  
  /* Enable interrupt */
  NVIC_EnableIRQ(IRQn);
 8000e9a:	1dfb      	adds	r3, r7, #7
 8000e9c:	781b      	ldrb	r3, [r3, #0]
 8000e9e:	b25b      	sxtb	r3, r3
 8000ea0:	0018      	movs	r0, r3
 8000ea2:	f7ff ff33 	bl	8000d0c <__NVIC_EnableIRQ>
}
 8000ea6:	46c0      	nop			; (mov r8, r8)
 8000ea8:	46bd      	mov	sp, r7
 8000eaa:	b002      	add	sp, #8
 8000eac:	bd80      	pop	{r7, pc}

08000eae <HAL_SYSTICK_Config>:
  * @param  TicksNumb Specifies the ticks Number of ticks between two interrupts.
  * @retval status:  - 0  Function succeeded.
  *                  - 1  Function failed.
  */
uint32_t HAL_SYSTICK_Config(uint32_t TicksNumb)
{
 8000eae:	b580      	push	{r7, lr}
 8000eb0:	b082      	sub	sp, #8
 8000eb2:	af00      	add	r7, sp, #0
 8000eb4:	6078      	str	r0, [r7, #4]
   return SysTick_Config(TicksNumb);
 8000eb6:	687b      	ldr	r3, [r7, #4]
 8000eb8:	0018      	movs	r0, r3
 8000eba:	f7ff ffaf 	bl	8000e1c <SysTick_Config>
 8000ebe:	0003      	movs	r3, r0
}
 8000ec0:	0018      	movs	r0, r3
 8000ec2:	46bd      	mov	sp, r7
 8000ec4:	b002      	add	sp, #8
 8000ec6:	bd80      	pop	{r7, pc}

08000ec8 <HAL_GPIO_Init>:
  * @param  GPIO_Init pointer to a GPIO_InitTypeDef structure that contains
  *         the configuration information for the specified GPIO peripheral.
  * @retval None
  */
void HAL_GPIO_Init(GPIO_TypeDef  *GPIOx, GPIO_InitTypeDef *GPIO_Init)
{ 
 8000ec8:	b580      	push	{r7, lr}
 8000eca:	b086      	sub	sp, #24
 8000ecc:	af00      	add	r7, sp, #0
 8000ece:	6078      	str	r0, [r7, #4]
 8000ed0:	6039      	str	r1, [r7, #0]
  uint32_t position = 0x00u;
 8000ed2:	2300      	movs	r3, #0
 8000ed4:	617b      	str	r3, [r7, #20]
  assert_param(IS_GPIO_PIN(GPIO_Init->Pin));
  assert_param(IS_GPIO_MODE(GPIO_Init->Mode));
  assert_param(IS_GPIO_PULL(GPIO_Init->Pull));

  /* Configure the port pins */
  while (((GPIO_Init->Pin) >> position) != 0x00u)
 8000ed6:	e14f      	b.n	8001178 <HAL_GPIO_Init+0x2b0>
  {
    /* Get current io position */
    iocurrent = (GPIO_Init->Pin) & (1uL << position);
 8000ed8:	683b      	ldr	r3, [r7, #0]
 8000eda:	681b      	ldr	r3, [r3, #0]
 8000edc:	2101      	movs	r1, #1
 8000ede:	697a      	ldr	r2, [r7, #20]
 8000ee0:	4091      	lsls	r1, r2
 8000ee2:	000a      	movs	r2, r1
 8000ee4:	4013      	ands	r3, r2
 8000ee6:	60fb      	str	r3, [r7, #12]

    if (iocurrent != 0x00u)
 8000ee8:	68fb      	ldr	r3, [r7, #12]
 8000eea:	2b00      	cmp	r3, #0
 8000eec:	d100      	bne.n	8000ef0 <HAL_GPIO_Init+0x28>
 8000eee:	e140      	b.n	8001172 <HAL_GPIO_Init+0x2aa>
    {
      /*--------------------- GPIO Mode Configuration ------------------------*/
      /* In case of Alternate function mode selection */
      if((GPIO_Init->Mode == GPIO_MODE_AF_PP) || (GPIO_Init->Mode == GPIO_MODE_AF_OD))
 8000ef0:	683b      	ldr	r3, [r7, #0]
 8000ef2:	685b      	ldr	r3, [r3, #4]
 8000ef4:	2b02      	cmp	r3, #2
 8000ef6:	d003      	beq.n	8000f00 <HAL_GPIO_Init+0x38>
 8000ef8:	683b      	ldr	r3, [r7, #0]
 8000efa:	685b      	ldr	r3, [r3, #4]
 8000efc:	2b12      	cmp	r3, #18
 8000efe:	d123      	bne.n	8000f48 <HAL_GPIO_Init+0x80>
        /* Check the Alternate function parameters */
        assert_param(IS_GPIO_AF_INSTANCE(GPIOx));
        assert_param(IS_GPIO_AF(GPIO_Init->Alternate));

        /* Configure Alternate function mapped with the current IO */
        temp = GPIOx->AFR[position >> 3u];
 8000f00:	697b      	ldr	r3, [r7, #20]
 8000f02:	08da      	lsrs	r2, r3, #3
 8000f04:	687b      	ldr	r3, [r7, #4]
 8000f06:	3208      	adds	r2, #8
 8000f08:	0092      	lsls	r2, r2, #2
 8000f0a:	58d3      	ldr	r3, [r2, r3]
 8000f0c:	613b      	str	r3, [r7, #16]
        temp &= ~(0xFu << ((position & 0x07u) * 4u));
 8000f0e:	697b      	ldr	r3, [r7, #20]
 8000f10:	2207      	movs	r2, #7
 8000f12:	4013      	ands	r3, r2
 8000f14:	009b      	lsls	r3, r3, #2
 8000f16:	220f      	movs	r2, #15
 8000f18:	409a      	lsls	r2, r3
 8000f1a:	0013      	movs	r3, r2
 8000f1c:	43da      	mvns	r2, r3
 8000f1e:	693b      	ldr	r3, [r7, #16]
 8000f20:	4013      	ands	r3, r2
 8000f22:	613b      	str	r3, [r7, #16]
        temp |= ((GPIO_Init->Alternate) << ((position & 0x07u) * 4u));
 8000f24:	683b      	ldr	r3, [r7, #0]
 8000f26:	691a      	ldr	r2, [r3, #16]
 8000f28:	697b      	ldr	r3, [r7, #20]
 8000f2a:	2107      	movs	r1, #7
 8000f2c:	400b      	ands	r3, r1
 8000f2e:	009b      	lsls	r3, r3, #2
 8000f30:	409a      	lsls	r2, r3
 8000f32:	0013      	movs	r3, r2
 8000f34:	693a      	ldr	r2, [r7, #16]
 8000f36:	4313      	orrs	r3, r2
 8000f38:	613b      	str	r3, [r7, #16]
        GPIOx->AFR[position >> 3u] = temp;
 8000f3a:	697b      	ldr	r3, [r7, #20]
 8000f3c:	08da      	lsrs	r2, r3, #3
 8000f3e:	687b      	ldr	r3, [r7, #4]
 8000f40:	3208      	adds	r2, #8
 8000f42:	0092      	lsls	r2, r2, #2
 8000f44:	6939      	ldr	r1, [r7, #16]
 8000f46:	50d1      	str	r1, [r2, r3]
      }

      /* Configure IO Direction mode (Input, Output, Alternate or Analog) */
      temp = GPIOx->MODER;
 8000f48:	687b      	ldr	r3, [r7, #4]
 8000f4a:	681b      	ldr	r3, [r3, #0]
 8000f4c:	613b      	str	r3, [r7, #16]
      temp &= ~(GPIO_MODER_MODER0 << (position * 2u));
 8000f4e:	697b      	ldr	r3, [r7, #20]
 8000f50:	005b      	lsls	r3, r3, #1
 8000f52:	2203      	movs	r2, #3
 8000f54:	409a      	lsls	r2, r3
 8000f56:	0013      	movs	r3, r2
 8000f58:	43da      	mvns	r2, r3
 8000f5a:	693b      	ldr	r3, [r7, #16]
 8000f5c:	4013      	ands	r3, r2
 8000f5e:	613b      	str	r3, [r7, #16]
      temp |= ((GPIO_Init->Mode & GPIO_MODE) << (position * 2u));
 8000f60:	683b      	ldr	r3, [r7, #0]
 8000f62:	685b      	ldr	r3, [r3, #4]
 8000f64:	2203      	movs	r2, #3
 8000f66:	401a      	ands	r2, r3
 8000f68:	697b      	ldr	r3, [r7, #20]
 8000f6a:	005b      	lsls	r3, r3, #1
 8000f6c:	409a      	lsls	r2, r3
 8000f6e:	0013      	movs	r3, r2
 8000f70:	693a      	ldr	r2, [r7, #16]
 8000f72:	4313      	orrs	r3, r2
 8000f74:	613b      	str	r3, [r7, #16]
      GPIOx->MODER = temp;
 8000f76:	687b      	ldr	r3, [r7, #4]
 8000f78:	693a      	ldr	r2, [r7, #16]
 8000f7a:	601a      	str	r2, [r3, #0]

      /* In case of Output or Alternate function mode selection */
      if((GPIO_Init->Mode == GPIO_MODE_OUTPUT_PP) || (GPIO_Init->Mode == GPIO_MODE_AF_PP) ||
 8000f7c:	683b      	ldr	r3, [r7, #0]
 8000f7e:	685b      	ldr	r3, [r3, #4]
 8000f80:	2b01      	cmp	r3, #1
 8000f82:	d00b      	beq.n	8000f9c <HAL_GPIO_Init+0xd4>
 8000f84:	683b      	ldr	r3, [r7, #0]
 8000f86:	685b      	ldr	r3, [r3, #4]
 8000f88:	2b02      	cmp	r3, #2
 8000f8a:	d007      	beq.n	8000f9c <HAL_GPIO_Init+0xd4>
         (GPIO_Init->Mode == GPIO_MODE_OUTPUT_OD) || (GPIO_Init->Mode == GPIO_MODE_AF_OD))
 8000f8c:	683b      	ldr	r3, [r7, #0]
 8000f8e:	685b      	ldr	r3, [r3, #4]
      if((GPIO_Init->Mode == GPIO_MODE_OUTPUT_PP) || (GPIO_Init->Mode == GPIO_MODE_AF_PP) ||
 8000f90:	2b11      	cmp	r3, #17
 8000f92:	d003      	beq.n	8000f9c <HAL_GPIO_Init+0xd4>
         (GPIO_Init->Mode == GPIO_MODE_OUTPUT_OD) || (GPIO_Init->Mode == GPIO_MODE_AF_OD))
 8000f94:	683b      	ldr	r3, [r7, #0]
 8000f96:	685b      	ldr	r3, [r3, #4]
 8000f98:	2b12      	cmp	r3, #18
 8000f9a:	d130      	bne.n	8000ffe <HAL_GPIO_Init+0x136>
      {
        /* Check the Speed parameter */
        assert_param(IS_GPIO_SPEED(GPIO_Init->Speed));
        /* Configure the IO Speed */
        temp = GPIOx->OSPEEDR;
 8000f9c:	687b      	ldr	r3, [r7, #4]
 8000f9e:	689b      	ldr	r3, [r3, #8]
 8000fa0:	613b      	str	r3, [r7, #16]
        temp &= ~(GPIO_OSPEEDER_OSPEEDR0 << (position * 2u));
 8000fa2:	697b      	ldr	r3, [r7, #20]
 8000fa4:	005b      	lsls	r3, r3, #1
 8000fa6:	2203      	movs	r2, #3
 8000fa8:	409a      	lsls	r2, r3
 8000faa:	0013      	movs	r3, r2
 8000fac:	43da      	mvns	r2, r3
 8000fae:	693b      	ldr	r3, [r7, #16]
 8000fb0:	4013      	ands	r3, r2
 8000fb2:	613b      	str	r3, [r7, #16]
        temp |= (GPIO_Init->Speed << (position * 2u));
 8000fb4:	683b      	ldr	r3, [r7, #0]
 8000fb6:	68da      	ldr	r2, [r3, #12]
 8000fb8:	697b      	ldr	r3, [r7, #20]
 8000fba:	005b      	lsls	r3, r3, #1
 8000fbc:	409a      	lsls	r2, r3
 8000fbe:	0013      	movs	r3, r2
 8000fc0:	693a      	ldr	r2, [r7, #16]
 8000fc2:	4313      	orrs	r3, r2
 8000fc4:	613b      	str	r3, [r7, #16]
        GPIOx->OSPEEDR = temp;
 8000fc6:	687b      	ldr	r3, [r7, #4]
 8000fc8:	693a      	ldr	r2, [r7, #16]
 8000fca:	609a      	str	r2, [r3, #8]

        /* Configure the IO Output Type */
        temp = GPIOx->OTYPER;
 8000fcc:	687b      	ldr	r3, [r7, #4]
 8000fce:	685b      	ldr	r3, [r3, #4]
 8000fd0:	613b      	str	r3, [r7, #16]
        temp &= ~(GPIO_OTYPER_OT_0 << position) ;
 8000fd2:	2201      	movs	r2, #1
 8000fd4:	697b      	ldr	r3, [r7, #20]
 8000fd6:	409a      	lsls	r2, r3
 8000fd8:	0013      	movs	r3, r2
 8000fda:	43da      	mvns	r2, r3
 8000fdc:	693b      	ldr	r3, [r7, #16]
 8000fde:	4013      	ands	r3, r2
 8000fe0:	613b      	str	r3, [r7, #16]
        temp |= (((GPIO_Init->Mode & GPIO_OUTPUT_TYPE) >> 4u) << position);
 8000fe2:	683b      	ldr	r3, [r7, #0]
 8000fe4:	685b      	ldr	r3, [r3, #4]
 8000fe6:	091b      	lsrs	r3, r3, #4
 8000fe8:	2201      	movs	r2, #1
 8000fea:	401a      	ands	r2, r3
 8000fec:	697b      	ldr	r3, [r7, #20]
 8000fee:	409a      	lsls	r2, r3
 8000ff0:	0013      	movs	r3, r2
 8000ff2:	693a      	ldr	r2, [r7, #16]
 8000ff4:	4313      	orrs	r3, r2
 8000ff6:	613b      	str	r3, [r7, #16]
        GPIOx->OTYPER = temp;
 8000ff8:	687b      	ldr	r3, [r7, #4]
 8000ffa:	693a      	ldr	r2, [r7, #16]
 8000ffc:	605a      	str	r2, [r3, #4]
      }

      /* Activate the Pull-up or Pull down resistor for the current IO */
      temp = GPIOx->PUPDR;
 8000ffe:	687b      	ldr	r3, [r7, #4]
 8001000:	68db      	ldr	r3, [r3, #12]
 8001002:	613b      	str	r3, [r7, #16]
      temp &= ~(GPIO_PUPDR_PUPDR0 << (position * 2u));
 8001004:	697b      	ldr	r3, [r7, #20]
 8001006:	005b      	lsls	r3, r3, #1
 8001008:	2203      	movs	r2, #3
 800100a:	409a      	lsls	r2, r3
 800100c:	0013      	movs	r3, r2
 800100e:	43da      	mvns	r2, r3
 8001010:	693b      	ldr	r3, [r7, #16]
 8001012:	4013      	ands	r3, r2
 8001014:	613b      	str	r3, [r7, #16]
      temp |= ((GPIO_Init->Pull) << (position * 2u));
 8001016:	683b      	ldr	r3, [r7, #0]
 8001018:	689a      	ldr	r2, [r3, #8]
 800101a:	697b      	ldr	r3, [r7, #20]
 800101c:	005b      	lsls	r3, r3, #1
 800101e:	409a      	lsls	r2, r3
 8001020:	0013      	movs	r3, r2
 8001022:	693a      	ldr	r2, [r7, #16]
 8001024:	4313      	orrs	r3, r2
 8001026:	613b      	str	r3, [r7, #16]
      GPIOx->PUPDR = temp;
 8001028:	687b      	ldr	r3, [r7, #4]
 800102a:	693a      	ldr	r2, [r7, #16]
 800102c:	60da      	str	r2, [r3, #12]

      /*--------------------- EXTI Mode Configuration ------------------------*/
      /* Configure the External Interrupt or event for the current IO */
      if((GPIO_Init->Mode & EXTI_MODE) == EXTI_MODE)
 800102e:	683b      	ldr	r3, [r7, #0]
 8001030:	685a      	ldr	r2, [r3, #4]
 8001032:	2380      	movs	r3, #128	; 0x80
 8001034:	055b      	lsls	r3, r3, #21
 8001036:	4013      	ands	r3, r2
 8001038:	d100      	bne.n	800103c <HAL_GPIO_Init+0x174>
 800103a:	e09a      	b.n	8001172 <HAL_GPIO_Init+0x2aa>
      {
        /* Enable SYSCFG Clock */
        __HAL_RCC_SYSCFG_CLK_ENABLE();
 800103c:	4b54      	ldr	r3, [pc, #336]	; (8001190 <HAL_GPIO_Init+0x2c8>)
 800103e:	699a      	ldr	r2, [r3, #24]
 8001040:	4b53      	ldr	r3, [pc, #332]	; (8001190 <HAL_GPIO_Init+0x2c8>)
 8001042:	2101      	movs	r1, #1
 8001044:	430a      	orrs	r2, r1
 8001046:	619a      	str	r2, [r3, #24]
 8001048:	4b51      	ldr	r3, [pc, #324]	; (8001190 <HAL_GPIO_Init+0x2c8>)
 800104a:	699b      	ldr	r3, [r3, #24]
 800104c:	2201      	movs	r2, #1
 800104e:	4013      	ands	r3, r2
 8001050:	60bb      	str	r3, [r7, #8]
 8001052:	68bb      	ldr	r3, [r7, #8]

        temp = SYSCFG->EXTICR[position >> 2u];
 8001054:	4a4f      	ldr	r2, [pc, #316]	; (8001194 <HAL_GPIO_Init+0x2cc>)
 8001056:	697b      	ldr	r3, [r7, #20]
 8001058:	089b      	lsrs	r3, r3, #2
 800105a:	3302      	adds	r3, #2
 800105c:	009b      	lsls	r3, r3, #2
 800105e:	589b      	ldr	r3, [r3, r2]
 8001060:	613b      	str	r3, [r7, #16]
        temp &= ~(0x0FuL << (4u * (position & 0x03u)));
 8001062:	697b      	ldr	r3, [r7, #20]
 8001064:	2203      	movs	r2, #3
 8001066:	4013      	ands	r3, r2
 8001068:	009b      	lsls	r3, r3, #2
 800106a:	220f      	movs	r2, #15
 800106c:	409a      	lsls	r2, r3
 800106e:	0013      	movs	r3, r2
 8001070:	43da      	mvns	r2, r3
 8001072:	693b      	ldr	r3, [r7, #16]
 8001074:	4013      	ands	r3, r2
 8001076:	613b      	str	r3, [r7, #16]
        temp |= (GPIO_GET_INDEX(GPIOx) << (4u * (position & 0x03u)));
 8001078:	687a      	ldr	r2, [r7, #4]
 800107a:	2390      	movs	r3, #144	; 0x90
 800107c:	05db      	lsls	r3, r3, #23
 800107e:	429a      	cmp	r2, r3
 8001080:	d013      	beq.n	80010aa <HAL_GPIO_Init+0x1e2>
 8001082:	687b      	ldr	r3, [r7, #4]
 8001084:	4a44      	ldr	r2, [pc, #272]	; (8001198 <HAL_GPIO_Init+0x2d0>)
 8001086:	4293      	cmp	r3, r2
 8001088:	d00d      	beq.n	80010a6 <HAL_GPIO_Init+0x1de>
 800108a:	687b      	ldr	r3, [r7, #4]
 800108c:	4a43      	ldr	r2, [pc, #268]	; (800119c <HAL_GPIO_Init+0x2d4>)
 800108e:	4293      	cmp	r3, r2
 8001090:	d007      	beq.n	80010a2 <HAL_GPIO_Init+0x1da>
 8001092:	687b      	ldr	r3, [r7, #4]
 8001094:	4a42      	ldr	r2, [pc, #264]	; (80011a0 <HAL_GPIO_Init+0x2d8>)
 8001096:	4293      	cmp	r3, r2
 8001098:	d101      	bne.n	800109e <HAL_GPIO_Init+0x1d6>
 800109a:	2303      	movs	r3, #3
 800109c:	e006      	b.n	80010ac <HAL_GPIO_Init+0x1e4>
 800109e:	2305      	movs	r3, #5
 80010a0:	e004      	b.n	80010ac <HAL_GPIO_Init+0x1e4>
 80010a2:	2302      	movs	r3, #2
 80010a4:	e002      	b.n	80010ac <HAL_GPIO_Init+0x1e4>
 80010a6:	2301      	movs	r3, #1
 80010a8:	e000      	b.n	80010ac <HAL_GPIO_Init+0x1e4>
 80010aa:	2300      	movs	r3, #0
 80010ac:	697a      	ldr	r2, [r7, #20]
 80010ae:	2103      	movs	r1, #3
 80010b0:	400a      	ands	r2, r1
 80010b2:	0092      	lsls	r2, r2, #2
 80010b4:	4093      	lsls	r3, r2
 80010b6:	693a      	ldr	r2, [r7, #16]
 80010b8:	4313      	orrs	r3, r2
 80010ba:	613b      	str	r3, [r7, #16]
        SYSCFG->EXTICR[position >> 2u] = temp;
 80010bc:	4935      	ldr	r1, [pc, #212]	; (8001194 <HAL_GPIO_Init+0x2cc>)
 80010be:	697b      	ldr	r3, [r7, #20]
 80010c0:	089b      	lsrs	r3, r3, #2
 80010c2:	3302      	adds	r3, #2
 80010c4:	009b      	lsls	r3, r3, #2
 80010c6:	693a      	ldr	r2, [r7, #16]
 80010c8:	505a      	str	r2, [r3, r1]

        /* Clear EXTI line configuration */
        temp = EXTI->IMR;
 80010ca:	4b36      	ldr	r3, [pc, #216]	; (80011a4 <HAL_GPIO_Init+0x2dc>)
 80010cc:	681b      	ldr	r3, [r3, #0]
 80010ce:	613b      	str	r3, [r7, #16]
        temp &= ~(iocurrent);
 80010d0:	68fb      	ldr	r3, [r7, #12]
 80010d2:	43da      	mvns	r2, r3
 80010d4:	693b      	ldr	r3, [r7, #16]
 80010d6:	4013      	ands	r3, r2
 80010d8:	613b      	str	r3, [r7, #16]
        if((GPIO_Init->Mode & GPIO_MODE_IT) == GPIO_MODE_IT)
 80010da:	683b      	ldr	r3, [r7, #0]
 80010dc:	685a      	ldr	r2, [r3, #4]
 80010de:	2380      	movs	r3, #128	; 0x80
 80010e0:	025b      	lsls	r3, r3, #9
 80010e2:	4013      	ands	r3, r2
 80010e4:	d003      	beq.n	80010ee <HAL_GPIO_Init+0x226>
        {
          temp |= iocurrent;
 80010e6:	693a      	ldr	r2, [r7, #16]
 80010e8:	68fb      	ldr	r3, [r7, #12]
 80010ea:	4313      	orrs	r3, r2
 80010ec:	613b      	str	r3, [r7, #16]
        }
        EXTI->IMR = temp;
 80010ee:	4b2d      	ldr	r3, [pc, #180]	; (80011a4 <HAL_GPIO_Init+0x2dc>)
 80010f0:	693a      	ldr	r2, [r7, #16]
 80010f2:	601a      	str	r2, [r3, #0]

        temp = EXTI->EMR;
 80010f4:	4b2b      	ldr	r3, [pc, #172]	; (80011a4 <HAL_GPIO_Init+0x2dc>)
 80010f6:	685b      	ldr	r3, [r3, #4]
 80010f8:	613b      	str	r3, [r7, #16]
        temp &= ~(iocurrent);
 80010fa:	68fb      	ldr	r3, [r7, #12]
 80010fc:	43da      	mvns	r2, r3
 80010fe:	693b      	ldr	r3, [r7, #16]
 8001100:	4013      	ands	r3, r2
 8001102:	613b      	str	r3, [r7, #16]
        if((GPIO_Init->Mode & GPIO_MODE_EVT) == GPIO_MODE_EVT)
 8001104:	683b      	ldr	r3, [r7, #0]
 8001106:	685a      	ldr	r2, [r3, #4]
 8001108:	2380      	movs	r3, #128	; 0x80
 800110a:	029b      	lsls	r3, r3, #10
 800110c:	4013      	ands	r3, r2
 800110e:	d003      	beq.n	8001118 <HAL_GPIO_Init+0x250>
        {
          temp |= iocurrent;
 8001110:	693a      	ldr	r2, [r7, #16]
 8001112:	68fb      	ldr	r3, [r7, #12]
 8001114:	4313      	orrs	r3, r2
 8001116:	613b      	str	r3, [r7, #16]
        }
        EXTI->EMR = temp;
 8001118:	4b22      	ldr	r3, [pc, #136]	; (80011a4 <HAL_GPIO_Init+0x2dc>)
 800111a:	693a      	ldr	r2, [r7, #16]
 800111c:	605a      	str	r2, [r3, #4]

        /* Clear Rising Falling edge configuration */
        temp = EXTI->RTSR;
 800111e:	4b21      	ldr	r3, [pc, #132]	; (80011a4 <HAL_GPIO_Init+0x2dc>)
 8001120:	689b      	ldr	r3, [r3, #8]
 8001122:	613b      	str	r3, [r7, #16]
        temp &= ~(iocurrent);
 8001124:	68fb      	ldr	r3, [r7, #12]
 8001126:	43da      	mvns	r2, r3
 8001128:	693b      	ldr	r3, [r7, #16]
 800112a:	4013      	ands	r3, r2
 800112c:	613b      	str	r3, [r7, #16]
        if((GPIO_Init->Mode & RISING_EDGE) == RISING_EDGE)
 800112e:	683b      	ldr	r3, [r7, #0]
 8001130:	685a      	ldr	r2, [r3, #4]
 8001132:	2380      	movs	r3, #128	; 0x80
 8001134:	035b      	lsls	r3, r3, #13
 8001136:	4013      	ands	r3, r2
 8001138:	d003      	beq.n	8001142 <HAL_GPIO_Init+0x27a>
        {
          temp |= iocurrent;
 800113a:	693a      	ldr	r2, [r7, #16]
 800113c:	68fb      	ldr	r3, [r7, #12]
 800113e:	4313      	orrs	r3, r2
 8001140:	613b      	str	r3, [r7, #16]
        }
        EXTI->RTSR = temp;
 8001142:	4b18      	ldr	r3, [pc, #96]	; (80011a4 <HAL_GPIO_Init+0x2dc>)
 8001144:	693a      	ldr	r2, [r7, #16]
 8001146:	609a      	str	r2, [r3, #8]

        temp = EXTI->FTSR;
 8001148:	4b16      	ldr	r3, [pc, #88]	; (80011a4 <HAL_GPIO_Init+0x2dc>)
 800114a:	68db      	ldr	r3, [r3, #12]
 800114c:	613b      	str	r3, [r7, #16]
        temp &= ~(iocurrent);
 800114e:	68fb      	ldr	r3, [r7, #12]
 8001150:	43da      	mvns	r2, r3
 8001152:	693b      	ldr	r3, [r7, #16]
 8001154:	4013      	ands	r3, r2
 8001156:	613b      	str	r3, [r7, #16]
        if((GPIO_Init->Mode & FALLING_EDGE) == FALLING_EDGE)
 8001158:	683b      	ldr	r3, [r7, #0]
 800115a:	685a      	ldr	r2, [r3, #4]
 800115c:	2380      	movs	r3, #128	; 0x80
 800115e:	039b      	lsls	r3, r3, #14
 8001160:	4013      	ands	r3, r2
 8001162:	d003      	beq.n	800116c <HAL_GPIO_Init+0x2a4>
        {
          temp |= iocurrent;
 8001164:	693a      	ldr	r2, [r7, #16]
 8001166:	68fb      	ldr	r3, [r7, #12]
 8001168:	4313      	orrs	r3, r2
 800116a:	613b      	str	r3, [r7, #16]
        }
        EXTI->FTSR = temp;
 800116c:	4b0d      	ldr	r3, [pc, #52]	; (80011a4 <HAL_GPIO_Init+0x2dc>)
 800116e:	693a      	ldr	r2, [r7, #16]
 8001170:	60da      	str	r2, [r3, #12]
      }
    }

    position++;
 8001172:	697b      	ldr	r3, [r7, #20]
 8001174:	3301      	adds	r3, #1
 8001176:	617b      	str	r3, [r7, #20]
  while (((GPIO_Init->Pin) >> position) != 0x00u)
 8001178:	683b      	ldr	r3, [r7, #0]
 800117a:	681a      	ldr	r2, [r3, #0]
 800117c:	697b      	ldr	r3, [r7, #20]
 800117e:	40da      	lsrs	r2, r3
 8001180:	1e13      	subs	r3, r2, #0
 8001182:	d000      	beq.n	8001186 <HAL_GPIO_Init+0x2be>
 8001184:	e6a8      	b.n	8000ed8 <HAL_GPIO_Init+0x10>
  } 
}
 8001186:	46c0      	nop			; (mov r8, r8)
 8001188:	46bd      	mov	sp, r7
 800118a:	b006      	add	sp, #24
 800118c:	bd80      	pop	{r7, pc}
 800118e:	46c0      	nop			; (mov r8, r8)
 8001190:	40021000 	.word	0x40021000
 8001194:	40010000 	.word	0x40010000
 8001198:	48000400 	.word	0x48000400
 800119c:	48000800 	.word	0x48000800
 80011a0:	48000c00 	.word	0x48000c00
 80011a4:	40010400 	.word	0x40010400

080011a8 <HAL_GPIO_WritePin>:
  *            @arg GPIO_PIN_RESET: to clear the port pin
  *            @arg GPIO_PIN_SET: to set the port pin
  * @retval None
  */
void HAL_GPIO_WritePin(GPIO_TypeDef* GPIOx, uint16_t GPIO_Pin, GPIO_PinState PinState)
{
 80011a8:	b580      	push	{r7, lr}
 80011aa:	b082      	sub	sp, #8
 80011ac:	af00      	add	r7, sp, #0
 80011ae:	6078      	str	r0, [r7, #4]
 80011b0:	0008      	movs	r0, r1
 80011b2:	0011      	movs	r1, r2
 80011b4:	1cbb      	adds	r3, r7, #2
 80011b6:	1c02      	adds	r2, r0, #0
 80011b8:	801a      	strh	r2, [r3, #0]
 80011ba:	1c7b      	adds	r3, r7, #1
 80011bc:	1c0a      	adds	r2, r1, #0
 80011be:	701a      	strb	r2, [r3, #0]
  /* Check the parameters */
  assert_param(IS_GPIO_PIN(GPIO_Pin));
  assert_param(IS_GPIO_PIN_ACTION(PinState));

  if (PinState != GPIO_PIN_RESET)
 80011c0:	1c7b      	adds	r3, r7, #1
 80011c2:	781b      	ldrb	r3, [r3, #0]
 80011c4:	2b00      	cmp	r3, #0
 80011c6:	d004      	beq.n	80011d2 <HAL_GPIO_WritePin+0x2a>
  {
    GPIOx->BSRR = (uint32_t)GPIO_Pin;
 80011c8:	1cbb      	adds	r3, r7, #2
 80011ca:	881a      	ldrh	r2, [r3, #0]
 80011cc:	687b      	ldr	r3, [r7, #4]
 80011ce:	619a      	str	r2, [r3, #24]
  }
  else
  {
    GPIOx->BRR = (uint32_t)GPIO_Pin;
  }
}
 80011d0:	e003      	b.n	80011da <HAL_GPIO_WritePin+0x32>
    GPIOx->BRR = (uint32_t)GPIO_Pin;
 80011d2:	1cbb      	adds	r3, r7, #2
 80011d4:	881a      	ldrh	r2, [r3, #0]
 80011d6:	687b      	ldr	r3, [r7, #4]
 80011d8:	629a      	str	r2, [r3, #40]	; 0x28
}
 80011da:	46c0      	nop			; (mov r8, r8)
 80011dc:	46bd      	mov	sp, r7
 80011de:	b002      	add	sp, #8
 80011e0:	bd80      	pop	{r7, pc}

080011e2 <HAL_GPIO_TogglePin>:
  * @param  GPIOx where x can be (A..F) to select the GPIO peripheral for STM32F0 family
  * @param  GPIO_Pin specifies the pin to be toggled.
  * @retval None
  */
void HAL_GPIO_TogglePin(GPIO_TypeDef* GPIOx, uint16_t GPIO_Pin)
{
 80011e2:	b580      	push	{r7, lr}
 80011e4:	b082      	sub	sp, #8
 80011e6:	af00      	add	r7, sp, #0
 80011e8:	6078      	str	r0, [r7, #4]
 80011ea:	000a      	movs	r2, r1
 80011ec:	1cbb      	adds	r3, r7, #2
 80011ee:	801a      	strh	r2, [r3, #0]
  /* Check the parameters */
  assert_param(IS_GPIO_PIN(GPIO_Pin));

  if ((GPIOx->ODR & GPIO_Pin) != 0X00u)
 80011f0:	687b      	ldr	r3, [r7, #4]
 80011f2:	695b      	ldr	r3, [r3, #20]
 80011f4:	1cba      	adds	r2, r7, #2
 80011f6:	8812      	ldrh	r2, [r2, #0]
 80011f8:	4013      	ands	r3, r2
 80011fa:	d005      	beq.n	8001208 <HAL_GPIO_TogglePin+0x26>
  {
    GPIOx->BSRR = (uint32_t)GPIO_Pin << GPIO_NUMBER;
 80011fc:	1cbb      	adds	r3, r7, #2
 80011fe:	881b      	ldrh	r3, [r3, #0]
 8001200:	041a      	lsls	r2, r3, #16
 8001202:	687b      	ldr	r3, [r7, #4]
 8001204:	619a      	str	r2, [r3, #24]
  }
  else
  {
    GPIOx->BSRR = (uint32_t)GPIO_Pin;
  }
}
 8001206:	e003      	b.n	8001210 <HAL_GPIO_TogglePin+0x2e>
    GPIOx->BSRR = (uint32_t)GPIO_Pin;
 8001208:	1cbb      	adds	r3, r7, #2
 800120a:	881a      	ldrh	r2, [r3, #0]
 800120c:	687b      	ldr	r3, [r7, #4]
 800120e:	619a      	str	r2, [r3, #24]
}
 8001210:	46c0      	nop			; (mov r8, r8)
 8001212:	46bd      	mov	sp, r7
 8001214:	b002      	add	sp, #8
 8001216:	bd80      	pop	{r7, pc}

08001218 <HAL_GPIO_EXTI_IRQHandler>:
  * @brief  Handle EXTI interrupt request.
  * @param  GPIO_Pin Specifies the port pin connected to corresponding EXTI line.
  * @retval None
  */
void HAL_GPIO_EXTI_IRQHandler(uint16_t GPIO_Pin)
{
 8001218:	b580      	push	{r7, lr}
 800121a:	b082      	sub	sp, #8
 800121c:	af00      	add	r7, sp, #0
 800121e:	0002      	movs	r2, r0
 8001220:	1dbb      	adds	r3, r7, #6
 8001222:	801a      	strh	r2, [r3, #0]
  /* EXTI line interrupt detected */
  if(__HAL_GPIO_EXTI_GET_IT(GPIO_Pin) != 0x00u)
 8001224:	4b09      	ldr	r3, [pc, #36]	; (800124c <HAL_GPIO_EXTI_IRQHandler+0x34>)
 8001226:	695b      	ldr	r3, [r3, #20]
 8001228:	1dba      	adds	r2, r7, #6
 800122a:	8812      	ldrh	r2, [r2, #0]
 800122c:	4013      	ands	r3, r2
 800122e:	d008      	beq.n	8001242 <HAL_GPIO_EXTI_IRQHandler+0x2a>
  { 
    __HAL_GPIO_EXTI_CLEAR_IT(GPIO_Pin);
 8001230:	4b06      	ldr	r3, [pc, #24]	; (800124c <HAL_GPIO_EXTI_IRQHandler+0x34>)
 8001232:	1dba      	adds	r2, r7, #6
 8001234:	8812      	ldrh	r2, [r2, #0]
 8001236:	615a      	str	r2, [r3, #20]
    HAL_GPIO_EXTI_Callback(GPIO_Pin);
 8001238:	1dbb      	adds	r3, r7, #6
 800123a:	881b      	ldrh	r3, [r3, #0]
 800123c:	0018      	movs	r0, r3
 800123e:	f000 f807 	bl	8001250 <HAL_GPIO_EXTI_Callback>
  }
}
 8001242:	46c0      	nop			; (mov r8, r8)
 8001244:	46bd      	mov	sp, r7
 8001246:	b002      	add	sp, #8
 8001248:	bd80      	pop	{r7, pc}
 800124a:	46c0      	nop			; (mov r8, r8)
 800124c:	40010400 	.word	0x40010400

08001250 <HAL_GPIO_EXTI_Callback>:
  * @brief  EXTI line detection callback.
  * @param  GPIO_Pin Specifies the port pin connected to corresponding EXTI line.
  * @retval None
  */
__weak void HAL_GPIO_EXTI_Callback(uint16_t GPIO_Pin)
{
 8001250:	b580      	push	{r7, lr}
 8001252:	b082      	sub	sp, #8
 8001254:	af00      	add	r7, sp, #0
 8001256:	0002      	movs	r2, r0
 8001258:	1dbb      	adds	r3, r7, #6
 800125a:	801a      	strh	r2, [r3, #0]
  UNUSED(GPIO_Pin);

  /* NOTE: This function should not be modified, when the callback is needed,
            the HAL_GPIO_EXTI_Callback could be implemented in the user file
   */ 
}
 800125c:	46c0      	nop			; (mov r8, r8)
 800125e:	46bd      	mov	sp, r7
 8001260:	b002      	add	sp, #8
 8001262:	bd80      	pop	{r7, pc}

08001264 <HAL_RCC_OscConfig>:
  *         supported by this macro. User should request a transition to HSE Off
  *         first and then HSE On or HSE Bypass.
  * @retval HAL status
  */
HAL_StatusTypeDef HAL_RCC_OscConfig(RCC_OscInitTypeDef  *RCC_OscInitStruct)
{
 8001264:	b580      	push	{r7, lr}
 8001266:	b088      	sub	sp, #32
 8001268:	af00      	add	r7, sp, #0
 800126a:	6078      	str	r0, [r7, #4]
  uint32_t tickstart;
  uint32_t pll_config;
  uint32_t pll_config2;

  /* Check Null pointer */
  if(RCC_OscInitStruct == NULL)
 800126c:	687b      	ldr	r3, [r7, #4]
 800126e:	2b00      	cmp	r3, #0
 8001270:	d101      	bne.n	8001276 <HAL_RCC_OscConfig+0x12>
  {
    return HAL_ERROR;
 8001272:	2301      	movs	r3, #1
 8001274:	e303      	b.n	800187e <HAL_RCC_OscConfig+0x61a>

  /* Check the parameters */
  assert_param(IS_RCC_OSCILLATORTYPE(RCC_OscInitStruct->OscillatorType));

  /*------------------------------- HSE Configuration ------------------------*/ 
  if(((RCC_OscInitStruct->OscillatorType) & RCC_OSCILLATORTYPE_HSE) == RCC_OSCILLATORTYPE_HSE)
 8001276:	687b      	ldr	r3, [r7, #4]
 8001278:	681b      	ldr	r3, [r3, #0]
 800127a:	2201      	movs	r2, #1
 800127c:	4013      	ands	r3, r2
 800127e:	d100      	bne.n	8001282 <HAL_RCC_OscConfig+0x1e>
 8001280:	e08d      	b.n	800139e <HAL_RCC_OscConfig+0x13a>
  {
    /* Check the parameters */
    assert_param(IS_RCC_HSE(RCC_OscInitStruct->HSEState));

    /* When the HSE is used as system clock or clock source for PLL in these cases it is not allowed to be disabled */
    if((__HAL_RCC_GET_SYSCLK_SOURCE() == RCC_SYSCLKSOURCE_STATUS_HSE) 
 8001282:	4bc4      	ldr	r3, [pc, #784]	; (8001594 <HAL_RCC_OscConfig+0x330>)
 8001284:	685b      	ldr	r3, [r3, #4]
 8001286:	220c      	movs	r2, #12
 8001288:	4013      	ands	r3, r2
 800128a:	2b04      	cmp	r3, #4
 800128c:	d00e      	beq.n	80012ac <HAL_RCC_OscConfig+0x48>
       || ((__HAL_RCC_GET_SYSCLK_SOURCE() == RCC_SYSCLKSOURCE_STATUS_PLLCLK) && (__HAL_RCC_GET_PLL_OSCSOURCE() == RCC_PLLSOURCE_HSE)))
 800128e:	4bc1      	ldr	r3, [pc, #772]	; (8001594 <HAL_RCC_OscConfig+0x330>)
 8001290:	685b      	ldr	r3, [r3, #4]
 8001292:	220c      	movs	r2, #12
 8001294:	4013      	ands	r3, r2
 8001296:	2b08      	cmp	r3, #8
 8001298:	d116      	bne.n	80012c8 <HAL_RCC_OscConfig+0x64>
 800129a:	4bbe      	ldr	r3, [pc, #760]	; (8001594 <HAL_RCC_OscConfig+0x330>)
 800129c:	685a      	ldr	r2, [r3, #4]
 800129e:	2380      	movs	r3, #128	; 0x80
 80012a0:	025b      	lsls	r3, r3, #9
 80012a2:	401a      	ands	r2, r3
 80012a4:	2380      	movs	r3, #128	; 0x80
 80012a6:	025b      	lsls	r3, r3, #9
 80012a8:	429a      	cmp	r2, r3
 80012aa:	d10d      	bne.n	80012c8 <HAL_RCC_OscConfig+0x64>
    {
      if((__HAL_RCC_GET_FLAG(RCC_FLAG_HSERDY) != RESET) && (RCC_OscInitStruct->HSEState == RCC_HSE_OFF))
 80012ac:	4bb9      	ldr	r3, [pc, #740]	; (8001594 <HAL_RCC_OscConfig+0x330>)
 80012ae:	681a      	ldr	r2, [r3, #0]
 80012b0:	2380      	movs	r3, #128	; 0x80
 80012b2:	029b      	lsls	r3, r3, #10
 80012b4:	4013      	ands	r3, r2
 80012b6:	d100      	bne.n	80012ba <HAL_RCC_OscConfig+0x56>
 80012b8:	e070      	b.n	800139c <HAL_RCC_OscConfig+0x138>
 80012ba:	687b      	ldr	r3, [r7, #4]
 80012bc:	685b      	ldr	r3, [r3, #4]
 80012be:	2b00      	cmp	r3, #0
 80012c0:	d000      	beq.n	80012c4 <HAL_RCC_OscConfig+0x60>
 80012c2:	e06b      	b.n	800139c <HAL_RCC_OscConfig+0x138>
      {
        return HAL_ERROR;
 80012c4:	2301      	movs	r3, #1
 80012c6:	e2da      	b.n	800187e <HAL_RCC_OscConfig+0x61a>
      }
    }
    else
    {
      /* Set the new HSE configuration ---------------------------------------*/
      __HAL_RCC_HSE_CONFIG(RCC_OscInitStruct->HSEState);
 80012c8:	687b      	ldr	r3, [r7, #4]
 80012ca:	685b      	ldr	r3, [r3, #4]
 80012cc:	2b01      	cmp	r3, #1
 80012ce:	d107      	bne.n	80012e0 <HAL_RCC_OscConfig+0x7c>
 80012d0:	4bb0      	ldr	r3, [pc, #704]	; (8001594 <HAL_RCC_OscConfig+0x330>)
 80012d2:	681a      	ldr	r2, [r3, #0]
 80012d4:	4baf      	ldr	r3, [pc, #700]	; (8001594 <HAL_RCC_OscConfig+0x330>)
 80012d6:	2180      	movs	r1, #128	; 0x80
 80012d8:	0249      	lsls	r1, r1, #9
 80012da:	430a      	orrs	r2, r1
 80012dc:	601a      	str	r2, [r3, #0]
 80012de:	e02f      	b.n	8001340 <HAL_RCC_OscConfig+0xdc>
 80012e0:	687b      	ldr	r3, [r7, #4]
 80012e2:	685b      	ldr	r3, [r3, #4]
 80012e4:	2b00      	cmp	r3, #0
 80012e6:	d10c      	bne.n	8001302 <HAL_RCC_OscConfig+0x9e>
 80012e8:	4baa      	ldr	r3, [pc, #680]	; (8001594 <HAL_RCC_OscConfig+0x330>)
 80012ea:	681a      	ldr	r2, [r3, #0]
 80012ec:	4ba9      	ldr	r3, [pc, #676]	; (8001594 <HAL_RCC_OscConfig+0x330>)
 80012ee:	49aa      	ldr	r1, [pc, #680]	; (8001598 <HAL_RCC_OscConfig+0x334>)
 80012f0:	400a      	ands	r2, r1
 80012f2:	601a      	str	r2, [r3, #0]
 80012f4:	4ba7      	ldr	r3, [pc, #668]	; (8001594 <HAL_RCC_OscConfig+0x330>)
 80012f6:	681a      	ldr	r2, [r3, #0]
 80012f8:	4ba6      	ldr	r3, [pc, #664]	; (8001594 <HAL_RCC_OscConfig+0x330>)
 80012fa:	49a8      	ldr	r1, [pc, #672]	; (800159c <HAL_RCC_OscConfig+0x338>)
 80012fc:	400a      	ands	r2, r1
 80012fe:	601a      	str	r2, [r3, #0]
 8001300:	e01e      	b.n	8001340 <HAL_RCC_OscConfig+0xdc>
 8001302:	687b      	ldr	r3, [r7, #4]
 8001304:	685b      	ldr	r3, [r3, #4]
 8001306:	2b05      	cmp	r3, #5
 8001308:	d10e      	bne.n	8001328 <HAL_RCC_OscConfig+0xc4>
 800130a:	4ba2      	ldr	r3, [pc, #648]	; (8001594 <HAL_RCC_OscConfig+0x330>)
 800130c:	681a      	ldr	r2, [r3, #0]
 800130e:	4ba1      	ldr	r3, [pc, #644]	; (8001594 <HAL_RCC_OscConfig+0x330>)
 8001310:	2180      	movs	r1, #128	; 0x80
 8001312:	02c9      	lsls	r1, r1, #11
 8001314:	430a      	orrs	r2, r1
 8001316:	601a      	str	r2, [r3, #0]
 8001318:	4b9e      	ldr	r3, [pc, #632]	; (8001594 <HAL_RCC_OscConfig+0x330>)
 800131a:	681a      	ldr	r2, [r3, #0]
 800131c:	4b9d      	ldr	r3, [pc, #628]	; (8001594 <HAL_RCC_OscConfig+0x330>)
 800131e:	2180      	movs	r1, #128	; 0x80
 8001320:	0249      	lsls	r1, r1, #9
 8001322:	430a      	orrs	r2, r1
 8001324:	601a      	str	r2, [r3, #0]
 8001326:	e00b      	b.n	8001340 <HAL_RCC_OscConfig+0xdc>
 8001328:	4b9a      	ldr	r3, [pc, #616]	; (8001594 <HAL_RCC_OscConfig+0x330>)
 800132a:	681a      	ldr	r2, [r3, #0]
 800132c:	4b99      	ldr	r3, [pc, #612]	; (8001594 <HAL_RCC_OscConfig+0x330>)
 800132e:	499a      	ldr	r1, [pc, #616]	; (8001598 <HAL_RCC_OscConfig+0x334>)
 8001330:	400a      	ands	r2, r1
 8001332:	601a      	str	r2, [r3, #0]
 8001334:	4b97      	ldr	r3, [pc, #604]	; (8001594 <HAL_RCC_OscConfig+0x330>)
 8001336:	681a      	ldr	r2, [r3, #0]
 8001338:	4b96      	ldr	r3, [pc, #600]	; (8001594 <HAL_RCC_OscConfig+0x330>)
 800133a:	4998      	ldr	r1, [pc, #608]	; (800159c <HAL_RCC_OscConfig+0x338>)
 800133c:	400a      	ands	r2, r1
 800133e:	601a      	str	r2, [r3, #0]
      

       /* Check the HSE State */
      if(RCC_OscInitStruct->HSEState != RCC_HSE_OFF)
 8001340:	687b      	ldr	r3, [r7, #4]
 8001342:	685b      	ldr	r3, [r3, #4]
 8001344:	2b00      	cmp	r3, #0
 8001346:	d014      	beq.n	8001372 <HAL_RCC_OscConfig+0x10e>
      {
        /* Get Start Tick */
        tickstart = HAL_GetTick();
 8001348:	f7ff fcd6 	bl	8000cf8 <HAL_GetTick>
 800134c:	0003      	movs	r3, r0
 800134e:	61bb      	str	r3, [r7, #24]
        
        /* Wait till HSE is ready */
        while(__HAL_RCC_GET_FLAG(RCC_FLAG_HSERDY) == RESET)
 8001350:	e008      	b.n	8001364 <HAL_RCC_OscConfig+0x100>
        {
          if((HAL_GetTick() - tickstart ) > HSE_TIMEOUT_VALUE)
 8001352:	f7ff fcd1 	bl	8000cf8 <HAL_GetTick>
 8001356:	0002      	movs	r2, r0
 8001358:	69bb      	ldr	r3, [r7, #24]
 800135a:	1ad3      	subs	r3, r2, r3
 800135c:	2b64      	cmp	r3, #100	; 0x64
 800135e:	d901      	bls.n	8001364 <HAL_RCC_OscConfig+0x100>
          {
            return HAL_TIMEOUT;
 8001360:	2303      	movs	r3, #3
 8001362:	e28c      	b.n	800187e <HAL_RCC_OscConfig+0x61a>
        while(__HAL_RCC_GET_FLAG(RCC_FLAG_HSERDY) == RESET)
 8001364:	4b8b      	ldr	r3, [pc, #556]	; (8001594 <HAL_RCC_OscConfig+0x330>)
 8001366:	681a      	ldr	r2, [r3, #0]
 8001368:	2380      	movs	r3, #128	; 0x80
 800136a:	029b      	lsls	r3, r3, #10
 800136c:	4013      	ands	r3, r2
 800136e:	d0f0      	beq.n	8001352 <HAL_RCC_OscConfig+0xee>
 8001370:	e015      	b.n	800139e <HAL_RCC_OscConfig+0x13a>
        }
      }
      else
      {
        /* Get Start Tick */
        tickstart = HAL_GetTick();
 8001372:	f7ff fcc1 	bl	8000cf8 <HAL_GetTick>
 8001376:	0003      	movs	r3, r0
 8001378:	61bb      	str	r3, [r7, #24]
        
        /* Wait till HSE is disabled */
        while(__HAL_RCC_GET_FLAG(RCC_FLAG_HSERDY) != RESET)
 800137a:	e008      	b.n	800138e <HAL_RCC_OscConfig+0x12a>
        {
           if((HAL_GetTick() - tickstart ) > HSE_TIMEOUT_VALUE)
 800137c:	f7ff fcbc 	bl	8000cf8 <HAL_GetTick>
 8001380:	0002      	movs	r2, r0
 8001382:	69bb      	ldr	r3, [r7, #24]
 8001384:	1ad3      	subs	r3, r2, r3
 8001386:	2b64      	cmp	r3, #100	; 0x64
 8001388:	d901      	bls.n	800138e <HAL_RCC_OscConfig+0x12a>
          {
            return HAL_TIMEOUT;
 800138a:	2303      	movs	r3, #3
 800138c:	e277      	b.n	800187e <HAL_RCC_OscConfig+0x61a>
        while(__HAL_RCC_GET_FLAG(RCC_FLAG_HSERDY) != RESET)
 800138e:	4b81      	ldr	r3, [pc, #516]	; (8001594 <HAL_RCC_OscConfig+0x330>)
 8001390:	681a      	ldr	r2, [r3, #0]
 8001392:	2380      	movs	r3, #128	; 0x80
 8001394:	029b      	lsls	r3, r3, #10
 8001396:	4013      	ands	r3, r2
 8001398:	d1f0      	bne.n	800137c <HAL_RCC_OscConfig+0x118>
 800139a:	e000      	b.n	800139e <HAL_RCC_OscConfig+0x13a>
      if((__HAL_RCC_GET_FLAG(RCC_FLAG_HSERDY) != RESET) && (RCC_OscInitStruct->HSEState == RCC_HSE_OFF))
 800139c:	46c0      	nop			; (mov r8, r8)
        }
      }
    }
  }
  /*----------------------------- HSI Configuration --------------------------*/ 
  if(((RCC_OscInitStruct->OscillatorType) & RCC_OSCILLATORTYPE_HSI) == RCC_OSCILLATORTYPE_HSI)
 800139e:	687b      	ldr	r3, [r7, #4]
 80013a0:	681b      	ldr	r3, [r3, #0]
 80013a2:	2202      	movs	r2, #2
 80013a4:	4013      	ands	r3, r2
 80013a6:	d100      	bne.n	80013aa <HAL_RCC_OscConfig+0x146>
 80013a8:	e069      	b.n	800147e <HAL_RCC_OscConfig+0x21a>
    /* Check the parameters */
    assert_param(IS_RCC_HSI(RCC_OscInitStruct->HSIState));
    assert_param(IS_RCC_CALIBRATION_VALUE(RCC_OscInitStruct->HSICalibrationValue));
    
    /* Check if HSI is used as system clock or as PLL source when PLL is selected as system clock */ 
    if((__HAL_RCC_GET_SYSCLK_SOURCE() == RCC_SYSCLKSOURCE_STATUS_HSI) 
 80013aa:	4b7a      	ldr	r3, [pc, #488]	; (8001594 <HAL_RCC_OscConfig+0x330>)
 80013ac:	685b      	ldr	r3, [r3, #4]
 80013ae:	220c      	movs	r2, #12
 80013b0:	4013      	ands	r3, r2
 80013b2:	d00b      	beq.n	80013cc <HAL_RCC_OscConfig+0x168>
       || ((__HAL_RCC_GET_SYSCLK_SOURCE() == RCC_SYSCLKSOURCE_STATUS_PLLCLK) && (__HAL_RCC_GET_PLL_OSCSOURCE() == RCC_PLLSOURCE_HSI)))
 80013b4:	4b77      	ldr	r3, [pc, #476]	; (8001594 <HAL_RCC_OscConfig+0x330>)
 80013b6:	685b      	ldr	r3, [r3, #4]
 80013b8:	220c      	movs	r2, #12
 80013ba:	4013      	ands	r3, r2
 80013bc:	2b08      	cmp	r3, #8
 80013be:	d11c      	bne.n	80013fa <HAL_RCC_OscConfig+0x196>
 80013c0:	4b74      	ldr	r3, [pc, #464]	; (8001594 <HAL_RCC_OscConfig+0x330>)
 80013c2:	685a      	ldr	r2, [r3, #4]
 80013c4:	2380      	movs	r3, #128	; 0x80
 80013c6:	025b      	lsls	r3, r3, #9
 80013c8:	4013      	ands	r3, r2
 80013ca:	d116      	bne.n	80013fa <HAL_RCC_OscConfig+0x196>
    {
      /* When HSI is used as system clock it will not disabled */
      if((__HAL_RCC_GET_FLAG(RCC_FLAG_HSIRDY) != RESET) && (RCC_OscInitStruct->HSIState != RCC_HSI_ON))
 80013cc:	4b71      	ldr	r3, [pc, #452]	; (8001594 <HAL_RCC_OscConfig+0x330>)
 80013ce:	681b      	ldr	r3, [r3, #0]
 80013d0:	2202      	movs	r2, #2
 80013d2:	4013      	ands	r3, r2
 80013d4:	d005      	beq.n	80013e2 <HAL_RCC_OscConfig+0x17e>
 80013d6:	687b      	ldr	r3, [r7, #4]
 80013d8:	68db      	ldr	r3, [r3, #12]
 80013da:	2b01      	cmp	r3, #1
 80013dc:	d001      	beq.n	80013e2 <HAL_RCC_OscConfig+0x17e>
      {
        return HAL_ERROR;
 80013de:	2301      	movs	r3, #1
 80013e0:	e24d      	b.n	800187e <HAL_RCC_OscConfig+0x61a>
      }
      /* Otherwise, just the calibration is allowed */
      else
      {
        /* Adjusts the Internal High Speed oscillator (HSI) calibration value.*/
        __HAL_RCC_HSI_CALIBRATIONVALUE_ADJUST(RCC_OscInitStruct->HSICalibrationValue);
 80013e2:	4b6c      	ldr	r3, [pc, #432]	; (8001594 <HAL_RCC_OscConfig+0x330>)
 80013e4:	681b      	ldr	r3, [r3, #0]
 80013e6:	22f8      	movs	r2, #248	; 0xf8
 80013e8:	4393      	bics	r3, r2
 80013ea:	0019      	movs	r1, r3
 80013ec:	687b      	ldr	r3, [r7, #4]
 80013ee:	691b      	ldr	r3, [r3, #16]
 80013f0:	00da      	lsls	r2, r3, #3
 80013f2:	4b68      	ldr	r3, [pc, #416]	; (8001594 <HAL_RCC_OscConfig+0x330>)
 80013f4:	430a      	orrs	r2, r1
 80013f6:	601a      	str	r2, [r3, #0]
      if((__HAL_RCC_GET_FLAG(RCC_FLAG_HSIRDY) != RESET) && (RCC_OscInitStruct->HSIState != RCC_HSI_ON))
 80013f8:	e041      	b.n	800147e <HAL_RCC_OscConfig+0x21a>
      }
    }
    else
    {
      /* Check the HSI State */
      if(RCC_OscInitStruct->HSIState != RCC_HSI_OFF)
 80013fa:	687b      	ldr	r3, [r7, #4]
 80013fc:	68db      	ldr	r3, [r3, #12]
 80013fe:	2b00      	cmp	r3, #0
 8001400:	d024      	beq.n	800144c <HAL_RCC_OscConfig+0x1e8>
      {
       /* Enable the Internal High Speed oscillator (HSI). */
        __HAL_RCC_HSI_ENABLE();
 8001402:	4b64      	ldr	r3, [pc, #400]	; (8001594 <HAL_RCC_OscConfig+0x330>)
 8001404:	681a      	ldr	r2, [r3, #0]
 8001406:	4b63      	ldr	r3, [pc, #396]	; (8001594 <HAL_RCC_OscConfig+0x330>)
 8001408:	2101      	movs	r1, #1
 800140a:	430a      	orrs	r2, r1
 800140c:	601a      	str	r2, [r3, #0]
        
        /* Get Start Tick */
        tickstart = HAL_GetTick();
 800140e:	f7ff fc73 	bl	8000cf8 <HAL_GetTick>
 8001412:	0003      	movs	r3, r0
 8001414:	61bb      	str	r3, [r7, #24]
        
        /* Wait till HSI is ready */
        while(__HAL_RCC_GET_FLAG(RCC_FLAG_HSIRDY) == RESET)
 8001416:	e008      	b.n	800142a <HAL_RCC_OscConfig+0x1c6>
        {
          if((HAL_GetTick() - tickstart ) > HSI_TIMEOUT_VALUE)
 8001418:	f7ff fc6e 	bl	8000cf8 <HAL_GetTick>
 800141c:	0002      	movs	r2, r0
 800141e:	69bb      	ldr	r3, [r7, #24]
 8001420:	1ad3      	subs	r3, r2, r3
 8001422:	2b02      	cmp	r3, #2
 8001424:	d901      	bls.n	800142a <HAL_RCC_OscConfig+0x1c6>
          {
            return HAL_TIMEOUT;
 8001426:	2303      	movs	r3, #3
 8001428:	e229      	b.n	800187e <HAL_RCC_OscConfig+0x61a>
        while(__HAL_RCC_GET_FLAG(RCC_FLAG_HSIRDY) == RESET)
 800142a:	4b5a      	ldr	r3, [pc, #360]	; (8001594 <HAL_RCC_OscConfig+0x330>)
 800142c:	681b      	ldr	r3, [r3, #0]
 800142e:	2202      	movs	r2, #2
 8001430:	4013      	ands	r3, r2
 8001432:	d0f1      	beq.n	8001418 <HAL_RCC_OscConfig+0x1b4>
          }
        }
                
        /* Adjusts the Internal High Speed oscillator (HSI) calibration value.*/
        __HAL_RCC_HSI_CALIBRATIONVALUE_ADJUST(RCC_OscInitStruct->HSICalibrationValue);
 8001434:	4b57      	ldr	r3, [pc, #348]	; (8001594 <HAL_RCC_OscConfig+0x330>)
 8001436:	681b      	ldr	r3, [r3, #0]
 8001438:	22f8      	movs	r2, #248	; 0xf8
 800143a:	4393      	bics	r3, r2
 800143c:	0019      	movs	r1, r3
 800143e:	687b      	ldr	r3, [r7, #4]
 8001440:	691b      	ldr	r3, [r3, #16]
 8001442:	00da      	lsls	r2, r3, #3
 8001444:	4b53      	ldr	r3, [pc, #332]	; (8001594 <HAL_RCC_OscConfig+0x330>)
 8001446:	430a      	orrs	r2, r1
 8001448:	601a      	str	r2, [r3, #0]
 800144a:	e018      	b.n	800147e <HAL_RCC_OscConfig+0x21a>
      }
      else
      {
        /* Disable the Internal High Speed oscillator (HSI). */
        __HAL_RCC_HSI_DISABLE();
 800144c:	4b51      	ldr	r3, [pc, #324]	; (8001594 <HAL_RCC_OscConfig+0x330>)
 800144e:	681a      	ldr	r2, [r3, #0]
 8001450:	4b50      	ldr	r3, [pc, #320]	; (8001594 <HAL_RCC_OscConfig+0x330>)
 8001452:	2101      	movs	r1, #1
 8001454:	438a      	bics	r2, r1
 8001456:	601a      	str	r2, [r3, #0]
        
        /* Get Start Tick */
        tickstart = HAL_GetTick();
 8001458:	f7ff fc4e 	bl	8000cf8 <HAL_GetTick>
 800145c:	0003      	movs	r3, r0
 800145e:	61bb      	str	r3, [r7, #24]
        
        /* Wait till HSI is disabled */
        while(__HAL_RCC_GET_FLAG(RCC_FLAG_HSIRDY) != RESET)
 8001460:	e008      	b.n	8001474 <HAL_RCC_OscConfig+0x210>
        {
          if((HAL_GetTick() - tickstart ) > HSI_TIMEOUT_VALUE)
 8001462:	f7ff fc49 	bl	8000cf8 <HAL_GetTick>
 8001466:	0002      	movs	r2, r0
 8001468:	69bb      	ldr	r3, [r7, #24]
 800146a:	1ad3      	subs	r3, r2, r3
 800146c:	2b02      	cmp	r3, #2
 800146e:	d901      	bls.n	8001474 <HAL_RCC_OscConfig+0x210>
          {
            return HAL_TIMEOUT;
 8001470:	2303      	movs	r3, #3
 8001472:	e204      	b.n	800187e <HAL_RCC_OscConfig+0x61a>
        while(__HAL_RCC_GET_FLAG(RCC_FLAG_HSIRDY) != RESET)
 8001474:	4b47      	ldr	r3, [pc, #284]	; (8001594 <HAL_RCC_OscConfig+0x330>)
 8001476:	681b      	ldr	r3, [r3, #0]
 8001478:	2202      	movs	r2, #2
 800147a:	4013      	ands	r3, r2
 800147c:	d1f1      	bne.n	8001462 <HAL_RCC_OscConfig+0x1fe>
        }
      }
    }
  }
  /*------------------------------ LSI Configuration -------------------------*/ 
  if(((RCC_OscInitStruct->OscillatorType) & RCC_OSCILLATORTYPE_LSI) == RCC_OSCILLATORTYPE_LSI)
 800147e:	687b      	ldr	r3, [r7, #4]
 8001480:	681b      	ldr	r3, [r3, #0]
 8001482:	2208      	movs	r2, #8
 8001484:	4013      	ands	r3, r2
 8001486:	d036      	beq.n	80014f6 <HAL_RCC_OscConfig+0x292>
  {
    /* Check the parameters */
    assert_param(IS_RCC_LSI(RCC_OscInitStruct->LSIState));
    
    /* Check the LSI State */
    if(RCC_OscInitStruct->LSIState != RCC_LSI_OFF)
 8001488:	687b      	ldr	r3, [r7, #4]
 800148a:	69db      	ldr	r3, [r3, #28]
 800148c:	2b00      	cmp	r3, #0
 800148e:	d019      	beq.n	80014c4 <HAL_RCC_OscConfig+0x260>
    {
      /* Enable the Internal Low Speed oscillator (LSI). */
      __HAL_RCC_LSI_ENABLE();
 8001490:	4b40      	ldr	r3, [pc, #256]	; (8001594 <HAL_RCC_OscConfig+0x330>)
 8001492:	6a5a      	ldr	r2, [r3, #36]	; 0x24
 8001494:	4b3f      	ldr	r3, [pc, #252]	; (8001594 <HAL_RCC_OscConfig+0x330>)
 8001496:	2101      	movs	r1, #1
 8001498:	430a      	orrs	r2, r1
 800149a:	625a      	str	r2, [r3, #36]	; 0x24
      
      /* Get Start Tick */
      tickstart = HAL_GetTick();
 800149c:	f7ff fc2c 	bl	8000cf8 <HAL_GetTick>
 80014a0:	0003      	movs	r3, r0
 80014a2:	61bb      	str	r3, [r7, #24]
      
      /* Wait till LSI is ready */  
      while(__HAL_RCC_GET_FLAG(RCC_FLAG_LSIRDY) == RESET)
 80014a4:	e008      	b.n	80014b8 <HAL_RCC_OscConfig+0x254>
      {
        if((HAL_GetTick() - tickstart ) > LSI_TIMEOUT_VALUE)
 80014a6:	f7ff fc27 	bl	8000cf8 <HAL_GetTick>
 80014aa:	0002      	movs	r2, r0
 80014ac:	69bb      	ldr	r3, [r7, #24]
 80014ae:	1ad3      	subs	r3, r2, r3
 80014b0:	2b02      	cmp	r3, #2
 80014b2:	d901      	bls.n	80014b8 <HAL_RCC_OscConfig+0x254>
        {
          return HAL_TIMEOUT;
 80014b4:	2303      	movs	r3, #3
 80014b6:	e1e2      	b.n	800187e <HAL_RCC_OscConfig+0x61a>
      while(__HAL_RCC_GET_FLAG(RCC_FLAG_LSIRDY) == RESET)
 80014b8:	4b36      	ldr	r3, [pc, #216]	; (8001594 <HAL_RCC_OscConfig+0x330>)
 80014ba:	6a5b      	ldr	r3, [r3, #36]	; 0x24
 80014bc:	2202      	movs	r2, #2
 80014be:	4013      	ands	r3, r2
 80014c0:	d0f1      	beq.n	80014a6 <HAL_RCC_OscConfig+0x242>
 80014c2:	e018      	b.n	80014f6 <HAL_RCC_OscConfig+0x292>
      }
    }
    else
    {
      /* Disable the Internal Low Speed oscillator (LSI). */
      __HAL_RCC_LSI_DISABLE();
 80014c4:	4b33      	ldr	r3, [pc, #204]	; (8001594 <HAL_RCC_OscConfig+0x330>)
 80014c6:	6a5a      	ldr	r2, [r3, #36]	; 0x24
 80014c8:	4b32      	ldr	r3, [pc, #200]	; (8001594 <HAL_RCC_OscConfig+0x330>)
 80014ca:	2101      	movs	r1, #1
 80014cc:	438a      	bics	r2, r1
 80014ce:	625a      	str	r2, [r3, #36]	; 0x24
      
      /* Get Start Tick */
      tickstart = HAL_GetTick();
 80014d0:	f7ff fc12 	bl	8000cf8 <HAL_GetTick>
 80014d4:	0003      	movs	r3, r0
 80014d6:	61bb      	str	r3, [r7, #24]
      
      /* Wait till LSI is disabled */  
      while(__HAL_RCC_GET_FLAG(RCC_FLAG_LSIRDY) != RESET)
 80014d8:	e008      	b.n	80014ec <HAL_RCC_OscConfig+0x288>
      {
        if((HAL_GetTick() - tickstart ) > LSI_TIMEOUT_VALUE)
 80014da:	f7ff fc0d 	bl	8000cf8 <HAL_GetTick>
 80014de:	0002      	movs	r2, r0
 80014e0:	69bb      	ldr	r3, [r7, #24]
 80014e2:	1ad3      	subs	r3, r2, r3
 80014e4:	2b02      	cmp	r3, #2
 80014e6:	d901      	bls.n	80014ec <HAL_RCC_OscConfig+0x288>
        {
          return HAL_TIMEOUT;
 80014e8:	2303      	movs	r3, #3
 80014ea:	e1c8      	b.n	800187e <HAL_RCC_OscConfig+0x61a>
      while(__HAL_RCC_GET_FLAG(RCC_FLAG_LSIRDY) != RESET)
 80014ec:	4b29      	ldr	r3, [pc, #164]	; (8001594 <HAL_RCC_OscConfig+0x330>)
 80014ee:	6a5b      	ldr	r3, [r3, #36]	; 0x24
 80014f0:	2202      	movs	r2, #2
 80014f2:	4013      	ands	r3, r2
 80014f4:	d1f1      	bne.n	80014da <HAL_RCC_OscConfig+0x276>
        }
      }
    }
  }
  /*------------------------------ LSE Configuration -------------------------*/ 
  if(((RCC_OscInitStruct->OscillatorType) & RCC_OSCILLATORTYPE_LSE) == RCC_OSCILLATORTYPE_LSE)
 80014f6:	687b      	ldr	r3, [r7, #4]
 80014f8:	681b      	ldr	r3, [r3, #0]
 80014fa:	2204      	movs	r2, #4
 80014fc:	4013      	ands	r3, r2
 80014fe:	d100      	bne.n	8001502 <HAL_RCC_OscConfig+0x29e>
 8001500:	e0b6      	b.n	8001670 <HAL_RCC_OscConfig+0x40c>
  {
    FlagStatus       pwrclkchanged = RESET;
 8001502:	231f      	movs	r3, #31
 8001504:	18fb      	adds	r3, r7, r3
 8001506:	2200      	movs	r2, #0
 8001508:	701a      	strb	r2, [r3, #0]
    /* Check the parameters */
    assert_param(IS_RCC_LSE(RCC_OscInitStruct->LSEState));

    /* Update LSE configuration in Backup Domain control register    */
    /* Requires to enable write access to Backup Domain of necessary */
    if(__HAL_RCC_PWR_IS_CLK_DISABLED())
 800150a:	4b22      	ldr	r3, [pc, #136]	; (8001594 <HAL_RCC_OscConfig+0x330>)
 800150c:	69da      	ldr	r2, [r3, #28]
 800150e:	2380      	movs	r3, #128	; 0x80
 8001510:	055b      	lsls	r3, r3, #21
 8001512:	4013      	ands	r3, r2
 8001514:	d111      	bne.n	800153a <HAL_RCC_OscConfig+0x2d6>
    {
      __HAL_RCC_PWR_CLK_ENABLE();
 8001516:	4b1f      	ldr	r3, [pc, #124]	; (8001594 <HAL_RCC_OscConfig+0x330>)
 8001518:	69da      	ldr	r2, [r3, #28]
 800151a:	4b1e      	ldr	r3, [pc, #120]	; (8001594 <HAL_RCC_OscConfig+0x330>)
 800151c:	2180      	movs	r1, #128	; 0x80
 800151e:	0549      	lsls	r1, r1, #21
 8001520:	430a      	orrs	r2, r1
 8001522:	61da      	str	r2, [r3, #28]
 8001524:	4b1b      	ldr	r3, [pc, #108]	; (8001594 <HAL_RCC_OscConfig+0x330>)
 8001526:	69da      	ldr	r2, [r3, #28]
 8001528:	2380      	movs	r3, #128	; 0x80
 800152a:	055b      	lsls	r3, r3, #21
 800152c:	4013      	ands	r3, r2
 800152e:	60fb      	str	r3, [r7, #12]
 8001530:	68fb      	ldr	r3, [r7, #12]
      pwrclkchanged = SET;
 8001532:	231f      	movs	r3, #31
 8001534:	18fb      	adds	r3, r7, r3
 8001536:	2201      	movs	r2, #1
 8001538:	701a      	strb	r2, [r3, #0]
    }
    
    if(HAL_IS_BIT_CLR(PWR->CR, PWR_CR_DBP))
 800153a:	4b19      	ldr	r3, [pc, #100]	; (80015a0 <HAL_RCC_OscConfig+0x33c>)
 800153c:	681a      	ldr	r2, [r3, #0]
 800153e:	2380      	movs	r3, #128	; 0x80
 8001540:	005b      	lsls	r3, r3, #1
 8001542:	4013      	ands	r3, r2
 8001544:	d11a      	bne.n	800157c <HAL_RCC_OscConfig+0x318>
    {
      /* Enable write access to Backup domain */
      SET_BIT(PWR->CR, PWR_CR_DBP);
 8001546:	4b16      	ldr	r3, [pc, #88]	; (80015a0 <HAL_RCC_OscConfig+0x33c>)
 8001548:	681a      	ldr	r2, [r3, #0]
 800154a:	4b15      	ldr	r3, [pc, #84]	; (80015a0 <HAL_RCC_OscConfig+0x33c>)
 800154c:	2180      	movs	r1, #128	; 0x80
 800154e:	0049      	lsls	r1, r1, #1
 8001550:	430a      	orrs	r2, r1
 8001552:	601a      	str	r2, [r3, #0]
      
      /* Wait for Backup domain Write protection disable */
      tickstart = HAL_GetTick();
 8001554:	f7ff fbd0 	bl	8000cf8 <HAL_GetTick>
 8001558:	0003      	movs	r3, r0
 800155a:	61bb      	str	r3, [r7, #24]

      while(HAL_IS_BIT_CLR(PWR->CR, PWR_CR_DBP))
 800155c:	e008      	b.n	8001570 <HAL_RCC_OscConfig+0x30c>
      {
        if((HAL_GetTick() - tickstart) > RCC_DBP_TIMEOUT_VALUE)
 800155e:	f7ff fbcb 	bl	8000cf8 <HAL_GetTick>
 8001562:	0002      	movs	r2, r0
 8001564:	69bb      	ldr	r3, [r7, #24]
 8001566:	1ad3      	subs	r3, r2, r3
 8001568:	2b64      	cmp	r3, #100	; 0x64
 800156a:	d901      	bls.n	8001570 <HAL_RCC_OscConfig+0x30c>
        {
          return HAL_TIMEOUT;
 800156c:	2303      	movs	r3, #3
 800156e:	e186      	b.n	800187e <HAL_RCC_OscConfig+0x61a>
      while(HAL_IS_BIT_CLR(PWR->CR, PWR_CR_DBP))
 8001570:	4b0b      	ldr	r3, [pc, #44]	; (80015a0 <HAL_RCC_OscConfig+0x33c>)
 8001572:	681a      	ldr	r2, [r3, #0]
 8001574:	2380      	movs	r3, #128	; 0x80
 8001576:	005b      	lsls	r3, r3, #1
 8001578:	4013      	ands	r3, r2
 800157a:	d0f0      	beq.n	800155e <HAL_RCC_OscConfig+0x2fa>
        }
      }
    }

    /* Set the new LSE configuration -----------------------------------------*/
    __HAL_RCC_LSE_CONFIG(RCC_OscInitStruct->LSEState);
 800157c:	687b      	ldr	r3, [r7, #4]
 800157e:	689b      	ldr	r3, [r3, #8]
 8001580:	2b01      	cmp	r3, #1
 8001582:	d10f      	bne.n	80015a4 <HAL_RCC_OscConfig+0x340>
 8001584:	4b03      	ldr	r3, [pc, #12]	; (8001594 <HAL_RCC_OscConfig+0x330>)
 8001586:	6a1a      	ldr	r2, [r3, #32]
 8001588:	4b02      	ldr	r3, [pc, #8]	; (8001594 <HAL_RCC_OscConfig+0x330>)
 800158a:	2101      	movs	r1, #1
 800158c:	430a      	orrs	r2, r1
 800158e:	621a      	str	r2, [r3, #32]
 8001590:	e036      	b.n	8001600 <HAL_RCC_OscConfig+0x39c>
 8001592:	46c0      	nop			; (mov r8, r8)
 8001594:	40021000 	.word	0x40021000
 8001598:	fffeffff 	.word	0xfffeffff
 800159c:	fffbffff 	.word	0xfffbffff
 80015a0:	40007000 	.word	0x40007000
 80015a4:	687b      	ldr	r3, [r7, #4]
 80015a6:	689b      	ldr	r3, [r3, #8]
 80015a8:	2b00      	cmp	r3, #0
 80015aa:	d10c      	bne.n	80015c6 <HAL_RCC_OscConfig+0x362>
 80015ac:	4bb6      	ldr	r3, [pc, #728]	; (8001888 <HAL_RCC_OscConfig+0x624>)
 80015ae:	6a1a      	ldr	r2, [r3, #32]
 80015b0:	4bb5      	ldr	r3, [pc, #724]	; (8001888 <HAL_RCC_OscConfig+0x624>)
 80015b2:	2101      	movs	r1, #1
 80015b4:	438a      	bics	r2, r1
 80015b6:	621a      	str	r2, [r3, #32]
 80015b8:	4bb3      	ldr	r3, [pc, #716]	; (8001888 <HAL_RCC_OscConfig+0x624>)
 80015ba:	6a1a      	ldr	r2, [r3, #32]
 80015bc:	4bb2      	ldr	r3, [pc, #712]	; (8001888 <HAL_RCC_OscConfig+0x624>)
 80015be:	2104      	movs	r1, #4
 80015c0:	438a      	bics	r2, r1
 80015c2:	621a      	str	r2, [r3, #32]
 80015c4:	e01c      	b.n	8001600 <HAL_RCC_OscConfig+0x39c>
 80015c6:	687b      	ldr	r3, [r7, #4]
 80015c8:	689b      	ldr	r3, [r3, #8]
 80015ca:	2b05      	cmp	r3, #5
 80015cc:	d10c      	bne.n	80015e8 <HAL_RCC_OscConfig+0x384>
 80015ce:	4bae      	ldr	r3, [pc, #696]	; (8001888 <HAL_RCC_OscConfig+0x624>)
 80015d0:	6a1a      	ldr	r2, [r3, #32]
 80015d2:	4bad      	ldr	r3, [pc, #692]	; (8001888 <HAL_RCC_OscConfig+0x624>)
 80015d4:	2104      	movs	r1, #4
 80015d6:	430a      	orrs	r2, r1
 80015d8:	621a      	str	r2, [r3, #32]
 80015da:	4bab      	ldr	r3, [pc, #684]	; (8001888 <HAL_RCC_OscConfig+0x624>)
 80015dc:	6a1a      	ldr	r2, [r3, #32]
 80015de:	4baa      	ldr	r3, [pc, #680]	; (8001888 <HAL_RCC_OscConfig+0x624>)
 80015e0:	2101      	movs	r1, #1
 80015e2:	430a      	orrs	r2, r1
 80015e4:	621a      	str	r2, [r3, #32]
 80015e6:	e00b      	b.n	8001600 <HAL_RCC_OscConfig+0x39c>
 80015e8:	4ba7      	ldr	r3, [pc, #668]	; (8001888 <HAL_RCC_OscConfig+0x624>)
 80015ea:	6a1a      	ldr	r2, [r3, #32]
 80015ec:	4ba6      	ldr	r3, [pc, #664]	; (8001888 <HAL_RCC_OscConfig+0x624>)
 80015ee:	2101      	movs	r1, #1
 80015f0:	438a      	bics	r2, r1
 80015f2:	621a      	str	r2, [r3, #32]
 80015f4:	4ba4      	ldr	r3, [pc, #656]	; (8001888 <HAL_RCC_OscConfig+0x624>)
 80015f6:	6a1a      	ldr	r2, [r3, #32]
 80015f8:	4ba3      	ldr	r3, [pc, #652]	; (8001888 <HAL_RCC_OscConfig+0x624>)
 80015fa:	2104      	movs	r1, #4
 80015fc:	438a      	bics	r2, r1
 80015fe:	621a      	str	r2, [r3, #32]
    /* Check the LSE State */
    if(RCC_OscInitStruct->LSEState != RCC_LSE_OFF)
 8001600:	687b      	ldr	r3, [r7, #4]
 8001602:	689b      	ldr	r3, [r3, #8]
 8001604:	2b00      	cmp	r3, #0
 8001606:	d014      	beq.n	8001632 <HAL_RCC_OscConfig+0x3ce>
    {
      /* Get Start Tick */
      tickstart = HAL_GetTick();
 8001608:	f7ff fb76 	bl	8000cf8 <HAL_GetTick>
 800160c:	0003      	movs	r3, r0
 800160e:	61bb      	str	r3, [r7, #24]
      
      /* Wait till LSE is ready */  
      while(__HAL_RCC_GET_FLAG(RCC_FLAG_LSERDY) == RESET)
 8001610:	e009      	b.n	8001626 <HAL_RCC_OscConfig+0x3c2>
      {
        if((HAL_GetTick() - tickstart ) > RCC_LSE_TIMEOUT_VALUE)
 8001612:	f7ff fb71 	bl	8000cf8 <HAL_GetTick>
 8001616:	0002      	movs	r2, r0
 8001618:	69bb      	ldr	r3, [r7, #24]
 800161a:	1ad3      	subs	r3, r2, r3
 800161c:	4a9b      	ldr	r2, [pc, #620]	; (800188c <HAL_RCC_OscConfig+0x628>)
 800161e:	4293      	cmp	r3, r2
 8001620:	d901      	bls.n	8001626 <HAL_RCC_OscConfig+0x3c2>
        {
          return HAL_TIMEOUT;
 8001622:	2303      	movs	r3, #3
 8001624:	e12b      	b.n	800187e <HAL_RCC_OscConfig+0x61a>
      while(__HAL_RCC_GET_FLAG(RCC_FLAG_LSERDY) == RESET)
 8001626:	4b98      	ldr	r3, [pc, #608]	; (8001888 <HAL_RCC_OscConfig+0x624>)
 8001628:	6a1b      	ldr	r3, [r3, #32]
 800162a:	2202      	movs	r2, #2
 800162c:	4013      	ands	r3, r2
 800162e:	d0f0      	beq.n	8001612 <HAL_RCC_OscConfig+0x3ae>
 8001630:	e013      	b.n	800165a <HAL_RCC_OscConfig+0x3f6>
      }
    }
    else
    {
      /* Get Start Tick */
      tickstart = HAL_GetTick();
 8001632:	f7ff fb61 	bl	8000cf8 <HAL_GetTick>
 8001636:	0003      	movs	r3, r0
 8001638:	61bb      	str	r3, [r7, #24]
      
      /* Wait till LSE is disabled */  
      while(__HAL_RCC_GET_FLAG(RCC_FLAG_LSERDY) != RESET)
 800163a:	e009      	b.n	8001650 <HAL_RCC_OscConfig+0x3ec>
      {
        if((HAL_GetTick() - tickstart ) > RCC_LSE_TIMEOUT_VALUE)
 800163c:	f7ff fb5c 	bl	8000cf8 <HAL_GetTick>
 8001640:	0002      	movs	r2, r0
 8001642:	69bb      	ldr	r3, [r7, #24]
 8001644:	1ad3      	subs	r3, r2, r3
 8001646:	4a91      	ldr	r2, [pc, #580]	; (800188c <HAL_RCC_OscConfig+0x628>)
 8001648:	4293      	cmp	r3, r2
 800164a:	d901      	bls.n	8001650 <HAL_RCC_OscConfig+0x3ec>
        {
          return HAL_TIMEOUT;
 800164c:	2303      	movs	r3, #3
 800164e:	e116      	b.n	800187e <HAL_RCC_OscConfig+0x61a>
      while(__HAL_RCC_GET_FLAG(RCC_FLAG_LSERDY) != RESET)
 8001650:	4b8d      	ldr	r3, [pc, #564]	; (8001888 <HAL_RCC_OscConfig+0x624>)
 8001652:	6a1b      	ldr	r3, [r3, #32]
 8001654:	2202      	movs	r2, #2
 8001656:	4013      	ands	r3, r2
 8001658:	d1f0      	bne.n	800163c <HAL_RCC_OscConfig+0x3d8>
        }
      }
    }

    /* Require to disable power clock if necessary */
    if(pwrclkchanged == SET)
 800165a:	231f      	movs	r3, #31
 800165c:	18fb      	adds	r3, r7, r3
 800165e:	781b      	ldrb	r3, [r3, #0]
 8001660:	2b01      	cmp	r3, #1
 8001662:	d105      	bne.n	8001670 <HAL_RCC_OscConfig+0x40c>
    {
      __HAL_RCC_PWR_CLK_DISABLE();
 8001664:	4b88      	ldr	r3, [pc, #544]	; (8001888 <HAL_RCC_OscConfig+0x624>)
 8001666:	69da      	ldr	r2, [r3, #28]
 8001668:	4b87      	ldr	r3, [pc, #540]	; (8001888 <HAL_RCC_OscConfig+0x624>)
 800166a:	4989      	ldr	r1, [pc, #548]	; (8001890 <HAL_RCC_OscConfig+0x62c>)
 800166c:	400a      	ands	r2, r1
 800166e:	61da      	str	r2, [r3, #28]
    }
  }

  /*----------------------------- HSI14 Configuration --------------------------*/
  if(((RCC_OscInitStruct->OscillatorType) & RCC_OSCILLATORTYPE_HSI14) == RCC_OSCILLATORTYPE_HSI14)
 8001670:	687b      	ldr	r3, [r7, #4]
 8001672:	681b      	ldr	r3, [r3, #0]
 8001674:	2210      	movs	r2, #16
 8001676:	4013      	ands	r3, r2
 8001678:	d063      	beq.n	8001742 <HAL_RCC_OscConfig+0x4de>
    /* Check the parameters */
    assert_param(IS_RCC_HSI14(RCC_OscInitStruct->HSI14State));
    assert_param(IS_RCC_CALIBRATION_VALUE(RCC_OscInitStruct->HSI14CalibrationValue));

    /* Check the HSI14 State */
    if(RCC_OscInitStruct->HSI14State == RCC_HSI14_ON)
 800167a:	687b      	ldr	r3, [r7, #4]
 800167c:	695b      	ldr	r3, [r3, #20]
 800167e:	2b01      	cmp	r3, #1
 8001680:	d12a      	bne.n	80016d8 <HAL_RCC_OscConfig+0x474>
    {
      /* Disable ADC control of the Internal High Speed oscillator HSI14 */
      __HAL_RCC_HSI14ADC_DISABLE();
 8001682:	4b81      	ldr	r3, [pc, #516]	; (8001888 <HAL_RCC_OscConfig+0x624>)
 8001684:	6b5a      	ldr	r2, [r3, #52]	; 0x34
 8001686:	4b80      	ldr	r3, [pc, #512]	; (8001888 <HAL_RCC_OscConfig+0x624>)
 8001688:	2104      	movs	r1, #4
 800168a:	430a      	orrs	r2, r1
 800168c:	635a      	str	r2, [r3, #52]	; 0x34

      /* Enable the Internal High Speed oscillator (HSI). */
      __HAL_RCC_HSI14_ENABLE();
 800168e:	4b7e      	ldr	r3, [pc, #504]	; (8001888 <HAL_RCC_OscConfig+0x624>)
 8001690:	6b5a      	ldr	r2, [r3, #52]	; 0x34
 8001692:	4b7d      	ldr	r3, [pc, #500]	; (8001888 <HAL_RCC_OscConfig+0x624>)
 8001694:	2101      	movs	r1, #1
 8001696:	430a      	orrs	r2, r1
 8001698:	635a      	str	r2, [r3, #52]	; 0x34

      /* Get Start Tick */
      tickstart = HAL_GetTick();
 800169a:	f7ff fb2d 	bl	8000cf8 <HAL_GetTick>
 800169e:	0003      	movs	r3, r0
 80016a0:	61bb      	str	r3, [r7, #24]
      
      /* Wait till HSI is ready */  
      while(__HAL_RCC_GET_FLAG(RCC_FLAG_HSI14RDY) == RESET)
 80016a2:	e008      	b.n	80016b6 <HAL_RCC_OscConfig+0x452>
      {
        if((HAL_GetTick() - tickstart) > HSI14_TIMEOUT_VALUE)
 80016a4:	f7ff fb28 	bl	8000cf8 <HAL_GetTick>
 80016a8:	0002      	movs	r2, r0
 80016aa:	69bb      	ldr	r3, [r7, #24]
 80016ac:	1ad3      	subs	r3, r2, r3
 80016ae:	2b02      	cmp	r3, #2
 80016b0:	d901      	bls.n	80016b6 <HAL_RCC_OscConfig+0x452>
        {
          return HAL_TIMEOUT;
 80016b2:	2303      	movs	r3, #3
 80016b4:	e0e3      	b.n	800187e <HAL_RCC_OscConfig+0x61a>
      while(__HAL_RCC_GET_FLAG(RCC_FLAG_HSI14RDY) == RESET)
 80016b6:	4b74      	ldr	r3, [pc, #464]	; (8001888 <HAL_RCC_OscConfig+0x624>)
 80016b8:	6b5b      	ldr	r3, [r3, #52]	; 0x34
 80016ba:	2202      	movs	r2, #2
 80016bc:	4013      	ands	r3, r2
 80016be:	d0f1      	beq.n	80016a4 <HAL_RCC_OscConfig+0x440>
        }      
      } 

      /* Adjusts the Internal High Speed oscillator 14Mhz (HSI14) calibration value. */
      __HAL_RCC_HSI14_CALIBRATIONVALUE_ADJUST(RCC_OscInitStruct->HSI14CalibrationValue);
 80016c0:	4b71      	ldr	r3, [pc, #452]	; (8001888 <HAL_RCC_OscConfig+0x624>)
 80016c2:	6b5b      	ldr	r3, [r3, #52]	; 0x34
 80016c4:	22f8      	movs	r2, #248	; 0xf8
 80016c6:	4393      	bics	r3, r2
 80016c8:	0019      	movs	r1, r3
 80016ca:	687b      	ldr	r3, [r7, #4]
 80016cc:	699b      	ldr	r3, [r3, #24]
 80016ce:	00da      	lsls	r2, r3, #3
 80016d0:	4b6d      	ldr	r3, [pc, #436]	; (8001888 <HAL_RCC_OscConfig+0x624>)
 80016d2:	430a      	orrs	r2, r1
 80016d4:	635a      	str	r2, [r3, #52]	; 0x34
 80016d6:	e034      	b.n	8001742 <HAL_RCC_OscConfig+0x4de>
    }
    else if(RCC_OscInitStruct->HSI14State == RCC_HSI14_ADC_CONTROL)
 80016d8:	687b      	ldr	r3, [r7, #4]
 80016da:	695b      	ldr	r3, [r3, #20]
 80016dc:	3305      	adds	r3, #5
 80016de:	d111      	bne.n	8001704 <HAL_RCC_OscConfig+0x4a0>
    {
      /* Enable ADC control of the Internal High Speed oscillator HSI14 */
      __HAL_RCC_HSI14ADC_ENABLE();
 80016e0:	4b69      	ldr	r3, [pc, #420]	; (8001888 <HAL_RCC_OscConfig+0x624>)
 80016e2:	6b5a      	ldr	r2, [r3, #52]	; 0x34
 80016e4:	4b68      	ldr	r3, [pc, #416]	; (8001888 <HAL_RCC_OscConfig+0x624>)
 80016e6:	2104      	movs	r1, #4
 80016e8:	438a      	bics	r2, r1
 80016ea:	635a      	str	r2, [r3, #52]	; 0x34

      /* Adjusts the Internal High Speed oscillator 14Mhz (HSI14) calibration value. */
      __HAL_RCC_HSI14_CALIBRATIONVALUE_ADJUST(RCC_OscInitStruct->HSI14CalibrationValue);
 80016ec:	4b66      	ldr	r3, [pc, #408]	; (8001888 <HAL_RCC_OscConfig+0x624>)
 80016ee:	6b5b      	ldr	r3, [r3, #52]	; 0x34
 80016f0:	22f8      	movs	r2, #248	; 0xf8
 80016f2:	4393      	bics	r3, r2
 80016f4:	0019      	movs	r1, r3
 80016f6:	687b      	ldr	r3, [r7, #4]
 80016f8:	699b      	ldr	r3, [r3, #24]
 80016fa:	00da      	lsls	r2, r3, #3
 80016fc:	4b62      	ldr	r3, [pc, #392]	; (8001888 <HAL_RCC_OscConfig+0x624>)
 80016fe:	430a      	orrs	r2, r1
 8001700:	635a      	str	r2, [r3, #52]	; 0x34
 8001702:	e01e      	b.n	8001742 <HAL_RCC_OscConfig+0x4de>
    }
    else
    {
      /* Disable ADC control of the Internal High Speed oscillator HSI14 */
      __HAL_RCC_HSI14ADC_DISABLE();
 8001704:	4b60      	ldr	r3, [pc, #384]	; (8001888 <HAL_RCC_OscConfig+0x624>)
 8001706:	6b5a      	ldr	r2, [r3, #52]	; 0x34
 8001708:	4b5f      	ldr	r3, [pc, #380]	; (8001888 <HAL_RCC_OscConfig+0x624>)
 800170a:	2104      	movs	r1, #4
 800170c:	430a      	orrs	r2, r1
 800170e:	635a      	str	r2, [r3, #52]	; 0x34

      /* Disable the Internal High Speed oscillator (HSI). */
      __HAL_RCC_HSI14_DISABLE();
 8001710:	4b5d      	ldr	r3, [pc, #372]	; (8001888 <HAL_RCC_OscConfig+0x624>)
 8001712:	6b5a      	ldr	r2, [r3, #52]	; 0x34
 8001714:	4b5c      	ldr	r3, [pc, #368]	; (8001888 <HAL_RCC_OscConfig+0x624>)
 8001716:	2101      	movs	r1, #1
 8001718:	438a      	bics	r2, r1
 800171a:	635a      	str	r2, [r3, #52]	; 0x34

      /* Get Start Tick */
      tickstart = HAL_GetTick();
 800171c:	f7ff faec 	bl	8000cf8 <HAL_GetTick>
 8001720:	0003      	movs	r3, r0
 8001722:	61bb      	str	r3, [r7, #24]
      
      /* Wait till HSI is ready */  
      while(__HAL_RCC_GET_FLAG(RCC_FLAG_HSI14RDY) != RESET)
 8001724:	e008      	b.n	8001738 <HAL_RCC_OscConfig+0x4d4>
      {
        if((HAL_GetTick() - tickstart) > HSI14_TIMEOUT_VALUE)
 8001726:	f7ff fae7 	bl	8000cf8 <HAL_GetTick>
 800172a:	0002      	movs	r2, r0
 800172c:	69bb      	ldr	r3, [r7, #24]
 800172e:	1ad3      	subs	r3, r2, r3
 8001730:	2b02      	cmp	r3, #2
 8001732:	d901      	bls.n	8001738 <HAL_RCC_OscConfig+0x4d4>
        {
          return HAL_TIMEOUT;
 8001734:	2303      	movs	r3, #3
 8001736:	e0a2      	b.n	800187e <HAL_RCC_OscConfig+0x61a>
      while(__HAL_RCC_GET_FLAG(RCC_FLAG_HSI14RDY) != RESET)
 8001738:	4b53      	ldr	r3, [pc, #332]	; (8001888 <HAL_RCC_OscConfig+0x624>)
 800173a:	6b5b      	ldr	r3, [r3, #52]	; 0x34
 800173c:	2202      	movs	r2, #2
 800173e:	4013      	ands	r3, r2
 8001740:	d1f1      	bne.n	8001726 <HAL_RCC_OscConfig+0x4c2>
#endif /* RCC_HSI48_SUPPORT */
       
  /*-------------------------------- PLL Configuration -----------------------*/
  /* Check the parameters */
  assert_param(IS_RCC_PLL(RCC_OscInitStruct->PLL.PLLState));
  if ((RCC_OscInitStruct->PLL.PLLState) != RCC_PLL_NONE)
 8001742:	687b      	ldr	r3, [r7, #4]
 8001744:	6a1b      	ldr	r3, [r3, #32]
 8001746:	2b00      	cmp	r3, #0
 8001748:	d100      	bne.n	800174c <HAL_RCC_OscConfig+0x4e8>
 800174a:	e097      	b.n	800187c <HAL_RCC_OscConfig+0x618>
  {
    /* Check if the PLL is used as system clock or not */
    if(__HAL_RCC_GET_SYSCLK_SOURCE() != RCC_SYSCLKSOURCE_STATUS_PLLCLK)
 800174c:	4b4e      	ldr	r3, [pc, #312]	; (8001888 <HAL_RCC_OscConfig+0x624>)
 800174e:	685b      	ldr	r3, [r3, #4]
 8001750:	220c      	movs	r2, #12
 8001752:	4013      	ands	r3, r2
 8001754:	2b08      	cmp	r3, #8
 8001756:	d100      	bne.n	800175a <HAL_RCC_OscConfig+0x4f6>
 8001758:	e06b      	b.n	8001832 <HAL_RCC_OscConfig+0x5ce>
    { 
      if((RCC_OscInitStruct->PLL.PLLState) == RCC_PLL_ON)
 800175a:	687b      	ldr	r3, [r7, #4]
 800175c:	6a1b      	ldr	r3, [r3, #32]
 800175e:	2b02      	cmp	r3, #2
 8001760:	d14c      	bne.n	80017fc <HAL_RCC_OscConfig+0x598>
        assert_param(IS_RCC_PLLSOURCE(RCC_OscInitStruct->PLL.PLLSource));
        assert_param(IS_RCC_PLL_MUL(RCC_OscInitStruct->PLL.PLLMUL));
        assert_param(IS_RCC_PREDIV(RCC_OscInitStruct->PLL.PREDIV));
  
        /* Disable the main PLL. */
        __HAL_RCC_PLL_DISABLE();
 8001762:	4b49      	ldr	r3, [pc, #292]	; (8001888 <HAL_RCC_OscConfig+0x624>)
 8001764:	681a      	ldr	r2, [r3, #0]
 8001766:	4b48      	ldr	r3, [pc, #288]	; (8001888 <HAL_RCC_OscConfig+0x624>)
 8001768:	494a      	ldr	r1, [pc, #296]	; (8001894 <HAL_RCC_OscConfig+0x630>)
 800176a:	400a      	ands	r2, r1
 800176c:	601a      	str	r2, [r3, #0]
        
        /* Get Start Tick */
        tickstart = HAL_GetTick();
 800176e:	f7ff fac3 	bl	8000cf8 <HAL_GetTick>
 8001772:	0003      	movs	r3, r0
 8001774:	61bb      	str	r3, [r7, #24]
        
        /* Wait till PLL is disabled */
        while(__HAL_RCC_GET_FLAG(RCC_FLAG_PLLRDY)  != RESET)
 8001776:	e008      	b.n	800178a <HAL_RCC_OscConfig+0x526>
        {
          if((HAL_GetTick() - tickstart ) > PLL_TIMEOUT_VALUE)
 8001778:	f7ff fabe 	bl	8000cf8 <HAL_GetTick>
 800177c:	0002      	movs	r2, r0
 800177e:	69bb      	ldr	r3, [r7, #24]
 8001780:	1ad3      	subs	r3, r2, r3
 8001782:	2b02      	cmp	r3, #2
 8001784:	d901      	bls.n	800178a <HAL_RCC_OscConfig+0x526>
          {
            return HAL_TIMEOUT;
 8001786:	2303      	movs	r3, #3
 8001788:	e079      	b.n	800187e <HAL_RCC_OscConfig+0x61a>
        while(__HAL_RCC_GET_FLAG(RCC_FLAG_PLLRDY)  != RESET)
 800178a:	4b3f      	ldr	r3, [pc, #252]	; (8001888 <HAL_RCC_OscConfig+0x624>)
 800178c:	681a      	ldr	r2, [r3, #0]
 800178e:	2380      	movs	r3, #128	; 0x80
 8001790:	049b      	lsls	r3, r3, #18
 8001792:	4013      	ands	r3, r2
 8001794:	d1f0      	bne.n	8001778 <HAL_RCC_OscConfig+0x514>
          }
        }

        /* Configure the main PLL clock source, predivider and multiplication factor. */
        __HAL_RCC_PLL_CONFIG(RCC_OscInitStruct->PLL.PLLSource,
 8001796:	4b3c      	ldr	r3, [pc, #240]	; (8001888 <HAL_RCC_OscConfig+0x624>)
 8001798:	6adb      	ldr	r3, [r3, #44]	; 0x2c
 800179a:	220f      	movs	r2, #15
 800179c:	4393      	bics	r3, r2
 800179e:	0019      	movs	r1, r3
 80017a0:	687b      	ldr	r3, [r7, #4]
 80017a2:	6ada      	ldr	r2, [r3, #44]	; 0x2c
 80017a4:	4b38      	ldr	r3, [pc, #224]	; (8001888 <HAL_RCC_OscConfig+0x624>)
 80017a6:	430a      	orrs	r2, r1
 80017a8:	62da      	str	r2, [r3, #44]	; 0x2c
 80017aa:	4b37      	ldr	r3, [pc, #220]	; (8001888 <HAL_RCC_OscConfig+0x624>)
 80017ac:	685b      	ldr	r3, [r3, #4]
 80017ae:	4a3a      	ldr	r2, [pc, #232]	; (8001898 <HAL_RCC_OscConfig+0x634>)
 80017b0:	4013      	ands	r3, r2
 80017b2:	0019      	movs	r1, r3
 80017b4:	687b      	ldr	r3, [r7, #4]
 80017b6:	6a9a      	ldr	r2, [r3, #40]	; 0x28
 80017b8:	687b      	ldr	r3, [r7, #4]
 80017ba:	6a5b      	ldr	r3, [r3, #36]	; 0x24
 80017bc:	431a      	orrs	r2, r3
 80017be:	4b32      	ldr	r3, [pc, #200]	; (8001888 <HAL_RCC_OscConfig+0x624>)
 80017c0:	430a      	orrs	r2, r1
 80017c2:	605a      	str	r2, [r3, #4]
                             RCC_OscInitStruct->PLL.PREDIV,
                             RCC_OscInitStruct->PLL.PLLMUL);
        /* Enable the main PLL. */
        __HAL_RCC_PLL_ENABLE();
 80017c4:	4b30      	ldr	r3, [pc, #192]	; (8001888 <HAL_RCC_OscConfig+0x624>)
 80017c6:	681a      	ldr	r2, [r3, #0]
 80017c8:	4b2f      	ldr	r3, [pc, #188]	; (8001888 <HAL_RCC_OscConfig+0x624>)
 80017ca:	2180      	movs	r1, #128	; 0x80
 80017cc:	0449      	lsls	r1, r1, #17
 80017ce:	430a      	orrs	r2, r1
 80017d0:	601a      	str	r2, [r3, #0]
        
        /* Get Start Tick */
        tickstart = HAL_GetTick();
 80017d2:	f7ff fa91 	bl	8000cf8 <HAL_GetTick>
 80017d6:	0003      	movs	r3, r0
 80017d8:	61bb      	str	r3, [r7, #24]
        
        /* Wait till PLL is ready */
        while(__HAL_RCC_GET_FLAG(RCC_FLAG_PLLRDY)  == RESET)
 80017da:	e008      	b.n	80017ee <HAL_RCC_OscConfig+0x58a>
        {
          if((HAL_GetTick() - tickstart ) > PLL_TIMEOUT_VALUE)
 80017dc:	f7ff fa8c 	bl	8000cf8 <HAL_GetTick>
 80017e0:	0002      	movs	r2, r0
 80017e2:	69bb      	ldr	r3, [r7, #24]
 80017e4:	1ad3      	subs	r3, r2, r3
 80017e6:	2b02      	cmp	r3, #2
 80017e8:	d901      	bls.n	80017ee <HAL_RCC_OscConfig+0x58a>
          {
            return HAL_TIMEOUT;
 80017ea:	2303      	movs	r3, #3
 80017ec:	e047      	b.n	800187e <HAL_RCC_OscConfig+0x61a>
        while(__HAL_RCC_GET_FLAG(RCC_FLAG_PLLRDY)  == RESET)
 80017ee:	4b26      	ldr	r3, [pc, #152]	; (8001888 <HAL_RCC_OscConfig+0x624>)
 80017f0:	681a      	ldr	r2, [r3, #0]
 80017f2:	2380      	movs	r3, #128	; 0x80
 80017f4:	049b      	lsls	r3, r3, #18
 80017f6:	4013      	ands	r3, r2
 80017f8:	d0f0      	beq.n	80017dc <HAL_RCC_OscConfig+0x578>
 80017fa:	e03f      	b.n	800187c <HAL_RCC_OscConfig+0x618>
        }
      }
      else
      {
        /* Disable the main PLL. */
        __HAL_RCC_PLL_DISABLE();
 80017fc:	4b22      	ldr	r3, [pc, #136]	; (8001888 <HAL_RCC_OscConfig+0x624>)
 80017fe:	681a      	ldr	r2, [r3, #0]
 8001800:	4b21      	ldr	r3, [pc, #132]	; (8001888 <HAL_RCC_OscConfig+0x624>)
 8001802:	4924      	ldr	r1, [pc, #144]	; (8001894 <HAL_RCC_OscConfig+0x630>)
 8001804:	400a      	ands	r2, r1
 8001806:	601a      	str	r2, [r3, #0]
 
        /* Get Start Tick */
        tickstart = HAL_GetTick();
 8001808:	f7ff fa76 	bl	8000cf8 <HAL_GetTick>
 800180c:	0003      	movs	r3, r0
 800180e:	61bb      	str	r3, [r7, #24]
        
        /* Wait till PLL is disabled */  
        while(__HAL_RCC_GET_FLAG(RCC_FLAG_PLLRDY)  != RESET)
 8001810:	e008      	b.n	8001824 <HAL_RCC_OscConfig+0x5c0>
        {
          if((HAL_GetTick() - tickstart ) > PLL_TIMEOUT_VALUE)
 8001812:	f7ff fa71 	bl	8000cf8 <HAL_GetTick>
 8001816:	0002      	movs	r2, r0
 8001818:	69bb      	ldr	r3, [r7, #24]
 800181a:	1ad3      	subs	r3, r2, r3
 800181c:	2b02      	cmp	r3, #2
 800181e:	d901      	bls.n	8001824 <HAL_RCC_OscConfig+0x5c0>
          {
            return HAL_TIMEOUT;
 8001820:	2303      	movs	r3, #3
 8001822:	e02c      	b.n	800187e <HAL_RCC_OscConfig+0x61a>
        while(__HAL_RCC_GET_FLAG(RCC_FLAG_PLLRDY)  != RESET)
 8001824:	4b18      	ldr	r3, [pc, #96]	; (8001888 <HAL_RCC_OscConfig+0x624>)
 8001826:	681a      	ldr	r2, [r3, #0]
 8001828:	2380      	movs	r3, #128	; 0x80
 800182a:	049b      	lsls	r3, r3, #18
 800182c:	4013      	ands	r3, r2
 800182e:	d1f0      	bne.n	8001812 <HAL_RCC_OscConfig+0x5ae>
 8001830:	e024      	b.n	800187c <HAL_RCC_OscConfig+0x618>
      }
    }
    else
    {
      /* Check if there is a request to disable the PLL used as System clock source */
      if((RCC_OscInitStruct->PLL.PLLState) == RCC_PLL_OFF)
 8001832:	687b      	ldr	r3, [r7, #4]
 8001834:	6a1b      	ldr	r3, [r3, #32]
 8001836:	2b01      	cmp	r3, #1
 8001838:	d101      	bne.n	800183e <HAL_RCC_OscConfig+0x5da>
      {
        return HAL_ERROR;
 800183a:	2301      	movs	r3, #1
 800183c:	e01f      	b.n	800187e <HAL_RCC_OscConfig+0x61a>
      }
      else
      {
        /* Do not return HAL_ERROR if request repeats the current configuration */
        pll_config  = RCC->CFGR;
 800183e:	4b12      	ldr	r3, [pc, #72]	; (8001888 <HAL_RCC_OscConfig+0x624>)
 8001840:	685b      	ldr	r3, [r3, #4]
 8001842:	617b      	str	r3, [r7, #20]
        pll_config2 = RCC->CFGR2;
 8001844:	4b10      	ldr	r3, [pc, #64]	; (8001888 <HAL_RCC_OscConfig+0x624>)
 8001846:	6adb      	ldr	r3, [r3, #44]	; 0x2c
 8001848:	613b      	str	r3, [r7, #16]
        if((READ_BIT(pll_config,  RCC_CFGR_PLLSRC)  != RCC_OscInitStruct->PLL.PLLSource) ||
 800184a:	697a      	ldr	r2, [r7, #20]
 800184c:	2380      	movs	r3, #128	; 0x80
 800184e:	025b      	lsls	r3, r3, #9
 8001850:	401a      	ands	r2, r3
 8001852:	687b      	ldr	r3, [r7, #4]
 8001854:	6a5b      	ldr	r3, [r3, #36]	; 0x24
 8001856:	429a      	cmp	r2, r3
 8001858:	d10e      	bne.n	8001878 <HAL_RCC_OscConfig+0x614>
           (READ_BIT(pll_config2, RCC_CFGR2_PREDIV) != RCC_OscInitStruct->PLL.PREDIV)    ||
 800185a:	693b      	ldr	r3, [r7, #16]
 800185c:	220f      	movs	r2, #15
 800185e:	401a      	ands	r2, r3
 8001860:	687b      	ldr	r3, [r7, #4]
 8001862:	6adb      	ldr	r3, [r3, #44]	; 0x2c
        if((READ_BIT(pll_config,  RCC_CFGR_PLLSRC)  != RCC_OscInitStruct->PLL.PLLSource) ||
 8001864:	429a      	cmp	r2, r3
 8001866:	d107      	bne.n	8001878 <HAL_RCC_OscConfig+0x614>
           (READ_BIT(pll_config,  RCC_CFGR_PLLMUL)  != RCC_OscInitStruct->PLL.PLLMUL))
 8001868:	697a      	ldr	r2, [r7, #20]
 800186a:	23f0      	movs	r3, #240	; 0xf0
 800186c:	039b      	lsls	r3, r3, #14
 800186e:	401a      	ands	r2, r3
 8001870:	687b      	ldr	r3, [r7, #4]
 8001872:	6a9b      	ldr	r3, [r3, #40]	; 0x28
           (READ_BIT(pll_config2, RCC_CFGR2_PREDIV) != RCC_OscInitStruct->PLL.PREDIV)    ||
 8001874:	429a      	cmp	r2, r3
 8001876:	d001      	beq.n	800187c <HAL_RCC_OscConfig+0x618>
        {
          return HAL_ERROR;
 8001878:	2301      	movs	r3, #1
 800187a:	e000      	b.n	800187e <HAL_RCC_OscConfig+0x61a>
        }
      }
    }
  }

  return HAL_OK;
 800187c:	2300      	movs	r3, #0
}
 800187e:	0018      	movs	r0, r3
 8001880:	46bd      	mov	sp, r7
 8001882:	b008      	add	sp, #32
 8001884:	bd80      	pop	{r7, pc}
 8001886:	46c0      	nop			; (mov r8, r8)
 8001888:	40021000 	.word	0x40021000
 800188c:	00001388 	.word	0x00001388
 8001890:	efffffff 	.word	0xefffffff
 8001894:	feffffff 	.word	0xfeffffff
 8001898:	ffc2ffff 	.word	0xffc2ffff

0800189c <HAL_RCC_ClockConfig>:
  *         You can use @ref HAL_RCC_GetClockConfig() function to know which clock is
  *         currently used as system clock source.
  * @retval HAL status
  */
HAL_StatusTypeDef HAL_RCC_ClockConfig(RCC_ClkInitTypeDef  *RCC_ClkInitStruct, uint32_t FLatency)
{
 800189c:	b580      	push	{r7, lr}
 800189e:	b084      	sub	sp, #16
 80018a0:	af00      	add	r7, sp, #0
 80018a2:	6078      	str	r0, [r7, #4]
 80018a4:	6039      	str	r1, [r7, #0]
  uint32_t tickstart;

  /* Check Null pointer */
  if(RCC_ClkInitStruct == NULL)
 80018a6:	687b      	ldr	r3, [r7, #4]
 80018a8:	2b00      	cmp	r3, #0
 80018aa:	d101      	bne.n	80018b0 <HAL_RCC_ClockConfig+0x14>
  {
    return HAL_ERROR;
 80018ac:	2301      	movs	r3, #1
 80018ae:	e0b3      	b.n	8001a18 <HAL_RCC_ClockConfig+0x17c>
  /* To correctly read data from FLASH memory, the number of wait states (LATENCY) 
  must be correctly programmed according to the frequency of the CPU clock 
    (HCLK) of the device. */

  /* Increasing the number of wait states because of higher CPU frequency */
  if(FLatency > __HAL_FLASH_GET_LATENCY())
 80018b0:	4b5b      	ldr	r3, [pc, #364]	; (8001a20 <HAL_RCC_ClockConfig+0x184>)
 80018b2:	681b      	ldr	r3, [r3, #0]
 80018b4:	2201      	movs	r2, #1
 80018b6:	4013      	ands	r3, r2
 80018b8:	683a      	ldr	r2, [r7, #0]
 80018ba:	429a      	cmp	r2, r3
 80018bc:	d911      	bls.n	80018e2 <HAL_RCC_ClockConfig+0x46>
  {    
    /* Program the new number of wait states to the LATENCY bits in the FLASH_ACR register */
    __HAL_FLASH_SET_LATENCY(FLatency);
 80018be:	4b58      	ldr	r3, [pc, #352]	; (8001a20 <HAL_RCC_ClockConfig+0x184>)
 80018c0:	681b      	ldr	r3, [r3, #0]
 80018c2:	2201      	movs	r2, #1
 80018c4:	4393      	bics	r3, r2
 80018c6:	0019      	movs	r1, r3
 80018c8:	4b55      	ldr	r3, [pc, #340]	; (8001a20 <HAL_RCC_ClockConfig+0x184>)
 80018ca:	683a      	ldr	r2, [r7, #0]
 80018cc:	430a      	orrs	r2, r1
 80018ce:	601a      	str	r2, [r3, #0]
    
    /* Check that the new number of wait states is taken into account to access the Flash
    memory by reading the FLASH_ACR register */
    if(__HAL_FLASH_GET_LATENCY() != FLatency)
 80018d0:	4b53      	ldr	r3, [pc, #332]	; (8001a20 <HAL_RCC_ClockConfig+0x184>)
 80018d2:	681b      	ldr	r3, [r3, #0]
 80018d4:	2201      	movs	r2, #1
 80018d6:	4013      	ands	r3, r2
 80018d8:	683a      	ldr	r2, [r7, #0]
 80018da:	429a      	cmp	r2, r3
 80018dc:	d001      	beq.n	80018e2 <HAL_RCC_ClockConfig+0x46>
    {
      return HAL_ERROR;
 80018de:	2301      	movs	r3, #1
 80018e0:	e09a      	b.n	8001a18 <HAL_RCC_ClockConfig+0x17c>
    }
  }

  /*-------------------------- HCLK Configuration --------------------------*/
  if(((RCC_ClkInitStruct->ClockType) & RCC_CLOCKTYPE_HCLK) == RCC_CLOCKTYPE_HCLK)
 80018e2:	687b      	ldr	r3, [r7, #4]
 80018e4:	681b      	ldr	r3, [r3, #0]
 80018e6:	2202      	movs	r2, #2
 80018e8:	4013      	ands	r3, r2
 80018ea:	d015      	beq.n	8001918 <HAL_RCC_ClockConfig+0x7c>
  {
    /* Set the highest APB divider in order to ensure that we do not go through
       a non-spec phase whatever we decrease or increase HCLK. */
    if(((RCC_ClkInitStruct->ClockType) & RCC_CLOCKTYPE_PCLK1) == RCC_CLOCKTYPE_PCLK1)
 80018ec:	687b      	ldr	r3, [r7, #4]
 80018ee:	681b      	ldr	r3, [r3, #0]
 80018f0:	2204      	movs	r2, #4
 80018f2:	4013      	ands	r3, r2
 80018f4:	d006      	beq.n	8001904 <HAL_RCC_ClockConfig+0x68>
    {
      MODIFY_REG(RCC->CFGR, RCC_CFGR_PPRE, RCC_HCLK_DIV16);
 80018f6:	4b4b      	ldr	r3, [pc, #300]	; (8001a24 <HAL_RCC_ClockConfig+0x188>)
 80018f8:	685a      	ldr	r2, [r3, #4]
 80018fa:	4b4a      	ldr	r3, [pc, #296]	; (8001a24 <HAL_RCC_ClockConfig+0x188>)
 80018fc:	21e0      	movs	r1, #224	; 0xe0
 80018fe:	00c9      	lsls	r1, r1, #3
 8001900:	430a      	orrs	r2, r1
 8001902:	605a      	str	r2, [r3, #4]
    }

    /* Set the new HCLK clock divider */
    assert_param(IS_RCC_HCLK(RCC_ClkInitStruct->AHBCLKDivider));
    MODIFY_REG(RCC->CFGR, RCC_CFGR_HPRE, RCC_ClkInitStruct->AHBCLKDivider);
 8001904:	4b47      	ldr	r3, [pc, #284]	; (8001a24 <HAL_RCC_ClockConfig+0x188>)
 8001906:	685b      	ldr	r3, [r3, #4]
 8001908:	22f0      	movs	r2, #240	; 0xf0
 800190a:	4393      	bics	r3, r2
 800190c:	0019      	movs	r1, r3
 800190e:	687b      	ldr	r3, [r7, #4]
 8001910:	689a      	ldr	r2, [r3, #8]
 8001912:	4b44      	ldr	r3, [pc, #272]	; (8001a24 <HAL_RCC_ClockConfig+0x188>)
 8001914:	430a      	orrs	r2, r1
 8001916:	605a      	str	r2, [r3, #4]
  }

  /*------------------------- SYSCLK Configuration ---------------------------*/ 
  if(((RCC_ClkInitStruct->ClockType) & RCC_CLOCKTYPE_SYSCLK) == RCC_CLOCKTYPE_SYSCLK)
 8001918:	687b      	ldr	r3, [r7, #4]
 800191a:	681b      	ldr	r3, [r3, #0]
 800191c:	2201      	movs	r2, #1
 800191e:	4013      	ands	r3, r2
 8001920:	d040      	beq.n	80019a4 <HAL_RCC_ClockConfig+0x108>
  {
    assert_param(IS_RCC_SYSCLKSOURCE(RCC_ClkInitStruct->SYSCLKSource));
    
    /* HSE is selected as System Clock Source */
    if(RCC_ClkInitStruct->SYSCLKSource == RCC_SYSCLKSOURCE_HSE)
 8001922:	687b      	ldr	r3, [r7, #4]
 8001924:	685b      	ldr	r3, [r3, #4]
 8001926:	2b01      	cmp	r3, #1
 8001928:	d107      	bne.n	800193a <HAL_RCC_ClockConfig+0x9e>
    {
      /* Check the HSE ready flag */  
      if(__HAL_RCC_GET_FLAG(RCC_FLAG_HSERDY) == RESET)
 800192a:	4b3e      	ldr	r3, [pc, #248]	; (8001a24 <HAL_RCC_ClockConfig+0x188>)
 800192c:	681a      	ldr	r2, [r3, #0]
 800192e:	2380      	movs	r3, #128	; 0x80
 8001930:	029b      	lsls	r3, r3, #10
 8001932:	4013      	ands	r3, r2
 8001934:	d114      	bne.n	8001960 <HAL_RCC_ClockConfig+0xc4>
      {
        return HAL_ERROR;
 8001936:	2301      	movs	r3, #1
 8001938:	e06e      	b.n	8001a18 <HAL_RCC_ClockConfig+0x17c>
      }
    }
    /* PLL is selected as System Clock Source */
    else if(RCC_ClkInitStruct->SYSCLKSource == RCC_SYSCLKSOURCE_PLLCLK)
 800193a:	687b      	ldr	r3, [r7, #4]
 800193c:	685b      	ldr	r3, [r3, #4]
 800193e:	2b02      	cmp	r3, #2
 8001940:	d107      	bne.n	8001952 <HAL_RCC_ClockConfig+0xb6>
    {
      /* Check the PLL ready flag */  
      if(__HAL_RCC_GET_FLAG(RCC_FLAG_PLLRDY) == RESET)
 8001942:	4b38      	ldr	r3, [pc, #224]	; (8001a24 <HAL_RCC_ClockConfig+0x188>)
 8001944:	681a      	ldr	r2, [r3, #0]
 8001946:	2380      	movs	r3, #128	; 0x80
 8001948:	049b      	lsls	r3, r3, #18
 800194a:	4013      	ands	r3, r2
 800194c:	d108      	bne.n	8001960 <HAL_RCC_ClockConfig+0xc4>
      {
        return HAL_ERROR;
 800194e:	2301      	movs	r3, #1
 8001950:	e062      	b.n	8001a18 <HAL_RCC_ClockConfig+0x17c>
#endif /* RCC_CFGR_SWS_HSI48 */
    /* HSI is selected as System Clock Source */
    else
    {
      /* Check the HSI ready flag */  
      if(__HAL_RCC_GET_FLAG(RCC_FLAG_HSIRDY) == RESET)
 8001952:	4b34      	ldr	r3, [pc, #208]	; (8001a24 <HAL_RCC_ClockConfig+0x188>)
 8001954:	681b      	ldr	r3, [r3, #0]
 8001956:	2202      	movs	r2, #2
 8001958:	4013      	ands	r3, r2
 800195a:	d101      	bne.n	8001960 <HAL_RCC_ClockConfig+0xc4>
      {
        return HAL_ERROR;
 800195c:	2301      	movs	r3, #1
 800195e:	e05b      	b.n	8001a18 <HAL_RCC_ClockConfig+0x17c>
      }
    }
    __HAL_RCC_SYSCLK_CONFIG(RCC_ClkInitStruct->SYSCLKSource);
 8001960:	4b30      	ldr	r3, [pc, #192]	; (8001a24 <HAL_RCC_ClockConfig+0x188>)
 8001962:	685b      	ldr	r3, [r3, #4]
 8001964:	2203      	movs	r2, #3
 8001966:	4393      	bics	r3, r2
 8001968:	0019      	movs	r1, r3
 800196a:	687b      	ldr	r3, [r7, #4]
 800196c:	685a      	ldr	r2, [r3, #4]
 800196e:	4b2d      	ldr	r3, [pc, #180]	; (8001a24 <HAL_RCC_ClockConfig+0x188>)
 8001970:	430a      	orrs	r2, r1
 8001972:	605a      	str	r2, [r3, #4]

    /* Get Start Tick */
    tickstart = HAL_GetTick();
 8001974:	f7ff f9c0 	bl	8000cf8 <HAL_GetTick>
 8001978:	0003      	movs	r3, r0
 800197a:	60fb      	str	r3, [r7, #12]
    
    while (__HAL_RCC_GET_SYSCLK_SOURCE() != (RCC_ClkInitStruct->SYSCLKSource << RCC_CFGR_SWS_Pos))
 800197c:	e009      	b.n	8001992 <HAL_RCC_ClockConfig+0xf6>
    {
      if((HAL_GetTick() - tickstart ) > CLOCKSWITCH_TIMEOUT_VALUE)
 800197e:	f7ff f9bb 	bl	8000cf8 <HAL_GetTick>
 8001982:	0002      	movs	r2, r0
 8001984:	68fb      	ldr	r3, [r7, #12]
 8001986:	1ad3      	subs	r3, r2, r3
 8001988:	4a27      	ldr	r2, [pc, #156]	; (8001a28 <HAL_RCC_ClockConfig+0x18c>)
 800198a:	4293      	cmp	r3, r2
 800198c:	d901      	bls.n	8001992 <HAL_RCC_ClockConfig+0xf6>
      {
        return HAL_TIMEOUT;
 800198e:	2303      	movs	r3, #3
 8001990:	e042      	b.n	8001a18 <HAL_RCC_ClockConfig+0x17c>
    while (__HAL_RCC_GET_SYSCLK_SOURCE() != (RCC_ClkInitStruct->SYSCLKSource << RCC_CFGR_SWS_Pos))
 8001992:	4b24      	ldr	r3, [pc, #144]	; (8001a24 <HAL_RCC_ClockConfig+0x188>)
 8001994:	685b      	ldr	r3, [r3, #4]
 8001996:	220c      	movs	r2, #12
 8001998:	401a      	ands	r2, r3
 800199a:	687b      	ldr	r3, [r7, #4]
 800199c:	685b      	ldr	r3, [r3, #4]
 800199e:	009b      	lsls	r3, r3, #2
 80019a0:	429a      	cmp	r2, r3
 80019a2:	d1ec      	bne.n	800197e <HAL_RCC_ClockConfig+0xe2>
      }
    }
  }

  /* Decreasing the number of wait states because of lower CPU frequency */
  if(FLatency < __HAL_FLASH_GET_LATENCY())
 80019a4:	4b1e      	ldr	r3, [pc, #120]	; (8001a20 <HAL_RCC_ClockConfig+0x184>)
 80019a6:	681b      	ldr	r3, [r3, #0]
 80019a8:	2201      	movs	r2, #1
 80019aa:	4013      	ands	r3, r2
 80019ac:	683a      	ldr	r2, [r7, #0]
 80019ae:	429a      	cmp	r2, r3
 80019b0:	d211      	bcs.n	80019d6 <HAL_RCC_ClockConfig+0x13a>
  {    
    /* Program the new number of wait states to the LATENCY bits in the FLASH_ACR register */
    __HAL_FLASH_SET_LATENCY(FLatency);
 80019b2:	4b1b      	ldr	r3, [pc, #108]	; (8001a20 <HAL_RCC_ClockConfig+0x184>)
 80019b4:	681b      	ldr	r3, [r3, #0]
 80019b6:	2201      	movs	r2, #1
 80019b8:	4393      	bics	r3, r2
 80019ba:	0019      	movs	r1, r3
 80019bc:	4b18      	ldr	r3, [pc, #96]	; (8001a20 <HAL_RCC_ClockConfig+0x184>)
 80019be:	683a      	ldr	r2, [r7, #0]
 80019c0:	430a      	orrs	r2, r1
 80019c2:	601a      	str	r2, [r3, #0]
    
    /* Check that the new number of wait states is taken into account to access the Flash
    memory by reading the FLASH_ACR register */
    if(__HAL_FLASH_GET_LATENCY() != FLatency)
 80019c4:	4b16      	ldr	r3, [pc, #88]	; (8001a20 <HAL_RCC_ClockConfig+0x184>)
 80019c6:	681b      	ldr	r3, [r3, #0]
 80019c8:	2201      	movs	r2, #1
 80019ca:	4013      	ands	r3, r2
 80019cc:	683a      	ldr	r2, [r7, #0]
 80019ce:	429a      	cmp	r2, r3
 80019d0:	d001      	beq.n	80019d6 <HAL_RCC_ClockConfig+0x13a>
    {
      return HAL_ERROR;
 80019d2:	2301      	movs	r3, #1
 80019d4:	e020      	b.n	8001a18 <HAL_RCC_ClockConfig+0x17c>
    }
  }    

  /*-------------------------- PCLK1 Configuration ---------------------------*/ 
  if(((RCC_ClkInitStruct->ClockType) & RCC_CLOCKTYPE_PCLK1) == RCC_CLOCKTYPE_PCLK1)
 80019d6:	687b      	ldr	r3, [r7, #4]
 80019d8:	681b      	ldr	r3, [r3, #0]
 80019da:	2204      	movs	r2, #4
 80019dc:	4013      	ands	r3, r2
 80019de:	d009      	beq.n	80019f4 <HAL_RCC_ClockConfig+0x158>
  {
    assert_param(IS_RCC_PCLK(RCC_ClkInitStruct->APB1CLKDivider));
    MODIFY_REG(RCC->CFGR, RCC_CFGR_PPRE, RCC_ClkInitStruct->APB1CLKDivider);
 80019e0:	4b10      	ldr	r3, [pc, #64]	; (8001a24 <HAL_RCC_ClockConfig+0x188>)
 80019e2:	685b      	ldr	r3, [r3, #4]
 80019e4:	4a11      	ldr	r2, [pc, #68]	; (8001a2c <HAL_RCC_ClockConfig+0x190>)
 80019e6:	4013      	ands	r3, r2
 80019e8:	0019      	movs	r1, r3
 80019ea:	687b      	ldr	r3, [r7, #4]
 80019ec:	68da      	ldr	r2, [r3, #12]
 80019ee:	4b0d      	ldr	r3, [pc, #52]	; (8001a24 <HAL_RCC_ClockConfig+0x188>)
 80019f0:	430a      	orrs	r2, r1
 80019f2:	605a      	str	r2, [r3, #4]
  }
  
  /* Update the SystemCoreClock global variable */
  SystemCoreClock = HAL_RCC_GetSysClockFreq() >> AHBPrescTable[(RCC->CFGR & RCC_CFGR_HPRE)>> RCC_CFGR_HPRE_BITNUMBER];
 80019f4:	f000 f820 	bl	8001a38 <HAL_RCC_GetSysClockFreq>
 80019f8:	0001      	movs	r1, r0
 80019fa:	4b0a      	ldr	r3, [pc, #40]	; (8001a24 <HAL_RCC_ClockConfig+0x188>)
 80019fc:	685b      	ldr	r3, [r3, #4]
 80019fe:	091b      	lsrs	r3, r3, #4
 8001a00:	220f      	movs	r2, #15
 8001a02:	4013      	ands	r3, r2
 8001a04:	4a0a      	ldr	r2, [pc, #40]	; (8001a30 <HAL_RCC_ClockConfig+0x194>)
 8001a06:	5cd3      	ldrb	r3, [r2, r3]
 8001a08:	000a      	movs	r2, r1
 8001a0a:	40da      	lsrs	r2, r3
 8001a0c:	4b09      	ldr	r3, [pc, #36]	; (8001a34 <HAL_RCC_ClockConfig+0x198>)
 8001a0e:	601a      	str	r2, [r3, #0]

  /* Configure the source of time base considering new system clocks settings*/
  HAL_InitTick (TICK_INT_PRIORITY);
 8001a10:	2000      	movs	r0, #0
 8001a12:	f7ff f92b 	bl	8000c6c <HAL_InitTick>
  
  return HAL_OK;
 8001a16:	2300      	movs	r3, #0
}
 8001a18:	0018      	movs	r0, r3
 8001a1a:	46bd      	mov	sp, r7
 8001a1c:	b004      	add	sp, #16
 8001a1e:	bd80      	pop	{r7, pc}
 8001a20:	40022000 	.word	0x40022000
 8001a24:	40021000 	.word	0x40021000
 8001a28:	00001388 	.word	0x00001388
 8001a2c:	fffff8ff 	.word	0xfffff8ff
 8001a30:	08002908 	.word	0x08002908
 8001a34:	20000000 	.word	0x20000000

08001a38 <HAL_RCC_GetSysClockFreq>:
  *         right SYSCLK value. Otherwise, any configuration based on this function will be incorrect.
  *         
  * @retval SYSCLK frequency
  */
uint32_t HAL_RCC_GetSysClockFreq(void)
{
 8001a38:	b590      	push	{r4, r7, lr}
 8001a3a:	b08f      	sub	sp, #60	; 0x3c
 8001a3c:	af00      	add	r7, sp, #0
  const uint8_t aPLLMULFactorTable[16] = { 2U,  3U,  4U,  5U,  6U,  7U,  8U,  9U,
 8001a3e:	2314      	movs	r3, #20
 8001a40:	18fb      	adds	r3, r7, r3
 8001a42:	4a2b      	ldr	r2, [pc, #172]	; (8001af0 <HAL_RCC_GetSysClockFreq+0xb8>)
 8001a44:	ca13      	ldmia	r2!, {r0, r1, r4}
 8001a46:	c313      	stmia	r3!, {r0, r1, r4}
 8001a48:	6812      	ldr	r2, [r2, #0]
 8001a4a:	601a      	str	r2, [r3, #0]
                                         10U, 11U, 12U, 13U, 14U, 15U, 16U, 16U};
  const uint8_t aPredivFactorTable[16] = { 1U, 2U,  3U,  4U,  5U,  6U,  7U,  8U,
 8001a4c:	1d3b      	adds	r3, r7, #4
 8001a4e:	4a29      	ldr	r2, [pc, #164]	; (8001af4 <HAL_RCC_GetSysClockFreq+0xbc>)
 8001a50:	ca13      	ldmia	r2!, {r0, r1, r4}
 8001a52:	c313      	stmia	r3!, {r0, r1, r4}
 8001a54:	6812      	ldr	r2, [r2, #0]
 8001a56:	601a      	str	r2, [r3, #0]
                                           9U,10U, 11U, 12U, 13U, 14U, 15U, 16U};

  uint32_t tmpreg = 0U, prediv = 0U, pllclk = 0U, pllmul = 0U;
 8001a58:	2300      	movs	r3, #0
 8001a5a:	62fb      	str	r3, [r7, #44]	; 0x2c
 8001a5c:	2300      	movs	r3, #0
 8001a5e:	62bb      	str	r3, [r7, #40]	; 0x28
 8001a60:	2300      	movs	r3, #0
 8001a62:	637b      	str	r3, [r7, #52]	; 0x34
 8001a64:	2300      	movs	r3, #0
 8001a66:	627b      	str	r3, [r7, #36]	; 0x24
  uint32_t sysclockfreq = 0U;
 8001a68:	2300      	movs	r3, #0
 8001a6a:	633b      	str	r3, [r7, #48]	; 0x30
  
  tmpreg = RCC->CFGR;
 8001a6c:	4b22      	ldr	r3, [pc, #136]	; (8001af8 <HAL_RCC_GetSysClockFreq+0xc0>)
 8001a6e:	685b      	ldr	r3, [r3, #4]
 8001a70:	62fb      	str	r3, [r7, #44]	; 0x2c
  
  /* Get SYSCLK source -------------------------------------------------------*/
  switch (tmpreg & RCC_CFGR_SWS)
 8001a72:	6afb      	ldr	r3, [r7, #44]	; 0x2c
 8001a74:	220c      	movs	r2, #12
 8001a76:	4013      	ands	r3, r2
 8001a78:	2b04      	cmp	r3, #4
 8001a7a:	d002      	beq.n	8001a82 <HAL_RCC_GetSysClockFreq+0x4a>
 8001a7c:	2b08      	cmp	r3, #8
 8001a7e:	d003      	beq.n	8001a88 <HAL_RCC_GetSysClockFreq+0x50>
 8001a80:	e02d      	b.n	8001ade <HAL_RCC_GetSysClockFreq+0xa6>
  {
    case RCC_SYSCLKSOURCE_STATUS_HSE:  /* HSE used as system clock */
    {
      sysclockfreq = HSE_VALUE;
 8001a82:	4b1e      	ldr	r3, [pc, #120]	; (8001afc <HAL_RCC_GetSysClockFreq+0xc4>)
 8001a84:	633b      	str	r3, [r7, #48]	; 0x30
      break;
 8001a86:	e02d      	b.n	8001ae4 <HAL_RCC_GetSysClockFreq+0xac>
    }
    case RCC_SYSCLKSOURCE_STATUS_PLLCLK:  /* PLL used as system clock */
    {
      pllmul = aPLLMULFactorTable[(uint32_t)(tmpreg & RCC_CFGR_PLLMUL) >> RCC_CFGR_PLLMUL_BITNUMBER];
 8001a88:	6afb      	ldr	r3, [r7, #44]	; 0x2c
 8001a8a:	0c9b      	lsrs	r3, r3, #18
 8001a8c:	220f      	movs	r2, #15
 8001a8e:	4013      	ands	r3, r2
 8001a90:	2214      	movs	r2, #20
 8001a92:	18ba      	adds	r2, r7, r2
 8001a94:	5cd3      	ldrb	r3, [r2, r3]
 8001a96:	627b      	str	r3, [r7, #36]	; 0x24
      prediv = aPredivFactorTable[(uint32_t)(RCC->CFGR2 & RCC_CFGR2_PREDIV) >> RCC_CFGR2_PREDIV_BITNUMBER];
 8001a98:	4b17      	ldr	r3, [pc, #92]	; (8001af8 <HAL_RCC_GetSysClockFreq+0xc0>)
 8001a9a:	6adb      	ldr	r3, [r3, #44]	; 0x2c
 8001a9c:	220f      	movs	r2, #15
 8001a9e:	4013      	ands	r3, r2
 8001aa0:	1d3a      	adds	r2, r7, #4
 8001aa2:	5cd3      	ldrb	r3, [r2, r3]
 8001aa4:	62bb      	str	r3, [r7, #40]	; 0x28
      if ((tmpreg & RCC_CFGR_PLLSRC) == RCC_PLLSOURCE_HSE)
 8001aa6:	6afa      	ldr	r2, [r7, #44]	; 0x2c
 8001aa8:	2380      	movs	r3, #128	; 0x80
 8001aaa:	025b      	lsls	r3, r3, #9
 8001aac:	4013      	ands	r3, r2
 8001aae:	d009      	beq.n	8001ac4 <HAL_RCC_GetSysClockFreq+0x8c>
      {
        /* HSE used as PLL clock source : PLLCLK = HSE/PREDIV * PLLMUL */
        pllclk = (uint32_t)((uint64_t) HSE_VALUE / (uint64_t) (prediv)) * ((uint64_t) pllmul);
 8001ab0:	6ab9      	ldr	r1, [r7, #40]	; 0x28
 8001ab2:	4812      	ldr	r0, [pc, #72]	; (8001afc <HAL_RCC_GetSysClockFreq+0xc4>)
 8001ab4:	f7fe fb28 	bl	8000108 <__udivsi3>
 8001ab8:	0003      	movs	r3, r0
 8001aba:	001a      	movs	r2, r3
 8001abc:	6a7b      	ldr	r3, [r7, #36]	; 0x24
 8001abe:	4353      	muls	r3, r2
 8001ac0:	637b      	str	r3, [r7, #52]	; 0x34
 8001ac2:	e009      	b.n	8001ad8 <HAL_RCC_GetSysClockFreq+0xa0>
#if  (defined(STM32F042x6) || defined(STM32F048xx) || defined(STM32F070x6) || defined(STM32F071xB) || defined(STM32F072xB) || defined(STM32F078xx) || defined(STM32F070xB) || defined(STM32F091xC) || defined(STM32F098xx) || defined(STM32F030xC))
        /* HSI used as PLL clock source : PLLCLK = HSI/PREDIV * PLLMUL */
        pllclk = (uint32_t)((uint64_t) HSI_VALUE / (uint64_t) (prediv)) * ((uint64_t) pllmul);
#else
        /* HSI used as PLL clock source : PLLCLK = HSI/2 * PLLMUL */
        pllclk = (uint32_t)((uint64_t) (HSI_VALUE >> 1U) * ((uint64_t) pllmul));
 8001ac4:	6a79      	ldr	r1, [r7, #36]	; 0x24
 8001ac6:	000a      	movs	r2, r1
 8001ac8:	0152      	lsls	r2, r2, #5
 8001aca:	1a52      	subs	r2, r2, r1
 8001acc:	0193      	lsls	r3, r2, #6
 8001ace:	1a9b      	subs	r3, r3, r2
 8001ad0:	00db      	lsls	r3, r3, #3
 8001ad2:	185b      	adds	r3, r3, r1
 8001ad4:	021b      	lsls	r3, r3, #8
 8001ad6:	637b      	str	r3, [r7, #52]	; 0x34
#endif
      }
      sysclockfreq = pllclk;
 8001ad8:	6b7b      	ldr	r3, [r7, #52]	; 0x34
 8001ada:	633b      	str	r3, [r7, #48]	; 0x30
      break;
 8001adc:	e002      	b.n	8001ae4 <HAL_RCC_GetSysClockFreq+0xac>
    }
#endif /* RCC_CFGR_SWS_HSI48 */
    case RCC_SYSCLKSOURCE_STATUS_HSI:  /* HSI used as system clock source */
    default: /* HSI used as system clock */
    {
      sysclockfreq = HSI_VALUE;
 8001ade:	4b07      	ldr	r3, [pc, #28]	; (8001afc <HAL_RCC_GetSysClockFreq+0xc4>)
 8001ae0:	633b      	str	r3, [r7, #48]	; 0x30
      break;
 8001ae2:	46c0      	nop			; (mov r8, r8)
    }
  }
  return sysclockfreq;
 8001ae4:	6b3b      	ldr	r3, [r7, #48]	; 0x30
}
 8001ae6:	0018      	movs	r0, r3
 8001ae8:	46bd      	mov	sp, r7
 8001aea:	b00f      	add	sp, #60	; 0x3c
 8001aec:	bd90      	pop	{r4, r7, pc}
 8001aee:	46c0      	nop			; (mov r8, r8)
 8001af0:	080028e8 	.word	0x080028e8
 8001af4:	080028f8 	.word	0x080028f8
 8001af8:	40021000 	.word	0x40021000
 8001afc:	007a1200 	.word	0x007a1200

08001b00 <HAL_TIM_Base_Init>:
  *         Ex: call @ref HAL_TIM_Base_DeInit() before HAL_TIM_Base_Init()
  * @param  htim TIM Base handle
  * @retval HAL status
  */
HAL_StatusTypeDef HAL_TIM_Base_Init(TIM_HandleTypeDef *htim)
{
 8001b00:	b580      	push	{r7, lr}
 8001b02:	b082      	sub	sp, #8
 8001b04:	af00      	add	r7, sp, #0
 8001b06:	6078      	str	r0, [r7, #4]
  /* Check the TIM handle allocation */
  if (htim == NULL)
 8001b08:	687b      	ldr	r3, [r7, #4]
 8001b0a:	2b00      	cmp	r3, #0
 8001b0c:	d101      	bne.n	8001b12 <HAL_TIM_Base_Init+0x12>
  {
    return HAL_ERROR;
 8001b0e:	2301      	movs	r3, #1
 8001b10:	e01e      	b.n	8001b50 <HAL_TIM_Base_Init+0x50>
  assert_param(IS_TIM_INSTANCE(htim->Instance));
  assert_param(IS_TIM_COUNTER_MODE(htim->Init.CounterMode));
  assert_param(IS_TIM_CLOCKDIVISION_DIV(htim->Init.ClockDivision));
  assert_param(IS_TIM_AUTORELOAD_PRELOAD(htim->Init.AutoReloadPreload));

  if (htim->State == HAL_TIM_STATE_RESET)
 8001b12:	687b      	ldr	r3, [r7, #4]
 8001b14:	223d      	movs	r2, #61	; 0x3d
 8001b16:	5c9b      	ldrb	r3, [r3, r2]
 8001b18:	b2db      	uxtb	r3, r3
 8001b1a:	2b00      	cmp	r3, #0
 8001b1c:	d107      	bne.n	8001b2e <HAL_TIM_Base_Init+0x2e>
  {
    /* Allocate lock resource and initialize it */
    htim->Lock = HAL_UNLOCKED;
 8001b1e:	687b      	ldr	r3, [r7, #4]
 8001b20:	223c      	movs	r2, #60	; 0x3c
 8001b22:	2100      	movs	r1, #0
 8001b24:	5499      	strb	r1, [r3, r2]
    }
    /* Init the low level hardware : GPIO, CLOCK, NVIC */
    htim->Base_MspInitCallback(htim);
#else
    /* Init the low level hardware : GPIO, CLOCK, NVIC */
    HAL_TIM_Base_MspInit(htim);
 8001b26:	687b      	ldr	r3, [r7, #4]
 8001b28:	0018      	movs	r0, r3
 8001b2a:	f7fe ffbd 	bl	8000aa8 <HAL_TIM_Base_MspInit>
#endif /* USE_HAL_TIM_REGISTER_CALLBACKS */
  }

  /* Set the TIM state */
  htim->State = HAL_TIM_STATE_BUSY;
 8001b2e:	687b      	ldr	r3, [r7, #4]
 8001b30:	223d      	movs	r2, #61	; 0x3d
 8001b32:	2102      	movs	r1, #2
 8001b34:	5499      	strb	r1, [r3, r2]

  /* Set the Time Base configuration */
  TIM_Base_SetConfig(htim->Instance, &htim->Init);
 8001b36:	687b      	ldr	r3, [r7, #4]
 8001b38:	681a      	ldr	r2, [r3, #0]
 8001b3a:	687b      	ldr	r3, [r7, #4]
 8001b3c:	3304      	adds	r3, #4
 8001b3e:	0019      	movs	r1, r3
 8001b40:	0010      	movs	r0, r2
 8001b42:	f000 fb2d 	bl	80021a0 <TIM_Base_SetConfig>

  /* Initialize the TIM state*/
  htim->State = HAL_TIM_STATE_READY;
 8001b46:	687b      	ldr	r3, [r7, #4]
 8001b48:	223d      	movs	r2, #61	; 0x3d
 8001b4a:	2101      	movs	r1, #1
 8001b4c:	5499      	strb	r1, [r3, r2]

  return HAL_OK;
 8001b4e:	2300      	movs	r3, #0
}
 8001b50:	0018      	movs	r0, r3
 8001b52:	46bd      	mov	sp, r7
 8001b54:	b002      	add	sp, #8
 8001b56:	bd80      	pop	{r7, pc}

08001b58 <HAL_TIM_Base_Start>:
  * @brief  Starts the TIM Base generation.
  * @param  htim TIM Base handle
  * @retval HAL status
  */
HAL_StatusTypeDef HAL_TIM_Base_Start(TIM_HandleTypeDef *htim)
{
 8001b58:	b580      	push	{r7, lr}
 8001b5a:	b084      	sub	sp, #16
 8001b5c:	af00      	add	r7, sp, #0
 8001b5e:	6078      	str	r0, [r7, #4]

  /* Check the parameters */
  assert_param(IS_TIM_INSTANCE(htim->Instance));

  /* Set the TIM state */
  htim->State = HAL_TIM_STATE_BUSY;
 8001b60:	687b      	ldr	r3, [r7, #4]
 8001b62:	223d      	movs	r2, #61	; 0x3d
 8001b64:	2102      	movs	r1, #2
 8001b66:	5499      	strb	r1, [r3, r2]

  /* Enable the Peripheral, except in trigger mode where enable is automatically done with trigger */
  tmpsmcr = htim->Instance->SMCR & TIM_SMCR_SMS;
 8001b68:	687b      	ldr	r3, [r7, #4]
 8001b6a:	681b      	ldr	r3, [r3, #0]
 8001b6c:	689b      	ldr	r3, [r3, #8]
 8001b6e:	2207      	movs	r2, #7
 8001b70:	4013      	ands	r3, r2
 8001b72:	60fb      	str	r3, [r7, #12]
  if (!IS_TIM_SLAVEMODE_TRIGGER_ENABLED(tmpsmcr))
 8001b74:	68fb      	ldr	r3, [r7, #12]
 8001b76:	2b06      	cmp	r3, #6
 8001b78:	d007      	beq.n	8001b8a <HAL_TIM_Base_Start+0x32>
  {
    __HAL_TIM_ENABLE(htim);
 8001b7a:	687b      	ldr	r3, [r7, #4]
 8001b7c:	681b      	ldr	r3, [r3, #0]
 8001b7e:	681a      	ldr	r2, [r3, #0]
 8001b80:	687b      	ldr	r3, [r7, #4]
 8001b82:	681b      	ldr	r3, [r3, #0]
 8001b84:	2101      	movs	r1, #1
 8001b86:	430a      	orrs	r2, r1
 8001b88:	601a      	str	r2, [r3, #0]
  }

  /* Change the TIM state*/
  htim->State = HAL_TIM_STATE_READY;
 8001b8a:	687b      	ldr	r3, [r7, #4]
 8001b8c:	223d      	movs	r2, #61	; 0x3d
 8001b8e:	2101      	movs	r1, #1
 8001b90:	5499      	strb	r1, [r3, r2]

  /* Return function status */
  return HAL_OK;
 8001b92:	2300      	movs	r3, #0
}
 8001b94:	0018      	movs	r0, r3
 8001b96:	46bd      	mov	sp, r7
 8001b98:	b004      	add	sp, #16
 8001b9a:	bd80      	pop	{r7, pc}

08001b9c <HAL_TIM_PWM_Init>:
  *         Ex: call @ref HAL_TIM_PWM_DeInit() before HAL_TIM_PWM_Init()
  * @param  htim TIM PWM handle
  * @retval HAL status
  */
HAL_StatusTypeDef HAL_TIM_PWM_Init(TIM_HandleTypeDef *htim)
{
 8001b9c:	b580      	push	{r7, lr}
 8001b9e:	b082      	sub	sp, #8
 8001ba0:	af00      	add	r7, sp, #0
 8001ba2:	6078      	str	r0, [r7, #4]
  /* Check the TIM handle allocation */
  if (htim == NULL)
 8001ba4:	687b      	ldr	r3, [r7, #4]
 8001ba6:	2b00      	cmp	r3, #0
 8001ba8:	d101      	bne.n	8001bae <HAL_TIM_PWM_Init+0x12>
  {
    return HAL_ERROR;
 8001baa:	2301      	movs	r3, #1
 8001bac:	e01e      	b.n	8001bec <HAL_TIM_PWM_Init+0x50>
  assert_param(IS_TIM_INSTANCE(htim->Instance));
  assert_param(IS_TIM_COUNTER_MODE(htim->Init.CounterMode));
  assert_param(IS_TIM_CLOCKDIVISION_DIV(htim->Init.ClockDivision));
  assert_param(IS_TIM_AUTORELOAD_PRELOAD(htim->Init.AutoReloadPreload));

  if (htim->State == HAL_TIM_STATE_RESET)
 8001bae:	687b      	ldr	r3, [r7, #4]
 8001bb0:	223d      	movs	r2, #61	; 0x3d
 8001bb2:	5c9b      	ldrb	r3, [r3, r2]
 8001bb4:	b2db      	uxtb	r3, r3
 8001bb6:	2b00      	cmp	r3, #0
 8001bb8:	d107      	bne.n	8001bca <HAL_TIM_PWM_Init+0x2e>
  {
    /* Allocate lock resource and initialize it */
    htim->Lock = HAL_UNLOCKED;
 8001bba:	687b      	ldr	r3, [r7, #4]
 8001bbc:	223c      	movs	r2, #60	; 0x3c
 8001bbe:	2100      	movs	r1, #0
 8001bc0:	5499      	strb	r1, [r3, r2]
    }
    /* Init the low level hardware : GPIO, CLOCK, NVIC */
    htim->PWM_MspInitCallback(htim);
#else
    /* Init the low level hardware : GPIO, CLOCK, NVIC and DMA */
    HAL_TIM_PWM_MspInit(htim);
 8001bc2:	687b      	ldr	r3, [r7, #4]
 8001bc4:	0018      	movs	r0, r3
 8001bc6:	f7fe fed5 	bl	8000974 <HAL_TIM_PWM_MspInit>
#endif /* USE_HAL_TIM_REGISTER_CALLBACKS */
  }

  /* Set the TIM state */
  htim->State = HAL_TIM_STATE_BUSY;
 8001bca:	687b      	ldr	r3, [r7, #4]
 8001bcc:	223d      	movs	r2, #61	; 0x3d
 8001bce:	2102      	movs	r1, #2
 8001bd0:	5499      	strb	r1, [r3, r2]

  /* Init the base time for the PWM */
  TIM_Base_SetConfig(htim->Instance, &htim->Init);
 8001bd2:	687b      	ldr	r3, [r7, #4]
 8001bd4:	681a      	ldr	r2, [r3, #0]
 8001bd6:	687b      	ldr	r3, [r7, #4]
 8001bd8:	3304      	adds	r3, #4
 8001bda:	0019      	movs	r1, r3
 8001bdc:	0010      	movs	r0, r2
 8001bde:	f000 fadf 	bl	80021a0 <TIM_Base_SetConfig>

  /* Initialize the TIM state*/
  htim->State = HAL_TIM_STATE_READY;
 8001be2:	687b      	ldr	r3, [r7, #4]
 8001be4:	223d      	movs	r2, #61	; 0x3d
 8001be6:	2101      	movs	r1, #1
 8001be8:	5499      	strb	r1, [r3, r2]

  return HAL_OK;
 8001bea:	2300      	movs	r3, #0
}
 8001bec:	0018      	movs	r0, r3
 8001bee:	46bd      	mov	sp, r7
 8001bf0:	b002      	add	sp, #8
 8001bf2:	bd80      	pop	{r7, pc}

08001bf4 <HAL_TIM_PWM_Start>:
  *            @arg TIM_CHANNEL_3: TIM Channel 3 selected
  *            @arg TIM_CHANNEL_4: TIM Channel 4 selected
  * @retval HAL status
  */
HAL_StatusTypeDef HAL_TIM_PWM_Start(TIM_HandleTypeDef *htim, uint32_t Channel)
{
 8001bf4:	b580      	push	{r7, lr}
 8001bf6:	b084      	sub	sp, #16
 8001bf8:	af00      	add	r7, sp, #0
 8001bfa:	6078      	str	r0, [r7, #4]
 8001bfc:	6039      	str	r1, [r7, #0]

  /* Check the parameters */
  assert_param(IS_TIM_CCX_INSTANCE(htim->Instance, Channel));

  /* Enable the Capture compare channel */
  TIM_CCxChannelCmd(htim->Instance, Channel, TIM_CCx_ENABLE);
 8001bfe:	687b      	ldr	r3, [r7, #4]
 8001c00:	681b      	ldr	r3, [r3, #0]
 8001c02:	6839      	ldr	r1, [r7, #0]
 8001c04:	2201      	movs	r2, #1
 8001c06:	0018      	movs	r0, r3
 8001c08:	f000 fd46 	bl	8002698 <TIM_CCxChannelCmd>

  if (IS_TIM_BREAK_INSTANCE(htim->Instance) != RESET)
 8001c0c:	687b      	ldr	r3, [r7, #4]
 8001c0e:	681b      	ldr	r3, [r3, #0]
 8001c10:	4a1a      	ldr	r2, [pc, #104]	; (8001c7c <HAL_TIM_PWM_Start+0x88>)
 8001c12:	4293      	cmp	r3, r2
 8001c14:	d00e      	beq.n	8001c34 <HAL_TIM_PWM_Start+0x40>
 8001c16:	687b      	ldr	r3, [r7, #4]
 8001c18:	681b      	ldr	r3, [r3, #0]
 8001c1a:	4a19      	ldr	r2, [pc, #100]	; (8001c80 <HAL_TIM_PWM_Start+0x8c>)
 8001c1c:	4293      	cmp	r3, r2
 8001c1e:	d009      	beq.n	8001c34 <HAL_TIM_PWM_Start+0x40>
 8001c20:	687b      	ldr	r3, [r7, #4]
 8001c22:	681b      	ldr	r3, [r3, #0]
 8001c24:	4a17      	ldr	r2, [pc, #92]	; (8001c84 <HAL_TIM_PWM_Start+0x90>)
 8001c26:	4293      	cmp	r3, r2
 8001c28:	d004      	beq.n	8001c34 <HAL_TIM_PWM_Start+0x40>
 8001c2a:	687b      	ldr	r3, [r7, #4]
 8001c2c:	681b      	ldr	r3, [r3, #0]
 8001c2e:	4a16      	ldr	r2, [pc, #88]	; (8001c88 <HAL_TIM_PWM_Start+0x94>)
 8001c30:	4293      	cmp	r3, r2
 8001c32:	d101      	bne.n	8001c38 <HAL_TIM_PWM_Start+0x44>
 8001c34:	2301      	movs	r3, #1
 8001c36:	e000      	b.n	8001c3a <HAL_TIM_PWM_Start+0x46>
 8001c38:	2300      	movs	r3, #0
 8001c3a:	2b00      	cmp	r3, #0
 8001c3c:	d008      	beq.n	8001c50 <HAL_TIM_PWM_Start+0x5c>
  {
    /* Enable the main output */
    __HAL_TIM_MOE_ENABLE(htim);
 8001c3e:	687b      	ldr	r3, [r7, #4]
 8001c40:	681b      	ldr	r3, [r3, #0]
 8001c42:	6c5a      	ldr	r2, [r3, #68]	; 0x44
 8001c44:	687b      	ldr	r3, [r7, #4]
 8001c46:	681b      	ldr	r3, [r3, #0]
 8001c48:	2180      	movs	r1, #128	; 0x80
 8001c4a:	0209      	lsls	r1, r1, #8
 8001c4c:	430a      	orrs	r2, r1
 8001c4e:	645a      	str	r2, [r3, #68]	; 0x44
  }

  /* Enable the Peripheral, except in trigger mode where enable is automatically done with trigger */
  tmpsmcr = htim->Instance->SMCR & TIM_SMCR_SMS;
 8001c50:	687b      	ldr	r3, [r7, #4]
 8001c52:	681b      	ldr	r3, [r3, #0]
 8001c54:	689b      	ldr	r3, [r3, #8]
 8001c56:	2207      	movs	r2, #7
 8001c58:	4013      	ands	r3, r2
 8001c5a:	60fb      	str	r3, [r7, #12]
  if (!IS_TIM_SLAVEMODE_TRIGGER_ENABLED(tmpsmcr))
 8001c5c:	68fb      	ldr	r3, [r7, #12]
 8001c5e:	2b06      	cmp	r3, #6
 8001c60:	d007      	beq.n	8001c72 <HAL_TIM_PWM_Start+0x7e>
  {
    __HAL_TIM_ENABLE(htim);
 8001c62:	687b      	ldr	r3, [r7, #4]
 8001c64:	681b      	ldr	r3, [r3, #0]
 8001c66:	681a      	ldr	r2, [r3, #0]
 8001c68:	687b      	ldr	r3, [r7, #4]
 8001c6a:	681b      	ldr	r3, [r3, #0]
 8001c6c:	2101      	movs	r1, #1
 8001c6e:	430a      	orrs	r2, r1
 8001c70:	601a      	str	r2, [r3, #0]
  }

  /* Return function status */
  return HAL_OK;
 8001c72:	2300      	movs	r3, #0
}
 8001c74:	0018      	movs	r0, r3
 8001c76:	46bd      	mov	sp, r7
 8001c78:	b004      	add	sp, #16
 8001c7a:	bd80      	pop	{r7, pc}
 8001c7c:	40012c00 	.word	0x40012c00
 8001c80:	40014000 	.word	0x40014000
 8001c84:	40014400 	.word	0x40014400
 8001c88:	40014800 	.word	0x40014800

08001c8c <HAL_TIM_Encoder_Init>:
  * @param  htim TIM Encoder Interface handle
  * @param  sConfig TIM Encoder Interface configuration structure
  * @retval HAL status
  */
HAL_StatusTypeDef HAL_TIM_Encoder_Init(TIM_HandleTypeDef *htim,  TIM_Encoder_InitTypeDef *sConfig)
{
 8001c8c:	b580      	push	{r7, lr}
 8001c8e:	b086      	sub	sp, #24
 8001c90:	af00      	add	r7, sp, #0
 8001c92:	6078      	str	r0, [r7, #4]
 8001c94:	6039      	str	r1, [r7, #0]
  uint32_t tmpsmcr;
  uint32_t tmpccmr1;
  uint32_t tmpccer;

  /* Check the TIM handle allocation */
  if (htim == NULL)
 8001c96:	687b      	ldr	r3, [r7, #4]
 8001c98:	2b00      	cmp	r3, #0
 8001c9a:	d101      	bne.n	8001ca0 <HAL_TIM_Encoder_Init+0x14>
  {
    return HAL_ERROR;
 8001c9c:	2301      	movs	r3, #1
 8001c9e:	e07c      	b.n	8001d9a <HAL_TIM_Encoder_Init+0x10e>
  assert_param(IS_TIM_IC_PRESCALER(sConfig->IC1Prescaler));
  assert_param(IS_TIM_IC_PRESCALER(sConfig->IC2Prescaler));
  assert_param(IS_TIM_IC_FILTER(sConfig->IC1Filter));
  assert_param(IS_TIM_IC_FILTER(sConfig->IC2Filter));

  if (htim->State == HAL_TIM_STATE_RESET)
 8001ca0:	687b      	ldr	r3, [r7, #4]
 8001ca2:	223d      	movs	r2, #61	; 0x3d
 8001ca4:	5c9b      	ldrb	r3, [r3, r2]
 8001ca6:	b2db      	uxtb	r3, r3
 8001ca8:	2b00      	cmp	r3, #0
 8001caa:	d107      	bne.n	8001cbc <HAL_TIM_Encoder_Init+0x30>
  {
    /* Allocate lock resource and initialize it */
    htim->Lock = HAL_UNLOCKED;
 8001cac:	687b      	ldr	r3, [r7, #4]
 8001cae:	223c      	movs	r2, #60	; 0x3c
 8001cb0:	2100      	movs	r1, #0
 8001cb2:	5499      	strb	r1, [r3, r2]
    }
    /* Init the low level hardware : GPIO, CLOCK, NVIC */
    htim->Encoder_MspInitCallback(htim);
#else
    /* Init the low level hardware : GPIO, CLOCK, NVIC and DMA */
    HAL_TIM_Encoder_MspInit(htim);
 8001cb4:	687b      	ldr	r3, [r7, #4]
 8001cb6:	0018      	movs	r0, r3
 8001cb8:	f7fe fe7c 	bl	80009b4 <HAL_TIM_Encoder_MspInit>
#endif /* USE_HAL_TIM_REGISTER_CALLBACKS */
  }

  /* Set the TIM state */
  htim->State = HAL_TIM_STATE_BUSY;
 8001cbc:	687b      	ldr	r3, [r7, #4]
 8001cbe:	223d      	movs	r2, #61	; 0x3d
 8001cc0:	2102      	movs	r1, #2
 8001cc2:	5499      	strb	r1, [r3, r2]

  /* Reset the SMS and ECE bits */
  htim->Instance->SMCR &= ~(TIM_SMCR_SMS | TIM_SMCR_ECE);
 8001cc4:	687b      	ldr	r3, [r7, #4]
 8001cc6:	681b      	ldr	r3, [r3, #0]
 8001cc8:	689a      	ldr	r2, [r3, #8]
 8001cca:	687b      	ldr	r3, [r7, #4]
 8001ccc:	681b      	ldr	r3, [r3, #0]
 8001cce:	4935      	ldr	r1, [pc, #212]	; (8001da4 <HAL_TIM_Encoder_Init+0x118>)
 8001cd0:	400a      	ands	r2, r1
 8001cd2:	609a      	str	r2, [r3, #8]

  /* Configure the Time base in the Encoder Mode */
  TIM_Base_SetConfig(htim->Instance, &htim->Init);
 8001cd4:	687b      	ldr	r3, [r7, #4]
 8001cd6:	681a      	ldr	r2, [r3, #0]
 8001cd8:	687b      	ldr	r3, [r7, #4]
 8001cda:	3304      	adds	r3, #4
 8001cdc:	0019      	movs	r1, r3
 8001cde:	0010      	movs	r0, r2
 8001ce0:	f000 fa5e 	bl	80021a0 <TIM_Base_SetConfig>

  /* Get the TIMx SMCR register value */
  tmpsmcr = htim->Instance->SMCR;
 8001ce4:	687b      	ldr	r3, [r7, #4]
 8001ce6:	681b      	ldr	r3, [r3, #0]
 8001ce8:	689b      	ldr	r3, [r3, #8]
 8001cea:	617b      	str	r3, [r7, #20]

  /* Get the TIMx CCMR1 register value */
  tmpccmr1 = htim->Instance->CCMR1;
 8001cec:	687b      	ldr	r3, [r7, #4]
 8001cee:	681b      	ldr	r3, [r3, #0]
 8001cf0:	699b      	ldr	r3, [r3, #24]
 8001cf2:	613b      	str	r3, [r7, #16]

  /* Get the TIMx CCER register value */
  tmpccer = htim->Instance->CCER;
 8001cf4:	687b      	ldr	r3, [r7, #4]
 8001cf6:	681b      	ldr	r3, [r3, #0]
 8001cf8:	6a1b      	ldr	r3, [r3, #32]
 8001cfa:	60fb      	str	r3, [r7, #12]

  /* Set the encoder Mode */
  tmpsmcr |= sConfig->EncoderMode;
 8001cfc:	683b      	ldr	r3, [r7, #0]
 8001cfe:	681b      	ldr	r3, [r3, #0]
 8001d00:	697a      	ldr	r2, [r7, #20]
 8001d02:	4313      	orrs	r3, r2
 8001d04:	617b      	str	r3, [r7, #20]

  /* Select the Capture Compare 1 and the Capture Compare 2 as input */
  tmpccmr1 &= ~(TIM_CCMR1_CC1S | TIM_CCMR1_CC2S);
 8001d06:	693b      	ldr	r3, [r7, #16]
 8001d08:	4a27      	ldr	r2, [pc, #156]	; (8001da8 <HAL_TIM_Encoder_Init+0x11c>)
 8001d0a:	4013      	ands	r3, r2
 8001d0c:	613b      	str	r3, [r7, #16]
  tmpccmr1 |= (sConfig->IC1Selection | (sConfig->IC2Selection << 8U));
 8001d0e:	683b      	ldr	r3, [r7, #0]
 8001d10:	689a      	ldr	r2, [r3, #8]
 8001d12:	683b      	ldr	r3, [r7, #0]
 8001d14:	699b      	ldr	r3, [r3, #24]
 8001d16:	021b      	lsls	r3, r3, #8
 8001d18:	4313      	orrs	r3, r2
 8001d1a:	693a      	ldr	r2, [r7, #16]
 8001d1c:	4313      	orrs	r3, r2
 8001d1e:	613b      	str	r3, [r7, #16]

  /* Set the Capture Compare 1 and the Capture Compare 2 prescalers and filters */
  tmpccmr1 &= ~(TIM_CCMR1_IC1PSC | TIM_CCMR1_IC2PSC);
 8001d20:	693b      	ldr	r3, [r7, #16]
 8001d22:	4a22      	ldr	r2, [pc, #136]	; (8001dac <HAL_TIM_Encoder_Init+0x120>)
 8001d24:	4013      	ands	r3, r2
 8001d26:	613b      	str	r3, [r7, #16]
  tmpccmr1 &= ~(TIM_CCMR1_IC1F | TIM_CCMR1_IC2F);
 8001d28:	693b      	ldr	r3, [r7, #16]
 8001d2a:	4a21      	ldr	r2, [pc, #132]	; (8001db0 <HAL_TIM_Encoder_Init+0x124>)
 8001d2c:	4013      	ands	r3, r2
 8001d2e:	613b      	str	r3, [r7, #16]
  tmpccmr1 |= sConfig->IC1Prescaler | (sConfig->IC2Prescaler << 8U);
 8001d30:	683b      	ldr	r3, [r7, #0]
 8001d32:	68da      	ldr	r2, [r3, #12]
 8001d34:	683b      	ldr	r3, [r7, #0]
 8001d36:	69db      	ldr	r3, [r3, #28]
 8001d38:	021b      	lsls	r3, r3, #8
 8001d3a:	4313      	orrs	r3, r2
 8001d3c:	693a      	ldr	r2, [r7, #16]
 8001d3e:	4313      	orrs	r3, r2
 8001d40:	613b      	str	r3, [r7, #16]
  tmpccmr1 |= (sConfig->IC1Filter << 4U) | (sConfig->IC2Filter << 12U);
 8001d42:	683b      	ldr	r3, [r7, #0]
 8001d44:	691b      	ldr	r3, [r3, #16]
 8001d46:	011a      	lsls	r2, r3, #4
 8001d48:	683b      	ldr	r3, [r7, #0]
 8001d4a:	6a1b      	ldr	r3, [r3, #32]
 8001d4c:	031b      	lsls	r3, r3, #12
 8001d4e:	4313      	orrs	r3, r2
 8001d50:	693a      	ldr	r2, [r7, #16]
 8001d52:	4313      	orrs	r3, r2
 8001d54:	613b      	str	r3, [r7, #16]

  /* Set the TI1 and the TI2 Polarities */
  tmpccer &= ~(TIM_CCER_CC1P | TIM_CCER_CC2P);
 8001d56:	68fb      	ldr	r3, [r7, #12]
 8001d58:	2222      	movs	r2, #34	; 0x22
 8001d5a:	4393      	bics	r3, r2
 8001d5c:	60fb      	str	r3, [r7, #12]
  tmpccer &= ~(TIM_CCER_CC1NP | TIM_CCER_CC2NP);
 8001d5e:	68fb      	ldr	r3, [r7, #12]
 8001d60:	2288      	movs	r2, #136	; 0x88
 8001d62:	4393      	bics	r3, r2
 8001d64:	60fb      	str	r3, [r7, #12]
  tmpccer |= sConfig->IC1Polarity | (sConfig->IC2Polarity << 4U);
 8001d66:	683b      	ldr	r3, [r7, #0]
 8001d68:	685a      	ldr	r2, [r3, #4]
 8001d6a:	683b      	ldr	r3, [r7, #0]
 8001d6c:	695b      	ldr	r3, [r3, #20]
 8001d6e:	011b      	lsls	r3, r3, #4
 8001d70:	4313      	orrs	r3, r2
 8001d72:	68fa      	ldr	r2, [r7, #12]
 8001d74:	4313      	orrs	r3, r2
 8001d76:	60fb      	str	r3, [r7, #12]

  /* Write to TIMx SMCR */
  htim->Instance->SMCR = tmpsmcr;
 8001d78:	687b      	ldr	r3, [r7, #4]
 8001d7a:	681b      	ldr	r3, [r3, #0]
 8001d7c:	697a      	ldr	r2, [r7, #20]
 8001d7e:	609a      	str	r2, [r3, #8]

  /* Write to TIMx CCMR1 */
  htim->Instance->CCMR1 = tmpccmr1;
 8001d80:	687b      	ldr	r3, [r7, #4]
 8001d82:	681b      	ldr	r3, [r3, #0]
 8001d84:	693a      	ldr	r2, [r7, #16]
 8001d86:	619a      	str	r2, [r3, #24]

  /* Write to TIMx CCER */
  htim->Instance->CCER = tmpccer;
 8001d88:	687b      	ldr	r3, [r7, #4]
 8001d8a:	681b      	ldr	r3, [r3, #0]
 8001d8c:	68fa      	ldr	r2, [r7, #12]
 8001d8e:	621a      	str	r2, [r3, #32]

  /* Initialize the TIM state*/
  htim->State = HAL_TIM_STATE_READY;
 8001d90:	687b      	ldr	r3, [r7, #4]
 8001d92:	223d      	movs	r2, #61	; 0x3d
 8001d94:	2101      	movs	r1, #1
 8001d96:	5499      	strb	r1, [r3, r2]

  return HAL_OK;
 8001d98:	2300      	movs	r3, #0
}
 8001d9a:	0018      	movs	r0, r3
 8001d9c:	46bd      	mov	sp, r7
 8001d9e:	b006      	add	sp, #24
 8001da0:	bd80      	pop	{r7, pc}
 8001da2:	46c0      	nop			; (mov r8, r8)
 8001da4:	ffffbff8 	.word	0xffffbff8
 8001da8:	fffffcfc 	.word	0xfffffcfc
 8001dac:	fffff3f3 	.word	0xfffff3f3
 8001db0:	ffff0f0f 	.word	0xffff0f0f

08001db4 <HAL_TIM_IRQHandler>:
  * @brief  This function handles TIM interrupts requests.
  * @param  htim TIM  handle
  * @retval None
  */
void HAL_TIM_IRQHandler(TIM_HandleTypeDef *htim)
{
 8001db4:	b580      	push	{r7, lr}
 8001db6:	b082      	sub	sp, #8
 8001db8:	af00      	add	r7, sp, #0
 8001dba:	6078      	str	r0, [r7, #4]
  /* Capture compare 1 event */
  if (__HAL_TIM_GET_FLAG(htim, TIM_FLAG_CC1) != RESET)
 8001dbc:	687b      	ldr	r3, [r7, #4]
 8001dbe:	681b      	ldr	r3, [r3, #0]
 8001dc0:	691b      	ldr	r3, [r3, #16]
 8001dc2:	2202      	movs	r2, #2
 8001dc4:	4013      	ands	r3, r2
 8001dc6:	2b02      	cmp	r3, #2
 8001dc8:	d124      	bne.n	8001e14 <HAL_TIM_IRQHandler+0x60>
  {
    if (__HAL_TIM_GET_IT_SOURCE(htim, TIM_IT_CC1) != RESET)
 8001dca:	687b      	ldr	r3, [r7, #4]
 8001dcc:	681b      	ldr	r3, [r3, #0]
 8001dce:	68db      	ldr	r3, [r3, #12]
 8001dd0:	2202      	movs	r2, #2
 8001dd2:	4013      	ands	r3, r2
 8001dd4:	2b02      	cmp	r3, #2
 8001dd6:	d11d      	bne.n	8001e14 <HAL_TIM_IRQHandler+0x60>
    {
      {
        __HAL_TIM_CLEAR_IT(htim, TIM_IT_CC1);
 8001dd8:	687b      	ldr	r3, [r7, #4]
 8001dda:	681b      	ldr	r3, [r3, #0]
 8001ddc:	2203      	movs	r2, #3
 8001dde:	4252      	negs	r2, r2
 8001de0:	611a      	str	r2, [r3, #16]
        htim->Channel = HAL_TIM_ACTIVE_CHANNEL_1;
 8001de2:	687b      	ldr	r3, [r7, #4]
 8001de4:	2201      	movs	r2, #1
 8001de6:	771a      	strb	r2, [r3, #28]

        /* Input capture event */
        if ((htim->Instance->CCMR1 & TIM_CCMR1_CC1S) != 0x00U)
 8001de8:	687b      	ldr	r3, [r7, #4]
 8001dea:	681b      	ldr	r3, [r3, #0]
 8001dec:	699b      	ldr	r3, [r3, #24]
 8001dee:	2203      	movs	r2, #3
 8001df0:	4013      	ands	r3, r2
 8001df2:	d004      	beq.n	8001dfe <HAL_TIM_IRQHandler+0x4a>
        {
#if (USE_HAL_TIM_REGISTER_CALLBACKS == 1)
          htim->IC_CaptureCallback(htim);
#else
          HAL_TIM_IC_CaptureCallback(htim);
 8001df4:	687b      	ldr	r3, [r7, #4]
 8001df6:	0018      	movs	r0, r3
 8001df8:	f000 f9ba 	bl	8002170 <HAL_TIM_IC_CaptureCallback>
 8001dfc:	e007      	b.n	8001e0e <HAL_TIM_IRQHandler+0x5a>
        {
#if (USE_HAL_TIM_REGISTER_CALLBACKS == 1)
          htim->OC_DelayElapsedCallback(htim);
          htim->PWM_PulseFinishedCallback(htim);
#else
          HAL_TIM_OC_DelayElapsedCallback(htim);
 8001dfe:	687b      	ldr	r3, [r7, #4]
 8001e00:	0018      	movs	r0, r3
 8001e02:	f000 f9ad 	bl	8002160 <HAL_TIM_OC_DelayElapsedCallback>
          HAL_TIM_PWM_PulseFinishedCallback(htim);
 8001e06:	687b      	ldr	r3, [r7, #4]
 8001e08:	0018      	movs	r0, r3
 8001e0a:	f000 f9b9 	bl	8002180 <HAL_TIM_PWM_PulseFinishedCallback>
#endif /* USE_HAL_TIM_REGISTER_CALLBACKS */
        }
        htim->Channel = HAL_TIM_ACTIVE_CHANNEL_CLEARED;
 8001e0e:	687b      	ldr	r3, [r7, #4]
 8001e10:	2200      	movs	r2, #0
 8001e12:	771a      	strb	r2, [r3, #28]
      }
    }
  }
  /* Capture compare 2 event */
  if (__HAL_TIM_GET_FLAG(htim, TIM_FLAG_CC2) != RESET)
 8001e14:	687b      	ldr	r3, [r7, #4]
 8001e16:	681b      	ldr	r3, [r3, #0]
 8001e18:	691b      	ldr	r3, [r3, #16]
 8001e1a:	2204      	movs	r2, #4
 8001e1c:	4013      	ands	r3, r2
 8001e1e:	2b04      	cmp	r3, #4
 8001e20:	d125      	bne.n	8001e6e <HAL_TIM_IRQHandler+0xba>
  {
    if (__HAL_TIM_GET_IT_SOURCE(htim, TIM_IT_CC2) != RESET)
 8001e22:	687b      	ldr	r3, [r7, #4]
 8001e24:	681b      	ldr	r3, [r3, #0]
 8001e26:	68db      	ldr	r3, [r3, #12]
 8001e28:	2204      	movs	r2, #4
 8001e2a:	4013      	ands	r3, r2
 8001e2c:	2b04      	cmp	r3, #4
 8001e2e:	d11e      	bne.n	8001e6e <HAL_TIM_IRQHandler+0xba>
    {
      __HAL_TIM_CLEAR_IT(htim, TIM_IT_CC2);
 8001e30:	687b      	ldr	r3, [r7, #4]
 8001e32:	681b      	ldr	r3, [r3, #0]
 8001e34:	2205      	movs	r2, #5
 8001e36:	4252      	negs	r2, r2
 8001e38:	611a      	str	r2, [r3, #16]
      htim->Channel = HAL_TIM_ACTIVE_CHANNEL_2;
 8001e3a:	687b      	ldr	r3, [r7, #4]
 8001e3c:	2202      	movs	r2, #2
 8001e3e:	771a      	strb	r2, [r3, #28]
      /* Input capture event */
      if ((htim->Instance->CCMR1 & TIM_CCMR1_CC2S) != 0x00U)
 8001e40:	687b      	ldr	r3, [r7, #4]
 8001e42:	681b      	ldr	r3, [r3, #0]
 8001e44:	699a      	ldr	r2, [r3, #24]
 8001e46:	23c0      	movs	r3, #192	; 0xc0
 8001e48:	009b      	lsls	r3, r3, #2
 8001e4a:	4013      	ands	r3, r2
 8001e4c:	d004      	beq.n	8001e58 <HAL_TIM_IRQHandler+0xa4>
      {
#if (USE_HAL_TIM_REGISTER_CALLBACKS == 1)
        htim->IC_CaptureCallback(htim);
#else
        HAL_TIM_IC_CaptureCallback(htim);
 8001e4e:	687b      	ldr	r3, [r7, #4]
 8001e50:	0018      	movs	r0, r3
 8001e52:	f000 f98d 	bl	8002170 <HAL_TIM_IC_CaptureCallback>
 8001e56:	e007      	b.n	8001e68 <HAL_TIM_IRQHandler+0xb4>
      {
#if (USE_HAL_TIM_REGISTER_CALLBACKS == 1)
        htim->OC_DelayElapsedCallback(htim);
        htim->PWM_PulseFinishedCallback(htim);
#else
        HAL_TIM_OC_DelayElapsedCallback(htim);
 8001e58:	687b      	ldr	r3, [r7, #4]
 8001e5a:	0018      	movs	r0, r3
 8001e5c:	f000 f980 	bl	8002160 <HAL_TIM_OC_DelayElapsedCallback>
        HAL_TIM_PWM_PulseFinishedCallback(htim);
 8001e60:	687b      	ldr	r3, [r7, #4]
 8001e62:	0018      	movs	r0, r3
 8001e64:	f000 f98c 	bl	8002180 <HAL_TIM_PWM_PulseFinishedCallback>
#endif /* USE_HAL_TIM_REGISTER_CALLBACKS */
      }
      htim->Channel = HAL_TIM_ACTIVE_CHANNEL_CLEARED;
 8001e68:	687b      	ldr	r3, [r7, #4]
 8001e6a:	2200      	movs	r2, #0
 8001e6c:	771a      	strb	r2, [r3, #28]
    }
  }
  /* Capture compare 3 event */
  if (__HAL_TIM_GET_FLAG(htim, TIM_FLAG_CC3) != RESET)
 8001e6e:	687b      	ldr	r3, [r7, #4]
 8001e70:	681b      	ldr	r3, [r3, #0]
 8001e72:	691b      	ldr	r3, [r3, #16]
 8001e74:	2208      	movs	r2, #8
 8001e76:	4013      	ands	r3, r2
 8001e78:	2b08      	cmp	r3, #8
 8001e7a:	d124      	bne.n	8001ec6 <HAL_TIM_IRQHandler+0x112>
  {
    if (__HAL_TIM_GET_IT_SOURCE(htim, TIM_IT_CC3) != RESET)
 8001e7c:	687b      	ldr	r3, [r7, #4]
 8001e7e:	681b      	ldr	r3, [r3, #0]
 8001e80:	68db      	ldr	r3, [r3, #12]
 8001e82:	2208      	movs	r2, #8
 8001e84:	4013      	ands	r3, r2
 8001e86:	2b08      	cmp	r3, #8
 8001e88:	d11d      	bne.n	8001ec6 <HAL_TIM_IRQHandler+0x112>
    {
      __HAL_TIM_CLEAR_IT(htim, TIM_IT_CC3);
 8001e8a:	687b      	ldr	r3, [r7, #4]
 8001e8c:	681b      	ldr	r3, [r3, #0]
 8001e8e:	2209      	movs	r2, #9
 8001e90:	4252      	negs	r2, r2
 8001e92:	611a      	str	r2, [r3, #16]
      htim->Channel = HAL_TIM_ACTIVE_CHANNEL_3;
 8001e94:	687b      	ldr	r3, [r7, #4]
 8001e96:	2204      	movs	r2, #4
 8001e98:	771a      	strb	r2, [r3, #28]
      /* Input capture event */
      if ((htim->Instance->CCMR2 & TIM_CCMR2_CC3S) != 0x00U)
 8001e9a:	687b      	ldr	r3, [r7, #4]
 8001e9c:	681b      	ldr	r3, [r3, #0]
 8001e9e:	69db      	ldr	r3, [r3, #28]
 8001ea0:	2203      	movs	r2, #3
 8001ea2:	4013      	ands	r3, r2
 8001ea4:	d004      	beq.n	8001eb0 <HAL_TIM_IRQHandler+0xfc>
      {
#if (USE_HAL_TIM_REGISTER_CALLBACKS == 1)
        htim->IC_CaptureCallback(htim);
#else
        HAL_TIM_IC_CaptureCallback(htim);
 8001ea6:	687b      	ldr	r3, [r7, #4]
 8001ea8:	0018      	movs	r0, r3
 8001eaa:	f000 f961 	bl	8002170 <HAL_TIM_IC_CaptureCallback>
 8001eae:	e007      	b.n	8001ec0 <HAL_TIM_IRQHandler+0x10c>
      {
#if (USE_HAL_TIM_REGISTER_CALLBACKS == 1)
        htim->OC_DelayElapsedCallback(htim);
        htim->PWM_PulseFinishedCallback(htim);
#else
        HAL_TIM_OC_DelayElapsedCallback(htim);
 8001eb0:	687b      	ldr	r3, [r7, #4]
 8001eb2:	0018      	movs	r0, r3
 8001eb4:	f000 f954 	bl	8002160 <HAL_TIM_OC_DelayElapsedCallback>
        HAL_TIM_PWM_PulseFinishedCallback(htim);
 8001eb8:	687b      	ldr	r3, [r7, #4]
 8001eba:	0018      	movs	r0, r3
 8001ebc:	f000 f960 	bl	8002180 <HAL_TIM_PWM_PulseFinishedCallback>
#endif /* USE_HAL_TIM_REGISTER_CALLBACKS */
      }
      htim->Channel = HAL_TIM_ACTIVE_CHANNEL_CLEARED;
 8001ec0:	687b      	ldr	r3, [r7, #4]
 8001ec2:	2200      	movs	r2, #0
 8001ec4:	771a      	strb	r2, [r3, #28]
    }
  }
  /* Capture compare 4 event */
  if (__HAL_TIM_GET_FLAG(htim, TIM_FLAG_CC4) != RESET)
 8001ec6:	687b      	ldr	r3, [r7, #4]
 8001ec8:	681b      	ldr	r3, [r3, #0]
 8001eca:	691b      	ldr	r3, [r3, #16]
 8001ecc:	2210      	movs	r2, #16
 8001ece:	4013      	ands	r3, r2
 8001ed0:	2b10      	cmp	r3, #16
 8001ed2:	d125      	bne.n	8001f20 <HAL_TIM_IRQHandler+0x16c>
  {
    if (__HAL_TIM_GET_IT_SOURCE(htim, TIM_IT_CC4) != RESET)
 8001ed4:	687b      	ldr	r3, [r7, #4]
 8001ed6:	681b      	ldr	r3, [r3, #0]
 8001ed8:	68db      	ldr	r3, [r3, #12]
 8001eda:	2210      	movs	r2, #16
 8001edc:	4013      	ands	r3, r2
 8001ede:	2b10      	cmp	r3, #16
 8001ee0:	d11e      	bne.n	8001f20 <HAL_TIM_IRQHandler+0x16c>
    {
      __HAL_TIM_CLEAR_IT(htim, TIM_IT_CC4);
 8001ee2:	687b      	ldr	r3, [r7, #4]
 8001ee4:	681b      	ldr	r3, [r3, #0]
 8001ee6:	2211      	movs	r2, #17
 8001ee8:	4252      	negs	r2, r2
 8001eea:	611a      	str	r2, [r3, #16]
      htim->Channel = HAL_TIM_ACTIVE_CHANNEL_4;
 8001eec:	687b      	ldr	r3, [r7, #4]
 8001eee:	2208      	movs	r2, #8
 8001ef0:	771a      	strb	r2, [r3, #28]
      /* Input capture event */
      if ((htim->Instance->CCMR2 & TIM_CCMR2_CC4S) != 0x00U)
 8001ef2:	687b      	ldr	r3, [r7, #4]
 8001ef4:	681b      	ldr	r3, [r3, #0]
 8001ef6:	69da      	ldr	r2, [r3, #28]
 8001ef8:	23c0      	movs	r3, #192	; 0xc0
 8001efa:	009b      	lsls	r3, r3, #2
 8001efc:	4013      	ands	r3, r2
 8001efe:	d004      	beq.n	8001f0a <HAL_TIM_IRQHandler+0x156>
      {
#if (USE_HAL_TIM_REGISTER_CALLBACKS == 1)
        htim->IC_CaptureCallback(htim);
#else
        HAL_TIM_IC_CaptureCallback(htim);
 8001f00:	687b      	ldr	r3, [r7, #4]
 8001f02:	0018      	movs	r0, r3
 8001f04:	f000 f934 	bl	8002170 <HAL_TIM_IC_CaptureCallback>
 8001f08:	e007      	b.n	8001f1a <HAL_TIM_IRQHandler+0x166>
      {
#if (USE_HAL_TIM_REGISTER_CALLBACKS == 1)
        htim->OC_DelayElapsedCallback(htim);
        htim->PWM_PulseFinishedCallback(htim);
#else
        HAL_TIM_OC_DelayElapsedCallback(htim);
 8001f0a:	687b      	ldr	r3, [r7, #4]
 8001f0c:	0018      	movs	r0, r3
 8001f0e:	f000 f927 	bl	8002160 <HAL_TIM_OC_DelayElapsedCallback>
        HAL_TIM_PWM_PulseFinishedCallback(htim);
 8001f12:	687b      	ldr	r3, [r7, #4]
 8001f14:	0018      	movs	r0, r3
 8001f16:	f000 f933 	bl	8002180 <HAL_TIM_PWM_PulseFinishedCallback>
#endif /* USE_HAL_TIM_REGISTER_CALLBACKS */
      }
      htim->Channel = HAL_TIM_ACTIVE_CHANNEL_CLEARED;
 8001f1a:	687b      	ldr	r3, [r7, #4]
 8001f1c:	2200      	movs	r2, #0
 8001f1e:	771a      	strb	r2, [r3, #28]
    }
  }
  /* TIM Update event */
  if (__HAL_TIM_GET_FLAG(htim, TIM_FLAG_UPDATE) != RESET)
 8001f20:	687b      	ldr	r3, [r7, #4]
 8001f22:	681b      	ldr	r3, [r3, #0]
 8001f24:	691b      	ldr	r3, [r3, #16]
 8001f26:	2201      	movs	r2, #1
 8001f28:	4013      	ands	r3, r2
 8001f2a:	2b01      	cmp	r3, #1
 8001f2c:	d10f      	bne.n	8001f4e <HAL_TIM_IRQHandler+0x19a>
  {
    if (__HAL_TIM_GET_IT_SOURCE(htim, TIM_IT_UPDATE) != RESET)
 8001f2e:	687b      	ldr	r3, [r7, #4]
 8001f30:	681b      	ldr	r3, [r3, #0]
 8001f32:	68db      	ldr	r3, [r3, #12]
 8001f34:	2201      	movs	r2, #1
 8001f36:	4013      	ands	r3, r2
 8001f38:	2b01      	cmp	r3, #1
 8001f3a:	d108      	bne.n	8001f4e <HAL_TIM_IRQHandler+0x19a>
    {
      __HAL_TIM_CLEAR_IT(htim, TIM_IT_UPDATE);
 8001f3c:	687b      	ldr	r3, [r7, #4]
 8001f3e:	681b      	ldr	r3, [r3, #0]
 8001f40:	2202      	movs	r2, #2
 8001f42:	4252      	negs	r2, r2
 8001f44:	611a      	str	r2, [r3, #16]
#if (USE_HAL_TIM_REGISTER_CALLBACKS == 1)
      htim->PeriodElapsedCallback(htim);
#else
      HAL_TIM_PeriodElapsedCallback(htim);
 8001f46:	687b      	ldr	r3, [r7, #4]
 8001f48:	0018      	movs	r0, r3
 8001f4a:	f000 f901 	bl	8002150 <HAL_TIM_PeriodElapsedCallback>
#endif /* USE_HAL_TIM_REGISTER_CALLBACKS */
    }
  }
  /* TIM Break input event */
  if (__HAL_TIM_GET_FLAG(htim, TIM_FLAG_BREAK) != RESET)
 8001f4e:	687b      	ldr	r3, [r7, #4]
 8001f50:	681b      	ldr	r3, [r3, #0]
 8001f52:	691b      	ldr	r3, [r3, #16]
 8001f54:	2280      	movs	r2, #128	; 0x80
 8001f56:	4013      	ands	r3, r2
 8001f58:	2b80      	cmp	r3, #128	; 0x80
 8001f5a:	d10f      	bne.n	8001f7c <HAL_TIM_IRQHandler+0x1c8>
  {
    if (__HAL_TIM_GET_IT_SOURCE(htim, TIM_IT_BREAK) != RESET)
 8001f5c:	687b      	ldr	r3, [r7, #4]
 8001f5e:	681b      	ldr	r3, [r3, #0]
 8001f60:	68db      	ldr	r3, [r3, #12]
 8001f62:	2280      	movs	r2, #128	; 0x80
 8001f64:	4013      	ands	r3, r2
 8001f66:	2b80      	cmp	r3, #128	; 0x80
 8001f68:	d108      	bne.n	8001f7c <HAL_TIM_IRQHandler+0x1c8>
    {
      __HAL_TIM_CLEAR_IT(htim, TIM_IT_BREAK);
 8001f6a:	687b      	ldr	r3, [r7, #4]
 8001f6c:	681b      	ldr	r3, [r3, #0]
 8001f6e:	2281      	movs	r2, #129	; 0x81
 8001f70:	4252      	negs	r2, r2
 8001f72:	611a      	str	r2, [r3, #16]
#if (USE_HAL_TIM_REGISTER_CALLBACKS == 1)
      htim->BreakCallback(htim);
#else
      HAL_TIMEx_BreakCallback(htim);
 8001f74:	687b      	ldr	r3, [r7, #4]
 8001f76:	0018      	movs	r0, r3
 8001f78:	f000 fc76 	bl	8002868 <HAL_TIMEx_BreakCallback>
#endif /* USE_HAL_TIM_REGISTER_CALLBACKS */
    }
  }
  /* TIM Trigger detection event */
  if (__HAL_TIM_GET_FLAG(htim, TIM_FLAG_TRIGGER) != RESET)
 8001f7c:	687b      	ldr	r3, [r7, #4]
 8001f7e:	681b      	ldr	r3, [r3, #0]
 8001f80:	691b      	ldr	r3, [r3, #16]
 8001f82:	2240      	movs	r2, #64	; 0x40
 8001f84:	4013      	ands	r3, r2
 8001f86:	2b40      	cmp	r3, #64	; 0x40
 8001f88:	d10f      	bne.n	8001faa <HAL_TIM_IRQHandler+0x1f6>
  {
    if (__HAL_TIM_GET_IT_SOURCE(htim, TIM_IT_TRIGGER) != RESET)
 8001f8a:	687b      	ldr	r3, [r7, #4]
 8001f8c:	681b      	ldr	r3, [r3, #0]
 8001f8e:	68db      	ldr	r3, [r3, #12]
 8001f90:	2240      	movs	r2, #64	; 0x40
 8001f92:	4013      	ands	r3, r2
 8001f94:	2b40      	cmp	r3, #64	; 0x40
 8001f96:	d108      	bne.n	8001faa <HAL_TIM_IRQHandler+0x1f6>
    {
      __HAL_TIM_CLEAR_IT(htim, TIM_IT_TRIGGER);
 8001f98:	687b      	ldr	r3, [r7, #4]
 8001f9a:	681b      	ldr	r3, [r3, #0]
 8001f9c:	2241      	movs	r2, #65	; 0x41
 8001f9e:	4252      	negs	r2, r2
 8001fa0:	611a      	str	r2, [r3, #16]
#if (USE_HAL_TIM_REGISTER_CALLBACKS == 1)
      htim->TriggerCallback(htim);
#else
      HAL_TIM_TriggerCallback(htim);
 8001fa2:	687b      	ldr	r3, [r7, #4]
 8001fa4:	0018      	movs	r0, r3
 8001fa6:	f000 f8f3 	bl	8002190 <HAL_TIM_TriggerCallback>
#endif /* USE_HAL_TIM_REGISTER_CALLBACKS */
    }
  }
  /* TIM commutation event */
  if (__HAL_TIM_GET_FLAG(htim, TIM_FLAG_COM) != RESET)
 8001faa:	687b      	ldr	r3, [r7, #4]
 8001fac:	681b      	ldr	r3, [r3, #0]
 8001fae:	691b      	ldr	r3, [r3, #16]
 8001fb0:	2220      	movs	r2, #32
 8001fb2:	4013      	ands	r3, r2
 8001fb4:	2b20      	cmp	r3, #32
 8001fb6:	d10f      	bne.n	8001fd8 <HAL_TIM_IRQHandler+0x224>
  {
    if (__HAL_TIM_GET_IT_SOURCE(htim, TIM_IT_COM) != RESET)
 8001fb8:	687b      	ldr	r3, [r7, #4]
 8001fba:	681b      	ldr	r3, [r3, #0]
 8001fbc:	68db      	ldr	r3, [r3, #12]
 8001fbe:	2220      	movs	r2, #32
 8001fc0:	4013      	ands	r3, r2
 8001fc2:	2b20      	cmp	r3, #32
 8001fc4:	d108      	bne.n	8001fd8 <HAL_TIM_IRQHandler+0x224>
    {
      __HAL_TIM_CLEAR_IT(htim, TIM_FLAG_COM);
 8001fc6:	687b      	ldr	r3, [r7, #4]
 8001fc8:	681b      	ldr	r3, [r3, #0]
 8001fca:	2221      	movs	r2, #33	; 0x21
 8001fcc:	4252      	negs	r2, r2
 8001fce:	611a      	str	r2, [r3, #16]
#if (USE_HAL_TIM_REGISTER_CALLBACKS == 1)
      htim->CommutationCallback(htim);
#else
      HAL_TIMEx_CommutCallback(htim);
 8001fd0:	687b      	ldr	r3, [r7, #4]
 8001fd2:	0018      	movs	r0, r3
 8001fd4:	f000 fc40 	bl	8002858 <HAL_TIMEx_CommutCallback>
#endif /* USE_HAL_TIM_REGISTER_CALLBACKS */
    }
  }
}
 8001fd8:	46c0      	nop			; (mov r8, r8)
 8001fda:	46bd      	mov	sp, r7
 8001fdc:	b002      	add	sp, #8
 8001fde:	bd80      	pop	{r7, pc}

08001fe0 <HAL_TIM_PWM_ConfigChannel>:
  * @retval HAL status
  */
HAL_StatusTypeDef HAL_TIM_PWM_ConfigChannel(TIM_HandleTypeDef *htim,
                                            TIM_OC_InitTypeDef *sConfig,
                                            uint32_t Channel)
{
 8001fe0:	b580      	push	{r7, lr}
 8001fe2:	b084      	sub	sp, #16
 8001fe4:	af00      	add	r7, sp, #0
 8001fe6:	60f8      	str	r0, [r7, #12]
 8001fe8:	60b9      	str	r1, [r7, #8]
 8001fea:	607a      	str	r2, [r7, #4]
  assert_param(IS_TIM_PWM_MODE(sConfig->OCMode));
  assert_param(IS_TIM_OC_POLARITY(sConfig->OCPolarity));
  assert_param(IS_TIM_FAST_STATE(sConfig->OCFastMode));

  /* Process Locked */
  __HAL_LOCK(htim);
 8001fec:	68fb      	ldr	r3, [r7, #12]
 8001fee:	223c      	movs	r2, #60	; 0x3c
 8001ff0:	5c9b      	ldrb	r3, [r3, r2]
 8001ff2:	2b01      	cmp	r3, #1
 8001ff4:	d101      	bne.n	8001ffa <HAL_TIM_PWM_ConfigChannel+0x1a>
 8001ff6:	2302      	movs	r3, #2
 8001ff8:	e0a4      	b.n	8002144 <HAL_TIM_PWM_ConfigChannel+0x164>
 8001ffa:	68fb      	ldr	r3, [r7, #12]
 8001ffc:	223c      	movs	r2, #60	; 0x3c
 8001ffe:	2101      	movs	r1, #1
 8002000:	5499      	strb	r1, [r3, r2]

  htim->State = HAL_TIM_STATE_BUSY;
 8002002:	68fb      	ldr	r3, [r7, #12]
 8002004:	223d      	movs	r2, #61	; 0x3d
 8002006:	2102      	movs	r1, #2
 8002008:	5499      	strb	r1, [r3, r2]

  switch (Channel)
 800200a:	687b      	ldr	r3, [r7, #4]
 800200c:	2b04      	cmp	r3, #4
 800200e:	d029      	beq.n	8002064 <HAL_TIM_PWM_ConfigChannel+0x84>
 8002010:	d802      	bhi.n	8002018 <HAL_TIM_PWM_ConfigChannel+0x38>
 8002012:	2b00      	cmp	r3, #0
 8002014:	d005      	beq.n	8002022 <HAL_TIM_PWM_ConfigChannel+0x42>
      htim->Instance->CCMR2 |= sConfig->OCFastMode << 8U;
      break;
    }

    default:
      break;
 8002016:	e08c      	b.n	8002132 <HAL_TIM_PWM_ConfigChannel+0x152>
  switch (Channel)
 8002018:	2b08      	cmp	r3, #8
 800201a:	d046      	beq.n	80020aa <HAL_TIM_PWM_ConfigChannel+0xca>
 800201c:	2b0c      	cmp	r3, #12
 800201e:	d065      	beq.n	80020ec <HAL_TIM_PWM_ConfigChannel+0x10c>
      break;
 8002020:	e087      	b.n	8002132 <HAL_TIM_PWM_ConfigChannel+0x152>
      TIM_OC1_SetConfig(htim->Instance, sConfig);
 8002022:	68fb      	ldr	r3, [r7, #12]
 8002024:	681b      	ldr	r3, [r3, #0]
 8002026:	68ba      	ldr	r2, [r7, #8]
 8002028:	0011      	movs	r1, r2
 800202a:	0018      	movs	r0, r3
 800202c:	f000 f938 	bl	80022a0 <TIM_OC1_SetConfig>
      htim->Instance->CCMR1 |= TIM_CCMR1_OC1PE;
 8002030:	68fb      	ldr	r3, [r7, #12]
 8002032:	681b      	ldr	r3, [r3, #0]
 8002034:	699a      	ldr	r2, [r3, #24]
 8002036:	68fb      	ldr	r3, [r7, #12]
 8002038:	681b      	ldr	r3, [r3, #0]
 800203a:	2108      	movs	r1, #8
 800203c:	430a      	orrs	r2, r1
 800203e:	619a      	str	r2, [r3, #24]
      htim->Instance->CCMR1 &= ~TIM_CCMR1_OC1FE;
 8002040:	68fb      	ldr	r3, [r7, #12]
 8002042:	681b      	ldr	r3, [r3, #0]
 8002044:	699a      	ldr	r2, [r3, #24]
 8002046:	68fb      	ldr	r3, [r7, #12]
 8002048:	681b      	ldr	r3, [r3, #0]
 800204a:	2104      	movs	r1, #4
 800204c:	438a      	bics	r2, r1
 800204e:	619a      	str	r2, [r3, #24]
      htim->Instance->CCMR1 |= sConfig->OCFastMode;
 8002050:	68fb      	ldr	r3, [r7, #12]
 8002052:	681b      	ldr	r3, [r3, #0]
 8002054:	6999      	ldr	r1, [r3, #24]
 8002056:	68bb      	ldr	r3, [r7, #8]
 8002058:	691a      	ldr	r2, [r3, #16]
 800205a:	68fb      	ldr	r3, [r7, #12]
 800205c:	681b      	ldr	r3, [r3, #0]
 800205e:	430a      	orrs	r2, r1
 8002060:	619a      	str	r2, [r3, #24]
      break;
 8002062:	e066      	b.n	8002132 <HAL_TIM_PWM_ConfigChannel+0x152>
      TIM_OC2_SetConfig(htim->Instance, sConfig);
 8002064:	68fb      	ldr	r3, [r7, #12]
 8002066:	681b      	ldr	r3, [r3, #0]
 8002068:	68ba      	ldr	r2, [r7, #8]
 800206a:	0011      	movs	r1, r2
 800206c:	0018      	movs	r0, r3
 800206e:	f000 f99f 	bl	80023b0 <TIM_OC2_SetConfig>
      htim->Instance->CCMR1 |= TIM_CCMR1_OC2PE;
 8002072:	68fb      	ldr	r3, [r7, #12]
 8002074:	681b      	ldr	r3, [r3, #0]
 8002076:	699a      	ldr	r2, [r3, #24]
 8002078:	68fb      	ldr	r3, [r7, #12]
 800207a:	681b      	ldr	r3, [r3, #0]
 800207c:	2180      	movs	r1, #128	; 0x80
 800207e:	0109      	lsls	r1, r1, #4
 8002080:	430a      	orrs	r2, r1
 8002082:	619a      	str	r2, [r3, #24]
      htim->Instance->CCMR1 &= ~TIM_CCMR1_OC2FE;
 8002084:	68fb      	ldr	r3, [r7, #12]
 8002086:	681b      	ldr	r3, [r3, #0]
 8002088:	699a      	ldr	r2, [r3, #24]
 800208a:	68fb      	ldr	r3, [r7, #12]
 800208c:	681b      	ldr	r3, [r3, #0]
 800208e:	492f      	ldr	r1, [pc, #188]	; (800214c <HAL_TIM_PWM_ConfigChannel+0x16c>)
 8002090:	400a      	ands	r2, r1
 8002092:	619a      	str	r2, [r3, #24]
      htim->Instance->CCMR1 |= sConfig->OCFastMode << 8U;
 8002094:	68fb      	ldr	r3, [r7, #12]
 8002096:	681b      	ldr	r3, [r3, #0]
 8002098:	6999      	ldr	r1, [r3, #24]
 800209a:	68bb      	ldr	r3, [r7, #8]
 800209c:	691b      	ldr	r3, [r3, #16]
 800209e:	021a      	lsls	r2, r3, #8
 80020a0:	68fb      	ldr	r3, [r7, #12]
 80020a2:	681b      	ldr	r3, [r3, #0]
 80020a4:	430a      	orrs	r2, r1
 80020a6:	619a      	str	r2, [r3, #24]
      break;
 80020a8:	e043      	b.n	8002132 <HAL_TIM_PWM_ConfigChannel+0x152>
      TIM_OC3_SetConfig(htim->Instance, sConfig);
 80020aa:	68fb      	ldr	r3, [r7, #12]
 80020ac:	681b      	ldr	r3, [r3, #0]
 80020ae:	68ba      	ldr	r2, [r7, #8]
 80020b0:	0011      	movs	r1, r2
 80020b2:	0018      	movs	r0, r3
 80020b4:	f000 fa00 	bl	80024b8 <TIM_OC3_SetConfig>
      htim->Instance->CCMR2 |= TIM_CCMR2_OC3PE;
 80020b8:	68fb      	ldr	r3, [r7, #12]
 80020ba:	681b      	ldr	r3, [r3, #0]
 80020bc:	69da      	ldr	r2, [r3, #28]
 80020be:	68fb      	ldr	r3, [r7, #12]
 80020c0:	681b      	ldr	r3, [r3, #0]
 80020c2:	2108      	movs	r1, #8
 80020c4:	430a      	orrs	r2, r1
 80020c6:	61da      	str	r2, [r3, #28]
      htim->Instance->CCMR2 &= ~TIM_CCMR2_OC3FE;
 80020c8:	68fb      	ldr	r3, [r7, #12]
 80020ca:	681b      	ldr	r3, [r3, #0]
 80020cc:	69da      	ldr	r2, [r3, #28]
 80020ce:	68fb      	ldr	r3, [r7, #12]
 80020d0:	681b      	ldr	r3, [r3, #0]
 80020d2:	2104      	movs	r1, #4
 80020d4:	438a      	bics	r2, r1
 80020d6:	61da      	str	r2, [r3, #28]
      htim->Instance->CCMR2 |= sConfig->OCFastMode;
 80020d8:	68fb      	ldr	r3, [r7, #12]
 80020da:	681b      	ldr	r3, [r3, #0]
 80020dc:	69d9      	ldr	r1, [r3, #28]
 80020de:	68bb      	ldr	r3, [r7, #8]
 80020e0:	691a      	ldr	r2, [r3, #16]
 80020e2:	68fb      	ldr	r3, [r7, #12]
 80020e4:	681b      	ldr	r3, [r3, #0]
 80020e6:	430a      	orrs	r2, r1
 80020e8:	61da      	str	r2, [r3, #28]
      break;
 80020ea:	e022      	b.n	8002132 <HAL_TIM_PWM_ConfigChannel+0x152>
      TIM_OC4_SetConfig(htim->Instance, sConfig);
 80020ec:	68fb      	ldr	r3, [r7, #12]
 80020ee:	681b      	ldr	r3, [r3, #0]
 80020f0:	68ba      	ldr	r2, [r7, #8]
 80020f2:	0011      	movs	r1, r2
 80020f4:	0018      	movs	r0, r3
 80020f6:	f000 fa65 	bl	80025c4 <TIM_OC4_SetConfig>
      htim->Instance->CCMR2 |= TIM_CCMR2_OC4PE;
 80020fa:	68fb      	ldr	r3, [r7, #12]
 80020fc:	681b      	ldr	r3, [r3, #0]
 80020fe:	69da      	ldr	r2, [r3, #28]
 8002100:	68fb      	ldr	r3, [r7, #12]
 8002102:	681b      	ldr	r3, [r3, #0]
 8002104:	2180      	movs	r1, #128	; 0x80
 8002106:	0109      	lsls	r1, r1, #4
 8002108:	430a      	orrs	r2, r1
 800210a:	61da      	str	r2, [r3, #28]
      htim->Instance->CCMR2 &= ~TIM_CCMR2_OC4FE;
 800210c:	68fb      	ldr	r3, [r7, #12]
 800210e:	681b      	ldr	r3, [r3, #0]
 8002110:	69da      	ldr	r2, [r3, #28]
 8002112:	68fb      	ldr	r3, [r7, #12]
 8002114:	681b      	ldr	r3, [r3, #0]
 8002116:	490d      	ldr	r1, [pc, #52]	; (800214c <HAL_TIM_PWM_ConfigChannel+0x16c>)
 8002118:	400a      	ands	r2, r1
 800211a:	61da      	str	r2, [r3, #28]
      htim->Instance->CCMR2 |= sConfig->OCFastMode << 8U;
 800211c:	68fb      	ldr	r3, [r7, #12]
 800211e:	681b      	ldr	r3, [r3, #0]
 8002120:	69d9      	ldr	r1, [r3, #28]
 8002122:	68bb      	ldr	r3, [r7, #8]
 8002124:	691b      	ldr	r3, [r3, #16]
 8002126:	021a      	lsls	r2, r3, #8
 8002128:	68fb      	ldr	r3, [r7, #12]
 800212a:	681b      	ldr	r3, [r3, #0]
 800212c:	430a      	orrs	r2, r1
 800212e:	61da      	str	r2, [r3, #28]
      break;
 8002130:	46c0      	nop			; (mov r8, r8)
  }

  htim->State = HAL_TIM_STATE_READY;
 8002132:	68fb      	ldr	r3, [r7, #12]
 8002134:	223d      	movs	r2, #61	; 0x3d
 8002136:	2101      	movs	r1, #1
 8002138:	5499      	strb	r1, [r3, r2]

  __HAL_UNLOCK(htim);
 800213a:	68fb      	ldr	r3, [r7, #12]
 800213c:	223c      	movs	r2, #60	; 0x3c
 800213e:	2100      	movs	r1, #0
 8002140:	5499      	strb	r1, [r3, r2]

  return HAL_OK;
 8002142:	2300      	movs	r3, #0
}
 8002144:	0018      	movs	r0, r3
 8002146:	46bd      	mov	sp, r7
 8002148:	b004      	add	sp, #16
 800214a:	bd80      	pop	{r7, pc}
 800214c:	fffffbff 	.word	0xfffffbff

08002150 <HAL_TIM_PeriodElapsedCallback>:
  * @brief  Period elapsed callback in non-blocking mode
  * @param  htim TIM handle
  * @retval None
  */
__weak void HAL_TIM_PeriodElapsedCallback(TIM_HandleTypeDef *htim)
{
 8002150:	b580      	push	{r7, lr}
 8002152:	b082      	sub	sp, #8
 8002154:	af00      	add	r7, sp, #0
 8002156:	6078      	str	r0, [r7, #4]
  UNUSED(htim);

  /* NOTE : This function should not be modified, when the callback is needed,
            the HAL_TIM_PeriodElapsedCallback could be implemented in the user file
   */
}
 8002158:	46c0      	nop			; (mov r8, r8)
 800215a:	46bd      	mov	sp, r7
 800215c:	b002      	add	sp, #8
 800215e:	bd80      	pop	{r7, pc}

08002160 <HAL_TIM_OC_DelayElapsedCallback>:
  * @brief  Output Compare callback in non-blocking mode
  * @param  htim TIM OC handle
  * @retval None
  */
__weak void HAL_TIM_OC_DelayElapsedCallback(TIM_HandleTypeDef *htim)
{
 8002160:	b580      	push	{r7, lr}
 8002162:	b082      	sub	sp, #8
 8002164:	af00      	add	r7, sp, #0
 8002166:	6078      	str	r0, [r7, #4]
  UNUSED(htim);

  /* NOTE : This function should not be modified, when the callback is needed,
            the HAL_TIM_OC_DelayElapsedCallback could be implemented in the user file
   */
}
 8002168:	46c0      	nop			; (mov r8, r8)
 800216a:	46bd      	mov	sp, r7
 800216c:	b002      	add	sp, #8
 800216e:	bd80      	pop	{r7, pc}

08002170 <HAL_TIM_IC_CaptureCallback>:
  * @brief  Input Capture callback in non-blocking mode
  * @param  htim TIM IC handle
  * @retval None
  */
__weak void HAL_TIM_IC_CaptureCallback(TIM_HandleTypeDef *htim)
{
 8002170:	b580      	push	{r7, lr}
 8002172:	b082      	sub	sp, #8
 8002174:	af00      	add	r7, sp, #0
 8002176:	6078      	str	r0, [r7, #4]
  UNUSED(htim);

  /* NOTE : This function should not be modified, when the callback is needed,
            the HAL_TIM_IC_CaptureCallback could be implemented in the user file
   */
}
 8002178:	46c0      	nop			; (mov r8, r8)
 800217a:	46bd      	mov	sp, r7
 800217c:	b002      	add	sp, #8
 800217e:	bd80      	pop	{r7, pc}

08002180 <HAL_TIM_PWM_PulseFinishedCallback>:
  * @brief  PWM Pulse finished callback in non-blocking mode
  * @param  htim TIM handle
  * @retval None
  */
__weak void HAL_TIM_PWM_PulseFinishedCallback(TIM_HandleTypeDef *htim)
{
 8002180:	b580      	push	{r7, lr}
 8002182:	b082      	sub	sp, #8
 8002184:	af00      	add	r7, sp, #0
 8002186:	6078      	str	r0, [r7, #4]
  UNUSED(htim);

  /* NOTE : This function should not be modified, when the callback is needed,
            the HAL_TIM_PWM_PulseFinishedCallback could be implemented in the user file
   */
}
 8002188:	46c0      	nop			; (mov r8, r8)
 800218a:	46bd      	mov	sp, r7
 800218c:	b002      	add	sp, #8
 800218e:	bd80      	pop	{r7, pc}

08002190 <HAL_TIM_TriggerCallback>:
  * @brief  Hall Trigger detection callback in non-blocking mode
  * @param  htim TIM handle
  * @retval None
  */
__weak void HAL_TIM_TriggerCallback(TIM_HandleTypeDef *htim)
{
 8002190:	b580      	push	{r7, lr}
 8002192:	b082      	sub	sp, #8
 8002194:	af00      	add	r7, sp, #0
 8002196:	6078      	str	r0, [r7, #4]
  UNUSED(htim);

  /* NOTE : This function should not be modified, when the callback is needed,
            the HAL_TIM_TriggerCallback could be implemented in the user file
   */
}
 8002198:	46c0      	nop			; (mov r8, r8)
 800219a:	46bd      	mov	sp, r7
 800219c:	b002      	add	sp, #8
 800219e:	bd80      	pop	{r7, pc}

080021a0 <TIM_Base_SetConfig>:
  * @param  TIMx TIM peripheral
  * @param  Structure TIM Base configuration structure
  * @retval None
  */
void TIM_Base_SetConfig(TIM_TypeDef *TIMx, TIM_Base_InitTypeDef *Structure)
{
 80021a0:	b580      	push	{r7, lr}
 80021a2:	b084      	sub	sp, #16
 80021a4:	af00      	add	r7, sp, #0
 80021a6:	6078      	str	r0, [r7, #4]
 80021a8:	6039      	str	r1, [r7, #0]
  uint32_t tmpcr1;
  tmpcr1 = TIMx->CR1;
 80021aa:	687b      	ldr	r3, [r7, #4]
 80021ac:	681b      	ldr	r3, [r3, #0]
 80021ae:	60fb      	str	r3, [r7, #12]

  /* Set TIM Time Base Unit parameters ---------------------------------------*/
  if (IS_TIM_COUNTER_MODE_SELECT_INSTANCE(TIMx))
 80021b0:	687b      	ldr	r3, [r7, #4]
 80021b2:	4a34      	ldr	r2, [pc, #208]	; (8002284 <TIM_Base_SetConfig+0xe4>)
 80021b4:	4293      	cmp	r3, r2
 80021b6:	d008      	beq.n	80021ca <TIM_Base_SetConfig+0x2a>
 80021b8:	687a      	ldr	r2, [r7, #4]
 80021ba:	2380      	movs	r3, #128	; 0x80
 80021bc:	05db      	lsls	r3, r3, #23
 80021be:	429a      	cmp	r2, r3
 80021c0:	d003      	beq.n	80021ca <TIM_Base_SetConfig+0x2a>
 80021c2:	687b      	ldr	r3, [r7, #4]
 80021c4:	4a30      	ldr	r2, [pc, #192]	; (8002288 <TIM_Base_SetConfig+0xe8>)
 80021c6:	4293      	cmp	r3, r2
 80021c8:	d108      	bne.n	80021dc <TIM_Base_SetConfig+0x3c>
  {
    /* Select the Counter Mode */
    tmpcr1 &= ~(TIM_CR1_DIR | TIM_CR1_CMS);
 80021ca:	68fb      	ldr	r3, [r7, #12]
 80021cc:	2270      	movs	r2, #112	; 0x70
 80021ce:	4393      	bics	r3, r2
 80021d0:	60fb      	str	r3, [r7, #12]
    tmpcr1 |= Structure->CounterMode;
 80021d2:	683b      	ldr	r3, [r7, #0]
 80021d4:	685b      	ldr	r3, [r3, #4]
 80021d6:	68fa      	ldr	r2, [r7, #12]
 80021d8:	4313      	orrs	r3, r2
 80021da:	60fb      	str	r3, [r7, #12]
  }

  if (IS_TIM_CLOCK_DIVISION_INSTANCE(TIMx))
 80021dc:	687b      	ldr	r3, [r7, #4]
 80021de:	4a29      	ldr	r2, [pc, #164]	; (8002284 <TIM_Base_SetConfig+0xe4>)
 80021e0:	4293      	cmp	r3, r2
 80021e2:	d018      	beq.n	8002216 <TIM_Base_SetConfig+0x76>
 80021e4:	687a      	ldr	r2, [r7, #4]
 80021e6:	2380      	movs	r3, #128	; 0x80
 80021e8:	05db      	lsls	r3, r3, #23
 80021ea:	429a      	cmp	r2, r3
 80021ec:	d013      	beq.n	8002216 <TIM_Base_SetConfig+0x76>
 80021ee:	687b      	ldr	r3, [r7, #4]
 80021f0:	4a25      	ldr	r2, [pc, #148]	; (8002288 <TIM_Base_SetConfig+0xe8>)
 80021f2:	4293      	cmp	r3, r2
 80021f4:	d00f      	beq.n	8002216 <TIM_Base_SetConfig+0x76>
 80021f6:	687b      	ldr	r3, [r7, #4]
 80021f8:	4a24      	ldr	r2, [pc, #144]	; (800228c <TIM_Base_SetConfig+0xec>)
 80021fa:	4293      	cmp	r3, r2
 80021fc:	d00b      	beq.n	8002216 <TIM_Base_SetConfig+0x76>
 80021fe:	687b      	ldr	r3, [r7, #4]
 8002200:	4a23      	ldr	r2, [pc, #140]	; (8002290 <TIM_Base_SetConfig+0xf0>)
 8002202:	4293      	cmp	r3, r2
 8002204:	d007      	beq.n	8002216 <TIM_Base_SetConfig+0x76>
 8002206:	687b      	ldr	r3, [r7, #4]
 8002208:	4a22      	ldr	r2, [pc, #136]	; (8002294 <TIM_Base_SetConfig+0xf4>)
 800220a:	4293      	cmp	r3, r2
 800220c:	d003      	beq.n	8002216 <TIM_Base_SetConfig+0x76>
 800220e:	687b      	ldr	r3, [r7, #4]
 8002210:	4a21      	ldr	r2, [pc, #132]	; (8002298 <TIM_Base_SetConfig+0xf8>)
 8002212:	4293      	cmp	r3, r2
 8002214:	d108      	bne.n	8002228 <TIM_Base_SetConfig+0x88>
  {
    /* Set the clock division */
    tmpcr1 &= ~TIM_CR1_CKD;
 8002216:	68fb      	ldr	r3, [r7, #12]
 8002218:	4a20      	ldr	r2, [pc, #128]	; (800229c <TIM_Base_SetConfig+0xfc>)
 800221a:	4013      	ands	r3, r2
 800221c:	60fb      	str	r3, [r7, #12]
    tmpcr1 |= (uint32_t)Structure->ClockDivision;
 800221e:	683b      	ldr	r3, [r7, #0]
 8002220:	68db      	ldr	r3, [r3, #12]
 8002222:	68fa      	ldr	r2, [r7, #12]
 8002224:	4313      	orrs	r3, r2
 8002226:	60fb      	str	r3, [r7, #12]
  }

  /* Set the auto-reload preload */
  MODIFY_REG(tmpcr1, TIM_CR1_ARPE, Structure->AutoReloadPreload);
 8002228:	68fb      	ldr	r3, [r7, #12]
 800222a:	2280      	movs	r2, #128	; 0x80
 800222c:	4393      	bics	r3, r2
 800222e:	001a      	movs	r2, r3
 8002230:	683b      	ldr	r3, [r7, #0]
 8002232:	695b      	ldr	r3, [r3, #20]
 8002234:	4313      	orrs	r3, r2
 8002236:	60fb      	str	r3, [r7, #12]

  TIMx->CR1 = tmpcr1;
 8002238:	687b      	ldr	r3, [r7, #4]
 800223a:	68fa      	ldr	r2, [r7, #12]
 800223c:	601a      	str	r2, [r3, #0]

  /* Set the Autoreload value */
  TIMx->ARR = (uint32_t)Structure->Period ;
 800223e:	683b      	ldr	r3, [r7, #0]
 8002240:	689a      	ldr	r2, [r3, #8]
 8002242:	687b      	ldr	r3, [r7, #4]
 8002244:	62da      	str	r2, [r3, #44]	; 0x2c

  /* Set the Prescaler value */
  TIMx->PSC = Structure->Prescaler;
 8002246:	683b      	ldr	r3, [r7, #0]
 8002248:	681a      	ldr	r2, [r3, #0]
 800224a:	687b      	ldr	r3, [r7, #4]
 800224c:	629a      	str	r2, [r3, #40]	; 0x28

  if (IS_TIM_REPETITION_COUNTER_INSTANCE(TIMx))
 800224e:	687b      	ldr	r3, [r7, #4]
 8002250:	4a0c      	ldr	r2, [pc, #48]	; (8002284 <TIM_Base_SetConfig+0xe4>)
 8002252:	4293      	cmp	r3, r2
 8002254:	d00b      	beq.n	800226e <TIM_Base_SetConfig+0xce>
 8002256:	687b      	ldr	r3, [r7, #4]
 8002258:	4a0d      	ldr	r2, [pc, #52]	; (8002290 <TIM_Base_SetConfig+0xf0>)
 800225a:	4293      	cmp	r3, r2
 800225c:	d007      	beq.n	800226e <TIM_Base_SetConfig+0xce>
 800225e:	687b      	ldr	r3, [r7, #4]
 8002260:	4a0c      	ldr	r2, [pc, #48]	; (8002294 <TIM_Base_SetConfig+0xf4>)
 8002262:	4293      	cmp	r3, r2
 8002264:	d003      	beq.n	800226e <TIM_Base_SetConfig+0xce>
 8002266:	687b      	ldr	r3, [r7, #4]
 8002268:	4a0b      	ldr	r2, [pc, #44]	; (8002298 <TIM_Base_SetConfig+0xf8>)
 800226a:	4293      	cmp	r3, r2
 800226c:	d103      	bne.n	8002276 <TIM_Base_SetConfig+0xd6>
  {
    /* Set the Repetition Counter value */
    TIMx->RCR = Structure->RepetitionCounter;
 800226e:	683b      	ldr	r3, [r7, #0]
 8002270:	691a      	ldr	r2, [r3, #16]
 8002272:	687b      	ldr	r3, [r7, #4]
 8002274:	631a      	str	r2, [r3, #48]	; 0x30
  }

  /* Generate an update event to reload the Prescaler
     and the repetition counter (only for advanced timer) value immediately */
  TIMx->EGR = TIM_EGR_UG;
 8002276:	687b      	ldr	r3, [r7, #4]
 8002278:	2201      	movs	r2, #1
 800227a:	615a      	str	r2, [r3, #20]
}
 800227c:	46c0      	nop			; (mov r8, r8)
 800227e:	46bd      	mov	sp, r7
 8002280:	b004      	add	sp, #16
 8002282:	bd80      	pop	{r7, pc}
 8002284:	40012c00 	.word	0x40012c00
 8002288:	40000400 	.word	0x40000400
 800228c:	40002000 	.word	0x40002000
 8002290:	40014000 	.word	0x40014000
 8002294:	40014400 	.word	0x40014400
 8002298:	40014800 	.word	0x40014800
 800229c:	fffffcff 	.word	0xfffffcff

080022a0 <TIM_OC1_SetConfig>:
  * @param  TIMx to select the TIM peripheral
  * @param  OC_Config The ouput configuration structure
  * @retval None
  */
static void TIM_OC1_SetConfig(TIM_TypeDef *TIMx, TIM_OC_InitTypeDef *OC_Config)
{
 80022a0:	b580      	push	{r7, lr}
 80022a2:	b086      	sub	sp, #24
 80022a4:	af00      	add	r7, sp, #0
 80022a6:	6078      	str	r0, [r7, #4]
 80022a8:	6039      	str	r1, [r7, #0]
  uint32_t tmpccmrx;
  uint32_t tmpccer;
  uint32_t tmpcr2;

  /* Disable the Channel 1: Reset the CC1E Bit */
  TIMx->CCER &= ~TIM_CCER_CC1E;
 80022aa:	687b      	ldr	r3, [r7, #4]
 80022ac:	6a1b      	ldr	r3, [r3, #32]
 80022ae:	2201      	movs	r2, #1
 80022b0:	4393      	bics	r3, r2
 80022b2:	001a      	movs	r2, r3
 80022b4:	687b      	ldr	r3, [r7, #4]
 80022b6:	621a      	str	r2, [r3, #32]

  /* Get the TIMx CCER register value */
  tmpccer = TIMx->CCER;
 80022b8:	687b      	ldr	r3, [r7, #4]
 80022ba:	6a1b      	ldr	r3, [r3, #32]
 80022bc:	617b      	str	r3, [r7, #20]
  /* Get the TIMx CR2 register value */
  tmpcr2 =  TIMx->CR2;
 80022be:	687b      	ldr	r3, [r7, #4]
 80022c0:	685b      	ldr	r3, [r3, #4]
 80022c2:	613b      	str	r3, [r7, #16]

  /* Get the TIMx CCMR1 register value */
  tmpccmrx = TIMx->CCMR1;
 80022c4:	687b      	ldr	r3, [r7, #4]
 80022c6:	699b      	ldr	r3, [r3, #24]
 80022c8:	60fb      	str	r3, [r7, #12]

  /* Reset the Output Compare Mode Bits */
  tmpccmrx &= ~TIM_CCMR1_OC1M;
 80022ca:	68fb      	ldr	r3, [r7, #12]
 80022cc:	2270      	movs	r2, #112	; 0x70
 80022ce:	4393      	bics	r3, r2
 80022d0:	60fb      	str	r3, [r7, #12]
  tmpccmrx &= ~TIM_CCMR1_CC1S;
 80022d2:	68fb      	ldr	r3, [r7, #12]
 80022d4:	2203      	movs	r2, #3
 80022d6:	4393      	bics	r3, r2
 80022d8:	60fb      	str	r3, [r7, #12]
  /* Select the Output Compare Mode */
  tmpccmrx |= OC_Config->OCMode;
 80022da:	683b      	ldr	r3, [r7, #0]
 80022dc:	681b      	ldr	r3, [r3, #0]
 80022de:	68fa      	ldr	r2, [r7, #12]
 80022e0:	4313      	orrs	r3, r2
 80022e2:	60fb      	str	r3, [r7, #12]

  /* Reset the Output Polarity level */
  tmpccer &= ~TIM_CCER_CC1P;
 80022e4:	697b      	ldr	r3, [r7, #20]
 80022e6:	2202      	movs	r2, #2
 80022e8:	4393      	bics	r3, r2
 80022ea:	617b      	str	r3, [r7, #20]
  /* Set the Output Compare Polarity */
  tmpccer |= OC_Config->OCPolarity;
 80022ec:	683b      	ldr	r3, [r7, #0]
 80022ee:	689b      	ldr	r3, [r3, #8]
 80022f0:	697a      	ldr	r2, [r7, #20]
 80022f2:	4313      	orrs	r3, r2
 80022f4:	617b      	str	r3, [r7, #20]

  if (IS_TIM_CCXN_INSTANCE(TIMx, TIM_CHANNEL_1))
 80022f6:	687b      	ldr	r3, [r7, #4]
 80022f8:	4a27      	ldr	r2, [pc, #156]	; (8002398 <TIM_OC1_SetConfig+0xf8>)
 80022fa:	4293      	cmp	r3, r2
 80022fc:	d00b      	beq.n	8002316 <TIM_OC1_SetConfig+0x76>
 80022fe:	687b      	ldr	r3, [r7, #4]
 8002300:	4a26      	ldr	r2, [pc, #152]	; (800239c <TIM_OC1_SetConfig+0xfc>)
 8002302:	4293      	cmp	r3, r2
 8002304:	d007      	beq.n	8002316 <TIM_OC1_SetConfig+0x76>
 8002306:	687b      	ldr	r3, [r7, #4]
 8002308:	4a25      	ldr	r2, [pc, #148]	; (80023a0 <TIM_OC1_SetConfig+0x100>)
 800230a:	4293      	cmp	r3, r2
 800230c:	d003      	beq.n	8002316 <TIM_OC1_SetConfig+0x76>
 800230e:	687b      	ldr	r3, [r7, #4]
 8002310:	4a24      	ldr	r2, [pc, #144]	; (80023a4 <TIM_OC1_SetConfig+0x104>)
 8002312:	4293      	cmp	r3, r2
 8002314:	d10c      	bne.n	8002330 <TIM_OC1_SetConfig+0x90>
  {
    /* Check parameters */
    assert_param(IS_TIM_OCN_POLARITY(OC_Config->OCNPolarity));

    /* Reset the Output N Polarity level */
    tmpccer &= ~TIM_CCER_CC1NP;
 8002316:	697b      	ldr	r3, [r7, #20]
 8002318:	2208      	movs	r2, #8
 800231a:	4393      	bics	r3, r2
 800231c:	617b      	str	r3, [r7, #20]
    /* Set the Output N Polarity */
    tmpccer |= OC_Config->OCNPolarity;
 800231e:	683b      	ldr	r3, [r7, #0]
 8002320:	68db      	ldr	r3, [r3, #12]
 8002322:	697a      	ldr	r2, [r7, #20]
 8002324:	4313      	orrs	r3, r2
 8002326:	617b      	str	r3, [r7, #20]
    /* Reset the Output N State */
    tmpccer &= ~TIM_CCER_CC1NE;
 8002328:	697b      	ldr	r3, [r7, #20]
 800232a:	2204      	movs	r2, #4
 800232c:	4393      	bics	r3, r2
 800232e:	617b      	str	r3, [r7, #20]
  }

  if (IS_TIM_BREAK_INSTANCE(TIMx))
 8002330:	687b      	ldr	r3, [r7, #4]
 8002332:	4a19      	ldr	r2, [pc, #100]	; (8002398 <TIM_OC1_SetConfig+0xf8>)
 8002334:	4293      	cmp	r3, r2
 8002336:	d00b      	beq.n	8002350 <TIM_OC1_SetConfig+0xb0>
 8002338:	687b      	ldr	r3, [r7, #4]
 800233a:	4a18      	ldr	r2, [pc, #96]	; (800239c <TIM_OC1_SetConfig+0xfc>)
 800233c:	4293      	cmp	r3, r2
 800233e:	d007      	beq.n	8002350 <TIM_OC1_SetConfig+0xb0>
 8002340:	687b      	ldr	r3, [r7, #4]
 8002342:	4a17      	ldr	r2, [pc, #92]	; (80023a0 <TIM_OC1_SetConfig+0x100>)
 8002344:	4293      	cmp	r3, r2
 8002346:	d003      	beq.n	8002350 <TIM_OC1_SetConfig+0xb0>
 8002348:	687b      	ldr	r3, [r7, #4]
 800234a:	4a16      	ldr	r2, [pc, #88]	; (80023a4 <TIM_OC1_SetConfig+0x104>)
 800234c:	4293      	cmp	r3, r2
 800234e:	d111      	bne.n	8002374 <TIM_OC1_SetConfig+0xd4>
    /* Check parameters */
    assert_param(IS_TIM_OCNIDLE_STATE(OC_Config->OCNIdleState));
    assert_param(IS_TIM_OCIDLE_STATE(OC_Config->OCIdleState));

    /* Reset the Output Compare and Output Compare N IDLE State */
    tmpcr2 &= ~TIM_CR2_OIS1;
 8002350:	693b      	ldr	r3, [r7, #16]
 8002352:	4a15      	ldr	r2, [pc, #84]	; (80023a8 <TIM_OC1_SetConfig+0x108>)
 8002354:	4013      	ands	r3, r2
 8002356:	613b      	str	r3, [r7, #16]
    tmpcr2 &= ~TIM_CR2_OIS1N;
 8002358:	693b      	ldr	r3, [r7, #16]
 800235a:	4a14      	ldr	r2, [pc, #80]	; (80023ac <TIM_OC1_SetConfig+0x10c>)
 800235c:	4013      	ands	r3, r2
 800235e:	613b      	str	r3, [r7, #16]
    /* Set the Output Idle state */
    tmpcr2 |= OC_Config->OCIdleState;
 8002360:	683b      	ldr	r3, [r7, #0]
 8002362:	695b      	ldr	r3, [r3, #20]
 8002364:	693a      	ldr	r2, [r7, #16]
 8002366:	4313      	orrs	r3, r2
 8002368:	613b      	str	r3, [r7, #16]
    /* Set the Output N Idle state */
    tmpcr2 |= OC_Config->OCNIdleState;
 800236a:	683b      	ldr	r3, [r7, #0]
 800236c:	699b      	ldr	r3, [r3, #24]
 800236e:	693a      	ldr	r2, [r7, #16]
 8002370:	4313      	orrs	r3, r2
 8002372:	613b      	str	r3, [r7, #16]
  }

  /* Write to TIMx CR2 */
  TIMx->CR2 = tmpcr2;
 8002374:	687b      	ldr	r3, [r7, #4]
 8002376:	693a      	ldr	r2, [r7, #16]
 8002378:	605a      	str	r2, [r3, #4]

  /* Write to TIMx CCMR1 */
  TIMx->CCMR1 = tmpccmrx;
 800237a:	687b      	ldr	r3, [r7, #4]
 800237c:	68fa      	ldr	r2, [r7, #12]
 800237e:	619a      	str	r2, [r3, #24]

  /* Set the Capture Compare Register value */
  TIMx->CCR1 = OC_Config->Pulse;
 8002380:	683b      	ldr	r3, [r7, #0]
 8002382:	685a      	ldr	r2, [r3, #4]
 8002384:	687b      	ldr	r3, [r7, #4]
 8002386:	635a      	str	r2, [r3, #52]	; 0x34

  /* Write to TIMx CCER */
  TIMx->CCER = tmpccer;
 8002388:	687b      	ldr	r3, [r7, #4]
 800238a:	697a      	ldr	r2, [r7, #20]
 800238c:	621a      	str	r2, [r3, #32]
}
 800238e:	46c0      	nop			; (mov r8, r8)
 8002390:	46bd      	mov	sp, r7
 8002392:	b006      	add	sp, #24
 8002394:	bd80      	pop	{r7, pc}
 8002396:	46c0      	nop			; (mov r8, r8)
 8002398:	40012c00 	.word	0x40012c00
 800239c:	40014000 	.word	0x40014000
 80023a0:	40014400 	.word	0x40014400
 80023a4:	40014800 	.word	0x40014800
 80023a8:	fffffeff 	.word	0xfffffeff
 80023ac:	fffffdff 	.word	0xfffffdff

080023b0 <TIM_OC2_SetConfig>:
  * @param  TIMx to select the TIM peripheral
  * @param  OC_Config The ouput configuration structure
  * @retval None
  */
void TIM_OC2_SetConfig(TIM_TypeDef *TIMx, TIM_OC_InitTypeDef *OC_Config)
{
 80023b0:	b580      	push	{r7, lr}
 80023b2:	b086      	sub	sp, #24
 80023b4:	af00      	add	r7, sp, #0
 80023b6:	6078      	str	r0, [r7, #4]
 80023b8:	6039      	str	r1, [r7, #0]
  uint32_t tmpccmrx;
  uint32_t tmpccer;
  uint32_t tmpcr2;

  /* Disable the Channel 2: Reset the CC2E Bit */
  TIMx->CCER &= ~TIM_CCER_CC2E;
 80023ba:	687b      	ldr	r3, [r7, #4]
 80023bc:	6a1b      	ldr	r3, [r3, #32]
 80023be:	2210      	movs	r2, #16
 80023c0:	4393      	bics	r3, r2
 80023c2:	001a      	movs	r2, r3
 80023c4:	687b      	ldr	r3, [r7, #4]
 80023c6:	621a      	str	r2, [r3, #32]

  /* Get the TIMx CCER register value */
  tmpccer = TIMx->CCER;
 80023c8:	687b      	ldr	r3, [r7, #4]
 80023ca:	6a1b      	ldr	r3, [r3, #32]
 80023cc:	617b      	str	r3, [r7, #20]
  /* Get the TIMx CR2 register value */
  tmpcr2 =  TIMx->CR2;
 80023ce:	687b      	ldr	r3, [r7, #4]
 80023d0:	685b      	ldr	r3, [r3, #4]
 80023d2:	613b      	str	r3, [r7, #16]

  /* Get the TIMx CCMR1 register value */
  tmpccmrx = TIMx->CCMR1;
 80023d4:	687b      	ldr	r3, [r7, #4]
 80023d6:	699b      	ldr	r3, [r3, #24]
 80023d8:	60fb      	str	r3, [r7, #12]

  /* Reset the Output Compare mode and Capture/Compare selection Bits */
  tmpccmrx &= ~TIM_CCMR1_OC2M;
 80023da:	68fb      	ldr	r3, [r7, #12]
 80023dc:	4a2e      	ldr	r2, [pc, #184]	; (8002498 <TIM_OC2_SetConfig+0xe8>)
 80023de:	4013      	ands	r3, r2
 80023e0:	60fb      	str	r3, [r7, #12]
  tmpccmrx &= ~TIM_CCMR1_CC2S;
 80023e2:	68fb      	ldr	r3, [r7, #12]
 80023e4:	4a2d      	ldr	r2, [pc, #180]	; (800249c <TIM_OC2_SetConfig+0xec>)
 80023e6:	4013      	ands	r3, r2
 80023e8:	60fb      	str	r3, [r7, #12]

  /* Select the Output Compare Mode */
  tmpccmrx |= (OC_Config->OCMode << 8U);
 80023ea:	683b      	ldr	r3, [r7, #0]
 80023ec:	681b      	ldr	r3, [r3, #0]
 80023ee:	021b      	lsls	r3, r3, #8
 80023f0:	68fa      	ldr	r2, [r7, #12]
 80023f2:	4313      	orrs	r3, r2
 80023f4:	60fb      	str	r3, [r7, #12]

  /* Reset the Output Polarity level */
  tmpccer &= ~TIM_CCER_CC2P;
 80023f6:	697b      	ldr	r3, [r7, #20]
 80023f8:	2220      	movs	r2, #32
 80023fa:	4393      	bics	r3, r2
 80023fc:	617b      	str	r3, [r7, #20]
  /* Set the Output Compare Polarity */
  tmpccer |= (OC_Config->OCPolarity << 4U);
 80023fe:	683b      	ldr	r3, [r7, #0]
 8002400:	689b      	ldr	r3, [r3, #8]
 8002402:	011b      	lsls	r3, r3, #4
 8002404:	697a      	ldr	r2, [r7, #20]
 8002406:	4313      	orrs	r3, r2
 8002408:	617b      	str	r3, [r7, #20]

  if (IS_TIM_CCXN_INSTANCE(TIMx, TIM_CHANNEL_2))
 800240a:	687b      	ldr	r3, [r7, #4]
 800240c:	4a24      	ldr	r2, [pc, #144]	; (80024a0 <TIM_OC2_SetConfig+0xf0>)
 800240e:	4293      	cmp	r3, r2
 8002410:	d10d      	bne.n	800242e <TIM_OC2_SetConfig+0x7e>
  {
    assert_param(IS_TIM_OCN_POLARITY(OC_Config->OCNPolarity));

    /* Reset the Output N Polarity level */
    tmpccer &= ~TIM_CCER_CC2NP;
 8002412:	697b      	ldr	r3, [r7, #20]
 8002414:	2280      	movs	r2, #128	; 0x80
 8002416:	4393      	bics	r3, r2
 8002418:	617b      	str	r3, [r7, #20]
    /* Set the Output N Polarity */
    tmpccer |= (OC_Config->OCNPolarity << 4U);
 800241a:	683b      	ldr	r3, [r7, #0]
 800241c:	68db      	ldr	r3, [r3, #12]
 800241e:	011b      	lsls	r3, r3, #4
 8002420:	697a      	ldr	r2, [r7, #20]
 8002422:	4313      	orrs	r3, r2
 8002424:	617b      	str	r3, [r7, #20]
    /* Reset the Output N State */
    tmpccer &= ~TIM_CCER_CC2NE;
 8002426:	697b      	ldr	r3, [r7, #20]
 8002428:	2240      	movs	r2, #64	; 0x40
 800242a:	4393      	bics	r3, r2
 800242c:	617b      	str	r3, [r7, #20]

  }

  if (IS_TIM_BREAK_INSTANCE(TIMx))
 800242e:	687b      	ldr	r3, [r7, #4]
 8002430:	4a1b      	ldr	r2, [pc, #108]	; (80024a0 <TIM_OC2_SetConfig+0xf0>)
 8002432:	4293      	cmp	r3, r2
 8002434:	d00b      	beq.n	800244e <TIM_OC2_SetConfig+0x9e>
 8002436:	687b      	ldr	r3, [r7, #4]
 8002438:	4a1a      	ldr	r2, [pc, #104]	; (80024a4 <TIM_OC2_SetConfig+0xf4>)
 800243a:	4293      	cmp	r3, r2
 800243c:	d007      	beq.n	800244e <TIM_OC2_SetConfig+0x9e>
 800243e:	687b      	ldr	r3, [r7, #4]
 8002440:	4a19      	ldr	r2, [pc, #100]	; (80024a8 <TIM_OC2_SetConfig+0xf8>)
 8002442:	4293      	cmp	r3, r2
 8002444:	d003      	beq.n	800244e <TIM_OC2_SetConfig+0x9e>
 8002446:	687b      	ldr	r3, [r7, #4]
 8002448:	4a18      	ldr	r2, [pc, #96]	; (80024ac <TIM_OC2_SetConfig+0xfc>)
 800244a:	4293      	cmp	r3, r2
 800244c:	d113      	bne.n	8002476 <TIM_OC2_SetConfig+0xc6>
    /* Check parameters */
    assert_param(IS_TIM_OCNIDLE_STATE(OC_Config->OCNIdleState));
    assert_param(IS_TIM_OCIDLE_STATE(OC_Config->OCIdleState));

    /* Reset the Output Compare and Output Compare N IDLE State */
    tmpcr2 &= ~TIM_CR2_OIS2;
 800244e:	693b      	ldr	r3, [r7, #16]
 8002450:	4a17      	ldr	r2, [pc, #92]	; (80024b0 <TIM_OC2_SetConfig+0x100>)
 8002452:	4013      	ands	r3, r2
 8002454:	613b      	str	r3, [r7, #16]
    tmpcr2 &= ~TIM_CR2_OIS2N;
 8002456:	693b      	ldr	r3, [r7, #16]
 8002458:	4a16      	ldr	r2, [pc, #88]	; (80024b4 <TIM_OC2_SetConfig+0x104>)
 800245a:	4013      	ands	r3, r2
 800245c:	613b      	str	r3, [r7, #16]
    /* Set the Output Idle state */
    tmpcr2 |= (OC_Config->OCIdleState << 2U);
 800245e:	683b      	ldr	r3, [r7, #0]
 8002460:	695b      	ldr	r3, [r3, #20]
 8002462:	009b      	lsls	r3, r3, #2
 8002464:	693a      	ldr	r2, [r7, #16]
 8002466:	4313      	orrs	r3, r2
 8002468:	613b      	str	r3, [r7, #16]
    /* Set the Output N Idle state */
    tmpcr2 |= (OC_Config->OCNIdleState << 2U);
 800246a:	683b      	ldr	r3, [r7, #0]
 800246c:	699b      	ldr	r3, [r3, #24]
 800246e:	009b      	lsls	r3, r3, #2
 8002470:	693a      	ldr	r2, [r7, #16]
 8002472:	4313      	orrs	r3, r2
 8002474:	613b      	str	r3, [r7, #16]
  }

  /* Write to TIMx CR2 */
  TIMx->CR2 = tmpcr2;
 8002476:	687b      	ldr	r3, [r7, #4]
 8002478:	693a      	ldr	r2, [r7, #16]
 800247a:	605a      	str	r2, [r3, #4]

  /* Write to TIMx CCMR1 */
  TIMx->CCMR1 = tmpccmrx;
 800247c:	687b      	ldr	r3, [r7, #4]
 800247e:	68fa      	ldr	r2, [r7, #12]
 8002480:	619a      	str	r2, [r3, #24]

  /* Set the Capture Compare Register value */
  TIMx->CCR2 = OC_Config->Pulse;
 8002482:	683b      	ldr	r3, [r7, #0]
 8002484:	685a      	ldr	r2, [r3, #4]
 8002486:	687b      	ldr	r3, [r7, #4]
 8002488:	639a      	str	r2, [r3, #56]	; 0x38

  /* Write to TIMx CCER */
  TIMx->CCER = tmpccer;
 800248a:	687b      	ldr	r3, [r7, #4]
 800248c:	697a      	ldr	r2, [r7, #20]
 800248e:	621a      	str	r2, [r3, #32]
}
 8002490:	46c0      	nop			; (mov r8, r8)
 8002492:	46bd      	mov	sp, r7
 8002494:	b006      	add	sp, #24
 8002496:	bd80      	pop	{r7, pc}
 8002498:	ffff8fff 	.word	0xffff8fff
 800249c:	fffffcff 	.word	0xfffffcff
 80024a0:	40012c00 	.word	0x40012c00
 80024a4:	40014000 	.word	0x40014000
 80024a8:	40014400 	.word	0x40014400
 80024ac:	40014800 	.word	0x40014800
 80024b0:	fffffbff 	.word	0xfffffbff
 80024b4:	fffff7ff 	.word	0xfffff7ff

080024b8 <TIM_OC3_SetConfig>:
  * @param  TIMx to select the TIM peripheral
  * @param  OC_Config The ouput configuration structure
  * @retval None
  */
static void TIM_OC3_SetConfig(TIM_TypeDef *TIMx, TIM_OC_InitTypeDef *OC_Config)
{
 80024b8:	b580      	push	{r7, lr}
 80024ba:	b086      	sub	sp, #24
 80024bc:	af00      	add	r7, sp, #0
 80024be:	6078      	str	r0, [r7, #4]
 80024c0:	6039      	str	r1, [r7, #0]
  uint32_t tmpccmrx;
  uint32_t tmpccer;
  uint32_t tmpcr2;

  /* Disable the Channel 3: Reset the CC2E Bit */
  TIMx->CCER &= ~TIM_CCER_CC3E;
 80024c2:	687b      	ldr	r3, [r7, #4]
 80024c4:	6a1b      	ldr	r3, [r3, #32]
 80024c6:	4a35      	ldr	r2, [pc, #212]	; (800259c <TIM_OC3_SetConfig+0xe4>)
 80024c8:	401a      	ands	r2, r3
 80024ca:	687b      	ldr	r3, [r7, #4]
 80024cc:	621a      	str	r2, [r3, #32]

  /* Get the TIMx CCER register value */
  tmpccer = TIMx->CCER;
 80024ce:	687b      	ldr	r3, [r7, #4]
 80024d0:	6a1b      	ldr	r3, [r3, #32]
 80024d2:	617b      	str	r3, [r7, #20]
  /* Get the TIMx CR2 register value */
  tmpcr2 =  TIMx->CR2;
 80024d4:	687b      	ldr	r3, [r7, #4]
 80024d6:	685b      	ldr	r3, [r3, #4]
 80024d8:	613b      	str	r3, [r7, #16]

  /* Get the TIMx CCMR2 register value */
  tmpccmrx = TIMx->CCMR2;
 80024da:	687b      	ldr	r3, [r7, #4]
 80024dc:	69db      	ldr	r3, [r3, #28]
 80024de:	60fb      	str	r3, [r7, #12]

  /* Reset the Output Compare mode and Capture/Compare selection Bits */
  tmpccmrx &= ~TIM_CCMR2_OC3M;
 80024e0:	68fb      	ldr	r3, [r7, #12]
 80024e2:	2270      	movs	r2, #112	; 0x70
 80024e4:	4393      	bics	r3, r2
 80024e6:	60fb      	str	r3, [r7, #12]
  tmpccmrx &= ~TIM_CCMR2_CC3S;
 80024e8:	68fb      	ldr	r3, [r7, #12]
 80024ea:	2203      	movs	r2, #3
 80024ec:	4393      	bics	r3, r2
 80024ee:	60fb      	str	r3, [r7, #12]
  /* Select the Output Compare Mode */
  tmpccmrx |= OC_Config->OCMode;
 80024f0:	683b      	ldr	r3, [r7, #0]
 80024f2:	681b      	ldr	r3, [r3, #0]
 80024f4:	68fa      	ldr	r2, [r7, #12]
 80024f6:	4313      	orrs	r3, r2
 80024f8:	60fb      	str	r3, [r7, #12]

  /* Reset the Output Polarity level */
  tmpccer &= ~TIM_CCER_CC3P;
 80024fa:	697b      	ldr	r3, [r7, #20]
 80024fc:	4a28      	ldr	r2, [pc, #160]	; (80025a0 <TIM_OC3_SetConfig+0xe8>)
 80024fe:	4013      	ands	r3, r2
 8002500:	617b      	str	r3, [r7, #20]
  /* Set the Output Compare Polarity */
  tmpccer |= (OC_Config->OCPolarity << 8U);
 8002502:	683b      	ldr	r3, [r7, #0]
 8002504:	689b      	ldr	r3, [r3, #8]
 8002506:	021b      	lsls	r3, r3, #8
 8002508:	697a      	ldr	r2, [r7, #20]
 800250a:	4313      	orrs	r3, r2
 800250c:	617b      	str	r3, [r7, #20]

  if (IS_TIM_CCXN_INSTANCE(TIMx, TIM_CHANNEL_3))
 800250e:	687b      	ldr	r3, [r7, #4]
 8002510:	4a24      	ldr	r2, [pc, #144]	; (80025a4 <TIM_OC3_SetConfig+0xec>)
 8002512:	4293      	cmp	r3, r2
 8002514:	d10d      	bne.n	8002532 <TIM_OC3_SetConfig+0x7a>
  {
    assert_param(IS_TIM_OCN_POLARITY(OC_Config->OCNPolarity));

    /* Reset the Output N Polarity level */
    tmpccer &= ~TIM_CCER_CC3NP;
 8002516:	697b      	ldr	r3, [r7, #20]
 8002518:	4a23      	ldr	r2, [pc, #140]	; (80025a8 <TIM_OC3_SetConfig+0xf0>)
 800251a:	4013      	ands	r3, r2
 800251c:	617b      	str	r3, [r7, #20]
    /* Set the Output N Polarity */
    tmpccer |= (OC_Config->OCNPolarity << 8U);
 800251e:	683b      	ldr	r3, [r7, #0]
 8002520:	68db      	ldr	r3, [r3, #12]
 8002522:	021b      	lsls	r3, r3, #8
 8002524:	697a      	ldr	r2, [r7, #20]
 8002526:	4313      	orrs	r3, r2
 8002528:	617b      	str	r3, [r7, #20]
    /* Reset the Output N State */
    tmpccer &= ~TIM_CCER_CC3NE;
 800252a:	697b      	ldr	r3, [r7, #20]
 800252c:	4a1f      	ldr	r2, [pc, #124]	; (80025ac <TIM_OC3_SetConfig+0xf4>)
 800252e:	4013      	ands	r3, r2
 8002530:	617b      	str	r3, [r7, #20]
  }

  if (IS_TIM_BREAK_INSTANCE(TIMx))
 8002532:	687b      	ldr	r3, [r7, #4]
 8002534:	4a1b      	ldr	r2, [pc, #108]	; (80025a4 <TIM_OC3_SetConfig+0xec>)
 8002536:	4293      	cmp	r3, r2
 8002538:	d00b      	beq.n	8002552 <TIM_OC3_SetConfig+0x9a>
 800253a:	687b      	ldr	r3, [r7, #4]
 800253c:	4a1c      	ldr	r2, [pc, #112]	; (80025b0 <TIM_OC3_SetConfig+0xf8>)
 800253e:	4293      	cmp	r3, r2
 8002540:	d007      	beq.n	8002552 <TIM_OC3_SetConfig+0x9a>
 8002542:	687b      	ldr	r3, [r7, #4]
 8002544:	4a1b      	ldr	r2, [pc, #108]	; (80025b4 <TIM_OC3_SetConfig+0xfc>)
 8002546:	4293      	cmp	r3, r2
 8002548:	d003      	beq.n	8002552 <TIM_OC3_SetConfig+0x9a>
 800254a:	687b      	ldr	r3, [r7, #4]
 800254c:	4a1a      	ldr	r2, [pc, #104]	; (80025b8 <TIM_OC3_SetConfig+0x100>)
 800254e:	4293      	cmp	r3, r2
 8002550:	d113      	bne.n	800257a <TIM_OC3_SetConfig+0xc2>
    /* Check parameters */
    assert_param(IS_TIM_OCNIDLE_STATE(OC_Config->OCNIdleState));
    assert_param(IS_TIM_OCIDLE_STATE(OC_Config->OCIdleState));

    /* Reset the Output Compare and Output Compare N IDLE State */
    tmpcr2 &= ~TIM_CR2_OIS3;
 8002552:	693b      	ldr	r3, [r7, #16]
 8002554:	4a19      	ldr	r2, [pc, #100]	; (80025bc <TIM_OC3_SetConfig+0x104>)
 8002556:	4013      	ands	r3, r2
 8002558:	613b      	str	r3, [r7, #16]
    tmpcr2 &= ~TIM_CR2_OIS3N;
 800255a:	693b      	ldr	r3, [r7, #16]
 800255c:	4a18      	ldr	r2, [pc, #96]	; (80025c0 <TIM_OC3_SetConfig+0x108>)
 800255e:	4013      	ands	r3, r2
 8002560:	613b      	str	r3, [r7, #16]
    /* Set the Output Idle state */
    tmpcr2 |= (OC_Config->OCIdleState << 4U);
 8002562:	683b      	ldr	r3, [r7, #0]
 8002564:	695b      	ldr	r3, [r3, #20]
 8002566:	011b      	lsls	r3, r3, #4
 8002568:	693a      	ldr	r2, [r7, #16]
 800256a:	4313      	orrs	r3, r2
 800256c:	613b      	str	r3, [r7, #16]
    /* Set the Output N Idle state */
    tmpcr2 |= (OC_Config->OCNIdleState << 4U);
 800256e:	683b      	ldr	r3, [r7, #0]
 8002570:	699b      	ldr	r3, [r3, #24]
 8002572:	011b      	lsls	r3, r3, #4
 8002574:	693a      	ldr	r2, [r7, #16]
 8002576:	4313      	orrs	r3, r2
 8002578:	613b      	str	r3, [r7, #16]
  }

  /* Write to TIMx CR2 */
  TIMx->CR2 = tmpcr2;
 800257a:	687b      	ldr	r3, [r7, #4]
 800257c:	693a      	ldr	r2, [r7, #16]
 800257e:	605a      	str	r2, [r3, #4]

  /* Write to TIMx CCMR2 */
  TIMx->CCMR2 = tmpccmrx;
 8002580:	687b      	ldr	r3, [r7, #4]
 8002582:	68fa      	ldr	r2, [r7, #12]
 8002584:	61da      	str	r2, [r3, #28]

  /* Set the Capture Compare Register value */
  TIMx->CCR3 = OC_Config->Pulse;
 8002586:	683b      	ldr	r3, [r7, #0]
 8002588:	685a      	ldr	r2, [r3, #4]
 800258a:	687b      	ldr	r3, [r7, #4]
 800258c:	63da      	str	r2, [r3, #60]	; 0x3c

  /* Write to TIMx CCER */
  TIMx->CCER = tmpccer;
 800258e:	687b      	ldr	r3, [r7, #4]
 8002590:	697a      	ldr	r2, [r7, #20]
 8002592:	621a      	str	r2, [r3, #32]
}
 8002594:	46c0      	nop			; (mov r8, r8)
 8002596:	46bd      	mov	sp, r7
 8002598:	b006      	add	sp, #24
 800259a:	bd80      	pop	{r7, pc}
 800259c:	fffffeff 	.word	0xfffffeff
 80025a0:	fffffdff 	.word	0xfffffdff
 80025a4:	40012c00 	.word	0x40012c00
 80025a8:	fffff7ff 	.word	0xfffff7ff
 80025ac:	fffffbff 	.word	0xfffffbff
 80025b0:	40014000 	.word	0x40014000
 80025b4:	40014400 	.word	0x40014400
 80025b8:	40014800 	.word	0x40014800
 80025bc:	ffffefff 	.word	0xffffefff
 80025c0:	ffffdfff 	.word	0xffffdfff

080025c4 <TIM_OC4_SetConfig>:
  * @param  TIMx to select the TIM peripheral
  * @param  OC_Config The ouput configuration structure
  * @retval None
  */
static void TIM_OC4_SetConfig(TIM_TypeDef *TIMx, TIM_OC_InitTypeDef *OC_Config)
{
 80025c4:	b580      	push	{r7, lr}
 80025c6:	b086      	sub	sp, #24
 80025c8:	af00      	add	r7, sp, #0
 80025ca:	6078      	str	r0, [r7, #4]
 80025cc:	6039      	str	r1, [r7, #0]
  uint32_t tmpccmrx;
  uint32_t tmpccer;
  uint32_t tmpcr2;

  /* Disable the Channel 4: Reset the CC4E Bit */
  TIMx->CCER &= ~TIM_CCER_CC4E;
 80025ce:	687b      	ldr	r3, [r7, #4]
 80025d0:	6a1b      	ldr	r3, [r3, #32]
 80025d2:	4a28      	ldr	r2, [pc, #160]	; (8002674 <TIM_OC4_SetConfig+0xb0>)
 80025d4:	401a      	ands	r2, r3
 80025d6:	687b      	ldr	r3, [r7, #4]
 80025d8:	621a      	str	r2, [r3, #32]

  /* Get the TIMx CCER register value */
  tmpccer = TIMx->CCER;
 80025da:	687b      	ldr	r3, [r7, #4]
 80025dc:	6a1b      	ldr	r3, [r3, #32]
 80025de:	613b      	str	r3, [r7, #16]
  /* Get the TIMx CR2 register value */
  tmpcr2 =  TIMx->CR2;
 80025e0:	687b      	ldr	r3, [r7, #4]
 80025e2:	685b      	ldr	r3, [r3, #4]
 80025e4:	617b      	str	r3, [r7, #20]

  /* Get the TIMx CCMR2 register value */
  tmpccmrx = TIMx->CCMR2;
 80025e6:	687b      	ldr	r3, [r7, #4]
 80025e8:	69db      	ldr	r3, [r3, #28]
 80025ea:	60fb      	str	r3, [r7, #12]

  /* Reset the Output Compare mode and Capture/Compare selection Bits */
  tmpccmrx &= ~TIM_CCMR2_OC4M;
 80025ec:	68fb      	ldr	r3, [r7, #12]
 80025ee:	4a22      	ldr	r2, [pc, #136]	; (8002678 <TIM_OC4_SetConfig+0xb4>)
 80025f0:	4013      	ands	r3, r2
 80025f2:	60fb      	str	r3, [r7, #12]
  tmpccmrx &= ~TIM_CCMR2_CC4S;
 80025f4:	68fb      	ldr	r3, [r7, #12]
 80025f6:	4a21      	ldr	r2, [pc, #132]	; (800267c <TIM_OC4_SetConfig+0xb8>)
 80025f8:	4013      	ands	r3, r2
 80025fa:	60fb      	str	r3, [r7, #12]

  /* Select the Output Compare Mode */
  tmpccmrx |= (OC_Config->OCMode << 8U);
 80025fc:	683b      	ldr	r3, [r7, #0]
 80025fe:	681b      	ldr	r3, [r3, #0]
 8002600:	021b      	lsls	r3, r3, #8
 8002602:	68fa      	ldr	r2, [r7, #12]
 8002604:	4313      	orrs	r3, r2
 8002606:	60fb      	str	r3, [r7, #12]

  /* Reset the Output Polarity level */
  tmpccer &= ~TIM_CCER_CC4P;
 8002608:	693b      	ldr	r3, [r7, #16]
 800260a:	4a1d      	ldr	r2, [pc, #116]	; (8002680 <TIM_OC4_SetConfig+0xbc>)
 800260c:	4013      	ands	r3, r2
 800260e:	613b      	str	r3, [r7, #16]
  /* Set the Output Compare Polarity */
  tmpccer |= (OC_Config->OCPolarity << 12U);
 8002610:	683b      	ldr	r3, [r7, #0]
 8002612:	689b      	ldr	r3, [r3, #8]
 8002614:	031b      	lsls	r3, r3, #12
 8002616:	693a      	ldr	r2, [r7, #16]
 8002618:	4313      	orrs	r3, r2
 800261a:	613b      	str	r3, [r7, #16]

  if (IS_TIM_BREAK_INSTANCE(TIMx))
 800261c:	687b      	ldr	r3, [r7, #4]
 800261e:	4a19      	ldr	r2, [pc, #100]	; (8002684 <TIM_OC4_SetConfig+0xc0>)
 8002620:	4293      	cmp	r3, r2
 8002622:	d00b      	beq.n	800263c <TIM_OC4_SetConfig+0x78>
 8002624:	687b      	ldr	r3, [r7, #4]
 8002626:	4a18      	ldr	r2, [pc, #96]	; (8002688 <TIM_OC4_SetConfig+0xc4>)
 8002628:	4293      	cmp	r3, r2
 800262a:	d007      	beq.n	800263c <TIM_OC4_SetConfig+0x78>
 800262c:	687b      	ldr	r3, [r7, #4]
 800262e:	4a17      	ldr	r2, [pc, #92]	; (800268c <TIM_OC4_SetConfig+0xc8>)
 8002630:	4293      	cmp	r3, r2
 8002632:	d003      	beq.n	800263c <TIM_OC4_SetConfig+0x78>
 8002634:	687b      	ldr	r3, [r7, #4]
 8002636:	4a16      	ldr	r2, [pc, #88]	; (8002690 <TIM_OC4_SetConfig+0xcc>)
 8002638:	4293      	cmp	r3, r2
 800263a:	d109      	bne.n	8002650 <TIM_OC4_SetConfig+0x8c>
  {
    /* Check parameters */
    assert_param(IS_TIM_OCIDLE_STATE(OC_Config->OCIdleState));

    /* Reset the Output Compare IDLE State */
    tmpcr2 &= ~TIM_CR2_OIS4;
 800263c:	697b      	ldr	r3, [r7, #20]
 800263e:	4a15      	ldr	r2, [pc, #84]	; (8002694 <TIM_OC4_SetConfig+0xd0>)
 8002640:	4013      	ands	r3, r2
 8002642:	617b      	str	r3, [r7, #20]

    /* Set the Output Idle state */
    tmpcr2 |= (OC_Config->OCIdleState << 6U);
 8002644:	683b      	ldr	r3, [r7, #0]
 8002646:	695b      	ldr	r3, [r3, #20]
 8002648:	019b      	lsls	r3, r3, #6
 800264a:	697a      	ldr	r2, [r7, #20]
 800264c:	4313      	orrs	r3, r2
 800264e:	617b      	str	r3, [r7, #20]
  }

  /* Write to TIMx CR2 */
  TIMx->CR2 = tmpcr2;
 8002650:	687b      	ldr	r3, [r7, #4]
 8002652:	697a      	ldr	r2, [r7, #20]
 8002654:	605a      	str	r2, [r3, #4]

  /* Write to TIMx CCMR2 */
  TIMx->CCMR2 = tmpccmrx;
 8002656:	687b      	ldr	r3, [r7, #4]
 8002658:	68fa      	ldr	r2, [r7, #12]
 800265a:	61da      	str	r2, [r3, #28]

  /* Set the Capture Compare Register value */
  TIMx->CCR4 = OC_Config->Pulse;
 800265c:	683b      	ldr	r3, [r7, #0]
 800265e:	685a      	ldr	r2, [r3, #4]
 8002660:	687b      	ldr	r3, [r7, #4]
 8002662:	641a      	str	r2, [r3, #64]	; 0x40

  /* Write to TIMx CCER */
  TIMx->CCER = tmpccer;
 8002664:	687b      	ldr	r3, [r7, #4]
 8002666:	693a      	ldr	r2, [r7, #16]
 8002668:	621a      	str	r2, [r3, #32]
}
 800266a:	46c0      	nop			; (mov r8, r8)
 800266c:	46bd      	mov	sp, r7
 800266e:	b006      	add	sp, #24
 8002670:	bd80      	pop	{r7, pc}
 8002672:	46c0      	nop			; (mov r8, r8)
 8002674:	ffffefff 	.word	0xffffefff
 8002678:	ffff8fff 	.word	0xffff8fff
 800267c:	fffffcff 	.word	0xfffffcff
 8002680:	ffffdfff 	.word	0xffffdfff
 8002684:	40012c00 	.word	0x40012c00
 8002688:	40014000 	.word	0x40014000
 800268c:	40014400 	.word	0x40014400
 8002690:	40014800 	.word	0x40014800
 8002694:	ffffbfff 	.word	0xffffbfff

08002698 <TIM_CCxChannelCmd>:
  * @param  ChannelState specifies the TIM Channel CCxE bit new state.
  *          This parameter can be: TIM_CCx_ENABLE or TIM_CCx_DISABLE.
  * @retval None
  */
void TIM_CCxChannelCmd(TIM_TypeDef *TIMx, uint32_t Channel, uint32_t ChannelState)
{
 8002698:	b580      	push	{r7, lr}
 800269a:	b086      	sub	sp, #24
 800269c:	af00      	add	r7, sp, #0
 800269e:	60f8      	str	r0, [r7, #12]
 80026a0:	60b9      	str	r1, [r7, #8]
 80026a2:	607a      	str	r2, [r7, #4]

  /* Check the parameters */
  assert_param(IS_TIM_CC1_INSTANCE(TIMx));
  assert_param(IS_TIM_CHANNELS(Channel));

  tmp = TIM_CCER_CC1E << (Channel & 0x1FU); /* 0x1FU = 31 bits max shift */
 80026a4:	68bb      	ldr	r3, [r7, #8]
 80026a6:	221f      	movs	r2, #31
 80026a8:	4013      	ands	r3, r2
 80026aa:	2201      	movs	r2, #1
 80026ac:	409a      	lsls	r2, r3
 80026ae:	0013      	movs	r3, r2
 80026b0:	617b      	str	r3, [r7, #20]

  /* Reset the CCxE Bit */
  TIMx->CCER &= ~tmp;
 80026b2:	68fb      	ldr	r3, [r7, #12]
 80026b4:	6a1b      	ldr	r3, [r3, #32]
 80026b6:	697a      	ldr	r2, [r7, #20]
 80026b8:	43d2      	mvns	r2, r2
 80026ba:	401a      	ands	r2, r3
 80026bc:	68fb      	ldr	r3, [r7, #12]
 80026be:	621a      	str	r2, [r3, #32]

  /* Set or reset the CCxE Bit */
  TIMx->CCER |= (uint32_t)(ChannelState << (Channel & 0x1FU)); /* 0x1FU = 31 bits max shift */
 80026c0:	68fb      	ldr	r3, [r7, #12]
 80026c2:	6a1a      	ldr	r2, [r3, #32]
 80026c4:	68bb      	ldr	r3, [r7, #8]
 80026c6:	211f      	movs	r1, #31
 80026c8:	400b      	ands	r3, r1
 80026ca:	6879      	ldr	r1, [r7, #4]
 80026cc:	4099      	lsls	r1, r3
 80026ce:	000b      	movs	r3, r1
 80026d0:	431a      	orrs	r2, r3
 80026d2:	68fb      	ldr	r3, [r7, #12]
 80026d4:	621a      	str	r2, [r3, #32]
}
 80026d6:	46c0      	nop			; (mov r8, r8)
 80026d8:	46bd      	mov	sp, r7
 80026da:	b006      	add	sp, #24
 80026dc:	bd80      	pop	{r7, pc}
	...

080026e0 <HAL_TIMEx_MasterConfigSynchronization>:
  *         mode.
  * @retval HAL status
  */
HAL_StatusTypeDef HAL_TIMEx_MasterConfigSynchronization(TIM_HandleTypeDef *htim,
                                                        TIM_MasterConfigTypeDef *sMasterConfig)
{
 80026e0:	b580      	push	{r7, lr}
 80026e2:	b084      	sub	sp, #16
 80026e4:	af00      	add	r7, sp, #0
 80026e6:	6078      	str	r0, [r7, #4]
 80026e8:	6039      	str	r1, [r7, #0]
  assert_param(IS_TIM_MASTER_INSTANCE(htim->Instance));
  assert_param(IS_TIM_TRGO_SOURCE(sMasterConfig->MasterOutputTrigger));
  assert_param(IS_TIM_MSM_STATE(sMasterConfig->MasterSlaveMode));

  /* Check input state */
  __HAL_LOCK(htim);
 80026ea:	687b      	ldr	r3, [r7, #4]
 80026ec:	223c      	movs	r2, #60	; 0x3c
 80026ee:	5c9b      	ldrb	r3, [r3, r2]
 80026f0:	2b01      	cmp	r3, #1
 80026f2:	d101      	bne.n	80026f8 <HAL_TIMEx_MasterConfigSynchronization+0x18>
 80026f4:	2302      	movs	r3, #2
 80026f6:	e047      	b.n	8002788 <HAL_TIMEx_MasterConfigSynchronization+0xa8>
 80026f8:	687b      	ldr	r3, [r7, #4]
 80026fa:	223c      	movs	r2, #60	; 0x3c
 80026fc:	2101      	movs	r1, #1
 80026fe:	5499      	strb	r1, [r3, r2]

  /* Change the handler state */
  htim->State = HAL_TIM_STATE_BUSY;
 8002700:	687b      	ldr	r3, [r7, #4]
 8002702:	223d      	movs	r2, #61	; 0x3d
 8002704:	2102      	movs	r1, #2
 8002706:	5499      	strb	r1, [r3, r2]

  /* Get the TIMx CR2 register value */
  tmpcr2 = htim->Instance->CR2;
 8002708:	687b      	ldr	r3, [r7, #4]
 800270a:	681b      	ldr	r3, [r3, #0]
 800270c:	685b      	ldr	r3, [r3, #4]
 800270e:	60fb      	str	r3, [r7, #12]

  /* Get the TIMx SMCR register value */
  tmpsmcr = htim->Instance->SMCR;
 8002710:	687b      	ldr	r3, [r7, #4]
 8002712:	681b      	ldr	r3, [r3, #0]
 8002714:	689b      	ldr	r3, [r3, #8]
 8002716:	60bb      	str	r3, [r7, #8]

  /* Reset the MMS Bits */
  tmpcr2 &= ~TIM_CR2_MMS;
 8002718:	68fb      	ldr	r3, [r7, #12]
 800271a:	2270      	movs	r2, #112	; 0x70
 800271c:	4393      	bics	r3, r2
 800271e:	60fb      	str	r3, [r7, #12]
  /* Select the TRGO source */
  tmpcr2 |=  sMasterConfig->MasterOutputTrigger;
 8002720:	683b      	ldr	r3, [r7, #0]
 8002722:	681b      	ldr	r3, [r3, #0]
 8002724:	68fa      	ldr	r2, [r7, #12]
 8002726:	4313      	orrs	r3, r2
 8002728:	60fb      	str	r3, [r7, #12]

  /* Update TIMx CR2 */
  htim->Instance->CR2 = tmpcr2;
 800272a:	687b      	ldr	r3, [r7, #4]
 800272c:	681b      	ldr	r3, [r3, #0]
 800272e:	68fa      	ldr	r2, [r7, #12]
 8002730:	605a      	str	r2, [r3, #4]

  if (IS_TIM_SLAVE_INSTANCE(htim->Instance))
 8002732:	687b      	ldr	r3, [r7, #4]
 8002734:	681b      	ldr	r3, [r3, #0]
 8002736:	4a16      	ldr	r2, [pc, #88]	; (8002790 <HAL_TIMEx_MasterConfigSynchronization+0xb0>)
 8002738:	4293      	cmp	r3, r2
 800273a:	d00f      	beq.n	800275c <HAL_TIMEx_MasterConfigSynchronization+0x7c>
 800273c:	687b      	ldr	r3, [r7, #4]
 800273e:	681a      	ldr	r2, [r3, #0]
 8002740:	2380      	movs	r3, #128	; 0x80
 8002742:	05db      	lsls	r3, r3, #23
 8002744:	429a      	cmp	r2, r3
 8002746:	d009      	beq.n	800275c <HAL_TIMEx_MasterConfigSynchronization+0x7c>
 8002748:	687b      	ldr	r3, [r7, #4]
 800274a:	681b      	ldr	r3, [r3, #0]
 800274c:	4a11      	ldr	r2, [pc, #68]	; (8002794 <HAL_TIMEx_MasterConfigSynchronization+0xb4>)
 800274e:	4293      	cmp	r3, r2
 8002750:	d004      	beq.n	800275c <HAL_TIMEx_MasterConfigSynchronization+0x7c>
 8002752:	687b      	ldr	r3, [r7, #4]
 8002754:	681b      	ldr	r3, [r3, #0]
 8002756:	4a10      	ldr	r2, [pc, #64]	; (8002798 <HAL_TIMEx_MasterConfigSynchronization+0xb8>)
 8002758:	4293      	cmp	r3, r2
 800275a:	d10c      	bne.n	8002776 <HAL_TIMEx_MasterConfigSynchronization+0x96>
  {
    /* Reset the MSM Bit */
    tmpsmcr &= ~TIM_SMCR_MSM;
 800275c:	68bb      	ldr	r3, [r7, #8]
 800275e:	2280      	movs	r2, #128	; 0x80
 8002760:	4393      	bics	r3, r2
 8002762:	60bb      	str	r3, [r7, #8]
    /* Set master mode */
    tmpsmcr |= sMasterConfig->MasterSlaveMode;
 8002764:	683b      	ldr	r3, [r7, #0]
 8002766:	685b      	ldr	r3, [r3, #4]
 8002768:	68ba      	ldr	r2, [r7, #8]
 800276a:	4313      	orrs	r3, r2
 800276c:	60bb      	str	r3, [r7, #8]

    /* Update TIMx SMCR */
    htim->Instance->SMCR = tmpsmcr;
 800276e:	687b      	ldr	r3, [r7, #4]
 8002770:	681b      	ldr	r3, [r3, #0]
 8002772:	68ba      	ldr	r2, [r7, #8]
 8002774:	609a      	str	r2, [r3, #8]
  }

  /* Change the htim state */
  htim->State = HAL_TIM_STATE_READY;
 8002776:	687b      	ldr	r3, [r7, #4]
 8002778:	223d      	movs	r2, #61	; 0x3d
 800277a:	2101      	movs	r1, #1
 800277c:	5499      	strb	r1, [r3, r2]

  __HAL_UNLOCK(htim);
 800277e:	687b      	ldr	r3, [r7, #4]
 8002780:	223c      	movs	r2, #60	; 0x3c
 8002782:	2100      	movs	r1, #0
 8002784:	5499      	strb	r1, [r3, r2]

  return HAL_OK;
 8002786:	2300      	movs	r3, #0
}
 8002788:	0018      	movs	r0, r3
 800278a:	46bd      	mov	sp, r7
 800278c:	b004      	add	sp, #16
 800278e:	bd80      	pop	{r7, pc}
 8002790:	40012c00 	.word	0x40012c00
 8002794:	40000400 	.word	0x40000400
 8002798:	40014000 	.word	0x40014000

0800279c <HAL_TIMEx_ConfigBreakDeadTime>:
  *         interrupt can be enabled by calling the @ref __HAL_TIM_ENABLE_IT macro.
  * @retval HAL status
  */
HAL_StatusTypeDef HAL_TIMEx_ConfigBreakDeadTime(TIM_HandleTypeDef *htim,
                                                TIM_BreakDeadTimeConfigTypeDef *sBreakDeadTimeConfig)
{
 800279c:	b580      	push	{r7, lr}
 800279e:	b084      	sub	sp, #16
 80027a0:	af00      	add	r7, sp, #0
 80027a2:	6078      	str	r0, [r7, #4]
 80027a4:	6039      	str	r1, [r7, #0]
  /* Keep this variable initialized to 0 as it is used to configure BDTR register */
  uint32_t tmpbdtr = 0U;
 80027a6:	2300      	movs	r3, #0
 80027a8:	60fb      	str	r3, [r7, #12]
  assert_param(IS_TIM_BREAK_STATE(sBreakDeadTimeConfig->BreakState));
  assert_param(IS_TIM_BREAK_POLARITY(sBreakDeadTimeConfig->BreakPolarity));
  assert_param(IS_TIM_AUTOMATIC_OUTPUT_STATE(sBreakDeadTimeConfig->AutomaticOutput));

  /* Check input state */
  __HAL_LOCK(htim);
 80027aa:	687b      	ldr	r3, [r7, #4]
 80027ac:	223c      	movs	r2, #60	; 0x3c
 80027ae:	5c9b      	ldrb	r3, [r3, r2]
 80027b0:	2b01      	cmp	r3, #1
 80027b2:	d101      	bne.n	80027b8 <HAL_TIMEx_ConfigBreakDeadTime+0x1c>
 80027b4:	2302      	movs	r3, #2
 80027b6:	e03e      	b.n	8002836 <HAL_TIMEx_ConfigBreakDeadTime+0x9a>
 80027b8:	687b      	ldr	r3, [r7, #4]
 80027ba:	223c      	movs	r2, #60	; 0x3c
 80027bc:	2101      	movs	r1, #1
 80027be:	5499      	strb	r1, [r3, r2]

  /* Set the Lock level, the Break enable Bit and the Polarity, the OSSR State,
     the OSSI State, the dead time value and the Automatic Output Enable Bit */

  /* Set the BDTR bits */
  MODIFY_REG(tmpbdtr, TIM_BDTR_DTG, sBreakDeadTimeConfig->DeadTime);
 80027c0:	68fb      	ldr	r3, [r7, #12]
 80027c2:	22ff      	movs	r2, #255	; 0xff
 80027c4:	4393      	bics	r3, r2
 80027c6:	001a      	movs	r2, r3
 80027c8:	683b      	ldr	r3, [r7, #0]
 80027ca:	68db      	ldr	r3, [r3, #12]
 80027cc:	4313      	orrs	r3, r2
 80027ce:	60fb      	str	r3, [r7, #12]
  MODIFY_REG(tmpbdtr, TIM_BDTR_LOCK, sBreakDeadTimeConfig->LockLevel);
 80027d0:	68fb      	ldr	r3, [r7, #12]
 80027d2:	4a1b      	ldr	r2, [pc, #108]	; (8002840 <HAL_TIMEx_ConfigBreakDeadTime+0xa4>)
 80027d4:	401a      	ands	r2, r3
 80027d6:	683b      	ldr	r3, [r7, #0]
 80027d8:	689b      	ldr	r3, [r3, #8]
 80027da:	4313      	orrs	r3, r2
 80027dc:	60fb      	str	r3, [r7, #12]
  MODIFY_REG(tmpbdtr, TIM_BDTR_OSSI, sBreakDeadTimeConfig->OffStateIDLEMode);
 80027de:	68fb      	ldr	r3, [r7, #12]
 80027e0:	4a18      	ldr	r2, [pc, #96]	; (8002844 <HAL_TIMEx_ConfigBreakDeadTime+0xa8>)
 80027e2:	401a      	ands	r2, r3
 80027e4:	683b      	ldr	r3, [r7, #0]
 80027e6:	685b      	ldr	r3, [r3, #4]
 80027e8:	4313      	orrs	r3, r2
 80027ea:	60fb      	str	r3, [r7, #12]
  MODIFY_REG(tmpbdtr, TIM_BDTR_OSSR, sBreakDeadTimeConfig->OffStateRunMode);
 80027ec:	68fb      	ldr	r3, [r7, #12]
 80027ee:	4a16      	ldr	r2, [pc, #88]	; (8002848 <HAL_TIMEx_ConfigBreakDeadTime+0xac>)
 80027f0:	401a      	ands	r2, r3
 80027f2:	683b      	ldr	r3, [r7, #0]
 80027f4:	681b      	ldr	r3, [r3, #0]
 80027f6:	4313      	orrs	r3, r2
 80027f8:	60fb      	str	r3, [r7, #12]
  MODIFY_REG(tmpbdtr, TIM_BDTR_BKE, sBreakDeadTimeConfig->BreakState);
 80027fa:	68fb      	ldr	r3, [r7, #12]
 80027fc:	4a13      	ldr	r2, [pc, #76]	; (800284c <HAL_TIMEx_ConfigBreakDeadTime+0xb0>)
 80027fe:	401a      	ands	r2, r3
 8002800:	683b      	ldr	r3, [r7, #0]
 8002802:	691b      	ldr	r3, [r3, #16]
 8002804:	4313      	orrs	r3, r2
 8002806:	60fb      	str	r3, [r7, #12]
  MODIFY_REG(tmpbdtr, TIM_BDTR_BKP, sBreakDeadTimeConfig->BreakPolarity);
 8002808:	68fb      	ldr	r3, [r7, #12]
 800280a:	4a11      	ldr	r2, [pc, #68]	; (8002850 <HAL_TIMEx_ConfigBreakDeadTime+0xb4>)
 800280c:	401a      	ands	r2, r3
 800280e:	683b      	ldr	r3, [r7, #0]
 8002810:	695b      	ldr	r3, [r3, #20]
 8002812:	4313      	orrs	r3, r2
 8002814:	60fb      	str	r3, [r7, #12]
  MODIFY_REG(tmpbdtr, TIM_BDTR_AOE, sBreakDeadTimeConfig->AutomaticOutput);
 8002816:	68fb      	ldr	r3, [r7, #12]
 8002818:	4a0e      	ldr	r2, [pc, #56]	; (8002854 <HAL_TIMEx_ConfigBreakDeadTime+0xb8>)
 800281a:	401a      	ands	r2, r3
 800281c:	683b      	ldr	r3, [r7, #0]
 800281e:	69db      	ldr	r3, [r3, #28]
 8002820:	4313      	orrs	r3, r2
 8002822:	60fb      	str	r3, [r7, #12]


  /* Set TIMx_BDTR */
  htim->Instance->BDTR = tmpbdtr;
 8002824:	687b      	ldr	r3, [r7, #4]
 8002826:	681b      	ldr	r3, [r3, #0]
 8002828:	68fa      	ldr	r2, [r7, #12]
 800282a:	645a      	str	r2, [r3, #68]	; 0x44

  __HAL_UNLOCK(htim);
 800282c:	687b      	ldr	r3, [r7, #4]
 800282e:	223c      	movs	r2, #60	; 0x3c
 8002830:	2100      	movs	r1, #0
 8002832:	5499      	strb	r1, [r3, r2]

  return HAL_OK;
 8002834:	2300      	movs	r3, #0
}
 8002836:	0018      	movs	r0, r3
 8002838:	46bd      	mov	sp, r7
 800283a:	b004      	add	sp, #16
 800283c:	bd80      	pop	{r7, pc}
 800283e:	46c0      	nop			; (mov r8, r8)
 8002840:	fffffcff 	.word	0xfffffcff
 8002844:	fffffbff 	.word	0xfffffbff
 8002848:	fffff7ff 	.word	0xfffff7ff
 800284c:	ffffefff 	.word	0xffffefff
 8002850:	ffffdfff 	.word	0xffffdfff
 8002854:	ffffbfff 	.word	0xffffbfff

08002858 <HAL_TIMEx_CommutCallback>:
  * @brief  Hall commutation changed callback in non-blocking mode
  * @param  htim TIM handle
  * @retval None
  */
__weak void HAL_TIMEx_CommutCallback(TIM_HandleTypeDef *htim)
{
 8002858:	b580      	push	{r7, lr}
 800285a:	b082      	sub	sp, #8
 800285c:	af00      	add	r7, sp, #0
 800285e:	6078      	str	r0, [r7, #4]
  UNUSED(htim);

  /* NOTE : This function should not be modified, when the callback is needed,
            the HAL_TIMEx_CommutCallback could be implemented in the user file
   */
}
 8002860:	46c0      	nop			; (mov r8, r8)
 8002862:	46bd      	mov	sp, r7
 8002864:	b002      	add	sp, #8
 8002866:	bd80      	pop	{r7, pc}

08002868 <HAL_TIMEx_BreakCallback>:
  * @brief  Hall Break detection callback in non-blocking mode
  * @param  htim TIM handle
  * @retval None
  */
__weak void HAL_TIMEx_BreakCallback(TIM_HandleTypeDef *htim)
{
 8002868:	b580      	push	{r7, lr}
 800286a:	b082      	sub	sp, #8
 800286c:	af00      	add	r7, sp, #0
 800286e:	6078      	str	r0, [r7, #4]
  UNUSED(htim);

  /* NOTE : This function should not be modified, when the callback is needed,
            the HAL_TIMEx_BreakCallback could be implemented in the user file
   */
}
 8002870:	46c0      	nop			; (mov r8, r8)
 8002872:	46bd      	mov	sp, r7
 8002874:	b002      	add	sp, #8
 8002876:	bd80      	pop	{r7, pc}

08002878 <__libc_init_array>:
 8002878:	b570      	push	{r4, r5, r6, lr}
 800287a:	2600      	movs	r6, #0
 800287c:	4d0c      	ldr	r5, [pc, #48]	; (80028b0 <__libc_init_array+0x38>)
 800287e:	4c0d      	ldr	r4, [pc, #52]	; (80028b4 <__libc_init_array+0x3c>)
 8002880:	1b64      	subs	r4, r4, r5
 8002882:	10a4      	asrs	r4, r4, #2
 8002884:	42a6      	cmp	r6, r4
 8002886:	d109      	bne.n	800289c <__libc_init_array+0x24>
 8002888:	2600      	movs	r6, #0
 800288a:	f000 f821 	bl	80028d0 <_init>
 800288e:	4d0a      	ldr	r5, [pc, #40]	; (80028b8 <__libc_init_array+0x40>)
 8002890:	4c0a      	ldr	r4, [pc, #40]	; (80028bc <__libc_init_array+0x44>)
 8002892:	1b64      	subs	r4, r4, r5
 8002894:	10a4      	asrs	r4, r4, #2
 8002896:	42a6      	cmp	r6, r4
 8002898:	d105      	bne.n	80028a6 <__libc_init_array+0x2e>
 800289a:	bd70      	pop	{r4, r5, r6, pc}
 800289c:	00b3      	lsls	r3, r6, #2
 800289e:	58eb      	ldr	r3, [r5, r3]
 80028a0:	4798      	blx	r3
 80028a2:	3601      	adds	r6, #1
 80028a4:	e7ee      	b.n	8002884 <__libc_init_array+0xc>
 80028a6:	00b3      	lsls	r3, r6, #2
 80028a8:	58eb      	ldr	r3, [r5, r3]
 80028aa:	4798      	blx	r3
 80028ac:	3601      	adds	r6, #1
 80028ae:	e7f2      	b.n	8002896 <__libc_init_array+0x1e>
 80028b0:	08002918 	.word	0x08002918
 80028b4:	08002918 	.word	0x08002918
 80028b8:	08002918 	.word	0x08002918
 80028bc:	0800291c 	.word	0x0800291c

080028c0 <memset>:
 80028c0:	0003      	movs	r3, r0
 80028c2:	1812      	adds	r2, r2, r0
 80028c4:	4293      	cmp	r3, r2
 80028c6:	d100      	bne.n	80028ca <memset+0xa>
 80028c8:	4770      	bx	lr
 80028ca:	7019      	strb	r1, [r3, #0]
 80028cc:	3301      	adds	r3, #1
 80028ce:	e7f9      	b.n	80028c4 <memset+0x4>

080028d0 <_init>:
 80028d0:	b5f8      	push	{r3, r4, r5, r6, r7, lr}
 80028d2:	46c0      	nop			; (mov r8, r8)
 80028d4:	bcf8      	pop	{r3, r4, r5, r6, r7}
 80028d6:	bc08      	pop	{r3}
 80028d8:	469e      	mov	lr, r3
 80028da:	4770      	bx	lr

080028dc <_fini>:
 80028dc:	b5f8      	push	{r3, r4, r5, r6, r7, lr}
 80028de:	46c0      	nop			; (mov r8, r8)
 80028e0:	bcf8      	pop	{r3, r4, r5, r6, r7}
 80028e2:	bc08      	pop	{r3}
 80028e4:	469e      	mov	lr, r3
 80028e6:	4770      	bx	lr
