
UV_LED_DRIVER_SW_STM32L051.elf:     file format elf32-littlearm

Sections:
Idx Name          Size      VMA       LMA       File off  Algn
  0 .isr_vector   000000c0  08000000  08000000  00010000  2**0
                  CONTENTS, ALLOC, LOAD, READONLY, DATA
  1 .text         00002800  080000c0  080000c0  000100c0  2**2
                  CONTENTS, ALLOC, LOAD, READONLY, CODE
  2 .rodata       00000030  080028c0  080028c0  000128c0  2**2
                  CONTENTS, ALLOC, LOAD, READONLY, DATA
  3 .ARM.extab    00000000  080028f0  080028f0  0002000c  2**0
                  CONTENTS
  4 .ARM          00000000  080028f0  080028f0  0002000c  2**0
                  CONTENTS
  5 .preinit_array 00000000  080028f0  080028f0  0002000c  2**0
                  CONTENTS, ALLOC, LOAD, DATA
  6 .init_array   00000004  080028f0  080028f0  000128f0  2**2
                  CONTENTS, ALLOC, LOAD, DATA
  7 .fini_array   00000004  080028f4  080028f4  000128f4  2**2
                  CONTENTS, ALLOC, LOAD, DATA
  8 .data         0000000c  20000000  080028f8  00020000  2**2
                  CONTENTS, ALLOC, LOAD, DATA
  9 .bss          00000124  2000000c  08002904  0002000c  2**2
                  ALLOC
 10 ._user_heap_stack 00000600  20000130  08002904  00020130  2**0
                  ALLOC
 11 .ARM.attributes 00000028  00000000  00000000  0002000c  2**0
                  CONTENTS, READONLY
 12 .debug_info   0000792f  00000000  00000000  00020034  2**0
                  CONTENTS, READONLY, DEBUGGING
 13 .debug_abbrev 0000159a  00000000  00000000  00027963  2**0
                  CONTENTS, READONLY, DEBUGGING
 14 .debug_aranges 000008f0  00000000  00000000  00028f00  2**3
                  CONTENTS, READONLY, DEBUGGING
 15 .debug_ranges 00000828  00000000  00000000  000297f0  2**3
                  CONTENTS, READONLY, DEBUGGING
 16 .debug_macro  0000daf3  00000000  00000000  0002a018  2**0
                  CONTENTS, READONLY, DEBUGGING
 17 .debug_line   000070c9  00000000  00000000  00037b0b  2**0
                  CONTENTS, READONLY, DEBUGGING
 18 .debug_str    0004fa5d  00000000  00000000  0003ebd4  2**0
                  CONTENTS, READONLY, DEBUGGING
 19 .comment      0000007b  00000000  00000000  0008e631  2**0
                  CONTENTS, READONLY
 20 .debug_frame  00001f34  00000000  00000000  0008e6ac  2**2
                  CONTENTS, READONLY, DEBUGGING

Disassembly of section .text:

080000c0 <__do_global_dtors_aux>:
 80000c0:	b510      	push	{r4, lr}
 80000c2:	4c06      	ldr	r4, [pc, #24]	; (80000dc <__do_global_dtors_aux+0x1c>)
 80000c4:	7823      	ldrb	r3, [r4, #0]
 80000c6:	2b00      	cmp	r3, #0
 80000c8:	d107      	bne.n	80000da <__do_global_dtors_aux+0x1a>
 80000ca:	4b05      	ldr	r3, [pc, #20]	; (80000e0 <__do_global_dtors_aux+0x20>)
 80000cc:	2b00      	cmp	r3, #0
 80000ce:	d002      	beq.n	80000d6 <__do_global_dtors_aux+0x16>
 80000d0:	4804      	ldr	r0, [pc, #16]	; (80000e4 <__do_global_dtors_aux+0x24>)
 80000d2:	e000      	b.n	80000d6 <__do_global_dtors_aux+0x16>
 80000d4:	bf00      	nop
 80000d6:	2301      	movs	r3, #1
 80000d8:	7023      	strb	r3, [r4, #0]
 80000da:	bd10      	pop	{r4, pc}
 80000dc:	2000000c 	.word	0x2000000c
 80000e0:	00000000 	.word	0x00000000
 80000e4:	080028a8 	.word	0x080028a8

080000e8 <frame_dummy>:
 80000e8:	4b04      	ldr	r3, [pc, #16]	; (80000fc <frame_dummy+0x14>)
 80000ea:	b510      	push	{r4, lr}
 80000ec:	2b00      	cmp	r3, #0
 80000ee:	d003      	beq.n	80000f8 <frame_dummy+0x10>
 80000f0:	4903      	ldr	r1, [pc, #12]	; (8000100 <frame_dummy+0x18>)
 80000f2:	4804      	ldr	r0, [pc, #16]	; (8000104 <frame_dummy+0x1c>)
 80000f4:	e000      	b.n	80000f8 <frame_dummy+0x10>
 80000f6:	bf00      	nop
 80000f8:	bd10      	pop	{r4, pc}
 80000fa:	46c0      	nop			; (mov r8, r8)
 80000fc:	00000000 	.word	0x00000000
 8000100:	20000010 	.word	0x20000010
 8000104:	080028a8 	.word	0x080028a8

08000108 <__udivsi3>:
 8000108:	2200      	movs	r2, #0
 800010a:	0843      	lsrs	r3, r0, #1
 800010c:	428b      	cmp	r3, r1
 800010e:	d374      	bcc.n	80001fa <__udivsi3+0xf2>
 8000110:	0903      	lsrs	r3, r0, #4
 8000112:	428b      	cmp	r3, r1
 8000114:	d35f      	bcc.n	80001d6 <__udivsi3+0xce>
 8000116:	0a03      	lsrs	r3, r0, #8
 8000118:	428b      	cmp	r3, r1
 800011a:	d344      	bcc.n	80001a6 <__udivsi3+0x9e>
 800011c:	0b03      	lsrs	r3, r0, #12
 800011e:	428b      	cmp	r3, r1
 8000120:	d328      	bcc.n	8000174 <__udivsi3+0x6c>
 8000122:	0c03      	lsrs	r3, r0, #16
 8000124:	428b      	cmp	r3, r1
 8000126:	d30d      	bcc.n	8000144 <__udivsi3+0x3c>
 8000128:	22ff      	movs	r2, #255	; 0xff
 800012a:	0209      	lsls	r1, r1, #8
 800012c:	ba12      	rev	r2, r2
 800012e:	0c03      	lsrs	r3, r0, #16
 8000130:	428b      	cmp	r3, r1
 8000132:	d302      	bcc.n	800013a <__udivsi3+0x32>
 8000134:	1212      	asrs	r2, r2, #8
 8000136:	0209      	lsls	r1, r1, #8
 8000138:	d065      	beq.n	8000206 <__udivsi3+0xfe>
 800013a:	0b03      	lsrs	r3, r0, #12
 800013c:	428b      	cmp	r3, r1
 800013e:	d319      	bcc.n	8000174 <__udivsi3+0x6c>
 8000140:	e000      	b.n	8000144 <__udivsi3+0x3c>
 8000142:	0a09      	lsrs	r1, r1, #8
 8000144:	0bc3      	lsrs	r3, r0, #15
 8000146:	428b      	cmp	r3, r1
 8000148:	d301      	bcc.n	800014e <__udivsi3+0x46>
 800014a:	03cb      	lsls	r3, r1, #15
 800014c:	1ac0      	subs	r0, r0, r3
 800014e:	4152      	adcs	r2, r2
 8000150:	0b83      	lsrs	r3, r0, #14
 8000152:	428b      	cmp	r3, r1
 8000154:	d301      	bcc.n	800015a <__udivsi3+0x52>
 8000156:	038b      	lsls	r3, r1, #14
 8000158:	1ac0      	subs	r0, r0, r3
 800015a:	4152      	adcs	r2, r2
 800015c:	0b43      	lsrs	r3, r0, #13
 800015e:	428b      	cmp	r3, r1
 8000160:	d301      	bcc.n	8000166 <__udivsi3+0x5e>
 8000162:	034b      	lsls	r3, r1, #13
 8000164:	1ac0      	subs	r0, r0, r3
 8000166:	4152      	adcs	r2, r2
 8000168:	0b03      	lsrs	r3, r0, #12
 800016a:	428b      	cmp	r3, r1
 800016c:	d301      	bcc.n	8000172 <__udivsi3+0x6a>
 800016e:	030b      	lsls	r3, r1, #12
 8000170:	1ac0      	subs	r0, r0, r3
 8000172:	4152      	adcs	r2, r2
 8000174:	0ac3      	lsrs	r3, r0, #11
 8000176:	428b      	cmp	r3, r1
 8000178:	d301      	bcc.n	800017e <__udivsi3+0x76>
 800017a:	02cb      	lsls	r3, r1, #11
 800017c:	1ac0      	subs	r0, r0, r3
 800017e:	4152      	adcs	r2, r2
 8000180:	0a83      	lsrs	r3, r0, #10
 8000182:	428b      	cmp	r3, r1
 8000184:	d301      	bcc.n	800018a <__udivsi3+0x82>
 8000186:	028b      	lsls	r3, r1, #10
 8000188:	1ac0      	subs	r0, r0, r3
 800018a:	4152      	adcs	r2, r2
 800018c:	0a43      	lsrs	r3, r0, #9
 800018e:	428b      	cmp	r3, r1
 8000190:	d301      	bcc.n	8000196 <__udivsi3+0x8e>
 8000192:	024b      	lsls	r3, r1, #9
 8000194:	1ac0      	subs	r0, r0, r3
 8000196:	4152      	adcs	r2, r2
 8000198:	0a03      	lsrs	r3, r0, #8
 800019a:	428b      	cmp	r3, r1
 800019c:	d301      	bcc.n	80001a2 <__udivsi3+0x9a>
 800019e:	020b      	lsls	r3, r1, #8
 80001a0:	1ac0      	subs	r0, r0, r3
 80001a2:	4152      	adcs	r2, r2
 80001a4:	d2cd      	bcs.n	8000142 <__udivsi3+0x3a>
 80001a6:	09c3      	lsrs	r3, r0, #7
 80001a8:	428b      	cmp	r3, r1
 80001aa:	d301      	bcc.n	80001b0 <__udivsi3+0xa8>
 80001ac:	01cb      	lsls	r3, r1, #7
 80001ae:	1ac0      	subs	r0, r0, r3
 80001b0:	4152      	adcs	r2, r2
 80001b2:	0983      	lsrs	r3, r0, #6
 80001b4:	428b      	cmp	r3, r1
 80001b6:	d301      	bcc.n	80001bc <__udivsi3+0xb4>
 80001b8:	018b      	lsls	r3, r1, #6
 80001ba:	1ac0      	subs	r0, r0, r3
 80001bc:	4152      	adcs	r2, r2
 80001be:	0943      	lsrs	r3, r0, #5
 80001c0:	428b      	cmp	r3, r1
 80001c2:	d301      	bcc.n	80001c8 <__udivsi3+0xc0>
 80001c4:	014b      	lsls	r3, r1, #5
 80001c6:	1ac0      	subs	r0, r0, r3
 80001c8:	4152      	adcs	r2, r2
 80001ca:	0903      	lsrs	r3, r0, #4
 80001cc:	428b      	cmp	r3, r1
 80001ce:	d301      	bcc.n	80001d4 <__udivsi3+0xcc>
 80001d0:	010b      	lsls	r3, r1, #4
 80001d2:	1ac0      	subs	r0, r0, r3
 80001d4:	4152      	adcs	r2, r2
 80001d6:	08c3      	lsrs	r3, r0, #3
 80001d8:	428b      	cmp	r3, r1
 80001da:	d301      	bcc.n	80001e0 <__udivsi3+0xd8>
 80001dc:	00cb      	lsls	r3, r1, #3
 80001de:	1ac0      	subs	r0, r0, r3
 80001e0:	4152      	adcs	r2, r2
 80001e2:	0883      	lsrs	r3, r0, #2
 80001e4:	428b      	cmp	r3, r1
 80001e6:	d301      	bcc.n	80001ec <__udivsi3+0xe4>
 80001e8:	008b      	lsls	r3, r1, #2
 80001ea:	1ac0      	subs	r0, r0, r3
 80001ec:	4152      	adcs	r2, r2
 80001ee:	0843      	lsrs	r3, r0, #1
 80001f0:	428b      	cmp	r3, r1
 80001f2:	d301      	bcc.n	80001f8 <__udivsi3+0xf0>
 80001f4:	004b      	lsls	r3, r1, #1
 80001f6:	1ac0      	subs	r0, r0, r3
 80001f8:	4152      	adcs	r2, r2
 80001fa:	1a41      	subs	r1, r0, r1
 80001fc:	d200      	bcs.n	8000200 <__udivsi3+0xf8>
 80001fe:	4601      	mov	r1, r0
 8000200:	4152      	adcs	r2, r2
 8000202:	4610      	mov	r0, r2
 8000204:	4770      	bx	lr
 8000206:	e7ff      	b.n	8000208 <__udivsi3+0x100>
 8000208:	b501      	push	{r0, lr}
 800020a:	2000      	movs	r0, #0
 800020c:	f000 f806 	bl	800021c <__aeabi_idiv0>
 8000210:	bd02      	pop	{r1, pc}
 8000212:	46c0      	nop			; (mov r8, r8)

08000214 <__aeabi_uidivmod>:
 8000214:	2900      	cmp	r1, #0
 8000216:	d0f7      	beq.n	8000208 <__udivsi3+0x100>
 8000218:	e776      	b.n	8000108 <__udivsi3>
 800021a:	4770      	bx	lr

0800021c <__aeabi_idiv0>:
 800021c:	4770      	bx	lr
 800021e:	46c0      	nop			; (mov r8, r8)

08000220 <MX_GPIO_Init>:
        * Output
        * EVENT_OUT
        * EXTI
*/
void MX_GPIO_Init(void)
{
 8000220:	b590      	push	{r4, r7, lr}
 8000222:	b089      	sub	sp, #36	; 0x24
 8000224:	af00      	add	r7, sp, #0

  GPIO_InitTypeDef GPIO_InitStruct = {0};
 8000226:	240c      	movs	r4, #12
 8000228:	193b      	adds	r3, r7, r4
 800022a:	0018      	movs	r0, r3
 800022c:	2314      	movs	r3, #20
 800022e:	001a      	movs	r2, r3
 8000230:	2100      	movs	r1, #0
 8000232:	f002 fb31 	bl	8002898 <memset>

  /* GPIO Ports Clock Enable */
  __HAL_RCC_GPIOA_CLK_ENABLE();
 8000236:	4b28      	ldr	r3, [pc, #160]	; (80002d8 <MX_GPIO_Init+0xb8>)
 8000238:	695a      	ldr	r2, [r3, #20]
 800023a:	4b27      	ldr	r3, [pc, #156]	; (80002d8 <MX_GPIO_Init+0xb8>)
 800023c:	2180      	movs	r1, #128	; 0x80
 800023e:	0289      	lsls	r1, r1, #10
 8000240:	430a      	orrs	r2, r1
 8000242:	615a      	str	r2, [r3, #20]
 8000244:	4b24      	ldr	r3, [pc, #144]	; (80002d8 <MX_GPIO_Init+0xb8>)
 8000246:	695a      	ldr	r2, [r3, #20]
 8000248:	2380      	movs	r3, #128	; 0x80
 800024a:	029b      	lsls	r3, r3, #10
 800024c:	4013      	ands	r3, r2
 800024e:	60bb      	str	r3, [r7, #8]
 8000250:	68bb      	ldr	r3, [r7, #8]
  __HAL_RCC_GPIOB_CLK_ENABLE();
 8000252:	4b21      	ldr	r3, [pc, #132]	; (80002d8 <MX_GPIO_Init+0xb8>)
 8000254:	695a      	ldr	r2, [r3, #20]
 8000256:	4b20      	ldr	r3, [pc, #128]	; (80002d8 <MX_GPIO_Init+0xb8>)
 8000258:	2180      	movs	r1, #128	; 0x80
 800025a:	02c9      	lsls	r1, r1, #11
 800025c:	430a      	orrs	r2, r1
 800025e:	615a      	str	r2, [r3, #20]
 8000260:	4b1d      	ldr	r3, [pc, #116]	; (80002d8 <MX_GPIO_Init+0xb8>)
 8000262:	695a      	ldr	r2, [r3, #20]
 8000264:	2380      	movs	r3, #128	; 0x80
 8000266:	02db      	lsls	r3, r3, #11
 8000268:	4013      	ands	r3, r2
 800026a:	607b      	str	r3, [r7, #4]
 800026c:	687b      	ldr	r3, [r7, #4]

  /*Configure GPIO pin Output Level */
  HAL_GPIO_WritePin(GPIOA, STATUS_BLUE_Pin|STATUS_GREEN_Pin|STATUS_RED_Pin, GPIO_PIN_RESET);
 800026e:	2390      	movs	r3, #144	; 0x90
 8000270:	05db      	lsls	r3, r3, #23
 8000272:	2200      	movs	r2, #0
 8000274:	2107      	movs	r1, #7
 8000276:	0018      	movs	r0, r3
 8000278:	f000 ff82 	bl	8001180 <HAL_GPIO_WritePin>

  /*Configure GPIO pins : PAPin PAPin PAPin */
  GPIO_InitStruct.Pin = STATUS_BLUE_Pin|STATUS_GREEN_Pin|STATUS_RED_Pin;
 800027c:	193b      	adds	r3, r7, r4
 800027e:	2207      	movs	r2, #7
 8000280:	601a      	str	r2, [r3, #0]
  GPIO_InitStruct.Mode = GPIO_MODE_OUTPUT_PP;
 8000282:	193b      	adds	r3, r7, r4
 8000284:	2201      	movs	r2, #1
 8000286:	605a      	str	r2, [r3, #4]
  GPIO_InitStruct.Pull = GPIO_NOPULL;
 8000288:	193b      	adds	r3, r7, r4
 800028a:	2200      	movs	r2, #0
 800028c:	609a      	str	r2, [r3, #8]
  GPIO_InitStruct.Speed = GPIO_SPEED_FREQ_LOW;
 800028e:	193b      	adds	r3, r7, r4
 8000290:	2200      	movs	r2, #0
 8000292:	60da      	str	r2, [r3, #12]
  HAL_GPIO_Init(GPIOA, &GPIO_InitStruct);
 8000294:	193a      	adds	r2, r7, r4
 8000296:	2390      	movs	r3, #144	; 0x90
 8000298:	05db      	lsls	r3, r3, #23
 800029a:	0011      	movs	r1, r2
 800029c:	0018      	movs	r0, r3
 800029e:	f000 fdff 	bl	8000ea0 <HAL_GPIO_Init>

  /*Configure GPIO pin : PtPin */
  GPIO_InitStruct.Pin = ENABLE_LED_Pin;
 80002a2:	193b      	adds	r3, r7, r4
 80002a4:	2201      	movs	r2, #1
 80002a6:	601a      	str	r2, [r3, #0]
  GPIO_InitStruct.Mode = GPIO_MODE_IT_FALLING;
 80002a8:	193b      	adds	r3, r7, r4
 80002aa:	4a0c      	ldr	r2, [pc, #48]	; (80002dc <MX_GPIO_Init+0xbc>)
 80002ac:	605a      	str	r2, [r3, #4]
  GPIO_InitStruct.Pull = GPIO_PULLUP;
 80002ae:	193b      	adds	r3, r7, r4
 80002b0:	2201      	movs	r2, #1
 80002b2:	609a      	str	r2, [r3, #8]
  HAL_GPIO_Init(ENABLE_LED_GPIO_Port, &GPIO_InitStruct);
 80002b4:	193b      	adds	r3, r7, r4
 80002b6:	4a0a      	ldr	r2, [pc, #40]	; (80002e0 <MX_GPIO_Init+0xc0>)
 80002b8:	0019      	movs	r1, r3
 80002ba:	0010      	movs	r0, r2
 80002bc:	f000 fdf0 	bl	8000ea0 <HAL_GPIO_Init>

  /* EXTI interrupt init*/
  HAL_NVIC_SetPriority(EXTI0_1_IRQn, 0, 0);
 80002c0:	2200      	movs	r2, #0
 80002c2:	2100      	movs	r1, #0
 80002c4:	2005      	movs	r0, #5
 80002c6:	f000 fdb9 	bl	8000e3c <HAL_NVIC_SetPriority>
  HAL_NVIC_EnableIRQ(EXTI0_1_IRQn);
 80002ca:	2005      	movs	r0, #5
 80002cc:	f000 fdcb 	bl	8000e66 <HAL_NVIC_EnableIRQ>

}
 80002d0:	46c0      	nop			; (mov r8, r8)
 80002d2:	46bd      	mov	sp, r7
 80002d4:	b009      	add	sp, #36	; 0x24
 80002d6:	bd90      	pop	{r4, r7, pc}
 80002d8:	40021000 	.word	0x40021000
 80002dc:	10210000 	.word	0x10210000
 80002e0:	48000400 	.word	0x48000400

080002e4 <main>:
/**
  * @brief  The application entry point.
  * @retval int
  */
int main(void)
{
 80002e4:	b580      	push	{r7, lr}
 80002e6:	b082      	sub	sp, #8
 80002e8:	af00      	add	r7, sp, #0
  /* USER CODE END 1 */

  /* MCU Configuration--------------------------------------------------------*/

  /* Reset of all peripherals, Initializes the Flash interface and the Systick. */
  HAL_Init();
 80002ea:	f000 fc97 	bl	8000c1c <HAL_Init>
  /* USER CODE BEGIN Init */

  /* USER CODE END Init */

  /* Configure the system clock */
  SystemClock_Config();
 80002ee:	f000 f8bb 	bl	8000468 <SystemClock_Config>
  /* USER CODE BEGIN SysInit */

  /* USER CODE END SysInit */

  /* Initialize all configured peripherals */
  MX_GPIO_Init();
 80002f2:	f7ff ff95 	bl	8000220 <MX_GPIO_Init>
  MX_TIM1_Init();
 80002f6:	f000 f999 	bl	800062c <MX_TIM1_Init>
  MX_TIM17_Init();
 80002fa:	f000 faff 	bl	80008fc <MX_TIM17_Init>
  MX_TIM14_Init();
 80002fe:	f000 faaf 	bl	8000860 <MX_TIM14_Init>
  MX_TIM2_Init();
 8000302:	f000 fa49 	bl	8000798 <MX_TIM2_Init>
  /* USER CODE BEGIN 2 */

  // PWM OUTPUTS
  HAL_TIM_Base_Start(&htim17);
 8000306:	4b52      	ldr	r3, [pc, #328]	; (8000450 <main+0x16c>)
 8000308:	0018      	movs	r0, r3
 800030a:	f001 fc11 	bl	8001b30 <HAL_TIM_Base_Start>
  HAL_TIM_PWM_Start(&htim1, TIM_CHANNEL_1);
 800030e:	4b51      	ldr	r3, [pc, #324]	; (8000454 <main+0x170>)
 8000310:	2100      	movs	r1, #0
 8000312:	0018      	movs	r0, r3
 8000314:	f001 fc5a 	bl	8001bcc <HAL_TIM_PWM_Start>
  HAL_TIM_PWM_Start(&htim1, TIM_CHANNEL_2);
 8000318:	4b4e      	ldr	r3, [pc, #312]	; (8000454 <main+0x170>)
 800031a:	2104      	movs	r1, #4
 800031c:	0018      	movs	r0, r3
 800031e:	f001 fc55 	bl	8001bcc <HAL_TIM_PWM_Start>
  HAL_TIM_PWM_Start(&htim1, TIM_CHANNEL_3);
 8000322:	4b4c      	ldr	r3, [pc, #304]	; (8000454 <main+0x170>)
 8000324:	2108      	movs	r1, #8
 8000326:	0018      	movs	r0, r3
 8000328:	f001 fc50 	bl	8001bcc <HAL_TIM_PWM_Start>
  HAL_TIM_PWM_Start(&htim1, TIM_CHANNEL_4);
 800032c:	4b49      	ldr	r3, [pc, #292]	; (8000454 <main+0x170>)
 800032e:	210c      	movs	r1, #12
 8000330:	0018      	movs	r0, r3
 8000332:	f001 fc4b 	bl	8001bcc <HAL_TIM_PWM_Start>
  HAL_TIM_PWM_Start(&htim14, TIM_CHANNEL_1);
 8000336:	4b48      	ldr	r3, [pc, #288]	; (8000458 <main+0x174>)
 8000338:	2100      	movs	r1, #0
 800033a:	0018      	movs	r0, r3
 800033c:	f001 fc46 	bl	8001bcc <HAL_TIM_PWM_Start>

  TIM1->ARR = 0xFF;		// 	255
 8000340:	4b46      	ldr	r3, [pc, #280]	; (800045c <main+0x178>)
 8000342:	22ff      	movs	r2, #255	; 0xff
 8000344:	62da      	str	r2, [r3, #44]	; 0x2c
  TIM1->CCR1 = 0x1F;	// 	31	12.5%
 8000346:	4b45      	ldr	r3, [pc, #276]	; (800045c <main+0x178>)
 8000348:	221f      	movs	r2, #31
 800034a:	635a      	str	r2, [r3, #52]	; 0x34
  TIM1->CCR2 = 0x3F;	//	63	25%
 800034c:	4b43      	ldr	r3, [pc, #268]	; (800045c <main+0x178>)
 800034e:	223f      	movs	r2, #63	; 0x3f
 8000350:	639a      	str	r2, [r3, #56]	; 0x38
  TIM1->CCR3 = 0x7F;	//	127 50%
 8000352:	4b42      	ldr	r3, [pc, #264]	; (800045c <main+0x178>)
 8000354:	227f      	movs	r2, #127	; 0x7f
 8000356:	63da      	str	r2, [r3, #60]	; 0x3c
  TIM1->CCR4 = 0xBF;	//  191 75%
 8000358:	4b40      	ldr	r3, [pc, #256]	; (800045c <main+0x178>)
 800035a:	22bf      	movs	r2, #191	; 0xbf
 800035c:	641a      	str	r2, [r3, #64]	; 0x40

  TIM14->ARR = 0xFF;	// 	255
 800035e:	4b40      	ldr	r3, [pc, #256]	; (8000460 <main+0x17c>)
 8000360:	22ff      	movs	r2, #255	; 0xff
 8000362:	62da      	str	r2, [r3, #44]	; 0x2c
  TIM14->CCR1 = 0x1F;	// 	31	12.5%
 8000364:	4b3e      	ldr	r3, [pc, #248]	; (8000460 <main+0x17c>)
 8000366:	221f      	movs	r2, #31
 8000368:	635a      	str	r2, [r3, #52]	; 0x34

  // LED OUTPUT
  HAL_GPIO_WritePin(GPIOA, STATUS_BLUE_Pin, GPIO_PIN_SET);
 800036a:	2390      	movs	r3, #144	; 0x90
 800036c:	05db      	lsls	r3, r3, #23
 800036e:	2201      	movs	r2, #1
 8000370:	2101      	movs	r1, #1
 8000372:	0018      	movs	r0, r3
 8000374:	f000 ff04 	bl	8001180 <HAL_GPIO_WritePin>
  HAL_GPIO_WritePin(GPIOA, STATUS_RED_Pin, GPIO_PIN_RESET);
 8000378:	2390      	movs	r3, #144	; 0x90
 800037a:	05db      	lsls	r3, r3, #23
 800037c:	2200      	movs	r2, #0
 800037e:	2104      	movs	r1, #4
 8000380:	0018      	movs	r0, r3
 8000382:	f000 fefd 	bl	8001180 <HAL_GPIO_WritePin>
  HAL_GPIO_WritePin(GPIOA, STATUS_GREEN_Pin, GPIO_PIN_SET);
 8000386:	2390      	movs	r3, #144	; 0x90
 8000388:	05db      	lsls	r3, r3, #23
 800038a:	2201      	movs	r2, #1
 800038c:	2102      	movs	r1, #2
 800038e:	0018      	movs	r0, r3
 8000390:	f000 fef6 	bl	8001180 <HAL_GPIO_WritePin>

  // rotary encoder
  HAL_TIM_Base_Start(&htim2);
 8000394:	4b33      	ldr	r3, [pc, #204]	; (8000464 <main+0x180>)
 8000396:	0018      	movs	r0, r3
 8000398:	f001 fbca 	bl	8001b30 <HAL_TIM_Base_Start>
  uint8_t previous_encoder_dir = (TIM2->CR1 & TIM_CR1_DIR);
 800039c:	2380      	movs	r3, #128	; 0x80
 800039e:	05db      	lsls	r3, r3, #23
 80003a0:	681b      	ldr	r3, [r3, #0]
 80003a2:	b2da      	uxtb	r2, r3
 80003a4:	1dfb      	adds	r3, r7, #7
 80003a6:	2110      	movs	r1, #16
 80003a8:	400a      	ands	r2, r1
 80003aa:	701a      	strb	r2, [r3, #0]
  /* Infinite loop */
  /* USER CODE BEGIN WHILE */
  while (1)
  {

	  	uint8_t new_encoder_dir = (TIM2->CR1 & TIM_CR1_DIR);
 80003ac:	2380      	movs	r3, #128	; 0x80
 80003ae:	05db      	lsls	r3, r3, #23
 80003b0:	681b      	ldr	r3, [r3, #0]
 80003b2:	b2da      	uxtb	r2, r3
 80003b4:	1dbb      	adds	r3, r7, #6
 80003b6:	2110      	movs	r1, #16
 80003b8:	400a      	ands	r2, r1
 80003ba:	701a      	strb	r2, [r3, #0]
		if( (previous_encoder_dir) && (!new_encoder_dir) )
 80003bc:	1dfb      	adds	r3, r7, #7
 80003be:	781b      	ldrb	r3, [r3, #0]
 80003c0:	2b00      	cmp	r3, #0
 80003c2:	d020      	beq.n	8000406 <main+0x122>
 80003c4:	1dbb      	adds	r3, r7, #6
 80003c6:	781b      	ldrb	r3, [r3, #0]
 80003c8:	2b00      	cmp	r3, #0
 80003ca:	d11c      	bne.n	8000406 <main+0x122>
		{
			TIM1->CCR1++;
 80003cc:	4b23      	ldr	r3, [pc, #140]	; (800045c <main+0x178>)
 80003ce:	6b5a      	ldr	r2, [r3, #52]	; 0x34
 80003d0:	3201      	adds	r2, #1
 80003d2:	635a      	str	r2, [r3, #52]	; 0x34
			TIM1->CCR2++;
 80003d4:	4b21      	ldr	r3, [pc, #132]	; (800045c <main+0x178>)
 80003d6:	6b9a      	ldr	r2, [r3, #56]	; 0x38
 80003d8:	3201      	adds	r2, #1
 80003da:	639a      	str	r2, [r3, #56]	; 0x38
			TIM1->CCR3++;
 80003dc:	4b1f      	ldr	r3, [pc, #124]	; (800045c <main+0x178>)
 80003de:	6bda      	ldr	r2, [r3, #60]	; 0x3c
 80003e0:	3201      	adds	r2, #1
 80003e2:	63da      	str	r2, [r3, #60]	; 0x3c
			TIM1->CCR4++;
 80003e4:	4b1d      	ldr	r3, [pc, #116]	; (800045c <main+0x178>)
 80003e6:	6c1a      	ldr	r2, [r3, #64]	; 0x40
 80003e8:	3201      	adds	r2, #1
 80003ea:	641a      	str	r2, [r3, #64]	; 0x40
			TIM14->CCR1++;
 80003ec:	4b1c      	ldr	r3, [pc, #112]	; (8000460 <main+0x17c>)
 80003ee:	6b5a      	ldr	r2, [r3, #52]	; 0x34
 80003f0:	3201      	adds	r2, #1
 80003f2:	635a      	str	r2, [r3, #52]	; 0x34
			previous_encoder_dir = (TIM2->CR1 & TIM_CR1_DIR);
 80003f4:	2380      	movs	r3, #128	; 0x80
 80003f6:	05db      	lsls	r3, r3, #23
 80003f8:	681b      	ldr	r3, [r3, #0]
 80003fa:	b2da      	uxtb	r2, r3
 80003fc:	1dfb      	adds	r3, r7, #7
 80003fe:	2110      	movs	r1, #16
 8000400:	400a      	ands	r2, r1
 8000402:	701a      	strb	r2, [r3, #0]
 8000404:	e023      	b.n	800044e <main+0x16a>
		}
		else if( (!previous_encoder_dir) && (new_encoder_dir) )
 8000406:	1dfb      	adds	r3, r7, #7
 8000408:	781b      	ldrb	r3, [r3, #0]
 800040a:	2b00      	cmp	r3, #0
 800040c:	d1ce      	bne.n	80003ac <main+0xc8>
 800040e:	1dbb      	adds	r3, r7, #6
 8000410:	781b      	ldrb	r3, [r3, #0]
 8000412:	2b00      	cmp	r3, #0
 8000414:	d0ca      	beq.n	80003ac <main+0xc8>
		{
			TIM1->CCR1--;
 8000416:	4b11      	ldr	r3, [pc, #68]	; (800045c <main+0x178>)
 8000418:	6b5a      	ldr	r2, [r3, #52]	; 0x34
 800041a:	3a01      	subs	r2, #1
 800041c:	635a      	str	r2, [r3, #52]	; 0x34
			TIM1->CCR2--;
 800041e:	4b0f      	ldr	r3, [pc, #60]	; (800045c <main+0x178>)
 8000420:	6b9a      	ldr	r2, [r3, #56]	; 0x38
 8000422:	3a01      	subs	r2, #1
 8000424:	639a      	str	r2, [r3, #56]	; 0x38
			TIM1->CCR3--;
 8000426:	4b0d      	ldr	r3, [pc, #52]	; (800045c <main+0x178>)
 8000428:	6bda      	ldr	r2, [r3, #60]	; 0x3c
 800042a:	3a01      	subs	r2, #1
 800042c:	63da      	str	r2, [r3, #60]	; 0x3c
			TIM1->CCR4--;
 800042e:	4b0b      	ldr	r3, [pc, #44]	; (800045c <main+0x178>)
 8000430:	6c1a      	ldr	r2, [r3, #64]	; 0x40
 8000432:	3a01      	subs	r2, #1
 8000434:	641a      	str	r2, [r3, #64]	; 0x40
			TIM14->CCR1--;
 8000436:	4b0a      	ldr	r3, [pc, #40]	; (8000460 <main+0x17c>)
 8000438:	6b5a      	ldr	r2, [r3, #52]	; 0x34
 800043a:	3a01      	subs	r2, #1
 800043c:	635a      	str	r2, [r3, #52]	; 0x34
			previous_encoder_dir = (TIM2->CR1 & TIM_CR1_DIR);
 800043e:	2380      	movs	r3, #128	; 0x80
 8000440:	05db      	lsls	r3, r3, #23
 8000442:	681b      	ldr	r3, [r3, #0]
 8000444:	b2da      	uxtb	r2, r3
 8000446:	1dfb      	adds	r3, r7, #7
 8000448:	2110      	movs	r1, #16
 800044a:	400a      	ands	r2, r1
 800044c:	701a      	strb	r2, [r3, #0]
  {
 800044e:	e7ad      	b.n	80003ac <main+0xc8>
 8000450:	2000002c 	.word	0x2000002c
 8000454:	2000006c 	.word	0x2000006c
 8000458:	200000ec 	.word	0x200000ec
 800045c:	40012c00 	.word	0x40012c00
 8000460:	40002000 	.word	0x40002000
 8000464:	200000ac 	.word	0x200000ac

08000468 <SystemClock_Config>:
/**
  * @brief System Clock Configuration
  * @retval None
  */
void SystemClock_Config(void)
{
 8000468:	b590      	push	{r4, r7, lr}
 800046a:	b091      	sub	sp, #68	; 0x44
 800046c:	af00      	add	r7, sp, #0
  RCC_OscInitTypeDef RCC_OscInitStruct = {0};
 800046e:	2410      	movs	r4, #16
 8000470:	193b      	adds	r3, r7, r4
 8000472:	0018      	movs	r0, r3
 8000474:	2330      	movs	r3, #48	; 0x30
 8000476:	001a      	movs	r2, r3
 8000478:	2100      	movs	r1, #0
 800047a:	f002 fa0d 	bl	8002898 <memset>
  RCC_ClkInitTypeDef RCC_ClkInitStruct = {0};
 800047e:	003b      	movs	r3, r7
 8000480:	0018      	movs	r0, r3
 8000482:	2310      	movs	r3, #16
 8000484:	001a      	movs	r2, r3
 8000486:	2100      	movs	r1, #0
 8000488:	f002 fa06 	bl	8002898 <memset>

  /** Initializes the CPU, AHB and APB busses clocks 
  */
  RCC_OscInitStruct.OscillatorType = RCC_OSCILLATORTYPE_HSI;
 800048c:	0021      	movs	r1, r4
 800048e:	187b      	adds	r3, r7, r1
 8000490:	2202      	movs	r2, #2
 8000492:	601a      	str	r2, [r3, #0]
  RCC_OscInitStruct.HSIState = RCC_HSI_ON;
 8000494:	187b      	adds	r3, r7, r1
 8000496:	2201      	movs	r2, #1
 8000498:	60da      	str	r2, [r3, #12]
  RCC_OscInitStruct.HSICalibrationValue = RCC_HSICALIBRATION_DEFAULT;
 800049a:	187b      	adds	r3, r7, r1
 800049c:	2210      	movs	r2, #16
 800049e:	611a      	str	r2, [r3, #16]
  RCC_OscInitStruct.PLL.PLLState = RCC_PLL_NONE;
 80004a0:	187b      	adds	r3, r7, r1
 80004a2:	2200      	movs	r2, #0
 80004a4:	621a      	str	r2, [r3, #32]
  if (HAL_RCC_OscConfig(&RCC_OscInitStruct) != HAL_OK)
 80004a6:	187b      	adds	r3, r7, r1
 80004a8:	0018      	movs	r0, r3
 80004aa:	f000 fec7 	bl	800123c <HAL_RCC_OscConfig>
 80004ae:	1e03      	subs	r3, r0, #0
 80004b0:	d001      	beq.n	80004b6 <SystemClock_Config+0x4e>
  {
    Error_Handler();
 80004b2:	f000 f819 	bl	80004e8 <Error_Handler>
  }
  /** Initializes the CPU, AHB and APB busses clocks 
  */
  RCC_ClkInitStruct.ClockType = RCC_CLOCKTYPE_HCLK|RCC_CLOCKTYPE_SYSCLK
 80004b6:	003b      	movs	r3, r7
 80004b8:	2207      	movs	r2, #7
 80004ba:	601a      	str	r2, [r3, #0]
                              |RCC_CLOCKTYPE_PCLK1;
  RCC_ClkInitStruct.SYSCLKSource = RCC_SYSCLKSOURCE_HSI;
 80004bc:	003b      	movs	r3, r7
 80004be:	2200      	movs	r2, #0
 80004c0:	605a      	str	r2, [r3, #4]
  RCC_ClkInitStruct.AHBCLKDivider = RCC_SYSCLK_DIV1;
 80004c2:	003b      	movs	r3, r7
 80004c4:	2200      	movs	r2, #0
 80004c6:	609a      	str	r2, [r3, #8]
  RCC_ClkInitStruct.APB1CLKDivider = RCC_HCLK_DIV1;
 80004c8:	003b      	movs	r3, r7
 80004ca:	2200      	movs	r2, #0
 80004cc:	60da      	str	r2, [r3, #12]

  if (HAL_RCC_ClockConfig(&RCC_ClkInitStruct, FLASH_LATENCY_0) != HAL_OK)
 80004ce:	003b      	movs	r3, r7
 80004d0:	2100      	movs	r1, #0
 80004d2:	0018      	movs	r0, r3
 80004d4:	f001 f9ce 	bl	8001874 <HAL_RCC_ClockConfig>
 80004d8:	1e03      	subs	r3, r0, #0
 80004da:	d001      	beq.n	80004e0 <SystemClock_Config+0x78>
  {
    Error_Handler();
 80004dc:	f000 f804 	bl	80004e8 <Error_Handler>
  }
}
 80004e0:	46c0      	nop			; (mov r8, r8)
 80004e2:	46bd      	mov	sp, r7
 80004e4:	b011      	add	sp, #68	; 0x44
 80004e6:	bd90      	pop	{r4, r7, pc}

080004e8 <Error_Handler>:
/**
  * @brief  This function is executed in case of error occurrence.
  * @retval None
  */
void Error_Handler(void)
{
 80004e8:	b580      	push	{r7, lr}
 80004ea:	af00      	add	r7, sp, #0
  /* USER CODE BEGIN Error_Handler_Debug */
  /* User can add his own implementation to report the HAL error return state */

  /* USER CODE END Error_Handler_Debug */
}
 80004ec:	46c0      	nop			; (mov r8, r8)
 80004ee:	46bd      	mov	sp, r7
 80004f0:	bd80      	pop	{r7, pc}
	...

080004f4 <HAL_MspInit>:
/* USER CODE END 0 */
/**
  * Initializes the Global MSP.
  */
void HAL_MspInit(void)
{
 80004f4:	b580      	push	{r7, lr}
 80004f6:	b082      	sub	sp, #8
 80004f8:	af00      	add	r7, sp, #0
  /* USER CODE BEGIN MspInit 0 */

  /* USER CODE END MspInit 0 */

  __HAL_RCC_SYSCFG_CLK_ENABLE();
 80004fa:	4b0f      	ldr	r3, [pc, #60]	; (8000538 <HAL_MspInit+0x44>)
 80004fc:	699a      	ldr	r2, [r3, #24]
 80004fe:	4b0e      	ldr	r3, [pc, #56]	; (8000538 <HAL_MspInit+0x44>)
 8000500:	2101      	movs	r1, #1
 8000502:	430a      	orrs	r2, r1
 8000504:	619a      	str	r2, [r3, #24]
 8000506:	4b0c      	ldr	r3, [pc, #48]	; (8000538 <HAL_MspInit+0x44>)
 8000508:	699b      	ldr	r3, [r3, #24]
 800050a:	2201      	movs	r2, #1
 800050c:	4013      	ands	r3, r2
 800050e:	607b      	str	r3, [r7, #4]
 8000510:	687b      	ldr	r3, [r7, #4]
  __HAL_RCC_PWR_CLK_ENABLE();
 8000512:	4b09      	ldr	r3, [pc, #36]	; (8000538 <HAL_MspInit+0x44>)
 8000514:	69da      	ldr	r2, [r3, #28]
 8000516:	4b08      	ldr	r3, [pc, #32]	; (8000538 <HAL_MspInit+0x44>)
 8000518:	2180      	movs	r1, #128	; 0x80
 800051a:	0549      	lsls	r1, r1, #21
 800051c:	430a      	orrs	r2, r1
 800051e:	61da      	str	r2, [r3, #28]
 8000520:	4b05      	ldr	r3, [pc, #20]	; (8000538 <HAL_MspInit+0x44>)
 8000522:	69da      	ldr	r2, [r3, #28]
 8000524:	2380      	movs	r3, #128	; 0x80
 8000526:	055b      	lsls	r3, r3, #21
 8000528:	4013      	ands	r3, r2
 800052a:	603b      	str	r3, [r7, #0]
 800052c:	683b      	ldr	r3, [r7, #0]
  /* System interrupt init*/

  /* USER CODE BEGIN MspInit 1 */

  /* USER CODE END MspInit 1 */
}
 800052e:	46c0      	nop			; (mov r8, r8)
 8000530:	46bd      	mov	sp, r7
 8000532:	b002      	add	sp, #8
 8000534:	bd80      	pop	{r7, pc}
 8000536:	46c0      	nop			; (mov r8, r8)
 8000538:	40021000 	.word	0x40021000

0800053c <NMI_Handler>:
/******************************************************************************/
/**
  * @brief This function handles Non maskable interrupt.
  */
void NMI_Handler(void)
{
 800053c:	b580      	push	{r7, lr}
 800053e:	af00      	add	r7, sp, #0

  /* USER CODE END NonMaskableInt_IRQn 0 */
  /* USER CODE BEGIN NonMaskableInt_IRQn 1 */

  /* USER CODE END NonMaskableInt_IRQn 1 */
}
 8000540:	46c0      	nop			; (mov r8, r8)
 8000542:	46bd      	mov	sp, r7
 8000544:	bd80      	pop	{r7, pc}

08000546 <HardFault_Handler>:

/**
  * @brief This function handles Hard fault interrupt.
  */
void HardFault_Handler(void)
{
 8000546:	b580      	push	{r7, lr}
 8000548:	af00      	add	r7, sp, #0
  /* USER CODE BEGIN HardFault_IRQn 0 */

  /* USER CODE END HardFault_IRQn 0 */
  while (1)
 800054a:	e7fe      	b.n	800054a <HardFault_Handler+0x4>

0800054c <SVC_Handler>:

/**
  * @brief This function handles System service call via SWI instruction.
  */
void SVC_Handler(void)
{
 800054c:	b580      	push	{r7, lr}
 800054e:	af00      	add	r7, sp, #0

  /* USER CODE END SVC_IRQn 0 */
  /* USER CODE BEGIN SVC_IRQn 1 */

  /* USER CODE END SVC_IRQn 1 */
}
 8000550:	46c0      	nop			; (mov r8, r8)
 8000552:	46bd      	mov	sp, r7
 8000554:	bd80      	pop	{r7, pc}

08000556 <PendSV_Handler>:

/**
  * @brief This function handles Pendable request for system service.
  */
void PendSV_Handler(void)
{
 8000556:	b580      	push	{r7, lr}
 8000558:	af00      	add	r7, sp, #0

  /* USER CODE END PendSV_IRQn 0 */
  /* USER CODE BEGIN PendSV_IRQn 1 */

  /* USER CODE END PendSV_IRQn 1 */
}
 800055a:	46c0      	nop			; (mov r8, r8)
 800055c:	46bd      	mov	sp, r7
 800055e:	bd80      	pop	{r7, pc}

08000560 <SysTick_Handler>:

/**
  * @brief This function handles System tick timer.
  */
void SysTick_Handler(void)
{
 8000560:	b580      	push	{r7, lr}
 8000562:	af00      	add	r7, sp, #0
  /* USER CODE BEGIN SysTick_IRQn 0 */

  /* USER CODE END SysTick_IRQn 0 */
  HAL_IncTick();
 8000564:	f000 fba2 	bl	8000cac <HAL_IncTick>
  /* USER CODE BEGIN SysTick_IRQn 1 */

  /* USER CODE END SysTick_IRQn 1 */
}
 8000568:	46c0      	nop			; (mov r8, r8)
 800056a:	46bd      	mov	sp, r7
 800056c:	bd80      	pop	{r7, pc}
	...

08000570 <EXTI0_1_IRQHandler>:

/**
  * @brief This function handles EXTI line 0 and 1 interrupts.
  */
void EXTI0_1_IRQHandler(void)
{
 8000570:	b580      	push	{r7, lr}
 8000572:	b082      	sub	sp, #8
 8000574:	af00      	add	r7, sp, #0
  /* USER CODE BEGIN EXTI0_1_IRQn 0 */
	uint16_t interrupt_time = TIM17->CNT;
 8000576:	4b20      	ldr	r3, [pc, #128]	; (80005f8 <EXTI0_1_IRQHandler+0x88>)
 8000578:	6a5a      	ldr	r2, [r3, #36]	; 0x24
 800057a:	1dbb      	adds	r3, r7, #6
 800057c:	801a      	strh	r2, [r3, #0]
	if ((interrupt_time - last_interrupt_time) > MAX_DEBOUNCE_DELAY)
 800057e:	1dbb      	adds	r3, r7, #6
 8000580:	881b      	ldrh	r3, [r3, #0]
 8000582:	4a1e      	ldr	r2, [pc, #120]	; (80005fc <EXTI0_1_IRQHandler+0x8c>)
 8000584:	8812      	ldrh	r2, [r2, #0]
 8000586:	1a9b      	subs	r3, r3, r2
 8000588:	2baf      	cmp	r3, #175	; 0xaf
 800058a:	dd29      	ble.n	80005e0 <EXTI0_1_IRQHandler+0x70>
	{
		HAL_GPIO_TogglePin(GPIOA, STATUS_GREEN_Pin);
 800058c:	2390      	movs	r3, #144	; 0x90
 800058e:	05db      	lsls	r3, r3, #23
 8000590:	2102      	movs	r1, #2
 8000592:	0018      	movs	r0, r3
 8000594:	f000 fe11 	bl	80011ba <HAL_GPIO_TogglePin>
		HAL_GPIO_TogglePin(GPIOA, STATUS_RED_Pin);
 8000598:	2390      	movs	r3, #144	; 0x90
 800059a:	05db      	lsls	r3, r3, #23
 800059c:	2104      	movs	r1, #4
 800059e:	0018      	movs	r0, r3
 80005a0:	f000 fe0b 	bl	80011ba <HAL_GPIO_TogglePin>
		TIM1->CCR1 ^= 0x60;
 80005a4:	4b16      	ldr	r3, [pc, #88]	; (8000600 <EXTI0_1_IRQHandler+0x90>)
 80005a6:	6b5a      	ldr	r2, [r3, #52]	; 0x34
 80005a8:	4b15      	ldr	r3, [pc, #84]	; (8000600 <EXTI0_1_IRQHandler+0x90>)
 80005aa:	2160      	movs	r1, #96	; 0x60
 80005ac:	404a      	eors	r2, r1
 80005ae:	635a      	str	r2, [r3, #52]	; 0x34
		TIM1->CCR2 ^= 0x60;
 80005b0:	4b13      	ldr	r3, [pc, #76]	; (8000600 <EXTI0_1_IRQHandler+0x90>)
 80005b2:	6b9a      	ldr	r2, [r3, #56]	; 0x38
 80005b4:	4b12      	ldr	r3, [pc, #72]	; (8000600 <EXTI0_1_IRQHandler+0x90>)
 80005b6:	2160      	movs	r1, #96	; 0x60
 80005b8:	404a      	eors	r2, r1
 80005ba:	639a      	str	r2, [r3, #56]	; 0x38
		TIM1->CCR3 ^= 0x60;
 80005bc:	4b10      	ldr	r3, [pc, #64]	; (8000600 <EXTI0_1_IRQHandler+0x90>)
 80005be:	6bda      	ldr	r2, [r3, #60]	; 0x3c
 80005c0:	4b0f      	ldr	r3, [pc, #60]	; (8000600 <EXTI0_1_IRQHandler+0x90>)
 80005c2:	2160      	movs	r1, #96	; 0x60
 80005c4:	404a      	eors	r2, r1
 80005c6:	63da      	str	r2, [r3, #60]	; 0x3c
		TIM1->CCR4 ^= 0x60;
 80005c8:	4b0d      	ldr	r3, [pc, #52]	; (8000600 <EXTI0_1_IRQHandler+0x90>)
 80005ca:	6c1a      	ldr	r2, [r3, #64]	; 0x40
 80005cc:	4b0c      	ldr	r3, [pc, #48]	; (8000600 <EXTI0_1_IRQHandler+0x90>)
 80005ce:	2160      	movs	r1, #96	; 0x60
 80005d0:	404a      	eors	r2, r1
 80005d2:	641a      	str	r2, [r3, #64]	; 0x40
		TIM14->CCR1 ^= 0x60;
 80005d4:	4b0b      	ldr	r3, [pc, #44]	; (8000604 <EXTI0_1_IRQHandler+0x94>)
 80005d6:	6b5a      	ldr	r2, [r3, #52]	; 0x34
 80005d8:	4b0a      	ldr	r3, [pc, #40]	; (8000604 <EXTI0_1_IRQHandler+0x94>)
 80005da:	2160      	movs	r1, #96	; 0x60
 80005dc:	404a      	eors	r2, r1
 80005de:	635a      	str	r2, [r3, #52]	; 0x34
	}
	last_interrupt_time = interrupt_time;
 80005e0:	4b06      	ldr	r3, [pc, #24]	; (80005fc <EXTI0_1_IRQHandler+0x8c>)
 80005e2:	1dba      	adds	r2, r7, #6
 80005e4:	8812      	ldrh	r2, [r2, #0]
 80005e6:	801a      	strh	r2, [r3, #0]
  /* USER CODE END EXTI0_1_IRQn 0 */
  HAL_GPIO_EXTI_IRQHandler(GPIO_PIN_0);
 80005e8:	2001      	movs	r0, #1
 80005ea:	f000 fe01 	bl	80011f0 <HAL_GPIO_EXTI_IRQHandler>
  /* USER CODE BEGIN EXTI0_1_IRQn 1 */

  /* USER CODE END EXTI0_1_IRQn 1 */
}
 80005ee:	46c0      	nop			; (mov r8, r8)
 80005f0:	46bd      	mov	sp, r7
 80005f2:	b002      	add	sp, #8
 80005f4:	bd80      	pop	{r7, pc}
 80005f6:	46c0      	nop			; (mov r8, r8)
 80005f8:	40014800 	.word	0x40014800
 80005fc:	20000028 	.word	0x20000028
 8000600:	40012c00 	.word	0x40012c00
 8000604:	40002000 	.word	0x40002000

08000608 <TIM2_IRQHandler>:

/**
  * @brief This function handles TIM2 global interrupt.
  */
void TIM2_IRQHandler(void)
{
 8000608:	b580      	push	{r7, lr}
 800060a:	af00      	add	r7, sp, #0
  /* USER CODE BEGIN TIM2_IRQn 0 */

  /* USER CODE END TIM2_IRQn 0 */
  HAL_TIM_IRQHandler(&htim2);
 800060c:	4b03      	ldr	r3, [pc, #12]	; (800061c <TIM2_IRQHandler+0x14>)
 800060e:	0018      	movs	r0, r3
 8000610:	f001 fbbc 	bl	8001d8c <HAL_TIM_IRQHandler>
  /* USER CODE BEGIN TIM2_IRQn 1 */

  /* USER CODE END TIM2_IRQn 1 */
}
 8000614:	46c0      	nop			; (mov r8, r8)
 8000616:	46bd      	mov	sp, r7
 8000618:	bd80      	pop	{r7, pc}
 800061a:	46c0      	nop			; (mov r8, r8)
 800061c:	200000ac 	.word	0x200000ac

08000620 <SystemInit>:
  * @brief  Setup the microcontroller system.
  * @param  None
  * @retval None
  */
void SystemInit(void)
{
 8000620:	b580      	push	{r7, lr}
 8000622:	af00      	add	r7, sp, #0
                         before branch to main program. This call is made inside
                         the "startup_stm32f0xx.s" file.
                         User can setups the default system clock (System clock source, PLL Multiplier
                         and Divider factors, AHB/APBx prescalers and Flash settings).
   */
}
 8000624:	46c0      	nop			; (mov r8, r8)
 8000626:	46bd      	mov	sp, r7
 8000628:	bd80      	pop	{r7, pc}
	...

0800062c <MX_TIM1_Init>:
TIM_HandleTypeDef htim14;
TIM_HandleTypeDef htim17;

/* TIM1 init function */
void MX_TIM1_Init(void)
{
 800062c:	b580      	push	{r7, lr}
 800062e:	b092      	sub	sp, #72	; 0x48
 8000630:	af00      	add	r7, sp, #0
  TIM_MasterConfigTypeDef sMasterConfig = {0};
 8000632:	2340      	movs	r3, #64	; 0x40
 8000634:	18fb      	adds	r3, r7, r3
 8000636:	0018      	movs	r0, r3
 8000638:	2308      	movs	r3, #8
 800063a:	001a      	movs	r2, r3
 800063c:	2100      	movs	r1, #0
 800063e:	f002 f92b 	bl	8002898 <memset>
  TIM_OC_InitTypeDef sConfigOC = {0};
 8000642:	2324      	movs	r3, #36	; 0x24
 8000644:	18fb      	adds	r3, r7, r3
 8000646:	0018      	movs	r0, r3
 8000648:	231c      	movs	r3, #28
 800064a:	001a      	movs	r2, r3
 800064c:	2100      	movs	r1, #0
 800064e:	f002 f923 	bl	8002898 <memset>
  TIM_BreakDeadTimeConfigTypeDef sBreakDeadTimeConfig = {0};
 8000652:	1d3b      	adds	r3, r7, #4
 8000654:	0018      	movs	r0, r3
 8000656:	2320      	movs	r3, #32
 8000658:	001a      	movs	r2, r3
 800065a:	2100      	movs	r1, #0
 800065c:	f002 f91c 	bl	8002898 <memset>

  htim1.Instance = TIM1;
 8000660:	4b4b      	ldr	r3, [pc, #300]	; (8000790 <MX_TIM1_Init+0x164>)
 8000662:	4a4c      	ldr	r2, [pc, #304]	; (8000794 <MX_TIM1_Init+0x168>)
 8000664:	601a      	str	r2, [r3, #0]
  htim1.Init.Prescaler = 0;
 8000666:	4b4a      	ldr	r3, [pc, #296]	; (8000790 <MX_TIM1_Init+0x164>)
 8000668:	2200      	movs	r2, #0
 800066a:	605a      	str	r2, [r3, #4]
  htim1.Init.CounterMode = TIM_COUNTERMODE_UP;
 800066c:	4b48      	ldr	r3, [pc, #288]	; (8000790 <MX_TIM1_Init+0x164>)
 800066e:	2200      	movs	r2, #0
 8000670:	609a      	str	r2, [r3, #8]
  htim1.Init.Period = 64;
 8000672:	4b47      	ldr	r3, [pc, #284]	; (8000790 <MX_TIM1_Init+0x164>)
 8000674:	2240      	movs	r2, #64	; 0x40
 8000676:	60da      	str	r2, [r3, #12]
  htim1.Init.ClockDivision = TIM_CLOCKDIVISION_DIV1;
 8000678:	4b45      	ldr	r3, [pc, #276]	; (8000790 <MX_TIM1_Init+0x164>)
 800067a:	2200      	movs	r2, #0
 800067c:	611a      	str	r2, [r3, #16]
  htim1.Init.RepetitionCounter = 0;
 800067e:	4b44      	ldr	r3, [pc, #272]	; (8000790 <MX_TIM1_Init+0x164>)
 8000680:	2200      	movs	r2, #0
 8000682:	615a      	str	r2, [r3, #20]
  htim1.Init.AutoReloadPreload = TIM_AUTORELOAD_PRELOAD_DISABLE;
 8000684:	4b42      	ldr	r3, [pc, #264]	; (8000790 <MX_TIM1_Init+0x164>)
 8000686:	2200      	movs	r2, #0
 8000688:	619a      	str	r2, [r3, #24]
  if (HAL_TIM_PWM_Init(&htim1) != HAL_OK)
 800068a:	4b41      	ldr	r3, [pc, #260]	; (8000790 <MX_TIM1_Init+0x164>)
 800068c:	0018      	movs	r0, r3
 800068e:	f001 fa71 	bl	8001b74 <HAL_TIM_PWM_Init>
 8000692:	1e03      	subs	r3, r0, #0
 8000694:	d001      	beq.n	800069a <MX_TIM1_Init+0x6e>
  {
    Error_Handler();
 8000696:	f7ff ff27 	bl	80004e8 <Error_Handler>
  }
  sMasterConfig.MasterOutputTrigger = TIM_TRGO_RESET;
 800069a:	2140      	movs	r1, #64	; 0x40
 800069c:	187b      	adds	r3, r7, r1
 800069e:	2200      	movs	r2, #0
 80006a0:	601a      	str	r2, [r3, #0]
  sMasterConfig.MasterSlaveMode = TIM_MASTERSLAVEMODE_DISABLE;
 80006a2:	187b      	adds	r3, r7, r1
 80006a4:	2200      	movs	r2, #0
 80006a6:	605a      	str	r2, [r3, #4]
  if (HAL_TIMEx_MasterConfigSynchronization(&htim1, &sMasterConfig) != HAL_OK)
 80006a8:	187a      	adds	r2, r7, r1
 80006aa:	4b39      	ldr	r3, [pc, #228]	; (8000790 <MX_TIM1_Init+0x164>)
 80006ac:	0011      	movs	r1, r2
 80006ae:	0018      	movs	r0, r3
 80006b0:	f002 f802 	bl	80026b8 <HAL_TIMEx_MasterConfigSynchronization>
 80006b4:	1e03      	subs	r3, r0, #0
 80006b6:	d001      	beq.n	80006bc <MX_TIM1_Init+0x90>
  {
    Error_Handler();
 80006b8:	f7ff ff16 	bl	80004e8 <Error_Handler>
  }
  sConfigOC.OCMode = TIM_OCMODE_PWM1;
 80006bc:	2124      	movs	r1, #36	; 0x24
 80006be:	187b      	adds	r3, r7, r1
 80006c0:	2260      	movs	r2, #96	; 0x60
 80006c2:	601a      	str	r2, [r3, #0]
  sConfigOC.Pulse = 0;
 80006c4:	187b      	adds	r3, r7, r1
 80006c6:	2200      	movs	r2, #0
 80006c8:	605a      	str	r2, [r3, #4]
  sConfigOC.OCPolarity = TIM_OCPOLARITY_HIGH;
 80006ca:	187b      	adds	r3, r7, r1
 80006cc:	2200      	movs	r2, #0
 80006ce:	609a      	str	r2, [r3, #8]
  sConfigOC.OCNPolarity = TIM_OCNPOLARITY_HIGH;
 80006d0:	187b      	adds	r3, r7, r1
 80006d2:	2200      	movs	r2, #0
 80006d4:	60da      	str	r2, [r3, #12]
  sConfigOC.OCFastMode = TIM_OCFAST_DISABLE;
 80006d6:	187b      	adds	r3, r7, r1
 80006d8:	2200      	movs	r2, #0
 80006da:	611a      	str	r2, [r3, #16]
  sConfigOC.OCIdleState = TIM_OCIDLESTATE_RESET;
 80006dc:	187b      	adds	r3, r7, r1
 80006de:	2200      	movs	r2, #0
 80006e0:	615a      	str	r2, [r3, #20]
  sConfigOC.OCNIdleState = TIM_OCNIDLESTATE_RESET;
 80006e2:	187b      	adds	r3, r7, r1
 80006e4:	2200      	movs	r2, #0
 80006e6:	619a      	str	r2, [r3, #24]
  if (HAL_TIM_PWM_ConfigChannel(&htim1, &sConfigOC, TIM_CHANNEL_1) != HAL_OK)
 80006e8:	1879      	adds	r1, r7, r1
 80006ea:	4b29      	ldr	r3, [pc, #164]	; (8000790 <MX_TIM1_Init+0x164>)
 80006ec:	2200      	movs	r2, #0
 80006ee:	0018      	movs	r0, r3
 80006f0:	f001 fc62 	bl	8001fb8 <HAL_TIM_PWM_ConfigChannel>
 80006f4:	1e03      	subs	r3, r0, #0
 80006f6:	d001      	beq.n	80006fc <MX_TIM1_Init+0xd0>
  {
    Error_Handler();
 80006f8:	f7ff fef6 	bl	80004e8 <Error_Handler>
  }
  if (HAL_TIM_PWM_ConfigChannel(&htim1, &sConfigOC, TIM_CHANNEL_2) != HAL_OK)
 80006fc:	2324      	movs	r3, #36	; 0x24
 80006fe:	18f9      	adds	r1, r7, r3
 8000700:	4b23      	ldr	r3, [pc, #140]	; (8000790 <MX_TIM1_Init+0x164>)
 8000702:	2204      	movs	r2, #4
 8000704:	0018      	movs	r0, r3
 8000706:	f001 fc57 	bl	8001fb8 <HAL_TIM_PWM_ConfigChannel>
 800070a:	1e03      	subs	r3, r0, #0
 800070c:	d001      	beq.n	8000712 <MX_TIM1_Init+0xe6>
  {
    Error_Handler();
 800070e:	f7ff feeb 	bl	80004e8 <Error_Handler>
  }
  if (HAL_TIM_PWM_ConfigChannel(&htim1, &sConfigOC, TIM_CHANNEL_3) != HAL_OK)
 8000712:	2324      	movs	r3, #36	; 0x24
 8000714:	18f9      	adds	r1, r7, r3
 8000716:	4b1e      	ldr	r3, [pc, #120]	; (8000790 <MX_TIM1_Init+0x164>)
 8000718:	2208      	movs	r2, #8
 800071a:	0018      	movs	r0, r3
 800071c:	f001 fc4c 	bl	8001fb8 <HAL_TIM_PWM_ConfigChannel>
 8000720:	1e03      	subs	r3, r0, #0
 8000722:	d001      	beq.n	8000728 <MX_TIM1_Init+0xfc>
  {
    Error_Handler();
 8000724:	f7ff fee0 	bl	80004e8 <Error_Handler>
  }
  if (HAL_TIM_PWM_ConfigChannel(&htim1, &sConfigOC, TIM_CHANNEL_4) != HAL_OK)
 8000728:	2324      	movs	r3, #36	; 0x24
 800072a:	18f9      	adds	r1, r7, r3
 800072c:	4b18      	ldr	r3, [pc, #96]	; (8000790 <MX_TIM1_Init+0x164>)
 800072e:	220c      	movs	r2, #12
 8000730:	0018      	movs	r0, r3
 8000732:	f001 fc41 	bl	8001fb8 <HAL_TIM_PWM_ConfigChannel>
 8000736:	1e03      	subs	r3, r0, #0
 8000738:	d001      	beq.n	800073e <MX_TIM1_Init+0x112>
  {
    Error_Handler();
 800073a:	f7ff fed5 	bl	80004e8 <Error_Handler>
  }
  sBreakDeadTimeConfig.OffStateRunMode = TIM_OSSR_DISABLE;
 800073e:	1d3b      	adds	r3, r7, #4
 8000740:	2200      	movs	r2, #0
 8000742:	601a      	str	r2, [r3, #0]
  sBreakDeadTimeConfig.OffStateIDLEMode = TIM_OSSI_DISABLE;
 8000744:	1d3b      	adds	r3, r7, #4
 8000746:	2200      	movs	r2, #0
 8000748:	605a      	str	r2, [r3, #4]
  sBreakDeadTimeConfig.LockLevel = TIM_LOCKLEVEL_OFF;
 800074a:	1d3b      	adds	r3, r7, #4
 800074c:	2200      	movs	r2, #0
 800074e:	609a      	str	r2, [r3, #8]
  sBreakDeadTimeConfig.DeadTime = 0;
 8000750:	1d3b      	adds	r3, r7, #4
 8000752:	2200      	movs	r2, #0
 8000754:	60da      	str	r2, [r3, #12]
  sBreakDeadTimeConfig.BreakState = TIM_BREAK_DISABLE;
 8000756:	1d3b      	adds	r3, r7, #4
 8000758:	2200      	movs	r2, #0
 800075a:	611a      	str	r2, [r3, #16]
  sBreakDeadTimeConfig.BreakPolarity = TIM_BREAKPOLARITY_HIGH;
 800075c:	1d3b      	adds	r3, r7, #4
 800075e:	2280      	movs	r2, #128	; 0x80
 8000760:	0192      	lsls	r2, r2, #6
 8000762:	615a      	str	r2, [r3, #20]
  sBreakDeadTimeConfig.AutomaticOutput = TIM_AUTOMATICOUTPUT_DISABLE;
 8000764:	1d3b      	adds	r3, r7, #4
 8000766:	2200      	movs	r2, #0
 8000768:	61da      	str	r2, [r3, #28]
  if (HAL_TIMEx_ConfigBreakDeadTime(&htim1, &sBreakDeadTimeConfig) != HAL_OK)
 800076a:	1d3a      	adds	r2, r7, #4
 800076c:	4b08      	ldr	r3, [pc, #32]	; (8000790 <MX_TIM1_Init+0x164>)
 800076e:	0011      	movs	r1, r2
 8000770:	0018      	movs	r0, r3
 8000772:	f001 ffff 	bl	8002774 <HAL_TIMEx_ConfigBreakDeadTime>
 8000776:	1e03      	subs	r3, r0, #0
 8000778:	d001      	beq.n	800077e <MX_TIM1_Init+0x152>
  {
    Error_Handler();
 800077a:	f7ff feb5 	bl	80004e8 <Error_Handler>
  }
  HAL_TIM_MspPostInit(&htim1);
 800077e:	4b04      	ldr	r3, [pc, #16]	; (8000790 <MX_TIM1_Init+0x164>)
 8000780:	0018      	movs	r0, r3
 8000782:	f000 f9b3 	bl	8000aec <HAL_TIM_MspPostInit>

}
 8000786:	46c0      	nop			; (mov r8, r8)
 8000788:	46bd      	mov	sp, r7
 800078a:	b012      	add	sp, #72	; 0x48
 800078c:	bd80      	pop	{r7, pc}
 800078e:	46c0      	nop			; (mov r8, r8)
 8000790:	2000006c 	.word	0x2000006c
 8000794:	40012c00 	.word	0x40012c00

08000798 <MX_TIM2_Init>:
/* TIM2 init function */
void MX_TIM2_Init(void)
{
 8000798:	b590      	push	{r4, r7, lr}
 800079a:	b08d      	sub	sp, #52	; 0x34
 800079c:	af00      	add	r7, sp, #0
  TIM_Encoder_InitTypeDef sConfig = {0};
 800079e:	240c      	movs	r4, #12
 80007a0:	193b      	adds	r3, r7, r4
 80007a2:	0018      	movs	r0, r3
 80007a4:	2324      	movs	r3, #36	; 0x24
 80007a6:	001a      	movs	r2, r3
 80007a8:	2100      	movs	r1, #0
 80007aa:	f002 f875 	bl	8002898 <memset>
  TIM_MasterConfigTypeDef sMasterConfig = {0};
 80007ae:	1d3b      	adds	r3, r7, #4
 80007b0:	0018      	movs	r0, r3
 80007b2:	2308      	movs	r3, #8
 80007b4:	001a      	movs	r2, r3
 80007b6:	2100      	movs	r1, #0
 80007b8:	f002 f86e 	bl	8002898 <memset>

  htim2.Instance = TIM2;
 80007bc:	4b26      	ldr	r3, [pc, #152]	; (8000858 <MX_TIM2_Init+0xc0>)
 80007be:	2280      	movs	r2, #128	; 0x80
 80007c0:	05d2      	lsls	r2, r2, #23
 80007c2:	601a      	str	r2, [r3, #0]
  htim2.Init.Prescaler = 0;
 80007c4:	4b24      	ldr	r3, [pc, #144]	; (8000858 <MX_TIM2_Init+0xc0>)
 80007c6:	2200      	movs	r2, #0
 80007c8:	605a      	str	r2, [r3, #4]
  htim2.Init.CounterMode = TIM_COUNTERMODE_UP;
 80007ca:	4b23      	ldr	r3, [pc, #140]	; (8000858 <MX_TIM2_Init+0xc0>)
 80007cc:	2200      	movs	r2, #0
 80007ce:	609a      	str	r2, [r3, #8]
  htim2.Init.Period = 32767;
 80007d0:	4b21      	ldr	r3, [pc, #132]	; (8000858 <MX_TIM2_Init+0xc0>)
 80007d2:	4a22      	ldr	r2, [pc, #136]	; (800085c <MX_TIM2_Init+0xc4>)
 80007d4:	60da      	str	r2, [r3, #12]
  htim2.Init.ClockDivision = TIM_CLOCKDIVISION_DIV1;
 80007d6:	4b20      	ldr	r3, [pc, #128]	; (8000858 <MX_TIM2_Init+0xc0>)
 80007d8:	2200      	movs	r2, #0
 80007da:	611a      	str	r2, [r3, #16]
  htim2.Init.AutoReloadPreload = TIM_AUTORELOAD_PRELOAD_DISABLE;
 80007dc:	4b1e      	ldr	r3, [pc, #120]	; (8000858 <MX_TIM2_Init+0xc0>)
 80007de:	2200      	movs	r2, #0
 80007e0:	619a      	str	r2, [r3, #24]
  sConfig.EncoderMode = TIM_ENCODERMODE_TI12;
 80007e2:	0021      	movs	r1, r4
 80007e4:	187b      	adds	r3, r7, r1
 80007e6:	2203      	movs	r2, #3
 80007e8:	601a      	str	r2, [r3, #0]
  sConfig.IC1Polarity = TIM_ICPOLARITY_RISING;
 80007ea:	187b      	adds	r3, r7, r1
 80007ec:	2200      	movs	r2, #0
 80007ee:	605a      	str	r2, [r3, #4]
  sConfig.IC1Selection = TIM_ICSELECTION_DIRECTTI;
 80007f0:	187b      	adds	r3, r7, r1
 80007f2:	2201      	movs	r2, #1
 80007f4:	609a      	str	r2, [r3, #8]
  sConfig.IC1Prescaler = TIM_ICPSC_DIV1;
 80007f6:	187b      	adds	r3, r7, r1
 80007f8:	2200      	movs	r2, #0
 80007fa:	60da      	str	r2, [r3, #12]
  sConfig.IC1Filter = 0;
 80007fc:	187b      	adds	r3, r7, r1
 80007fe:	2200      	movs	r2, #0
 8000800:	611a      	str	r2, [r3, #16]
  sConfig.IC2Polarity = TIM_ICPOLARITY_RISING;
 8000802:	187b      	adds	r3, r7, r1
 8000804:	2200      	movs	r2, #0
 8000806:	615a      	str	r2, [r3, #20]
  sConfig.IC2Selection = TIM_ICSELECTION_DIRECTTI;
 8000808:	187b      	adds	r3, r7, r1
 800080a:	2201      	movs	r2, #1
 800080c:	619a      	str	r2, [r3, #24]
  sConfig.IC2Prescaler = TIM_ICPSC_DIV1;
 800080e:	187b      	adds	r3, r7, r1
 8000810:	2200      	movs	r2, #0
 8000812:	61da      	str	r2, [r3, #28]
  sConfig.IC2Filter = 0;
 8000814:	187b      	adds	r3, r7, r1
 8000816:	2200      	movs	r2, #0
 8000818:	621a      	str	r2, [r3, #32]
  if (HAL_TIM_Encoder_Init(&htim2, &sConfig) != HAL_OK)
 800081a:	187a      	adds	r2, r7, r1
 800081c:	4b0e      	ldr	r3, [pc, #56]	; (8000858 <MX_TIM2_Init+0xc0>)
 800081e:	0011      	movs	r1, r2
 8000820:	0018      	movs	r0, r3
 8000822:	f001 fa1f 	bl	8001c64 <HAL_TIM_Encoder_Init>
 8000826:	1e03      	subs	r3, r0, #0
 8000828:	d001      	beq.n	800082e <MX_TIM2_Init+0x96>
  {
    Error_Handler();
 800082a:	f7ff fe5d 	bl	80004e8 <Error_Handler>
  }
  sMasterConfig.MasterOutputTrigger = TIM_TRGO_UPDATE;
 800082e:	1d3b      	adds	r3, r7, #4
 8000830:	2220      	movs	r2, #32
 8000832:	601a      	str	r2, [r3, #0]
  sMasterConfig.MasterSlaveMode = TIM_MASTERSLAVEMODE_DISABLE;
 8000834:	1d3b      	adds	r3, r7, #4
 8000836:	2200      	movs	r2, #0
 8000838:	605a      	str	r2, [r3, #4]
  if (HAL_TIMEx_MasterConfigSynchronization(&htim2, &sMasterConfig) != HAL_OK)
 800083a:	1d3a      	adds	r2, r7, #4
 800083c:	4b06      	ldr	r3, [pc, #24]	; (8000858 <MX_TIM2_Init+0xc0>)
 800083e:	0011      	movs	r1, r2
 8000840:	0018      	movs	r0, r3
 8000842:	f001 ff39 	bl	80026b8 <HAL_TIMEx_MasterConfigSynchronization>
 8000846:	1e03      	subs	r3, r0, #0
 8000848:	d001      	beq.n	800084e <MX_TIM2_Init+0xb6>
  {
    Error_Handler();
 800084a:	f7ff fe4d 	bl	80004e8 <Error_Handler>
  }

}
 800084e:	46c0      	nop			; (mov r8, r8)
 8000850:	46bd      	mov	sp, r7
 8000852:	b00d      	add	sp, #52	; 0x34
 8000854:	bd90      	pop	{r4, r7, pc}
 8000856:	46c0      	nop			; (mov r8, r8)
 8000858:	200000ac 	.word	0x200000ac
 800085c:	00007fff 	.word	0x00007fff

08000860 <MX_TIM14_Init>:
/* TIM14 init function */
void MX_TIM14_Init(void)
{
 8000860:	b580      	push	{r7, lr}
 8000862:	b088      	sub	sp, #32
 8000864:	af00      	add	r7, sp, #0
  TIM_OC_InitTypeDef sConfigOC = {0};
 8000866:	1d3b      	adds	r3, r7, #4
 8000868:	0018      	movs	r0, r3
 800086a:	231c      	movs	r3, #28
 800086c:	001a      	movs	r2, r3
 800086e:	2100      	movs	r1, #0
 8000870:	f002 f812 	bl	8002898 <memset>

  htim14.Instance = TIM14;
 8000874:	4b1f      	ldr	r3, [pc, #124]	; (80008f4 <MX_TIM14_Init+0x94>)
 8000876:	4a20      	ldr	r2, [pc, #128]	; (80008f8 <MX_TIM14_Init+0x98>)
 8000878:	601a      	str	r2, [r3, #0]
  htim14.Init.Prescaler = 0;
 800087a:	4b1e      	ldr	r3, [pc, #120]	; (80008f4 <MX_TIM14_Init+0x94>)
 800087c:	2200      	movs	r2, #0
 800087e:	605a      	str	r2, [r3, #4]
  htim14.Init.CounterMode = TIM_COUNTERMODE_UP;
 8000880:	4b1c      	ldr	r3, [pc, #112]	; (80008f4 <MX_TIM14_Init+0x94>)
 8000882:	2200      	movs	r2, #0
 8000884:	609a      	str	r2, [r3, #8]
  htim14.Init.Period = 64;
 8000886:	4b1b      	ldr	r3, [pc, #108]	; (80008f4 <MX_TIM14_Init+0x94>)
 8000888:	2240      	movs	r2, #64	; 0x40
 800088a:	60da      	str	r2, [r3, #12]
  htim14.Init.ClockDivision = TIM_CLOCKDIVISION_DIV1;
 800088c:	4b19      	ldr	r3, [pc, #100]	; (80008f4 <MX_TIM14_Init+0x94>)
 800088e:	2200      	movs	r2, #0
 8000890:	611a      	str	r2, [r3, #16]
  htim14.Init.AutoReloadPreload = TIM_AUTORELOAD_PRELOAD_DISABLE;
 8000892:	4b18      	ldr	r3, [pc, #96]	; (80008f4 <MX_TIM14_Init+0x94>)
 8000894:	2200      	movs	r2, #0
 8000896:	619a      	str	r2, [r3, #24]
  if (HAL_TIM_Base_Init(&htim14) != HAL_OK)
 8000898:	4b16      	ldr	r3, [pc, #88]	; (80008f4 <MX_TIM14_Init+0x94>)
 800089a:	0018      	movs	r0, r3
 800089c:	f001 f91c 	bl	8001ad8 <HAL_TIM_Base_Init>
 80008a0:	1e03      	subs	r3, r0, #0
 80008a2:	d001      	beq.n	80008a8 <MX_TIM14_Init+0x48>
  {
    Error_Handler();
 80008a4:	f7ff fe20 	bl	80004e8 <Error_Handler>
  }
  if (HAL_TIM_PWM_Init(&htim14) != HAL_OK)
 80008a8:	4b12      	ldr	r3, [pc, #72]	; (80008f4 <MX_TIM14_Init+0x94>)
 80008aa:	0018      	movs	r0, r3
 80008ac:	f001 f962 	bl	8001b74 <HAL_TIM_PWM_Init>
 80008b0:	1e03      	subs	r3, r0, #0
 80008b2:	d001      	beq.n	80008b8 <MX_TIM14_Init+0x58>
  {
    Error_Handler();
 80008b4:	f7ff fe18 	bl	80004e8 <Error_Handler>
  }
  sConfigOC.OCMode = TIM_OCMODE_PWM1;
 80008b8:	1d3b      	adds	r3, r7, #4
 80008ba:	2260      	movs	r2, #96	; 0x60
 80008bc:	601a      	str	r2, [r3, #0]
  sConfigOC.Pulse = 0;
 80008be:	1d3b      	adds	r3, r7, #4
 80008c0:	2200      	movs	r2, #0
 80008c2:	605a      	str	r2, [r3, #4]
  sConfigOC.OCPolarity = TIM_OCPOLARITY_HIGH;
 80008c4:	1d3b      	adds	r3, r7, #4
 80008c6:	2200      	movs	r2, #0
 80008c8:	609a      	str	r2, [r3, #8]
  sConfigOC.OCFastMode = TIM_OCFAST_DISABLE;
 80008ca:	1d3b      	adds	r3, r7, #4
 80008cc:	2200      	movs	r2, #0
 80008ce:	611a      	str	r2, [r3, #16]
  if (HAL_TIM_PWM_ConfigChannel(&htim14, &sConfigOC, TIM_CHANNEL_1) != HAL_OK)
 80008d0:	1d39      	adds	r1, r7, #4
 80008d2:	4b08      	ldr	r3, [pc, #32]	; (80008f4 <MX_TIM14_Init+0x94>)
 80008d4:	2200      	movs	r2, #0
 80008d6:	0018      	movs	r0, r3
 80008d8:	f001 fb6e 	bl	8001fb8 <HAL_TIM_PWM_ConfigChannel>
 80008dc:	1e03      	subs	r3, r0, #0
 80008de:	d001      	beq.n	80008e4 <MX_TIM14_Init+0x84>
  {
    Error_Handler();
 80008e0:	f7ff fe02 	bl	80004e8 <Error_Handler>
  }
  HAL_TIM_MspPostInit(&htim14);
 80008e4:	4b03      	ldr	r3, [pc, #12]	; (80008f4 <MX_TIM14_Init+0x94>)
 80008e6:	0018      	movs	r0, r3
 80008e8:	f000 f900 	bl	8000aec <HAL_TIM_MspPostInit>

}
 80008ec:	46c0      	nop			; (mov r8, r8)
 80008ee:	46bd      	mov	sp, r7
 80008f0:	b008      	add	sp, #32
 80008f2:	bd80      	pop	{r7, pc}
 80008f4:	200000ec 	.word	0x200000ec
 80008f8:	40002000 	.word	0x40002000

080008fc <MX_TIM17_Init>:
/* TIM17 init function */
void MX_TIM17_Init(void)
{
 80008fc:	b580      	push	{r7, lr}
 80008fe:	af00      	add	r7, sp, #0

  htim17.Instance = TIM17;
 8000900:	4b0f      	ldr	r3, [pc, #60]	; (8000940 <MX_TIM17_Init+0x44>)
 8000902:	4a10      	ldr	r2, [pc, #64]	; (8000944 <MX_TIM17_Init+0x48>)
 8000904:	601a      	str	r2, [r3, #0]
  htim17.Init.Prescaler = 65535;
 8000906:	4b0e      	ldr	r3, [pc, #56]	; (8000940 <MX_TIM17_Init+0x44>)
 8000908:	4a0f      	ldr	r2, [pc, #60]	; (8000948 <MX_TIM17_Init+0x4c>)
 800090a:	605a      	str	r2, [r3, #4]
  htim17.Init.CounterMode = TIM_COUNTERMODE_UP;
 800090c:	4b0c      	ldr	r3, [pc, #48]	; (8000940 <MX_TIM17_Init+0x44>)
 800090e:	2200      	movs	r2, #0
 8000910:	609a      	str	r2, [r3, #8]
  htim17.Init.Period = 65535;
 8000912:	4b0b      	ldr	r3, [pc, #44]	; (8000940 <MX_TIM17_Init+0x44>)
 8000914:	4a0c      	ldr	r2, [pc, #48]	; (8000948 <MX_TIM17_Init+0x4c>)
 8000916:	60da      	str	r2, [r3, #12]
  htim17.Init.ClockDivision = TIM_CLOCKDIVISION_DIV1;
 8000918:	4b09      	ldr	r3, [pc, #36]	; (8000940 <MX_TIM17_Init+0x44>)
 800091a:	2200      	movs	r2, #0
 800091c:	611a      	str	r2, [r3, #16]
  htim17.Init.RepetitionCounter = 0;
 800091e:	4b08      	ldr	r3, [pc, #32]	; (8000940 <MX_TIM17_Init+0x44>)
 8000920:	2200      	movs	r2, #0
 8000922:	615a      	str	r2, [r3, #20]
  htim17.Init.AutoReloadPreload = TIM_AUTORELOAD_PRELOAD_DISABLE;
 8000924:	4b06      	ldr	r3, [pc, #24]	; (8000940 <MX_TIM17_Init+0x44>)
 8000926:	2200      	movs	r2, #0
 8000928:	619a      	str	r2, [r3, #24]
  if (HAL_TIM_Base_Init(&htim17) != HAL_OK)
 800092a:	4b05      	ldr	r3, [pc, #20]	; (8000940 <MX_TIM17_Init+0x44>)
 800092c:	0018      	movs	r0, r3
 800092e:	f001 f8d3 	bl	8001ad8 <HAL_TIM_Base_Init>
 8000932:	1e03      	subs	r3, r0, #0
 8000934:	d001      	beq.n	800093a <MX_TIM17_Init+0x3e>
  {
    Error_Handler();
 8000936:	f7ff fdd7 	bl	80004e8 <Error_Handler>
  }

}
 800093a:	46c0      	nop			; (mov r8, r8)
 800093c:	46bd      	mov	sp, r7
 800093e:	bd80      	pop	{r7, pc}
 8000940:	2000002c 	.word	0x2000002c
 8000944:	40014800 	.word	0x40014800
 8000948:	0000ffff 	.word	0x0000ffff

0800094c <HAL_TIM_PWM_MspInit>:

void HAL_TIM_PWM_MspInit(TIM_HandleTypeDef* tim_pwmHandle)
{
 800094c:	b580      	push	{r7, lr}
 800094e:	b084      	sub	sp, #16
 8000950:	af00      	add	r7, sp, #0
 8000952:	6078      	str	r0, [r7, #4]

  if(tim_pwmHandle->Instance==TIM1)
 8000954:	687b      	ldr	r3, [r7, #4]
 8000956:	681b      	ldr	r3, [r3, #0]
 8000958:	4a0a      	ldr	r2, [pc, #40]	; (8000984 <HAL_TIM_PWM_MspInit+0x38>)
 800095a:	4293      	cmp	r3, r2
 800095c:	d10d      	bne.n	800097a <HAL_TIM_PWM_MspInit+0x2e>
  {
  /* USER CODE BEGIN TIM1_MspInit 0 */

  /* USER CODE END TIM1_MspInit 0 */
    /* TIM1 clock enable */
    __HAL_RCC_TIM1_CLK_ENABLE();
 800095e:	4b0a      	ldr	r3, [pc, #40]	; (8000988 <HAL_TIM_PWM_MspInit+0x3c>)
 8000960:	699a      	ldr	r2, [r3, #24]
 8000962:	4b09      	ldr	r3, [pc, #36]	; (8000988 <HAL_TIM_PWM_MspInit+0x3c>)
 8000964:	2180      	movs	r1, #128	; 0x80
 8000966:	0109      	lsls	r1, r1, #4
 8000968:	430a      	orrs	r2, r1
 800096a:	619a      	str	r2, [r3, #24]
 800096c:	4b06      	ldr	r3, [pc, #24]	; (8000988 <HAL_TIM_PWM_MspInit+0x3c>)
 800096e:	699a      	ldr	r2, [r3, #24]
 8000970:	2380      	movs	r3, #128	; 0x80
 8000972:	011b      	lsls	r3, r3, #4
 8000974:	4013      	ands	r3, r2
 8000976:	60fb      	str	r3, [r7, #12]
 8000978:	68fb      	ldr	r3, [r7, #12]
  /* USER CODE BEGIN TIM1_MspInit 1 */

  /* USER CODE END TIM1_MspInit 1 */
  }
}
 800097a:	46c0      	nop			; (mov r8, r8)
 800097c:	46bd      	mov	sp, r7
 800097e:	b004      	add	sp, #16
 8000980:	bd80      	pop	{r7, pc}
 8000982:	46c0      	nop			; (mov r8, r8)
 8000984:	40012c00 	.word	0x40012c00
 8000988:	40021000 	.word	0x40021000

0800098c <HAL_TIM_Encoder_MspInit>:

void HAL_TIM_Encoder_MspInit(TIM_HandleTypeDef* tim_encoderHandle)
{
 800098c:	b590      	push	{r4, r7, lr}
 800098e:	b08b      	sub	sp, #44	; 0x2c
 8000990:	af00      	add	r7, sp, #0
 8000992:	6078      	str	r0, [r7, #4]

  GPIO_InitTypeDef GPIO_InitStruct = {0};
 8000994:	2314      	movs	r3, #20
 8000996:	18fb      	adds	r3, r7, r3
 8000998:	0018      	movs	r0, r3
 800099a:	2314      	movs	r3, #20
 800099c:	001a      	movs	r2, r3
 800099e:	2100      	movs	r1, #0
 80009a0:	f001 ff7a 	bl	8002898 <memset>
  if(tim_encoderHandle->Instance==TIM2)
 80009a4:	687b      	ldr	r3, [r7, #4]
 80009a6:	681a      	ldr	r2, [r3, #0]
 80009a8:	2380      	movs	r3, #128	; 0x80
 80009aa:	05db      	lsls	r3, r3, #23
 80009ac:	429a      	cmp	r2, r3
 80009ae:	d15e      	bne.n	8000a6e <HAL_TIM_Encoder_MspInit+0xe2>
  {
  /* USER CODE BEGIN TIM2_MspInit 0 */

  /* USER CODE END TIM2_MspInit 0 */
    /* TIM2 clock enable */
    __HAL_RCC_TIM2_CLK_ENABLE();
 80009b0:	4b31      	ldr	r3, [pc, #196]	; (8000a78 <HAL_TIM_Encoder_MspInit+0xec>)
 80009b2:	69da      	ldr	r2, [r3, #28]
 80009b4:	4b30      	ldr	r3, [pc, #192]	; (8000a78 <HAL_TIM_Encoder_MspInit+0xec>)
 80009b6:	2101      	movs	r1, #1
 80009b8:	430a      	orrs	r2, r1
 80009ba:	61da      	str	r2, [r3, #28]
 80009bc:	4b2e      	ldr	r3, [pc, #184]	; (8000a78 <HAL_TIM_Encoder_MspInit+0xec>)
 80009be:	69db      	ldr	r3, [r3, #28]
 80009c0:	2201      	movs	r2, #1
 80009c2:	4013      	ands	r3, r2
 80009c4:	613b      	str	r3, [r7, #16]
 80009c6:	693b      	ldr	r3, [r7, #16]
  
    __HAL_RCC_GPIOA_CLK_ENABLE();
 80009c8:	4b2b      	ldr	r3, [pc, #172]	; (8000a78 <HAL_TIM_Encoder_MspInit+0xec>)
 80009ca:	695a      	ldr	r2, [r3, #20]
 80009cc:	4b2a      	ldr	r3, [pc, #168]	; (8000a78 <HAL_TIM_Encoder_MspInit+0xec>)
 80009ce:	2180      	movs	r1, #128	; 0x80
 80009d0:	0289      	lsls	r1, r1, #10
 80009d2:	430a      	orrs	r2, r1
 80009d4:	615a      	str	r2, [r3, #20]
 80009d6:	4b28      	ldr	r3, [pc, #160]	; (8000a78 <HAL_TIM_Encoder_MspInit+0xec>)
 80009d8:	695a      	ldr	r2, [r3, #20]
 80009da:	2380      	movs	r3, #128	; 0x80
 80009dc:	029b      	lsls	r3, r3, #10
 80009de:	4013      	ands	r3, r2
 80009e0:	60fb      	str	r3, [r7, #12]
 80009e2:	68fb      	ldr	r3, [r7, #12]
    __HAL_RCC_GPIOB_CLK_ENABLE();
 80009e4:	4b24      	ldr	r3, [pc, #144]	; (8000a78 <HAL_TIM_Encoder_MspInit+0xec>)
 80009e6:	695a      	ldr	r2, [r3, #20]
 80009e8:	4b23      	ldr	r3, [pc, #140]	; (8000a78 <HAL_TIM_Encoder_MspInit+0xec>)
 80009ea:	2180      	movs	r1, #128	; 0x80
 80009ec:	02c9      	lsls	r1, r1, #11
 80009ee:	430a      	orrs	r2, r1
 80009f0:	615a      	str	r2, [r3, #20]
 80009f2:	4b21      	ldr	r3, [pc, #132]	; (8000a78 <HAL_TIM_Encoder_MspInit+0xec>)
 80009f4:	695a      	ldr	r2, [r3, #20]
 80009f6:	2380      	movs	r3, #128	; 0x80
 80009f8:	02db      	lsls	r3, r3, #11
 80009fa:	4013      	ands	r3, r2
 80009fc:	60bb      	str	r3, [r7, #8]
 80009fe:	68bb      	ldr	r3, [r7, #8]
    /**TIM2 GPIO Configuration    
    PA15     ------> TIM2_CH1
    PB3     ------> TIM2_CH2 
    */
    GPIO_InitStruct.Pin = GPIO_PIN_15;
 8000a00:	2114      	movs	r1, #20
 8000a02:	187b      	adds	r3, r7, r1
 8000a04:	2280      	movs	r2, #128	; 0x80
 8000a06:	0212      	lsls	r2, r2, #8
 8000a08:	601a      	str	r2, [r3, #0]
    GPIO_InitStruct.Mode = GPIO_MODE_AF_PP;
 8000a0a:	000c      	movs	r4, r1
 8000a0c:	193b      	adds	r3, r7, r4
 8000a0e:	2202      	movs	r2, #2
 8000a10:	605a      	str	r2, [r3, #4]
    GPIO_InitStruct.Pull = GPIO_NOPULL;
 8000a12:	193b      	adds	r3, r7, r4
 8000a14:	2200      	movs	r2, #0
 8000a16:	609a      	str	r2, [r3, #8]
    GPIO_InitStruct.Speed = GPIO_SPEED_FREQ_LOW;
 8000a18:	193b      	adds	r3, r7, r4
 8000a1a:	2200      	movs	r2, #0
 8000a1c:	60da      	str	r2, [r3, #12]
    GPIO_InitStruct.Alternate = GPIO_AF2_TIM2;
 8000a1e:	193b      	adds	r3, r7, r4
 8000a20:	2202      	movs	r2, #2
 8000a22:	611a      	str	r2, [r3, #16]
    HAL_GPIO_Init(GPIOA, &GPIO_InitStruct);
 8000a24:	193a      	adds	r2, r7, r4
 8000a26:	2390      	movs	r3, #144	; 0x90
 8000a28:	05db      	lsls	r3, r3, #23
 8000a2a:	0011      	movs	r1, r2
 8000a2c:	0018      	movs	r0, r3
 8000a2e:	f000 fa37 	bl	8000ea0 <HAL_GPIO_Init>

    GPIO_InitStruct.Pin = GPIO_PIN_3;
 8000a32:	0021      	movs	r1, r4
 8000a34:	187b      	adds	r3, r7, r1
 8000a36:	2208      	movs	r2, #8
 8000a38:	601a      	str	r2, [r3, #0]
    GPIO_InitStruct.Mode = GPIO_MODE_AF_PP;
 8000a3a:	187b      	adds	r3, r7, r1
 8000a3c:	2202      	movs	r2, #2
 8000a3e:	605a      	str	r2, [r3, #4]
    GPIO_InitStruct.Pull = GPIO_NOPULL;
 8000a40:	187b      	adds	r3, r7, r1
 8000a42:	2200      	movs	r2, #0
 8000a44:	609a      	str	r2, [r3, #8]
    GPIO_InitStruct.Speed = GPIO_SPEED_FREQ_LOW;
 8000a46:	187b      	adds	r3, r7, r1
 8000a48:	2200      	movs	r2, #0
 8000a4a:	60da      	str	r2, [r3, #12]
    GPIO_InitStruct.Alternate = GPIO_AF2_TIM2;
 8000a4c:	187b      	adds	r3, r7, r1
 8000a4e:	2202      	movs	r2, #2
 8000a50:	611a      	str	r2, [r3, #16]
    HAL_GPIO_Init(GPIOB, &GPIO_InitStruct);
 8000a52:	187b      	adds	r3, r7, r1
 8000a54:	4a09      	ldr	r2, [pc, #36]	; (8000a7c <HAL_TIM_Encoder_MspInit+0xf0>)
 8000a56:	0019      	movs	r1, r3
 8000a58:	0010      	movs	r0, r2
 8000a5a:	f000 fa21 	bl	8000ea0 <HAL_GPIO_Init>

    /* TIM2 interrupt Init */
    HAL_NVIC_SetPriority(TIM2_IRQn, 0, 0);
 8000a5e:	2200      	movs	r2, #0
 8000a60:	2100      	movs	r1, #0
 8000a62:	200f      	movs	r0, #15
 8000a64:	f000 f9ea 	bl	8000e3c <HAL_NVIC_SetPriority>
    HAL_NVIC_EnableIRQ(TIM2_IRQn);
 8000a68:	200f      	movs	r0, #15
 8000a6a:	f000 f9fc 	bl	8000e66 <HAL_NVIC_EnableIRQ>
  /* USER CODE BEGIN TIM2_MspInit 1 */

  /* USER CODE END TIM2_MspInit 1 */
  }
}
 8000a6e:	46c0      	nop			; (mov r8, r8)
 8000a70:	46bd      	mov	sp, r7
 8000a72:	b00b      	add	sp, #44	; 0x2c
 8000a74:	bd90      	pop	{r4, r7, pc}
 8000a76:	46c0      	nop			; (mov r8, r8)
 8000a78:	40021000 	.word	0x40021000
 8000a7c:	48000400 	.word	0x48000400

08000a80 <HAL_TIM_Base_MspInit>:

void HAL_TIM_Base_MspInit(TIM_HandleTypeDef* tim_baseHandle)
{
 8000a80:	b580      	push	{r7, lr}
 8000a82:	b084      	sub	sp, #16
 8000a84:	af00      	add	r7, sp, #0
 8000a86:	6078      	str	r0, [r7, #4]

  if(tim_baseHandle->Instance==TIM14)
 8000a88:	687b      	ldr	r3, [r7, #4]
 8000a8a:	681b      	ldr	r3, [r3, #0]
 8000a8c:	4a14      	ldr	r2, [pc, #80]	; (8000ae0 <HAL_TIM_Base_MspInit+0x60>)
 8000a8e:	4293      	cmp	r3, r2
 8000a90:	d10e      	bne.n	8000ab0 <HAL_TIM_Base_MspInit+0x30>
  {
  /* USER CODE BEGIN TIM14_MspInit 0 */

  /* USER CODE END TIM14_MspInit 0 */
    /* TIM14 clock enable */
    __HAL_RCC_TIM14_CLK_ENABLE();
 8000a92:	4b14      	ldr	r3, [pc, #80]	; (8000ae4 <HAL_TIM_Base_MspInit+0x64>)
 8000a94:	69da      	ldr	r2, [r3, #28]
 8000a96:	4b13      	ldr	r3, [pc, #76]	; (8000ae4 <HAL_TIM_Base_MspInit+0x64>)
 8000a98:	2180      	movs	r1, #128	; 0x80
 8000a9a:	0049      	lsls	r1, r1, #1
 8000a9c:	430a      	orrs	r2, r1
 8000a9e:	61da      	str	r2, [r3, #28]
 8000aa0:	4b10      	ldr	r3, [pc, #64]	; (8000ae4 <HAL_TIM_Base_MspInit+0x64>)
 8000aa2:	69da      	ldr	r2, [r3, #28]
 8000aa4:	2380      	movs	r3, #128	; 0x80
 8000aa6:	005b      	lsls	r3, r3, #1
 8000aa8:	4013      	ands	r3, r2
 8000aaa:	60fb      	str	r3, [r7, #12]
 8000aac:	68fb      	ldr	r3, [r7, #12]
    __HAL_RCC_TIM17_CLK_ENABLE();
  /* USER CODE BEGIN TIM17_MspInit 1 */

  /* USER CODE END TIM17_MspInit 1 */
  }
}
 8000aae:	e012      	b.n	8000ad6 <HAL_TIM_Base_MspInit+0x56>
  else if(tim_baseHandle->Instance==TIM17)
 8000ab0:	687b      	ldr	r3, [r7, #4]
 8000ab2:	681b      	ldr	r3, [r3, #0]
 8000ab4:	4a0c      	ldr	r2, [pc, #48]	; (8000ae8 <HAL_TIM_Base_MspInit+0x68>)
 8000ab6:	4293      	cmp	r3, r2
 8000ab8:	d10d      	bne.n	8000ad6 <HAL_TIM_Base_MspInit+0x56>
    __HAL_RCC_TIM17_CLK_ENABLE();
 8000aba:	4b0a      	ldr	r3, [pc, #40]	; (8000ae4 <HAL_TIM_Base_MspInit+0x64>)
 8000abc:	699a      	ldr	r2, [r3, #24]
 8000abe:	4b09      	ldr	r3, [pc, #36]	; (8000ae4 <HAL_TIM_Base_MspInit+0x64>)
 8000ac0:	2180      	movs	r1, #128	; 0x80
 8000ac2:	02c9      	lsls	r1, r1, #11
 8000ac4:	430a      	orrs	r2, r1
 8000ac6:	619a      	str	r2, [r3, #24]
 8000ac8:	4b06      	ldr	r3, [pc, #24]	; (8000ae4 <HAL_TIM_Base_MspInit+0x64>)
 8000aca:	699a      	ldr	r2, [r3, #24]
 8000acc:	2380      	movs	r3, #128	; 0x80
 8000ace:	02db      	lsls	r3, r3, #11
 8000ad0:	4013      	ands	r3, r2
 8000ad2:	60bb      	str	r3, [r7, #8]
 8000ad4:	68bb      	ldr	r3, [r7, #8]
}
 8000ad6:	46c0      	nop			; (mov r8, r8)
 8000ad8:	46bd      	mov	sp, r7
 8000ada:	b004      	add	sp, #16
 8000adc:	bd80      	pop	{r7, pc}
 8000ade:	46c0      	nop			; (mov r8, r8)
 8000ae0:	40002000 	.word	0x40002000
 8000ae4:	40021000 	.word	0x40021000
 8000ae8:	40014800 	.word	0x40014800

08000aec <HAL_TIM_MspPostInit>:
void HAL_TIM_MspPostInit(TIM_HandleTypeDef* timHandle)
{
 8000aec:	b580      	push	{r7, lr}
 8000aee:	b08a      	sub	sp, #40	; 0x28
 8000af0:	af00      	add	r7, sp, #0
 8000af2:	6078      	str	r0, [r7, #4]

  GPIO_InitTypeDef GPIO_InitStruct = {0};
 8000af4:	2314      	movs	r3, #20
 8000af6:	18fb      	adds	r3, r7, r3
 8000af8:	0018      	movs	r0, r3
 8000afa:	2314      	movs	r3, #20
 8000afc:	001a      	movs	r2, r3
 8000afe:	2100      	movs	r1, #0
 8000b00:	f001 feca 	bl	8002898 <memset>
  if(timHandle->Instance==TIM1)
 8000b04:	687b      	ldr	r3, [r7, #4]
 8000b06:	681b      	ldr	r3, [r3, #0]
 8000b08:	4a2b      	ldr	r2, [pc, #172]	; (8000bb8 <HAL_TIM_MspPostInit+0xcc>)
 8000b0a:	4293      	cmp	r3, r2
 8000b0c:	d126      	bne.n	8000b5c <HAL_TIM_MspPostInit+0x70>
  {
  /* USER CODE BEGIN TIM1_MspPostInit 0 */

  /* USER CODE END TIM1_MspPostInit 0 */
    __HAL_RCC_GPIOA_CLK_ENABLE();
 8000b0e:	4b2b      	ldr	r3, [pc, #172]	; (8000bbc <HAL_TIM_MspPostInit+0xd0>)
 8000b10:	695a      	ldr	r2, [r3, #20]
 8000b12:	4b2a      	ldr	r3, [pc, #168]	; (8000bbc <HAL_TIM_MspPostInit+0xd0>)
 8000b14:	2180      	movs	r1, #128	; 0x80
 8000b16:	0289      	lsls	r1, r1, #10
 8000b18:	430a      	orrs	r2, r1
 8000b1a:	615a      	str	r2, [r3, #20]
 8000b1c:	4b27      	ldr	r3, [pc, #156]	; (8000bbc <HAL_TIM_MspPostInit+0xd0>)
 8000b1e:	695a      	ldr	r2, [r3, #20]
 8000b20:	2380      	movs	r3, #128	; 0x80
 8000b22:	029b      	lsls	r3, r3, #10
 8000b24:	4013      	ands	r3, r2
 8000b26:	613b      	str	r3, [r7, #16]
 8000b28:	693b      	ldr	r3, [r7, #16]
    PA8     ------> TIM1_CH1
    PA9     ------> TIM1_CH2
    PA10     ------> TIM1_CH3
    PA11     ------> TIM1_CH4 
    */
    GPIO_InitStruct.Pin = GPIO_PIN_8|GPIO_PIN_9|GPIO_PIN_10|GPIO_PIN_11;
 8000b2a:	2114      	movs	r1, #20
 8000b2c:	187b      	adds	r3, r7, r1
 8000b2e:	22f0      	movs	r2, #240	; 0xf0
 8000b30:	0112      	lsls	r2, r2, #4
 8000b32:	601a      	str	r2, [r3, #0]
    GPIO_InitStruct.Mode = GPIO_MODE_AF_PP;
 8000b34:	187b      	adds	r3, r7, r1
 8000b36:	2202      	movs	r2, #2
 8000b38:	605a      	str	r2, [r3, #4]
    GPIO_InitStruct.Pull = GPIO_NOPULL;
 8000b3a:	187b      	adds	r3, r7, r1
 8000b3c:	2200      	movs	r2, #0
 8000b3e:	609a      	str	r2, [r3, #8]
    GPIO_InitStruct.Speed = GPIO_SPEED_FREQ_LOW;
 8000b40:	187b      	adds	r3, r7, r1
 8000b42:	2200      	movs	r2, #0
 8000b44:	60da      	str	r2, [r3, #12]
    GPIO_InitStruct.Alternate = GPIO_AF2_TIM1;
 8000b46:	187b      	adds	r3, r7, r1
 8000b48:	2202      	movs	r2, #2
 8000b4a:	611a      	str	r2, [r3, #16]
    HAL_GPIO_Init(GPIOA, &GPIO_InitStruct);
 8000b4c:	187a      	adds	r2, r7, r1
 8000b4e:	2390      	movs	r3, #144	; 0x90
 8000b50:	05db      	lsls	r3, r3, #23
 8000b52:	0011      	movs	r1, r2
 8000b54:	0018      	movs	r0, r3
 8000b56:	f000 f9a3 	bl	8000ea0 <HAL_GPIO_Init>
  /* USER CODE BEGIN TIM14_MspPostInit 1 */

  /* USER CODE END TIM14_MspPostInit 1 */
  }

}
 8000b5a:	e028      	b.n	8000bae <HAL_TIM_MspPostInit+0xc2>
  else if(timHandle->Instance==TIM14)
 8000b5c:	687b      	ldr	r3, [r7, #4]
 8000b5e:	681b      	ldr	r3, [r3, #0]
 8000b60:	4a17      	ldr	r2, [pc, #92]	; (8000bc0 <HAL_TIM_MspPostInit+0xd4>)
 8000b62:	4293      	cmp	r3, r2
 8000b64:	d123      	bne.n	8000bae <HAL_TIM_MspPostInit+0xc2>
    __HAL_RCC_GPIOB_CLK_ENABLE();
 8000b66:	4b15      	ldr	r3, [pc, #84]	; (8000bbc <HAL_TIM_MspPostInit+0xd0>)
 8000b68:	695a      	ldr	r2, [r3, #20]
 8000b6a:	4b14      	ldr	r3, [pc, #80]	; (8000bbc <HAL_TIM_MspPostInit+0xd0>)
 8000b6c:	2180      	movs	r1, #128	; 0x80
 8000b6e:	02c9      	lsls	r1, r1, #11
 8000b70:	430a      	orrs	r2, r1
 8000b72:	615a      	str	r2, [r3, #20]
 8000b74:	4b11      	ldr	r3, [pc, #68]	; (8000bbc <HAL_TIM_MspPostInit+0xd0>)
 8000b76:	695a      	ldr	r2, [r3, #20]
 8000b78:	2380      	movs	r3, #128	; 0x80
 8000b7a:	02db      	lsls	r3, r3, #11
 8000b7c:	4013      	ands	r3, r2
 8000b7e:	60fb      	str	r3, [r7, #12]
 8000b80:	68fb      	ldr	r3, [r7, #12]
    GPIO_InitStruct.Pin = GPIO_PIN_1;
 8000b82:	2114      	movs	r1, #20
 8000b84:	187b      	adds	r3, r7, r1
 8000b86:	2202      	movs	r2, #2
 8000b88:	601a      	str	r2, [r3, #0]
    GPIO_InitStruct.Mode = GPIO_MODE_AF_PP;
 8000b8a:	187b      	adds	r3, r7, r1
 8000b8c:	2202      	movs	r2, #2
 8000b8e:	605a      	str	r2, [r3, #4]
    GPIO_InitStruct.Pull = GPIO_NOPULL;
 8000b90:	187b      	adds	r3, r7, r1
 8000b92:	2200      	movs	r2, #0
 8000b94:	609a      	str	r2, [r3, #8]
    GPIO_InitStruct.Speed = GPIO_SPEED_FREQ_LOW;
 8000b96:	187b      	adds	r3, r7, r1
 8000b98:	2200      	movs	r2, #0
 8000b9a:	60da      	str	r2, [r3, #12]
    GPIO_InitStruct.Alternate = GPIO_AF0_TIM14;
 8000b9c:	187b      	adds	r3, r7, r1
 8000b9e:	2200      	movs	r2, #0
 8000ba0:	611a      	str	r2, [r3, #16]
    HAL_GPIO_Init(GPIOB, &GPIO_InitStruct);
 8000ba2:	187b      	adds	r3, r7, r1
 8000ba4:	4a07      	ldr	r2, [pc, #28]	; (8000bc4 <HAL_TIM_MspPostInit+0xd8>)
 8000ba6:	0019      	movs	r1, r3
 8000ba8:	0010      	movs	r0, r2
 8000baa:	f000 f979 	bl	8000ea0 <HAL_GPIO_Init>
}
 8000bae:	46c0      	nop			; (mov r8, r8)
 8000bb0:	46bd      	mov	sp, r7
 8000bb2:	b00a      	add	sp, #40	; 0x28
 8000bb4:	bd80      	pop	{r7, pc}
 8000bb6:	46c0      	nop			; (mov r8, r8)
 8000bb8:	40012c00 	.word	0x40012c00
 8000bbc:	40021000 	.word	0x40021000
 8000bc0:	40002000 	.word	0x40002000
 8000bc4:	48000400 	.word	0x48000400

08000bc8 <Reset_Handler>:

  .section .text.Reset_Handler
  .weak Reset_Handler
  .type Reset_Handler, %function
Reset_Handler:
  ldr   r0, =_estack
 8000bc8:	480d      	ldr	r0, [pc, #52]	; (8000c00 <LoopForever+0x2>)
  mov   sp, r0          /* set stack pointer */
 8000bca:	4685      	mov	sp, r0

/* Copy the data segment initializers from flash to SRAM */
  ldr r0, =_sdata
 8000bcc:	480d      	ldr	r0, [pc, #52]	; (8000c04 <LoopForever+0x6>)
  ldr r1, =_edata
 8000bce:	490e      	ldr	r1, [pc, #56]	; (8000c08 <LoopForever+0xa>)
  ldr r2, =_sidata
 8000bd0:	4a0e      	ldr	r2, [pc, #56]	; (8000c0c <LoopForever+0xe>)
  movs r3, #0
 8000bd2:	2300      	movs	r3, #0
  b LoopCopyDataInit
 8000bd4:	e002      	b.n	8000bdc <LoopCopyDataInit>

08000bd6 <CopyDataInit>:

CopyDataInit:
  ldr r4, [r2, r3]
 8000bd6:	58d4      	ldr	r4, [r2, r3]
  str r4, [r0, r3]
 8000bd8:	50c4      	str	r4, [r0, r3]
  adds r3, r3, #4
 8000bda:	3304      	adds	r3, #4

08000bdc <LoopCopyDataInit>:

LoopCopyDataInit:
  adds r4, r0, r3
 8000bdc:	18c4      	adds	r4, r0, r3
  cmp r4, r1
 8000bde:	428c      	cmp	r4, r1
  bcc CopyDataInit
 8000be0:	d3f9      	bcc.n	8000bd6 <CopyDataInit>
  
/* Zero fill the bss segment. */
  ldr r2, =_sbss
 8000be2:	4a0b      	ldr	r2, [pc, #44]	; (8000c10 <LoopForever+0x12>)
  ldr r4, =_ebss
 8000be4:	4c0b      	ldr	r4, [pc, #44]	; (8000c14 <LoopForever+0x16>)
  movs r3, #0
 8000be6:	2300      	movs	r3, #0
  b LoopFillZerobss
 8000be8:	e001      	b.n	8000bee <LoopFillZerobss>

08000bea <FillZerobss>:

FillZerobss:
  str  r3, [r2]
 8000bea:	6013      	str	r3, [r2, #0]
  adds r2, r2, #4
 8000bec:	3204      	adds	r2, #4

08000bee <LoopFillZerobss>:

LoopFillZerobss:
  cmp r2, r4
 8000bee:	42a2      	cmp	r2, r4
  bcc FillZerobss
 8000bf0:	d3fb      	bcc.n	8000bea <FillZerobss>

/* Call the clock system intitialization function.*/
  bl  SystemInit
 8000bf2:	f7ff fd15 	bl	8000620 <SystemInit>
/* Call static constructors */
  bl __libc_init_array
 8000bf6:	f001 fe2b 	bl	8002850 <__libc_init_array>
/* Call the application's entry point.*/
  bl main
 8000bfa:	f7ff fb73 	bl	80002e4 <main>

08000bfe <LoopForever>:

LoopForever:
    b LoopForever
 8000bfe:	e7fe      	b.n	8000bfe <LoopForever>
  ldr   r0, =_estack
 8000c00:	20002000 	.word	0x20002000
  ldr r0, =_sdata
 8000c04:	20000000 	.word	0x20000000
  ldr r1, =_edata
 8000c08:	2000000c 	.word	0x2000000c
  ldr r2, =_sidata
 8000c0c:	080028f8 	.word	0x080028f8
  ldr r2, =_sbss
 8000c10:	2000000c 	.word	0x2000000c
  ldr r4, =_ebss
 8000c14:	20000130 	.word	0x20000130

08000c18 <ADC1_COMP_IRQHandler>:
 * @retval : None
*/
    .section .text.Default_Handler,"ax",%progbits
Default_Handler:
Infinite_Loop:
  b Infinite_Loop
 8000c18:	e7fe      	b.n	8000c18 <ADC1_COMP_IRQHandler>
	...

08000c1c <HAL_Init>:
  *       In the default implementation,Systick is used as source of time base.
  *       The tick variable is incremented each 1ms in its ISR.
  * @retval HAL status
  */
HAL_StatusTypeDef HAL_Init(void)
{
 8000c1c:	b580      	push	{r7, lr}
 8000c1e:	af00      	add	r7, sp, #0
  /* Configure Flash prefetch */ 
#if (PREFETCH_ENABLE != 0)
  __HAL_FLASH_PREFETCH_BUFFER_ENABLE();
 8000c20:	4b07      	ldr	r3, [pc, #28]	; (8000c40 <HAL_Init+0x24>)
 8000c22:	681a      	ldr	r2, [r3, #0]
 8000c24:	4b06      	ldr	r3, [pc, #24]	; (8000c40 <HAL_Init+0x24>)
 8000c26:	2110      	movs	r1, #16
 8000c28:	430a      	orrs	r2, r1
 8000c2a:	601a      	str	r2, [r3, #0]
#endif /* PREFETCH_ENABLE */

  /* Use systick as time base source and configure 1ms tick (default clock after Reset is HSI) */

  HAL_InitTick(TICK_INT_PRIORITY);
 8000c2c:	2000      	movs	r0, #0
 8000c2e:	f000 f809 	bl	8000c44 <HAL_InitTick>

  /* Init the low level hardware */
  HAL_MspInit();
 8000c32:	f7ff fc5f 	bl	80004f4 <HAL_MspInit>

  /* Return function status */
  return HAL_OK;
 8000c36:	2300      	movs	r3, #0
}
 8000c38:	0018      	movs	r0, r3
 8000c3a:	46bd      	mov	sp, r7
 8000c3c:	bd80      	pop	{r7, pc}
 8000c3e:	46c0      	nop			; (mov r8, r8)
 8000c40:	40022000 	.word	0x40022000

08000c44 <HAL_InitTick>:
  *       implementation  in user file.
  * @param TickPriority Tick interrupt priority.
  * @retval HAL status
  */
__weak HAL_StatusTypeDef HAL_InitTick(uint32_t TickPriority)
{
 8000c44:	b590      	push	{r4, r7, lr}
 8000c46:	b083      	sub	sp, #12
 8000c48:	af00      	add	r7, sp, #0
 8000c4a:	6078      	str	r0, [r7, #4]
  /*Configure the SysTick to have interrupt in 1ms time basis*/
  if (HAL_SYSTICK_Config(SystemCoreClock / (1000U / uwTickFreq)) > 0U)
 8000c4c:	4b14      	ldr	r3, [pc, #80]	; (8000ca0 <HAL_InitTick+0x5c>)
 8000c4e:	681c      	ldr	r4, [r3, #0]
 8000c50:	4b14      	ldr	r3, [pc, #80]	; (8000ca4 <HAL_InitTick+0x60>)
 8000c52:	781b      	ldrb	r3, [r3, #0]
 8000c54:	0019      	movs	r1, r3
 8000c56:	23fa      	movs	r3, #250	; 0xfa
 8000c58:	0098      	lsls	r0, r3, #2
 8000c5a:	f7ff fa55 	bl	8000108 <__udivsi3>
 8000c5e:	0003      	movs	r3, r0
 8000c60:	0019      	movs	r1, r3
 8000c62:	0020      	movs	r0, r4
 8000c64:	f7ff fa50 	bl	8000108 <__udivsi3>
 8000c68:	0003      	movs	r3, r0
 8000c6a:	0018      	movs	r0, r3
 8000c6c:	f000 f90b 	bl	8000e86 <HAL_SYSTICK_Config>
 8000c70:	1e03      	subs	r3, r0, #0
 8000c72:	d001      	beq.n	8000c78 <HAL_InitTick+0x34>
  {
    return HAL_ERROR;
 8000c74:	2301      	movs	r3, #1
 8000c76:	e00f      	b.n	8000c98 <HAL_InitTick+0x54>
  }

  /* Configure the SysTick IRQ priority */
  if (TickPriority < (1UL << __NVIC_PRIO_BITS))
 8000c78:	687b      	ldr	r3, [r7, #4]
 8000c7a:	2b03      	cmp	r3, #3
 8000c7c:	d80b      	bhi.n	8000c96 <HAL_InitTick+0x52>
  {
    HAL_NVIC_SetPriority(SysTick_IRQn, TickPriority, 0U);
 8000c7e:	6879      	ldr	r1, [r7, #4]
 8000c80:	2301      	movs	r3, #1
 8000c82:	425b      	negs	r3, r3
 8000c84:	2200      	movs	r2, #0
 8000c86:	0018      	movs	r0, r3
 8000c88:	f000 f8d8 	bl	8000e3c <HAL_NVIC_SetPriority>
    uwTickPrio = TickPriority;
 8000c8c:	4b06      	ldr	r3, [pc, #24]	; (8000ca8 <HAL_InitTick+0x64>)
 8000c8e:	687a      	ldr	r2, [r7, #4]
 8000c90:	601a      	str	r2, [r3, #0]
  {
    return HAL_ERROR;
  }

   /* Return function status */
  return HAL_OK;
 8000c92:	2300      	movs	r3, #0
 8000c94:	e000      	b.n	8000c98 <HAL_InitTick+0x54>
    return HAL_ERROR;
 8000c96:	2301      	movs	r3, #1
}
 8000c98:	0018      	movs	r0, r3
 8000c9a:	46bd      	mov	sp, r7
 8000c9c:	b003      	add	sp, #12
 8000c9e:	bd90      	pop	{r4, r7, pc}
 8000ca0:	20000000 	.word	0x20000000
 8000ca4:	20000008 	.word	0x20000008
 8000ca8:	20000004 	.word	0x20000004

08000cac <HAL_IncTick>:
  * @note This function is declared as __weak to be overwritten in case of other 
  *       implementations in user file.
  * @retval None
  */
__weak void HAL_IncTick(void)
{
 8000cac:	b580      	push	{r7, lr}
 8000cae:	af00      	add	r7, sp, #0
  uwTick += uwTickFreq;
 8000cb0:	4b05      	ldr	r3, [pc, #20]	; (8000cc8 <HAL_IncTick+0x1c>)
 8000cb2:	781b      	ldrb	r3, [r3, #0]
 8000cb4:	001a      	movs	r2, r3
 8000cb6:	4b05      	ldr	r3, [pc, #20]	; (8000ccc <HAL_IncTick+0x20>)
 8000cb8:	681b      	ldr	r3, [r3, #0]
 8000cba:	18d2      	adds	r2, r2, r3
 8000cbc:	4b03      	ldr	r3, [pc, #12]	; (8000ccc <HAL_IncTick+0x20>)
 8000cbe:	601a      	str	r2, [r3, #0]
}
 8000cc0:	46c0      	nop			; (mov r8, r8)
 8000cc2:	46bd      	mov	sp, r7
 8000cc4:	bd80      	pop	{r7, pc}
 8000cc6:	46c0      	nop			; (mov r8, r8)
 8000cc8:	20000008 	.word	0x20000008
 8000ccc:	2000012c 	.word	0x2000012c

08000cd0 <HAL_GetTick>:
  * @note   This function is declared as __weak  to be overwritten  in case of other 
  *       implementations in user file.
  * @retval tick value
  */
__weak uint32_t HAL_GetTick(void)
{
 8000cd0:	b580      	push	{r7, lr}
 8000cd2:	af00      	add	r7, sp, #0
  return uwTick;
 8000cd4:	4b02      	ldr	r3, [pc, #8]	; (8000ce0 <HAL_GetTick+0x10>)
 8000cd6:	681b      	ldr	r3, [r3, #0]
}
 8000cd8:	0018      	movs	r0, r3
 8000cda:	46bd      	mov	sp, r7
 8000cdc:	bd80      	pop	{r7, pc}
 8000cde:	46c0      	nop			; (mov r8, r8)
 8000ce0:	2000012c 	.word	0x2000012c

08000ce4 <__NVIC_EnableIRQ>:
  \details Enables a device specific interrupt in the NVIC interrupt controller.
  \param [in]      IRQn  Device specific interrupt number.
  \note    IRQn must not be negative.
 */
__STATIC_INLINE void __NVIC_EnableIRQ(IRQn_Type IRQn)
{
 8000ce4:	b580      	push	{r7, lr}
 8000ce6:	b082      	sub	sp, #8
 8000ce8:	af00      	add	r7, sp, #0
 8000cea:	0002      	movs	r2, r0
 8000cec:	1dfb      	adds	r3, r7, #7
 8000cee:	701a      	strb	r2, [r3, #0]
  if ((int32_t)(IRQn) >= 0)
 8000cf0:	1dfb      	adds	r3, r7, #7
 8000cf2:	781b      	ldrb	r3, [r3, #0]
 8000cf4:	2b7f      	cmp	r3, #127	; 0x7f
 8000cf6:	d809      	bhi.n	8000d0c <__NVIC_EnableIRQ+0x28>
  {
    NVIC->ISER[0U] = (uint32_t)(1UL << (((uint32_t)IRQn) & 0x1FUL));
 8000cf8:	1dfb      	adds	r3, r7, #7
 8000cfa:	781b      	ldrb	r3, [r3, #0]
 8000cfc:	001a      	movs	r2, r3
 8000cfe:	231f      	movs	r3, #31
 8000d00:	401a      	ands	r2, r3
 8000d02:	4b04      	ldr	r3, [pc, #16]	; (8000d14 <__NVIC_EnableIRQ+0x30>)
 8000d04:	2101      	movs	r1, #1
 8000d06:	4091      	lsls	r1, r2
 8000d08:	000a      	movs	r2, r1
 8000d0a:	601a      	str	r2, [r3, #0]
  }
}
 8000d0c:	46c0      	nop			; (mov r8, r8)
 8000d0e:	46bd      	mov	sp, r7
 8000d10:	b002      	add	sp, #8
 8000d12:	bd80      	pop	{r7, pc}
 8000d14:	e000e100 	.word	0xe000e100

08000d18 <__NVIC_SetPriority>:
  \param [in]      IRQn  Interrupt number.
  \param [in]  priority  Priority to set.
  \note    The priority cannot be set for every processor exception.
 */
__STATIC_INLINE void __NVIC_SetPriority(IRQn_Type IRQn, uint32_t priority)
{
 8000d18:	b590      	push	{r4, r7, lr}
 8000d1a:	b083      	sub	sp, #12
 8000d1c:	af00      	add	r7, sp, #0
 8000d1e:	0002      	movs	r2, r0
 8000d20:	6039      	str	r1, [r7, #0]
 8000d22:	1dfb      	adds	r3, r7, #7
 8000d24:	701a      	strb	r2, [r3, #0]
  if ((int32_t)(IRQn) >= 0)
 8000d26:	1dfb      	adds	r3, r7, #7
 8000d28:	781b      	ldrb	r3, [r3, #0]
 8000d2a:	2b7f      	cmp	r3, #127	; 0x7f
 8000d2c:	d828      	bhi.n	8000d80 <__NVIC_SetPriority+0x68>
  {
    NVIC->IP[_IP_IDX(IRQn)]  = ((uint32_t)(NVIC->IP[_IP_IDX(IRQn)]  & ~(0xFFUL << _BIT_SHIFT(IRQn))) |
 8000d2e:	4a2f      	ldr	r2, [pc, #188]	; (8000dec <__NVIC_SetPriority+0xd4>)
 8000d30:	1dfb      	adds	r3, r7, #7
 8000d32:	781b      	ldrb	r3, [r3, #0]
 8000d34:	b25b      	sxtb	r3, r3
 8000d36:	089b      	lsrs	r3, r3, #2
 8000d38:	33c0      	adds	r3, #192	; 0xc0
 8000d3a:	009b      	lsls	r3, r3, #2
 8000d3c:	589b      	ldr	r3, [r3, r2]
 8000d3e:	1dfa      	adds	r2, r7, #7
 8000d40:	7812      	ldrb	r2, [r2, #0]
 8000d42:	0011      	movs	r1, r2
 8000d44:	2203      	movs	r2, #3
 8000d46:	400a      	ands	r2, r1
 8000d48:	00d2      	lsls	r2, r2, #3
 8000d4a:	21ff      	movs	r1, #255	; 0xff
 8000d4c:	4091      	lsls	r1, r2
 8000d4e:	000a      	movs	r2, r1
 8000d50:	43d2      	mvns	r2, r2
 8000d52:	401a      	ands	r2, r3
 8000d54:	0011      	movs	r1, r2
       (((priority << (8U - __NVIC_PRIO_BITS)) & (uint32_t)0xFFUL) << _BIT_SHIFT(IRQn)));
 8000d56:	683b      	ldr	r3, [r7, #0]
 8000d58:	019b      	lsls	r3, r3, #6
 8000d5a:	22ff      	movs	r2, #255	; 0xff
 8000d5c:	401a      	ands	r2, r3
 8000d5e:	1dfb      	adds	r3, r7, #7
 8000d60:	781b      	ldrb	r3, [r3, #0]
 8000d62:	0018      	movs	r0, r3
 8000d64:	2303      	movs	r3, #3
 8000d66:	4003      	ands	r3, r0
 8000d68:	00db      	lsls	r3, r3, #3
 8000d6a:	409a      	lsls	r2, r3
    NVIC->IP[_IP_IDX(IRQn)]  = ((uint32_t)(NVIC->IP[_IP_IDX(IRQn)]  & ~(0xFFUL << _BIT_SHIFT(IRQn))) |
 8000d6c:	481f      	ldr	r0, [pc, #124]	; (8000dec <__NVIC_SetPriority+0xd4>)
 8000d6e:	1dfb      	adds	r3, r7, #7
 8000d70:	781b      	ldrb	r3, [r3, #0]
 8000d72:	b25b      	sxtb	r3, r3
 8000d74:	089b      	lsrs	r3, r3, #2
 8000d76:	430a      	orrs	r2, r1
 8000d78:	33c0      	adds	r3, #192	; 0xc0
 8000d7a:	009b      	lsls	r3, r3, #2
 8000d7c:	501a      	str	r2, [r3, r0]
  else
  {
    SCB->SHP[_SHP_IDX(IRQn)] = ((uint32_t)(SCB->SHP[_SHP_IDX(IRQn)] & ~(0xFFUL << _BIT_SHIFT(IRQn))) |
       (((priority << (8U - __NVIC_PRIO_BITS)) & (uint32_t)0xFFUL) << _BIT_SHIFT(IRQn)));
  }
}
 8000d7e:	e031      	b.n	8000de4 <__NVIC_SetPriority+0xcc>
    SCB->SHP[_SHP_IDX(IRQn)] = ((uint32_t)(SCB->SHP[_SHP_IDX(IRQn)] & ~(0xFFUL << _BIT_SHIFT(IRQn))) |
 8000d80:	4a1b      	ldr	r2, [pc, #108]	; (8000df0 <__NVIC_SetPriority+0xd8>)
 8000d82:	1dfb      	adds	r3, r7, #7
 8000d84:	781b      	ldrb	r3, [r3, #0]
 8000d86:	0019      	movs	r1, r3
 8000d88:	230f      	movs	r3, #15
 8000d8a:	400b      	ands	r3, r1
 8000d8c:	3b08      	subs	r3, #8
 8000d8e:	089b      	lsrs	r3, r3, #2
 8000d90:	3306      	adds	r3, #6
 8000d92:	009b      	lsls	r3, r3, #2
 8000d94:	18d3      	adds	r3, r2, r3
 8000d96:	3304      	adds	r3, #4
 8000d98:	681b      	ldr	r3, [r3, #0]
 8000d9a:	1dfa      	adds	r2, r7, #7
 8000d9c:	7812      	ldrb	r2, [r2, #0]
 8000d9e:	0011      	movs	r1, r2
 8000da0:	2203      	movs	r2, #3
 8000da2:	400a      	ands	r2, r1
 8000da4:	00d2      	lsls	r2, r2, #3
 8000da6:	21ff      	movs	r1, #255	; 0xff
 8000da8:	4091      	lsls	r1, r2
 8000daa:	000a      	movs	r2, r1
 8000dac:	43d2      	mvns	r2, r2
 8000dae:	401a      	ands	r2, r3
 8000db0:	0011      	movs	r1, r2
       (((priority << (8U - __NVIC_PRIO_BITS)) & (uint32_t)0xFFUL) << _BIT_SHIFT(IRQn)));
 8000db2:	683b      	ldr	r3, [r7, #0]
 8000db4:	019b      	lsls	r3, r3, #6
 8000db6:	22ff      	movs	r2, #255	; 0xff
 8000db8:	401a      	ands	r2, r3
 8000dba:	1dfb      	adds	r3, r7, #7
 8000dbc:	781b      	ldrb	r3, [r3, #0]
 8000dbe:	0018      	movs	r0, r3
 8000dc0:	2303      	movs	r3, #3
 8000dc2:	4003      	ands	r3, r0
 8000dc4:	00db      	lsls	r3, r3, #3
 8000dc6:	409a      	lsls	r2, r3
    SCB->SHP[_SHP_IDX(IRQn)] = ((uint32_t)(SCB->SHP[_SHP_IDX(IRQn)] & ~(0xFFUL << _BIT_SHIFT(IRQn))) |
 8000dc8:	4809      	ldr	r0, [pc, #36]	; (8000df0 <__NVIC_SetPriority+0xd8>)
 8000dca:	1dfb      	adds	r3, r7, #7
 8000dcc:	781b      	ldrb	r3, [r3, #0]
 8000dce:	001c      	movs	r4, r3
 8000dd0:	230f      	movs	r3, #15
 8000dd2:	4023      	ands	r3, r4
 8000dd4:	3b08      	subs	r3, #8
 8000dd6:	089b      	lsrs	r3, r3, #2
 8000dd8:	430a      	orrs	r2, r1
 8000dda:	3306      	adds	r3, #6
 8000ddc:	009b      	lsls	r3, r3, #2
 8000dde:	18c3      	adds	r3, r0, r3
 8000de0:	3304      	adds	r3, #4
 8000de2:	601a      	str	r2, [r3, #0]
}
 8000de4:	46c0      	nop			; (mov r8, r8)
 8000de6:	46bd      	mov	sp, r7
 8000de8:	b003      	add	sp, #12
 8000dea:	bd90      	pop	{r4, r7, pc}
 8000dec:	e000e100 	.word	0xe000e100
 8000df0:	e000ed00 	.word	0xe000ed00

08000df4 <SysTick_Config>:
  \note    When the variable <b>__Vendor_SysTickConfig</b> is set to 1, then the
           function <b>SysTick_Config</b> is not included. In this case, the file <b><i>device</i>.h</b>
           must contain a vendor-specific implementation of this function.
 */
__STATIC_INLINE uint32_t SysTick_Config(uint32_t ticks)
{
 8000df4:	b580      	push	{r7, lr}
 8000df6:	b082      	sub	sp, #8
 8000df8:	af00      	add	r7, sp, #0
 8000dfa:	6078      	str	r0, [r7, #4]
  if ((ticks - 1UL) > SysTick_LOAD_RELOAD_Msk)
 8000dfc:	687b      	ldr	r3, [r7, #4]
 8000dfe:	3b01      	subs	r3, #1
 8000e00:	4a0c      	ldr	r2, [pc, #48]	; (8000e34 <SysTick_Config+0x40>)
 8000e02:	4293      	cmp	r3, r2
 8000e04:	d901      	bls.n	8000e0a <SysTick_Config+0x16>
  {
    return (1UL);                                                   /* Reload value impossible */
 8000e06:	2301      	movs	r3, #1
 8000e08:	e010      	b.n	8000e2c <SysTick_Config+0x38>
  }

  SysTick->LOAD  = (uint32_t)(ticks - 1UL);                         /* set reload register */
 8000e0a:	4b0b      	ldr	r3, [pc, #44]	; (8000e38 <SysTick_Config+0x44>)
 8000e0c:	687a      	ldr	r2, [r7, #4]
 8000e0e:	3a01      	subs	r2, #1
 8000e10:	605a      	str	r2, [r3, #4]
  NVIC_SetPriority (SysTick_IRQn, (1UL << __NVIC_PRIO_BITS) - 1UL); /* set Priority for Systick Interrupt */
 8000e12:	2301      	movs	r3, #1
 8000e14:	425b      	negs	r3, r3
 8000e16:	2103      	movs	r1, #3
 8000e18:	0018      	movs	r0, r3
 8000e1a:	f7ff ff7d 	bl	8000d18 <__NVIC_SetPriority>
  SysTick->VAL   = 0UL;                                             /* Load the SysTick Counter Value */
 8000e1e:	4b06      	ldr	r3, [pc, #24]	; (8000e38 <SysTick_Config+0x44>)
 8000e20:	2200      	movs	r2, #0
 8000e22:	609a      	str	r2, [r3, #8]
  SysTick->CTRL  = SysTick_CTRL_CLKSOURCE_Msk |
 8000e24:	4b04      	ldr	r3, [pc, #16]	; (8000e38 <SysTick_Config+0x44>)
 8000e26:	2207      	movs	r2, #7
 8000e28:	601a      	str	r2, [r3, #0]
                   SysTick_CTRL_TICKINT_Msk   |
                   SysTick_CTRL_ENABLE_Msk;                         /* Enable SysTick IRQ and SysTick Timer */
  return (0UL);                                                     /* Function successful */
 8000e2a:	2300      	movs	r3, #0
}
 8000e2c:	0018      	movs	r0, r3
 8000e2e:	46bd      	mov	sp, r7
 8000e30:	b002      	add	sp, #8
 8000e32:	bd80      	pop	{r7, pc}
 8000e34:	00ffffff 	.word	0x00ffffff
 8000e38:	e000e010 	.word	0xe000e010

08000e3c <HAL_NVIC_SetPriority>:
  *         with stm32f0xx devices, this parameter is a dummy value and it is ignored, because 
  *         no subpriority supported in Cortex M0 based products.   
  * @retval None
  */
void HAL_NVIC_SetPriority(IRQn_Type IRQn, uint32_t PreemptPriority, uint32_t SubPriority)
{ 
 8000e3c:	b580      	push	{r7, lr}
 8000e3e:	b084      	sub	sp, #16
 8000e40:	af00      	add	r7, sp, #0
 8000e42:	60b9      	str	r1, [r7, #8]
 8000e44:	607a      	str	r2, [r7, #4]
 8000e46:	210f      	movs	r1, #15
 8000e48:	187b      	adds	r3, r7, r1
 8000e4a:	1c02      	adds	r2, r0, #0
 8000e4c:	701a      	strb	r2, [r3, #0]
  /* Check the parameters */
  assert_param(IS_NVIC_PREEMPTION_PRIORITY(PreemptPriority));
  NVIC_SetPriority(IRQn,PreemptPriority);
 8000e4e:	68ba      	ldr	r2, [r7, #8]
 8000e50:	187b      	adds	r3, r7, r1
 8000e52:	781b      	ldrb	r3, [r3, #0]
 8000e54:	b25b      	sxtb	r3, r3
 8000e56:	0011      	movs	r1, r2
 8000e58:	0018      	movs	r0, r3
 8000e5a:	f7ff ff5d 	bl	8000d18 <__NVIC_SetPriority>
}
 8000e5e:	46c0      	nop			; (mov r8, r8)
 8000e60:	46bd      	mov	sp, r7
 8000e62:	b004      	add	sp, #16
 8000e64:	bd80      	pop	{r7, pc}

08000e66 <HAL_NVIC_EnableIRQ>:
  *         This parameter can be an enumerator of IRQn_Type enumeration
  *         (For the complete STM32 Devices IRQ Channels list, please refer to the appropriate CMSIS device file (stm32f0xxxx.h))
  * @retval None
  */
void HAL_NVIC_EnableIRQ(IRQn_Type IRQn)
{
 8000e66:	b580      	push	{r7, lr}
 8000e68:	b082      	sub	sp, #8
 8000e6a:	af00      	add	r7, sp, #0
 8000e6c:	0002      	movs	r2, r0
 8000e6e:	1dfb      	adds	r3, r7, #7
 8000e70:	701a      	strb	r2, [r3, #0]
  /* Check the parameters */
  assert_param(IS_NVIC_DEVICE_IRQ(IRQn));
  
  /* Enable interrupt */
  NVIC_EnableIRQ(IRQn);
 8000e72:	1dfb      	adds	r3, r7, #7
 8000e74:	781b      	ldrb	r3, [r3, #0]
 8000e76:	b25b      	sxtb	r3, r3
 8000e78:	0018      	movs	r0, r3
 8000e7a:	f7ff ff33 	bl	8000ce4 <__NVIC_EnableIRQ>
}
 8000e7e:	46c0      	nop			; (mov r8, r8)
 8000e80:	46bd      	mov	sp, r7
 8000e82:	b002      	add	sp, #8
 8000e84:	bd80      	pop	{r7, pc}

08000e86 <HAL_SYSTICK_Config>:
  * @param  TicksNumb Specifies the ticks Number of ticks between two interrupts.
  * @retval status:  - 0  Function succeeded.
  *                  - 1  Function failed.
  */
uint32_t HAL_SYSTICK_Config(uint32_t TicksNumb)
{
 8000e86:	b580      	push	{r7, lr}
 8000e88:	b082      	sub	sp, #8
 8000e8a:	af00      	add	r7, sp, #0
 8000e8c:	6078      	str	r0, [r7, #4]
   return SysTick_Config(TicksNumb);
 8000e8e:	687b      	ldr	r3, [r7, #4]
 8000e90:	0018      	movs	r0, r3
 8000e92:	f7ff ffaf 	bl	8000df4 <SysTick_Config>
 8000e96:	0003      	movs	r3, r0
}
 8000e98:	0018      	movs	r0, r3
 8000e9a:	46bd      	mov	sp, r7
 8000e9c:	b002      	add	sp, #8
 8000e9e:	bd80      	pop	{r7, pc}

08000ea0 <HAL_GPIO_Init>:
  * @param  GPIO_Init pointer to a GPIO_InitTypeDef structure that contains
  *         the configuration information for the specified GPIO peripheral.
  * @retval None
  */
void HAL_GPIO_Init(GPIO_TypeDef  *GPIOx, GPIO_InitTypeDef *GPIO_Init)
{ 
 8000ea0:	b580      	push	{r7, lr}
 8000ea2:	b086      	sub	sp, #24
 8000ea4:	af00      	add	r7, sp, #0
 8000ea6:	6078      	str	r0, [r7, #4]
 8000ea8:	6039      	str	r1, [r7, #0]
  uint32_t position = 0x00u;
 8000eaa:	2300      	movs	r3, #0
 8000eac:	617b      	str	r3, [r7, #20]
  assert_param(IS_GPIO_PIN(GPIO_Init->Pin));
  assert_param(IS_GPIO_MODE(GPIO_Init->Mode));
  assert_param(IS_GPIO_PULL(GPIO_Init->Pull));

  /* Configure the port pins */
  while (((GPIO_Init->Pin) >> position) != 0x00u)
 8000eae:	e14f      	b.n	8001150 <HAL_GPIO_Init+0x2b0>
  {
    /* Get current io position */
    iocurrent = (GPIO_Init->Pin) & (1uL << position);
 8000eb0:	683b      	ldr	r3, [r7, #0]
 8000eb2:	681b      	ldr	r3, [r3, #0]
 8000eb4:	2101      	movs	r1, #1
 8000eb6:	697a      	ldr	r2, [r7, #20]
 8000eb8:	4091      	lsls	r1, r2
 8000eba:	000a      	movs	r2, r1
 8000ebc:	4013      	ands	r3, r2
 8000ebe:	60fb      	str	r3, [r7, #12]

    if (iocurrent != 0x00u)
 8000ec0:	68fb      	ldr	r3, [r7, #12]
 8000ec2:	2b00      	cmp	r3, #0
 8000ec4:	d100      	bne.n	8000ec8 <HAL_GPIO_Init+0x28>
 8000ec6:	e140      	b.n	800114a <HAL_GPIO_Init+0x2aa>
    {
      /*--------------------- GPIO Mode Configuration ------------------------*/
      /* In case of Alternate function mode selection */
      if((GPIO_Init->Mode == GPIO_MODE_AF_PP) || (GPIO_Init->Mode == GPIO_MODE_AF_OD))
 8000ec8:	683b      	ldr	r3, [r7, #0]
 8000eca:	685b      	ldr	r3, [r3, #4]
 8000ecc:	2b02      	cmp	r3, #2
 8000ece:	d003      	beq.n	8000ed8 <HAL_GPIO_Init+0x38>
 8000ed0:	683b      	ldr	r3, [r7, #0]
 8000ed2:	685b      	ldr	r3, [r3, #4]
 8000ed4:	2b12      	cmp	r3, #18
 8000ed6:	d123      	bne.n	8000f20 <HAL_GPIO_Init+0x80>
        /* Check the Alternate function parameters */
        assert_param(IS_GPIO_AF_INSTANCE(GPIOx));
        assert_param(IS_GPIO_AF(GPIO_Init->Alternate));

        /* Configure Alternate function mapped with the current IO */
        temp = GPIOx->AFR[position >> 3u];
 8000ed8:	697b      	ldr	r3, [r7, #20]
 8000eda:	08da      	lsrs	r2, r3, #3
 8000edc:	687b      	ldr	r3, [r7, #4]
 8000ede:	3208      	adds	r2, #8
 8000ee0:	0092      	lsls	r2, r2, #2
 8000ee2:	58d3      	ldr	r3, [r2, r3]
 8000ee4:	613b      	str	r3, [r7, #16]
        temp &= ~(0xFu << ((position & 0x07u) * 4u));
 8000ee6:	697b      	ldr	r3, [r7, #20]
 8000ee8:	2207      	movs	r2, #7
 8000eea:	4013      	ands	r3, r2
 8000eec:	009b      	lsls	r3, r3, #2
 8000eee:	220f      	movs	r2, #15
 8000ef0:	409a      	lsls	r2, r3
 8000ef2:	0013      	movs	r3, r2
 8000ef4:	43da      	mvns	r2, r3
 8000ef6:	693b      	ldr	r3, [r7, #16]
 8000ef8:	4013      	ands	r3, r2
 8000efa:	613b      	str	r3, [r7, #16]
        temp |= ((GPIO_Init->Alternate) << ((position & 0x07u) * 4u));
 8000efc:	683b      	ldr	r3, [r7, #0]
 8000efe:	691a      	ldr	r2, [r3, #16]
 8000f00:	697b      	ldr	r3, [r7, #20]
 8000f02:	2107      	movs	r1, #7
 8000f04:	400b      	ands	r3, r1
 8000f06:	009b      	lsls	r3, r3, #2
 8000f08:	409a      	lsls	r2, r3
 8000f0a:	0013      	movs	r3, r2
 8000f0c:	693a      	ldr	r2, [r7, #16]
 8000f0e:	4313      	orrs	r3, r2
 8000f10:	613b      	str	r3, [r7, #16]
        GPIOx->AFR[position >> 3u] = temp;
 8000f12:	697b      	ldr	r3, [r7, #20]
 8000f14:	08da      	lsrs	r2, r3, #3
 8000f16:	687b      	ldr	r3, [r7, #4]
 8000f18:	3208      	adds	r2, #8
 8000f1a:	0092      	lsls	r2, r2, #2
 8000f1c:	6939      	ldr	r1, [r7, #16]
 8000f1e:	50d1      	str	r1, [r2, r3]
      }

      /* Configure IO Direction mode (Input, Output, Alternate or Analog) */
      temp = GPIOx->MODER;
 8000f20:	687b      	ldr	r3, [r7, #4]
 8000f22:	681b      	ldr	r3, [r3, #0]
 8000f24:	613b      	str	r3, [r7, #16]
      temp &= ~(GPIO_MODER_MODER0 << (position * 2u));
 8000f26:	697b      	ldr	r3, [r7, #20]
 8000f28:	005b      	lsls	r3, r3, #1
 8000f2a:	2203      	movs	r2, #3
 8000f2c:	409a      	lsls	r2, r3
 8000f2e:	0013      	movs	r3, r2
 8000f30:	43da      	mvns	r2, r3
 8000f32:	693b      	ldr	r3, [r7, #16]
 8000f34:	4013      	ands	r3, r2
 8000f36:	613b      	str	r3, [r7, #16]
      temp |= ((GPIO_Init->Mode & GPIO_MODE) << (position * 2u));
 8000f38:	683b      	ldr	r3, [r7, #0]
 8000f3a:	685b      	ldr	r3, [r3, #4]
 8000f3c:	2203      	movs	r2, #3
 8000f3e:	401a      	ands	r2, r3
 8000f40:	697b      	ldr	r3, [r7, #20]
 8000f42:	005b      	lsls	r3, r3, #1
 8000f44:	409a      	lsls	r2, r3
 8000f46:	0013      	movs	r3, r2
 8000f48:	693a      	ldr	r2, [r7, #16]
 8000f4a:	4313      	orrs	r3, r2
 8000f4c:	613b      	str	r3, [r7, #16]
      GPIOx->MODER = temp;
 8000f4e:	687b      	ldr	r3, [r7, #4]
 8000f50:	693a      	ldr	r2, [r7, #16]
 8000f52:	601a      	str	r2, [r3, #0]

      /* In case of Output or Alternate function mode selection */
      if((GPIO_Init->Mode == GPIO_MODE_OUTPUT_PP) || (GPIO_Init->Mode == GPIO_MODE_AF_PP) ||
 8000f54:	683b      	ldr	r3, [r7, #0]
 8000f56:	685b      	ldr	r3, [r3, #4]
 8000f58:	2b01      	cmp	r3, #1
 8000f5a:	d00b      	beq.n	8000f74 <HAL_GPIO_Init+0xd4>
 8000f5c:	683b      	ldr	r3, [r7, #0]
 8000f5e:	685b      	ldr	r3, [r3, #4]
 8000f60:	2b02      	cmp	r3, #2
 8000f62:	d007      	beq.n	8000f74 <HAL_GPIO_Init+0xd4>
         (GPIO_Init->Mode == GPIO_MODE_OUTPUT_OD) || (GPIO_Init->Mode == GPIO_MODE_AF_OD))
 8000f64:	683b      	ldr	r3, [r7, #0]
 8000f66:	685b      	ldr	r3, [r3, #4]
      if((GPIO_Init->Mode == GPIO_MODE_OUTPUT_PP) || (GPIO_Init->Mode == GPIO_MODE_AF_PP) ||
 8000f68:	2b11      	cmp	r3, #17
 8000f6a:	d003      	beq.n	8000f74 <HAL_GPIO_Init+0xd4>
         (GPIO_Init->Mode == GPIO_MODE_OUTPUT_OD) || (GPIO_Init->Mode == GPIO_MODE_AF_OD))
 8000f6c:	683b      	ldr	r3, [r7, #0]
 8000f6e:	685b      	ldr	r3, [r3, #4]
 8000f70:	2b12      	cmp	r3, #18
 8000f72:	d130      	bne.n	8000fd6 <HAL_GPIO_Init+0x136>
      {
        /* Check the Speed parameter */
        assert_param(IS_GPIO_SPEED(GPIO_Init->Speed));
        /* Configure the IO Speed */
        temp = GPIOx->OSPEEDR;
 8000f74:	687b      	ldr	r3, [r7, #4]
 8000f76:	689b      	ldr	r3, [r3, #8]
 8000f78:	613b      	str	r3, [r7, #16]
        temp &= ~(GPIO_OSPEEDER_OSPEEDR0 << (position * 2u));
 8000f7a:	697b      	ldr	r3, [r7, #20]
 8000f7c:	005b      	lsls	r3, r3, #1
 8000f7e:	2203      	movs	r2, #3
 8000f80:	409a      	lsls	r2, r3
 8000f82:	0013      	movs	r3, r2
 8000f84:	43da      	mvns	r2, r3
 8000f86:	693b      	ldr	r3, [r7, #16]
 8000f88:	4013      	ands	r3, r2
 8000f8a:	613b      	str	r3, [r7, #16]
        temp |= (GPIO_Init->Speed << (position * 2u));
 8000f8c:	683b      	ldr	r3, [r7, #0]
 8000f8e:	68da      	ldr	r2, [r3, #12]
 8000f90:	697b      	ldr	r3, [r7, #20]
 8000f92:	005b      	lsls	r3, r3, #1
 8000f94:	409a      	lsls	r2, r3
 8000f96:	0013      	movs	r3, r2
 8000f98:	693a      	ldr	r2, [r7, #16]
 8000f9a:	4313      	orrs	r3, r2
 8000f9c:	613b      	str	r3, [r7, #16]
        GPIOx->OSPEEDR = temp;
 8000f9e:	687b      	ldr	r3, [r7, #4]
 8000fa0:	693a      	ldr	r2, [r7, #16]
 8000fa2:	609a      	str	r2, [r3, #8]

        /* Configure the IO Output Type */
        temp = GPIOx->OTYPER;
 8000fa4:	687b      	ldr	r3, [r7, #4]
 8000fa6:	685b      	ldr	r3, [r3, #4]
 8000fa8:	613b      	str	r3, [r7, #16]
        temp &= ~(GPIO_OTYPER_OT_0 << position) ;
 8000faa:	2201      	movs	r2, #1
 8000fac:	697b      	ldr	r3, [r7, #20]
 8000fae:	409a      	lsls	r2, r3
 8000fb0:	0013      	movs	r3, r2
 8000fb2:	43da      	mvns	r2, r3
 8000fb4:	693b      	ldr	r3, [r7, #16]
 8000fb6:	4013      	ands	r3, r2
 8000fb8:	613b      	str	r3, [r7, #16]
        temp |= (((GPIO_Init->Mode & GPIO_OUTPUT_TYPE) >> 4u) << position);
 8000fba:	683b      	ldr	r3, [r7, #0]
 8000fbc:	685b      	ldr	r3, [r3, #4]
 8000fbe:	091b      	lsrs	r3, r3, #4
 8000fc0:	2201      	movs	r2, #1
 8000fc2:	401a      	ands	r2, r3
 8000fc4:	697b      	ldr	r3, [r7, #20]
 8000fc6:	409a      	lsls	r2, r3
 8000fc8:	0013      	movs	r3, r2
 8000fca:	693a      	ldr	r2, [r7, #16]
 8000fcc:	4313      	orrs	r3, r2
 8000fce:	613b      	str	r3, [r7, #16]
        GPIOx->OTYPER = temp;
 8000fd0:	687b      	ldr	r3, [r7, #4]
 8000fd2:	693a      	ldr	r2, [r7, #16]
 8000fd4:	605a      	str	r2, [r3, #4]
      }

      /* Activate the Pull-up or Pull down resistor for the current IO */
      temp = GPIOx->PUPDR;
 8000fd6:	687b      	ldr	r3, [r7, #4]
 8000fd8:	68db      	ldr	r3, [r3, #12]
 8000fda:	613b      	str	r3, [r7, #16]
      temp &= ~(GPIO_PUPDR_PUPDR0 << (position * 2u));
 8000fdc:	697b      	ldr	r3, [r7, #20]
 8000fde:	005b      	lsls	r3, r3, #1
 8000fe0:	2203      	movs	r2, #3
 8000fe2:	409a      	lsls	r2, r3
 8000fe4:	0013      	movs	r3, r2
 8000fe6:	43da      	mvns	r2, r3
 8000fe8:	693b      	ldr	r3, [r7, #16]
 8000fea:	4013      	ands	r3, r2
 8000fec:	613b      	str	r3, [r7, #16]
      temp |= ((GPIO_Init->Pull) << (position * 2u));
 8000fee:	683b      	ldr	r3, [r7, #0]
 8000ff0:	689a      	ldr	r2, [r3, #8]
 8000ff2:	697b      	ldr	r3, [r7, #20]
 8000ff4:	005b      	lsls	r3, r3, #1
 8000ff6:	409a      	lsls	r2, r3
 8000ff8:	0013      	movs	r3, r2
 8000ffa:	693a      	ldr	r2, [r7, #16]
 8000ffc:	4313      	orrs	r3, r2
 8000ffe:	613b      	str	r3, [r7, #16]
      GPIOx->PUPDR = temp;
 8001000:	687b      	ldr	r3, [r7, #4]
 8001002:	693a      	ldr	r2, [r7, #16]
 8001004:	60da      	str	r2, [r3, #12]

      /*--------------------- EXTI Mode Configuration ------------------------*/
      /* Configure the External Interrupt or event for the current IO */
      if((GPIO_Init->Mode & EXTI_MODE) == EXTI_MODE)
 8001006:	683b      	ldr	r3, [r7, #0]
 8001008:	685a      	ldr	r2, [r3, #4]
 800100a:	2380      	movs	r3, #128	; 0x80
 800100c:	055b      	lsls	r3, r3, #21
 800100e:	4013      	ands	r3, r2
 8001010:	d100      	bne.n	8001014 <HAL_GPIO_Init+0x174>
 8001012:	e09a      	b.n	800114a <HAL_GPIO_Init+0x2aa>
      {
        /* Enable SYSCFG Clock */
        __HAL_RCC_SYSCFG_CLK_ENABLE();
 8001014:	4b54      	ldr	r3, [pc, #336]	; (8001168 <HAL_GPIO_Init+0x2c8>)
 8001016:	699a      	ldr	r2, [r3, #24]
 8001018:	4b53      	ldr	r3, [pc, #332]	; (8001168 <HAL_GPIO_Init+0x2c8>)
 800101a:	2101      	movs	r1, #1
 800101c:	430a      	orrs	r2, r1
 800101e:	619a      	str	r2, [r3, #24]
 8001020:	4b51      	ldr	r3, [pc, #324]	; (8001168 <HAL_GPIO_Init+0x2c8>)
 8001022:	699b      	ldr	r3, [r3, #24]
 8001024:	2201      	movs	r2, #1
 8001026:	4013      	ands	r3, r2
 8001028:	60bb      	str	r3, [r7, #8]
 800102a:	68bb      	ldr	r3, [r7, #8]

        temp = SYSCFG->EXTICR[position >> 2u];
 800102c:	4a4f      	ldr	r2, [pc, #316]	; (800116c <HAL_GPIO_Init+0x2cc>)
 800102e:	697b      	ldr	r3, [r7, #20]
 8001030:	089b      	lsrs	r3, r3, #2
 8001032:	3302      	adds	r3, #2
 8001034:	009b      	lsls	r3, r3, #2
 8001036:	589b      	ldr	r3, [r3, r2]
 8001038:	613b      	str	r3, [r7, #16]
        temp &= ~(0x0FuL << (4u * (position & 0x03u)));
 800103a:	697b      	ldr	r3, [r7, #20]
 800103c:	2203      	movs	r2, #3
 800103e:	4013      	ands	r3, r2
 8001040:	009b      	lsls	r3, r3, #2
 8001042:	220f      	movs	r2, #15
 8001044:	409a      	lsls	r2, r3
 8001046:	0013      	movs	r3, r2
 8001048:	43da      	mvns	r2, r3
 800104a:	693b      	ldr	r3, [r7, #16]
 800104c:	4013      	ands	r3, r2
 800104e:	613b      	str	r3, [r7, #16]
        temp |= (GPIO_GET_INDEX(GPIOx) << (4u * (position & 0x03u)));
 8001050:	687a      	ldr	r2, [r7, #4]
 8001052:	2390      	movs	r3, #144	; 0x90
 8001054:	05db      	lsls	r3, r3, #23
 8001056:	429a      	cmp	r2, r3
 8001058:	d013      	beq.n	8001082 <HAL_GPIO_Init+0x1e2>
 800105a:	687b      	ldr	r3, [r7, #4]
 800105c:	4a44      	ldr	r2, [pc, #272]	; (8001170 <HAL_GPIO_Init+0x2d0>)
 800105e:	4293      	cmp	r3, r2
 8001060:	d00d      	beq.n	800107e <HAL_GPIO_Init+0x1de>
 8001062:	687b      	ldr	r3, [r7, #4]
 8001064:	4a43      	ldr	r2, [pc, #268]	; (8001174 <HAL_GPIO_Init+0x2d4>)
 8001066:	4293      	cmp	r3, r2
 8001068:	d007      	beq.n	800107a <HAL_GPIO_Init+0x1da>
 800106a:	687b      	ldr	r3, [r7, #4]
 800106c:	4a42      	ldr	r2, [pc, #264]	; (8001178 <HAL_GPIO_Init+0x2d8>)
 800106e:	4293      	cmp	r3, r2
 8001070:	d101      	bne.n	8001076 <HAL_GPIO_Init+0x1d6>
 8001072:	2303      	movs	r3, #3
 8001074:	e006      	b.n	8001084 <HAL_GPIO_Init+0x1e4>
 8001076:	2305      	movs	r3, #5
 8001078:	e004      	b.n	8001084 <HAL_GPIO_Init+0x1e4>
 800107a:	2302      	movs	r3, #2
 800107c:	e002      	b.n	8001084 <HAL_GPIO_Init+0x1e4>
 800107e:	2301      	movs	r3, #1
 8001080:	e000      	b.n	8001084 <HAL_GPIO_Init+0x1e4>
 8001082:	2300      	movs	r3, #0
 8001084:	697a      	ldr	r2, [r7, #20]
 8001086:	2103      	movs	r1, #3
 8001088:	400a      	ands	r2, r1
 800108a:	0092      	lsls	r2, r2, #2
 800108c:	4093      	lsls	r3, r2
 800108e:	693a      	ldr	r2, [r7, #16]
 8001090:	4313      	orrs	r3, r2
 8001092:	613b      	str	r3, [r7, #16]
        SYSCFG->EXTICR[position >> 2u] = temp;
 8001094:	4935      	ldr	r1, [pc, #212]	; (800116c <HAL_GPIO_Init+0x2cc>)
 8001096:	697b      	ldr	r3, [r7, #20]
 8001098:	089b      	lsrs	r3, r3, #2
 800109a:	3302      	adds	r3, #2
 800109c:	009b      	lsls	r3, r3, #2
 800109e:	693a      	ldr	r2, [r7, #16]
 80010a0:	505a      	str	r2, [r3, r1]

        /* Clear EXTI line configuration */
        temp = EXTI->IMR;
 80010a2:	4b36      	ldr	r3, [pc, #216]	; (800117c <HAL_GPIO_Init+0x2dc>)
 80010a4:	681b      	ldr	r3, [r3, #0]
 80010a6:	613b      	str	r3, [r7, #16]
        temp &= ~(iocurrent);
 80010a8:	68fb      	ldr	r3, [r7, #12]
 80010aa:	43da      	mvns	r2, r3
 80010ac:	693b      	ldr	r3, [r7, #16]
 80010ae:	4013      	ands	r3, r2
 80010b0:	613b      	str	r3, [r7, #16]
        if((GPIO_Init->Mode & GPIO_MODE_IT) == GPIO_MODE_IT)
 80010b2:	683b      	ldr	r3, [r7, #0]
 80010b4:	685a      	ldr	r2, [r3, #4]
 80010b6:	2380      	movs	r3, #128	; 0x80
 80010b8:	025b      	lsls	r3, r3, #9
 80010ba:	4013      	ands	r3, r2
 80010bc:	d003      	beq.n	80010c6 <HAL_GPIO_Init+0x226>
        {
          temp |= iocurrent;
 80010be:	693a      	ldr	r2, [r7, #16]
 80010c0:	68fb      	ldr	r3, [r7, #12]
 80010c2:	4313      	orrs	r3, r2
 80010c4:	613b      	str	r3, [r7, #16]
        }
        EXTI->IMR = temp;
 80010c6:	4b2d      	ldr	r3, [pc, #180]	; (800117c <HAL_GPIO_Init+0x2dc>)
 80010c8:	693a      	ldr	r2, [r7, #16]
 80010ca:	601a      	str	r2, [r3, #0]

        temp = EXTI->EMR;
 80010cc:	4b2b      	ldr	r3, [pc, #172]	; (800117c <HAL_GPIO_Init+0x2dc>)
 80010ce:	685b      	ldr	r3, [r3, #4]
 80010d0:	613b      	str	r3, [r7, #16]
        temp &= ~(iocurrent);
 80010d2:	68fb      	ldr	r3, [r7, #12]
 80010d4:	43da      	mvns	r2, r3
 80010d6:	693b      	ldr	r3, [r7, #16]
 80010d8:	4013      	ands	r3, r2
 80010da:	613b      	str	r3, [r7, #16]
        if((GPIO_Init->Mode & GPIO_MODE_EVT) == GPIO_MODE_EVT)
 80010dc:	683b      	ldr	r3, [r7, #0]
 80010de:	685a      	ldr	r2, [r3, #4]
 80010e0:	2380      	movs	r3, #128	; 0x80
 80010e2:	029b      	lsls	r3, r3, #10
 80010e4:	4013      	ands	r3, r2
 80010e6:	d003      	beq.n	80010f0 <HAL_GPIO_Init+0x250>
        {
          temp |= iocurrent;
 80010e8:	693a      	ldr	r2, [r7, #16]
 80010ea:	68fb      	ldr	r3, [r7, #12]
 80010ec:	4313      	orrs	r3, r2
 80010ee:	613b      	str	r3, [r7, #16]
        }
        EXTI->EMR = temp;
 80010f0:	4b22      	ldr	r3, [pc, #136]	; (800117c <HAL_GPIO_Init+0x2dc>)
 80010f2:	693a      	ldr	r2, [r7, #16]
 80010f4:	605a      	str	r2, [r3, #4]

        /* Clear Rising Falling edge configuration */
        temp = EXTI->RTSR;
 80010f6:	4b21      	ldr	r3, [pc, #132]	; (800117c <HAL_GPIO_Init+0x2dc>)
 80010f8:	689b      	ldr	r3, [r3, #8]
 80010fa:	613b      	str	r3, [r7, #16]
        temp &= ~(iocurrent);
 80010fc:	68fb      	ldr	r3, [r7, #12]
 80010fe:	43da      	mvns	r2, r3
 8001100:	693b      	ldr	r3, [r7, #16]
 8001102:	4013      	ands	r3, r2
 8001104:	613b      	str	r3, [r7, #16]
        if((GPIO_Init->Mode & RISING_EDGE) == RISING_EDGE)
 8001106:	683b      	ldr	r3, [r7, #0]
 8001108:	685a      	ldr	r2, [r3, #4]
 800110a:	2380      	movs	r3, #128	; 0x80
 800110c:	035b      	lsls	r3, r3, #13
 800110e:	4013      	ands	r3, r2
 8001110:	d003      	beq.n	800111a <HAL_GPIO_Init+0x27a>
        {
          temp |= iocurrent;
 8001112:	693a      	ldr	r2, [r7, #16]
 8001114:	68fb      	ldr	r3, [r7, #12]
 8001116:	4313      	orrs	r3, r2
 8001118:	613b      	str	r3, [r7, #16]
        }
        EXTI->RTSR = temp;
 800111a:	4b18      	ldr	r3, [pc, #96]	; (800117c <HAL_GPIO_Init+0x2dc>)
 800111c:	693a      	ldr	r2, [r7, #16]
 800111e:	609a      	str	r2, [r3, #8]

        temp = EXTI->FTSR;
 8001120:	4b16      	ldr	r3, [pc, #88]	; (800117c <HAL_GPIO_Init+0x2dc>)
 8001122:	68db      	ldr	r3, [r3, #12]
 8001124:	613b      	str	r3, [r7, #16]
        temp &= ~(iocurrent);
 8001126:	68fb      	ldr	r3, [r7, #12]
 8001128:	43da      	mvns	r2, r3
 800112a:	693b      	ldr	r3, [r7, #16]
 800112c:	4013      	ands	r3, r2
 800112e:	613b      	str	r3, [r7, #16]
        if((GPIO_Init->Mode & FALLING_EDGE) == FALLING_EDGE)
 8001130:	683b      	ldr	r3, [r7, #0]
 8001132:	685a      	ldr	r2, [r3, #4]
 8001134:	2380      	movs	r3, #128	; 0x80
 8001136:	039b      	lsls	r3, r3, #14
 8001138:	4013      	ands	r3, r2
 800113a:	d003      	beq.n	8001144 <HAL_GPIO_Init+0x2a4>
        {
          temp |= iocurrent;
 800113c:	693a      	ldr	r2, [r7, #16]
 800113e:	68fb      	ldr	r3, [r7, #12]
 8001140:	4313      	orrs	r3, r2
 8001142:	613b      	str	r3, [r7, #16]
        }
        EXTI->FTSR = temp;
 8001144:	4b0d      	ldr	r3, [pc, #52]	; (800117c <HAL_GPIO_Init+0x2dc>)
 8001146:	693a      	ldr	r2, [r7, #16]
 8001148:	60da      	str	r2, [r3, #12]
      }
    }

    position++;
 800114a:	697b      	ldr	r3, [r7, #20]
 800114c:	3301      	adds	r3, #1
 800114e:	617b      	str	r3, [r7, #20]
  while (((GPIO_Init->Pin) >> position) != 0x00u)
 8001150:	683b      	ldr	r3, [r7, #0]
 8001152:	681a      	ldr	r2, [r3, #0]
 8001154:	697b      	ldr	r3, [r7, #20]
 8001156:	40da      	lsrs	r2, r3
 8001158:	1e13      	subs	r3, r2, #0
 800115a:	d000      	beq.n	800115e <HAL_GPIO_Init+0x2be>
 800115c:	e6a8      	b.n	8000eb0 <HAL_GPIO_Init+0x10>
  } 
}
 800115e:	46c0      	nop			; (mov r8, r8)
 8001160:	46bd      	mov	sp, r7
 8001162:	b006      	add	sp, #24
 8001164:	bd80      	pop	{r7, pc}
 8001166:	46c0      	nop			; (mov r8, r8)
 8001168:	40021000 	.word	0x40021000
 800116c:	40010000 	.word	0x40010000
 8001170:	48000400 	.word	0x48000400
 8001174:	48000800 	.word	0x48000800
 8001178:	48000c00 	.word	0x48000c00
 800117c:	40010400 	.word	0x40010400

08001180 <HAL_GPIO_WritePin>:
  *            @arg GPIO_PIN_RESET: to clear the port pin
  *            @arg GPIO_PIN_SET: to set the port pin
  * @retval None
  */
void HAL_GPIO_WritePin(GPIO_TypeDef* GPIOx, uint16_t GPIO_Pin, GPIO_PinState PinState)
{
 8001180:	b580      	push	{r7, lr}
 8001182:	b082      	sub	sp, #8
 8001184:	af00      	add	r7, sp, #0
 8001186:	6078      	str	r0, [r7, #4]
 8001188:	0008      	movs	r0, r1
 800118a:	0011      	movs	r1, r2
 800118c:	1cbb      	adds	r3, r7, #2
 800118e:	1c02      	adds	r2, r0, #0
 8001190:	801a      	strh	r2, [r3, #0]
 8001192:	1c7b      	adds	r3, r7, #1
 8001194:	1c0a      	adds	r2, r1, #0
 8001196:	701a      	strb	r2, [r3, #0]
  /* Check the parameters */
  assert_param(IS_GPIO_PIN(GPIO_Pin));
  assert_param(IS_GPIO_PIN_ACTION(PinState));

  if (PinState != GPIO_PIN_RESET)
 8001198:	1c7b      	adds	r3, r7, #1
 800119a:	781b      	ldrb	r3, [r3, #0]
 800119c:	2b00      	cmp	r3, #0
 800119e:	d004      	beq.n	80011aa <HAL_GPIO_WritePin+0x2a>
  {
    GPIOx->BSRR = (uint32_t)GPIO_Pin;
 80011a0:	1cbb      	adds	r3, r7, #2
 80011a2:	881a      	ldrh	r2, [r3, #0]
 80011a4:	687b      	ldr	r3, [r7, #4]
 80011a6:	619a      	str	r2, [r3, #24]
  }
  else
  {
    GPIOx->BRR = (uint32_t)GPIO_Pin;
  }
}
 80011a8:	e003      	b.n	80011b2 <HAL_GPIO_WritePin+0x32>
    GPIOx->BRR = (uint32_t)GPIO_Pin;
 80011aa:	1cbb      	adds	r3, r7, #2
 80011ac:	881a      	ldrh	r2, [r3, #0]
 80011ae:	687b      	ldr	r3, [r7, #4]
 80011b0:	629a      	str	r2, [r3, #40]	; 0x28
}
 80011b2:	46c0      	nop			; (mov r8, r8)
 80011b4:	46bd      	mov	sp, r7
 80011b6:	b002      	add	sp, #8
 80011b8:	bd80      	pop	{r7, pc}

080011ba <HAL_GPIO_TogglePin>:
  * @param  GPIOx where x can be (A..F) to select the GPIO peripheral for STM32F0 family
  * @param  GPIO_Pin specifies the pin to be toggled.
  * @retval None
  */
void HAL_GPIO_TogglePin(GPIO_TypeDef* GPIOx, uint16_t GPIO_Pin)
{
 80011ba:	b580      	push	{r7, lr}
 80011bc:	b082      	sub	sp, #8
 80011be:	af00      	add	r7, sp, #0
 80011c0:	6078      	str	r0, [r7, #4]
 80011c2:	000a      	movs	r2, r1
 80011c4:	1cbb      	adds	r3, r7, #2
 80011c6:	801a      	strh	r2, [r3, #0]
  /* Check the parameters */
  assert_param(IS_GPIO_PIN(GPIO_Pin));

  if ((GPIOx->ODR & GPIO_Pin) != 0X00u)
 80011c8:	687b      	ldr	r3, [r7, #4]
 80011ca:	695b      	ldr	r3, [r3, #20]
 80011cc:	1cba      	adds	r2, r7, #2
 80011ce:	8812      	ldrh	r2, [r2, #0]
 80011d0:	4013      	ands	r3, r2
 80011d2:	d005      	beq.n	80011e0 <HAL_GPIO_TogglePin+0x26>
  {
    GPIOx->BSRR = (uint32_t)GPIO_Pin << GPIO_NUMBER;
 80011d4:	1cbb      	adds	r3, r7, #2
 80011d6:	881b      	ldrh	r3, [r3, #0]
 80011d8:	041a      	lsls	r2, r3, #16
 80011da:	687b      	ldr	r3, [r7, #4]
 80011dc:	619a      	str	r2, [r3, #24]
  }
  else
  {
    GPIOx->BSRR = (uint32_t)GPIO_Pin;
  }
}
 80011de:	e003      	b.n	80011e8 <HAL_GPIO_TogglePin+0x2e>
    GPIOx->BSRR = (uint32_t)GPIO_Pin;
 80011e0:	1cbb      	adds	r3, r7, #2
 80011e2:	881a      	ldrh	r2, [r3, #0]
 80011e4:	687b      	ldr	r3, [r7, #4]
 80011e6:	619a      	str	r2, [r3, #24]
}
 80011e8:	46c0      	nop			; (mov r8, r8)
 80011ea:	46bd      	mov	sp, r7
 80011ec:	b002      	add	sp, #8
 80011ee:	bd80      	pop	{r7, pc}

080011f0 <HAL_GPIO_EXTI_IRQHandler>:
  * @brief  Handle EXTI interrupt request.
  * @param  GPIO_Pin Specifies the port pin connected to corresponding EXTI line.
  * @retval None
  */
void HAL_GPIO_EXTI_IRQHandler(uint16_t GPIO_Pin)
{
 80011f0:	b580      	push	{r7, lr}
 80011f2:	b082      	sub	sp, #8
 80011f4:	af00      	add	r7, sp, #0
 80011f6:	0002      	movs	r2, r0
 80011f8:	1dbb      	adds	r3, r7, #6
 80011fa:	801a      	strh	r2, [r3, #0]
  /* EXTI line interrupt detected */
  if(__HAL_GPIO_EXTI_GET_IT(GPIO_Pin) != 0x00u)
 80011fc:	4b09      	ldr	r3, [pc, #36]	; (8001224 <HAL_GPIO_EXTI_IRQHandler+0x34>)
 80011fe:	695b      	ldr	r3, [r3, #20]
 8001200:	1dba      	adds	r2, r7, #6
 8001202:	8812      	ldrh	r2, [r2, #0]
 8001204:	4013      	ands	r3, r2
 8001206:	d008      	beq.n	800121a <HAL_GPIO_EXTI_IRQHandler+0x2a>
  { 
    __HAL_GPIO_EXTI_CLEAR_IT(GPIO_Pin);
 8001208:	4b06      	ldr	r3, [pc, #24]	; (8001224 <HAL_GPIO_EXTI_IRQHandler+0x34>)
 800120a:	1dba      	adds	r2, r7, #6
 800120c:	8812      	ldrh	r2, [r2, #0]
 800120e:	615a      	str	r2, [r3, #20]
    HAL_GPIO_EXTI_Callback(GPIO_Pin);
 8001210:	1dbb      	adds	r3, r7, #6
 8001212:	881b      	ldrh	r3, [r3, #0]
 8001214:	0018      	movs	r0, r3
 8001216:	f000 f807 	bl	8001228 <HAL_GPIO_EXTI_Callback>
  }
}
 800121a:	46c0      	nop			; (mov r8, r8)
 800121c:	46bd      	mov	sp, r7
 800121e:	b002      	add	sp, #8
 8001220:	bd80      	pop	{r7, pc}
 8001222:	46c0      	nop			; (mov r8, r8)
 8001224:	40010400 	.word	0x40010400

08001228 <HAL_GPIO_EXTI_Callback>:
  * @brief  EXTI line detection callback.
  * @param  GPIO_Pin Specifies the port pin connected to corresponding EXTI line.
  * @retval None
  */
__weak void HAL_GPIO_EXTI_Callback(uint16_t GPIO_Pin)
{
 8001228:	b580      	push	{r7, lr}
 800122a:	b082      	sub	sp, #8
 800122c:	af00      	add	r7, sp, #0
 800122e:	0002      	movs	r2, r0
 8001230:	1dbb      	adds	r3, r7, #6
 8001232:	801a      	strh	r2, [r3, #0]
  UNUSED(GPIO_Pin);

  /* NOTE: This function should not be modified, when the callback is needed,
            the HAL_GPIO_EXTI_Callback could be implemented in the user file
   */ 
}
 8001234:	46c0      	nop			; (mov r8, r8)
 8001236:	46bd      	mov	sp, r7
 8001238:	b002      	add	sp, #8
 800123a:	bd80      	pop	{r7, pc}

0800123c <HAL_RCC_OscConfig>:
  *         supported by this macro. User should request a transition to HSE Off
  *         first and then HSE On or HSE Bypass.
  * @retval HAL status
  */
HAL_StatusTypeDef HAL_RCC_OscConfig(RCC_OscInitTypeDef  *RCC_OscInitStruct)
{
 800123c:	b580      	push	{r7, lr}
 800123e:	b088      	sub	sp, #32
 8001240:	af00      	add	r7, sp, #0
 8001242:	6078      	str	r0, [r7, #4]
  uint32_t tickstart;
  uint32_t pll_config;
  uint32_t pll_config2;

  /* Check Null pointer */
  if(RCC_OscInitStruct == NULL)
 8001244:	687b      	ldr	r3, [r7, #4]
 8001246:	2b00      	cmp	r3, #0
 8001248:	d101      	bne.n	800124e <HAL_RCC_OscConfig+0x12>
  {
    return HAL_ERROR;
 800124a:	2301      	movs	r3, #1
 800124c:	e303      	b.n	8001856 <HAL_RCC_OscConfig+0x61a>

  /* Check the parameters */
  assert_param(IS_RCC_OSCILLATORTYPE(RCC_OscInitStruct->OscillatorType));

  /*------------------------------- HSE Configuration ------------------------*/ 
  if(((RCC_OscInitStruct->OscillatorType) & RCC_OSCILLATORTYPE_HSE) == RCC_OSCILLATORTYPE_HSE)
 800124e:	687b      	ldr	r3, [r7, #4]
 8001250:	681b      	ldr	r3, [r3, #0]
 8001252:	2201      	movs	r2, #1
 8001254:	4013      	ands	r3, r2
 8001256:	d100      	bne.n	800125a <HAL_RCC_OscConfig+0x1e>
 8001258:	e08d      	b.n	8001376 <HAL_RCC_OscConfig+0x13a>
  {
    /* Check the parameters */
    assert_param(IS_RCC_HSE(RCC_OscInitStruct->HSEState));

    /* When the HSE is used as system clock or clock source for PLL in these cases it is not allowed to be disabled */
    if((__HAL_RCC_GET_SYSCLK_SOURCE() == RCC_SYSCLKSOURCE_STATUS_HSE) 
 800125a:	4bc4      	ldr	r3, [pc, #784]	; (800156c <HAL_RCC_OscConfig+0x330>)
 800125c:	685b      	ldr	r3, [r3, #4]
 800125e:	220c      	movs	r2, #12
 8001260:	4013      	ands	r3, r2
 8001262:	2b04      	cmp	r3, #4
 8001264:	d00e      	beq.n	8001284 <HAL_RCC_OscConfig+0x48>
       || ((__HAL_RCC_GET_SYSCLK_SOURCE() == RCC_SYSCLKSOURCE_STATUS_PLLCLK) && (__HAL_RCC_GET_PLL_OSCSOURCE() == RCC_PLLSOURCE_HSE)))
 8001266:	4bc1      	ldr	r3, [pc, #772]	; (800156c <HAL_RCC_OscConfig+0x330>)
 8001268:	685b      	ldr	r3, [r3, #4]
 800126a:	220c      	movs	r2, #12
 800126c:	4013      	ands	r3, r2
 800126e:	2b08      	cmp	r3, #8
 8001270:	d116      	bne.n	80012a0 <HAL_RCC_OscConfig+0x64>
 8001272:	4bbe      	ldr	r3, [pc, #760]	; (800156c <HAL_RCC_OscConfig+0x330>)
 8001274:	685a      	ldr	r2, [r3, #4]
 8001276:	2380      	movs	r3, #128	; 0x80
 8001278:	025b      	lsls	r3, r3, #9
 800127a:	401a      	ands	r2, r3
 800127c:	2380      	movs	r3, #128	; 0x80
 800127e:	025b      	lsls	r3, r3, #9
 8001280:	429a      	cmp	r2, r3
 8001282:	d10d      	bne.n	80012a0 <HAL_RCC_OscConfig+0x64>
    {
      if((__HAL_RCC_GET_FLAG(RCC_FLAG_HSERDY) != RESET) && (RCC_OscInitStruct->HSEState == RCC_HSE_OFF))
 8001284:	4bb9      	ldr	r3, [pc, #740]	; (800156c <HAL_RCC_OscConfig+0x330>)
 8001286:	681a      	ldr	r2, [r3, #0]
 8001288:	2380      	movs	r3, #128	; 0x80
 800128a:	029b      	lsls	r3, r3, #10
 800128c:	4013      	ands	r3, r2
 800128e:	d100      	bne.n	8001292 <HAL_RCC_OscConfig+0x56>
 8001290:	e070      	b.n	8001374 <HAL_RCC_OscConfig+0x138>
 8001292:	687b      	ldr	r3, [r7, #4]
 8001294:	685b      	ldr	r3, [r3, #4]
 8001296:	2b00      	cmp	r3, #0
 8001298:	d000      	beq.n	800129c <HAL_RCC_OscConfig+0x60>
 800129a:	e06b      	b.n	8001374 <HAL_RCC_OscConfig+0x138>
      {
        return HAL_ERROR;
 800129c:	2301      	movs	r3, #1
 800129e:	e2da      	b.n	8001856 <HAL_RCC_OscConfig+0x61a>
      }
    }
    else
    {
      /* Set the new HSE configuration ---------------------------------------*/
      __HAL_RCC_HSE_CONFIG(RCC_OscInitStruct->HSEState);
 80012a0:	687b      	ldr	r3, [r7, #4]
 80012a2:	685b      	ldr	r3, [r3, #4]
 80012a4:	2b01      	cmp	r3, #1
 80012a6:	d107      	bne.n	80012b8 <HAL_RCC_OscConfig+0x7c>
 80012a8:	4bb0      	ldr	r3, [pc, #704]	; (800156c <HAL_RCC_OscConfig+0x330>)
 80012aa:	681a      	ldr	r2, [r3, #0]
 80012ac:	4baf      	ldr	r3, [pc, #700]	; (800156c <HAL_RCC_OscConfig+0x330>)
 80012ae:	2180      	movs	r1, #128	; 0x80
 80012b0:	0249      	lsls	r1, r1, #9
 80012b2:	430a      	orrs	r2, r1
 80012b4:	601a      	str	r2, [r3, #0]
 80012b6:	e02f      	b.n	8001318 <HAL_RCC_OscConfig+0xdc>
 80012b8:	687b      	ldr	r3, [r7, #4]
 80012ba:	685b      	ldr	r3, [r3, #4]
 80012bc:	2b00      	cmp	r3, #0
 80012be:	d10c      	bne.n	80012da <HAL_RCC_OscConfig+0x9e>
 80012c0:	4baa      	ldr	r3, [pc, #680]	; (800156c <HAL_RCC_OscConfig+0x330>)
 80012c2:	681a      	ldr	r2, [r3, #0]
 80012c4:	4ba9      	ldr	r3, [pc, #676]	; (800156c <HAL_RCC_OscConfig+0x330>)
 80012c6:	49aa      	ldr	r1, [pc, #680]	; (8001570 <HAL_RCC_OscConfig+0x334>)
 80012c8:	400a      	ands	r2, r1
 80012ca:	601a      	str	r2, [r3, #0]
 80012cc:	4ba7      	ldr	r3, [pc, #668]	; (800156c <HAL_RCC_OscConfig+0x330>)
 80012ce:	681a      	ldr	r2, [r3, #0]
 80012d0:	4ba6      	ldr	r3, [pc, #664]	; (800156c <HAL_RCC_OscConfig+0x330>)
 80012d2:	49a8      	ldr	r1, [pc, #672]	; (8001574 <HAL_RCC_OscConfig+0x338>)
 80012d4:	400a      	ands	r2, r1
 80012d6:	601a      	str	r2, [r3, #0]
 80012d8:	e01e      	b.n	8001318 <HAL_RCC_OscConfig+0xdc>
 80012da:	687b      	ldr	r3, [r7, #4]
 80012dc:	685b      	ldr	r3, [r3, #4]
 80012de:	2b05      	cmp	r3, #5
 80012e0:	d10e      	bne.n	8001300 <HAL_RCC_OscConfig+0xc4>
 80012e2:	4ba2      	ldr	r3, [pc, #648]	; (800156c <HAL_RCC_OscConfig+0x330>)
 80012e4:	681a      	ldr	r2, [r3, #0]
 80012e6:	4ba1      	ldr	r3, [pc, #644]	; (800156c <HAL_RCC_OscConfig+0x330>)
 80012e8:	2180      	movs	r1, #128	; 0x80
 80012ea:	02c9      	lsls	r1, r1, #11
 80012ec:	430a      	orrs	r2, r1
 80012ee:	601a      	str	r2, [r3, #0]
 80012f0:	4b9e      	ldr	r3, [pc, #632]	; (800156c <HAL_RCC_OscConfig+0x330>)
 80012f2:	681a      	ldr	r2, [r3, #0]
 80012f4:	4b9d      	ldr	r3, [pc, #628]	; (800156c <HAL_RCC_OscConfig+0x330>)
 80012f6:	2180      	movs	r1, #128	; 0x80
 80012f8:	0249      	lsls	r1, r1, #9
 80012fa:	430a      	orrs	r2, r1
 80012fc:	601a      	str	r2, [r3, #0]
 80012fe:	e00b      	b.n	8001318 <HAL_RCC_OscConfig+0xdc>
 8001300:	4b9a      	ldr	r3, [pc, #616]	; (800156c <HAL_RCC_OscConfig+0x330>)
 8001302:	681a      	ldr	r2, [r3, #0]
 8001304:	4b99      	ldr	r3, [pc, #612]	; (800156c <HAL_RCC_OscConfig+0x330>)
 8001306:	499a      	ldr	r1, [pc, #616]	; (8001570 <HAL_RCC_OscConfig+0x334>)
 8001308:	400a      	ands	r2, r1
 800130a:	601a      	str	r2, [r3, #0]
 800130c:	4b97      	ldr	r3, [pc, #604]	; (800156c <HAL_RCC_OscConfig+0x330>)
 800130e:	681a      	ldr	r2, [r3, #0]
 8001310:	4b96      	ldr	r3, [pc, #600]	; (800156c <HAL_RCC_OscConfig+0x330>)
 8001312:	4998      	ldr	r1, [pc, #608]	; (8001574 <HAL_RCC_OscConfig+0x338>)
 8001314:	400a      	ands	r2, r1
 8001316:	601a      	str	r2, [r3, #0]
      

       /* Check the HSE State */
      if(RCC_OscInitStruct->HSEState != RCC_HSE_OFF)
 8001318:	687b      	ldr	r3, [r7, #4]
 800131a:	685b      	ldr	r3, [r3, #4]
 800131c:	2b00      	cmp	r3, #0
 800131e:	d014      	beq.n	800134a <HAL_RCC_OscConfig+0x10e>
      {
        /* Get Start Tick */
        tickstart = HAL_GetTick();
 8001320:	f7ff fcd6 	bl	8000cd0 <HAL_GetTick>
 8001324:	0003      	movs	r3, r0
 8001326:	61bb      	str	r3, [r7, #24]
        
        /* Wait till HSE is ready */
        while(__HAL_RCC_GET_FLAG(RCC_FLAG_HSERDY) == RESET)
 8001328:	e008      	b.n	800133c <HAL_RCC_OscConfig+0x100>
        {
          if((HAL_GetTick() - tickstart ) > HSE_TIMEOUT_VALUE)
 800132a:	f7ff fcd1 	bl	8000cd0 <HAL_GetTick>
 800132e:	0002      	movs	r2, r0
 8001330:	69bb      	ldr	r3, [r7, #24]
 8001332:	1ad3      	subs	r3, r2, r3
 8001334:	2b64      	cmp	r3, #100	; 0x64
 8001336:	d901      	bls.n	800133c <HAL_RCC_OscConfig+0x100>
          {
            return HAL_TIMEOUT;
 8001338:	2303      	movs	r3, #3
 800133a:	e28c      	b.n	8001856 <HAL_RCC_OscConfig+0x61a>
        while(__HAL_RCC_GET_FLAG(RCC_FLAG_HSERDY) == RESET)
 800133c:	4b8b      	ldr	r3, [pc, #556]	; (800156c <HAL_RCC_OscConfig+0x330>)
 800133e:	681a      	ldr	r2, [r3, #0]
 8001340:	2380      	movs	r3, #128	; 0x80
 8001342:	029b      	lsls	r3, r3, #10
 8001344:	4013      	ands	r3, r2
 8001346:	d0f0      	beq.n	800132a <HAL_RCC_OscConfig+0xee>
 8001348:	e015      	b.n	8001376 <HAL_RCC_OscConfig+0x13a>
        }
      }
      else
      {
        /* Get Start Tick */
        tickstart = HAL_GetTick();
 800134a:	f7ff fcc1 	bl	8000cd0 <HAL_GetTick>
 800134e:	0003      	movs	r3, r0
 8001350:	61bb      	str	r3, [r7, #24]
        
        /* Wait till HSE is disabled */
        while(__HAL_RCC_GET_FLAG(RCC_FLAG_HSERDY) != RESET)
 8001352:	e008      	b.n	8001366 <HAL_RCC_OscConfig+0x12a>
        {
           if((HAL_GetTick() - tickstart ) > HSE_TIMEOUT_VALUE)
 8001354:	f7ff fcbc 	bl	8000cd0 <HAL_GetTick>
 8001358:	0002      	movs	r2, r0
 800135a:	69bb      	ldr	r3, [r7, #24]
 800135c:	1ad3      	subs	r3, r2, r3
 800135e:	2b64      	cmp	r3, #100	; 0x64
 8001360:	d901      	bls.n	8001366 <HAL_RCC_OscConfig+0x12a>
          {
            return HAL_TIMEOUT;
 8001362:	2303      	movs	r3, #3
 8001364:	e277      	b.n	8001856 <HAL_RCC_OscConfig+0x61a>
        while(__HAL_RCC_GET_FLAG(RCC_FLAG_HSERDY) != RESET)
 8001366:	4b81      	ldr	r3, [pc, #516]	; (800156c <HAL_RCC_OscConfig+0x330>)
 8001368:	681a      	ldr	r2, [r3, #0]
 800136a:	2380      	movs	r3, #128	; 0x80
 800136c:	029b      	lsls	r3, r3, #10
 800136e:	4013      	ands	r3, r2
 8001370:	d1f0      	bne.n	8001354 <HAL_RCC_OscConfig+0x118>
 8001372:	e000      	b.n	8001376 <HAL_RCC_OscConfig+0x13a>
      if((__HAL_RCC_GET_FLAG(RCC_FLAG_HSERDY) != RESET) && (RCC_OscInitStruct->HSEState == RCC_HSE_OFF))
 8001374:	46c0      	nop			; (mov r8, r8)
        }
      }
    }
  }
  /*----------------------------- HSI Configuration --------------------------*/ 
  if(((RCC_OscInitStruct->OscillatorType) & RCC_OSCILLATORTYPE_HSI) == RCC_OSCILLATORTYPE_HSI)
 8001376:	687b      	ldr	r3, [r7, #4]
 8001378:	681b      	ldr	r3, [r3, #0]
 800137a:	2202      	movs	r2, #2
 800137c:	4013      	ands	r3, r2
 800137e:	d100      	bne.n	8001382 <HAL_RCC_OscConfig+0x146>
 8001380:	e069      	b.n	8001456 <HAL_RCC_OscConfig+0x21a>
    /* Check the parameters */
    assert_param(IS_RCC_HSI(RCC_OscInitStruct->HSIState));
    assert_param(IS_RCC_CALIBRATION_VALUE(RCC_OscInitStruct->HSICalibrationValue));
    
    /* Check if HSI is used as system clock or as PLL source when PLL is selected as system clock */ 
    if((__HAL_RCC_GET_SYSCLK_SOURCE() == RCC_SYSCLKSOURCE_STATUS_HSI) 
 8001382:	4b7a      	ldr	r3, [pc, #488]	; (800156c <HAL_RCC_OscConfig+0x330>)
 8001384:	685b      	ldr	r3, [r3, #4]
 8001386:	220c      	movs	r2, #12
 8001388:	4013      	ands	r3, r2
 800138a:	d00b      	beq.n	80013a4 <HAL_RCC_OscConfig+0x168>
       || ((__HAL_RCC_GET_SYSCLK_SOURCE() == RCC_SYSCLKSOURCE_STATUS_PLLCLK) && (__HAL_RCC_GET_PLL_OSCSOURCE() == RCC_PLLSOURCE_HSI)))
 800138c:	4b77      	ldr	r3, [pc, #476]	; (800156c <HAL_RCC_OscConfig+0x330>)
 800138e:	685b      	ldr	r3, [r3, #4]
 8001390:	220c      	movs	r2, #12
 8001392:	4013      	ands	r3, r2
 8001394:	2b08      	cmp	r3, #8
 8001396:	d11c      	bne.n	80013d2 <HAL_RCC_OscConfig+0x196>
 8001398:	4b74      	ldr	r3, [pc, #464]	; (800156c <HAL_RCC_OscConfig+0x330>)
 800139a:	685a      	ldr	r2, [r3, #4]
 800139c:	2380      	movs	r3, #128	; 0x80
 800139e:	025b      	lsls	r3, r3, #9
 80013a0:	4013      	ands	r3, r2
 80013a2:	d116      	bne.n	80013d2 <HAL_RCC_OscConfig+0x196>
    {
      /* When HSI is used as system clock it will not disabled */
      if((__HAL_RCC_GET_FLAG(RCC_FLAG_HSIRDY) != RESET) && (RCC_OscInitStruct->HSIState != RCC_HSI_ON))
 80013a4:	4b71      	ldr	r3, [pc, #452]	; (800156c <HAL_RCC_OscConfig+0x330>)
 80013a6:	681b      	ldr	r3, [r3, #0]
 80013a8:	2202      	movs	r2, #2
 80013aa:	4013      	ands	r3, r2
 80013ac:	d005      	beq.n	80013ba <HAL_RCC_OscConfig+0x17e>
 80013ae:	687b      	ldr	r3, [r7, #4]
 80013b0:	68db      	ldr	r3, [r3, #12]
 80013b2:	2b01      	cmp	r3, #1
 80013b4:	d001      	beq.n	80013ba <HAL_RCC_OscConfig+0x17e>
      {
        return HAL_ERROR;
 80013b6:	2301      	movs	r3, #1
 80013b8:	e24d      	b.n	8001856 <HAL_RCC_OscConfig+0x61a>
      }
      /* Otherwise, just the calibration is allowed */
      else
      {
        /* Adjusts the Internal High Speed oscillator (HSI) calibration value.*/
        __HAL_RCC_HSI_CALIBRATIONVALUE_ADJUST(RCC_OscInitStruct->HSICalibrationValue);
 80013ba:	4b6c      	ldr	r3, [pc, #432]	; (800156c <HAL_RCC_OscConfig+0x330>)
 80013bc:	681b      	ldr	r3, [r3, #0]
 80013be:	22f8      	movs	r2, #248	; 0xf8
 80013c0:	4393      	bics	r3, r2
 80013c2:	0019      	movs	r1, r3
 80013c4:	687b      	ldr	r3, [r7, #4]
 80013c6:	691b      	ldr	r3, [r3, #16]
 80013c8:	00da      	lsls	r2, r3, #3
 80013ca:	4b68      	ldr	r3, [pc, #416]	; (800156c <HAL_RCC_OscConfig+0x330>)
 80013cc:	430a      	orrs	r2, r1
 80013ce:	601a      	str	r2, [r3, #0]
      if((__HAL_RCC_GET_FLAG(RCC_FLAG_HSIRDY) != RESET) && (RCC_OscInitStruct->HSIState != RCC_HSI_ON))
 80013d0:	e041      	b.n	8001456 <HAL_RCC_OscConfig+0x21a>
      }
    }
    else
    {
      /* Check the HSI State */
      if(RCC_OscInitStruct->HSIState != RCC_HSI_OFF)
 80013d2:	687b      	ldr	r3, [r7, #4]
 80013d4:	68db      	ldr	r3, [r3, #12]
 80013d6:	2b00      	cmp	r3, #0
 80013d8:	d024      	beq.n	8001424 <HAL_RCC_OscConfig+0x1e8>
      {
       /* Enable the Internal High Speed oscillator (HSI). */
        __HAL_RCC_HSI_ENABLE();
 80013da:	4b64      	ldr	r3, [pc, #400]	; (800156c <HAL_RCC_OscConfig+0x330>)
 80013dc:	681a      	ldr	r2, [r3, #0]
 80013de:	4b63      	ldr	r3, [pc, #396]	; (800156c <HAL_RCC_OscConfig+0x330>)
 80013e0:	2101      	movs	r1, #1
 80013e2:	430a      	orrs	r2, r1
 80013e4:	601a      	str	r2, [r3, #0]
        
        /* Get Start Tick */
        tickstart = HAL_GetTick();
 80013e6:	f7ff fc73 	bl	8000cd0 <HAL_GetTick>
 80013ea:	0003      	movs	r3, r0
 80013ec:	61bb      	str	r3, [r7, #24]
        
        /* Wait till HSI is ready */
        while(__HAL_RCC_GET_FLAG(RCC_FLAG_HSIRDY) == RESET)
 80013ee:	e008      	b.n	8001402 <HAL_RCC_OscConfig+0x1c6>
        {
          if((HAL_GetTick() - tickstart ) > HSI_TIMEOUT_VALUE)
 80013f0:	f7ff fc6e 	bl	8000cd0 <HAL_GetTick>
 80013f4:	0002      	movs	r2, r0
 80013f6:	69bb      	ldr	r3, [r7, #24]
 80013f8:	1ad3      	subs	r3, r2, r3
 80013fa:	2b02      	cmp	r3, #2
 80013fc:	d901      	bls.n	8001402 <HAL_RCC_OscConfig+0x1c6>
          {
            return HAL_TIMEOUT;
 80013fe:	2303      	movs	r3, #3
 8001400:	e229      	b.n	8001856 <HAL_RCC_OscConfig+0x61a>
        while(__HAL_RCC_GET_FLAG(RCC_FLAG_HSIRDY) == RESET)
 8001402:	4b5a      	ldr	r3, [pc, #360]	; (800156c <HAL_RCC_OscConfig+0x330>)
 8001404:	681b      	ldr	r3, [r3, #0]
 8001406:	2202      	movs	r2, #2
 8001408:	4013      	ands	r3, r2
 800140a:	d0f1      	beq.n	80013f0 <HAL_RCC_OscConfig+0x1b4>
          }
        }
                
        /* Adjusts the Internal High Speed oscillator (HSI) calibration value.*/
        __HAL_RCC_HSI_CALIBRATIONVALUE_ADJUST(RCC_OscInitStruct->HSICalibrationValue);
 800140c:	4b57      	ldr	r3, [pc, #348]	; (800156c <HAL_RCC_OscConfig+0x330>)
 800140e:	681b      	ldr	r3, [r3, #0]
 8001410:	22f8      	movs	r2, #248	; 0xf8
 8001412:	4393      	bics	r3, r2
 8001414:	0019      	movs	r1, r3
 8001416:	687b      	ldr	r3, [r7, #4]
 8001418:	691b      	ldr	r3, [r3, #16]
 800141a:	00da      	lsls	r2, r3, #3
 800141c:	4b53      	ldr	r3, [pc, #332]	; (800156c <HAL_RCC_OscConfig+0x330>)
 800141e:	430a      	orrs	r2, r1
 8001420:	601a      	str	r2, [r3, #0]
 8001422:	e018      	b.n	8001456 <HAL_RCC_OscConfig+0x21a>
      }
      else
      {
        /* Disable the Internal High Speed oscillator (HSI). */
        __HAL_RCC_HSI_DISABLE();
 8001424:	4b51      	ldr	r3, [pc, #324]	; (800156c <HAL_RCC_OscConfig+0x330>)
 8001426:	681a      	ldr	r2, [r3, #0]
 8001428:	4b50      	ldr	r3, [pc, #320]	; (800156c <HAL_RCC_OscConfig+0x330>)
 800142a:	2101      	movs	r1, #1
 800142c:	438a      	bics	r2, r1
 800142e:	601a      	str	r2, [r3, #0]
        
        /* Get Start Tick */
        tickstart = HAL_GetTick();
 8001430:	f7ff fc4e 	bl	8000cd0 <HAL_GetTick>
 8001434:	0003      	movs	r3, r0
 8001436:	61bb      	str	r3, [r7, #24]
        
        /* Wait till HSI is disabled */
        while(__HAL_RCC_GET_FLAG(RCC_FLAG_HSIRDY) != RESET)
 8001438:	e008      	b.n	800144c <HAL_RCC_OscConfig+0x210>
        {
          if((HAL_GetTick() - tickstart ) > HSI_TIMEOUT_VALUE)
 800143a:	f7ff fc49 	bl	8000cd0 <HAL_GetTick>
 800143e:	0002      	movs	r2, r0
 8001440:	69bb      	ldr	r3, [r7, #24]
 8001442:	1ad3      	subs	r3, r2, r3
 8001444:	2b02      	cmp	r3, #2
 8001446:	d901      	bls.n	800144c <HAL_RCC_OscConfig+0x210>
          {
            return HAL_TIMEOUT;
 8001448:	2303      	movs	r3, #3
 800144a:	e204      	b.n	8001856 <HAL_RCC_OscConfig+0x61a>
        while(__HAL_RCC_GET_FLAG(RCC_FLAG_HSIRDY) != RESET)
 800144c:	4b47      	ldr	r3, [pc, #284]	; (800156c <HAL_RCC_OscConfig+0x330>)
 800144e:	681b      	ldr	r3, [r3, #0]
 8001450:	2202      	movs	r2, #2
 8001452:	4013      	ands	r3, r2
 8001454:	d1f1      	bne.n	800143a <HAL_RCC_OscConfig+0x1fe>
        }
      }
    }
  }
  /*------------------------------ LSI Configuration -------------------------*/ 
  if(((RCC_OscInitStruct->OscillatorType) & RCC_OSCILLATORTYPE_LSI) == RCC_OSCILLATORTYPE_LSI)
 8001456:	687b      	ldr	r3, [r7, #4]
 8001458:	681b      	ldr	r3, [r3, #0]
 800145a:	2208      	movs	r2, #8
 800145c:	4013      	ands	r3, r2
 800145e:	d036      	beq.n	80014ce <HAL_RCC_OscConfig+0x292>
  {
    /* Check the parameters */
    assert_param(IS_RCC_LSI(RCC_OscInitStruct->LSIState));
    
    /* Check the LSI State */
    if(RCC_OscInitStruct->LSIState != RCC_LSI_OFF)
 8001460:	687b      	ldr	r3, [r7, #4]
 8001462:	69db      	ldr	r3, [r3, #28]
 8001464:	2b00      	cmp	r3, #0
 8001466:	d019      	beq.n	800149c <HAL_RCC_OscConfig+0x260>
    {
      /* Enable the Internal Low Speed oscillator (LSI). */
      __HAL_RCC_LSI_ENABLE();
 8001468:	4b40      	ldr	r3, [pc, #256]	; (800156c <HAL_RCC_OscConfig+0x330>)
 800146a:	6a5a      	ldr	r2, [r3, #36]	; 0x24
 800146c:	4b3f      	ldr	r3, [pc, #252]	; (800156c <HAL_RCC_OscConfig+0x330>)
 800146e:	2101      	movs	r1, #1
 8001470:	430a      	orrs	r2, r1
 8001472:	625a      	str	r2, [r3, #36]	; 0x24
      
      /* Get Start Tick */
      tickstart = HAL_GetTick();
 8001474:	f7ff fc2c 	bl	8000cd0 <HAL_GetTick>
 8001478:	0003      	movs	r3, r0
 800147a:	61bb      	str	r3, [r7, #24]
      
      /* Wait till LSI is ready */  
      while(__HAL_RCC_GET_FLAG(RCC_FLAG_LSIRDY) == RESET)
 800147c:	e008      	b.n	8001490 <HAL_RCC_OscConfig+0x254>
      {
        if((HAL_GetTick() - tickstart ) > LSI_TIMEOUT_VALUE)
 800147e:	f7ff fc27 	bl	8000cd0 <HAL_GetTick>
 8001482:	0002      	movs	r2, r0
 8001484:	69bb      	ldr	r3, [r7, #24]
 8001486:	1ad3      	subs	r3, r2, r3
 8001488:	2b02      	cmp	r3, #2
 800148a:	d901      	bls.n	8001490 <HAL_RCC_OscConfig+0x254>
        {
          return HAL_TIMEOUT;
 800148c:	2303      	movs	r3, #3
 800148e:	e1e2      	b.n	8001856 <HAL_RCC_OscConfig+0x61a>
      while(__HAL_RCC_GET_FLAG(RCC_FLAG_LSIRDY) == RESET)
 8001490:	4b36      	ldr	r3, [pc, #216]	; (800156c <HAL_RCC_OscConfig+0x330>)
 8001492:	6a5b      	ldr	r3, [r3, #36]	; 0x24
 8001494:	2202      	movs	r2, #2
 8001496:	4013      	ands	r3, r2
 8001498:	d0f1      	beq.n	800147e <HAL_RCC_OscConfig+0x242>
 800149a:	e018      	b.n	80014ce <HAL_RCC_OscConfig+0x292>
      }
    }
    else
    {
      /* Disable the Internal Low Speed oscillator (LSI). */
      __HAL_RCC_LSI_DISABLE();
 800149c:	4b33      	ldr	r3, [pc, #204]	; (800156c <HAL_RCC_OscConfig+0x330>)
 800149e:	6a5a      	ldr	r2, [r3, #36]	; 0x24
 80014a0:	4b32      	ldr	r3, [pc, #200]	; (800156c <HAL_RCC_OscConfig+0x330>)
 80014a2:	2101      	movs	r1, #1
 80014a4:	438a      	bics	r2, r1
 80014a6:	625a      	str	r2, [r3, #36]	; 0x24
      
      /* Get Start Tick */
      tickstart = HAL_GetTick();
 80014a8:	f7ff fc12 	bl	8000cd0 <HAL_GetTick>
 80014ac:	0003      	movs	r3, r0
 80014ae:	61bb      	str	r3, [r7, #24]
      
      /* Wait till LSI is disabled */  
      while(__HAL_RCC_GET_FLAG(RCC_FLAG_LSIRDY) != RESET)
 80014b0:	e008      	b.n	80014c4 <HAL_RCC_OscConfig+0x288>
      {
        if((HAL_GetTick() - tickstart ) > LSI_TIMEOUT_VALUE)
 80014b2:	f7ff fc0d 	bl	8000cd0 <HAL_GetTick>
 80014b6:	0002      	movs	r2, r0
 80014b8:	69bb      	ldr	r3, [r7, #24]
 80014ba:	1ad3      	subs	r3, r2, r3
 80014bc:	2b02      	cmp	r3, #2
 80014be:	d901      	bls.n	80014c4 <HAL_RCC_OscConfig+0x288>
        {
          return HAL_TIMEOUT;
 80014c0:	2303      	movs	r3, #3
 80014c2:	e1c8      	b.n	8001856 <HAL_RCC_OscConfig+0x61a>
      while(__HAL_RCC_GET_FLAG(RCC_FLAG_LSIRDY) != RESET)
 80014c4:	4b29      	ldr	r3, [pc, #164]	; (800156c <HAL_RCC_OscConfig+0x330>)
 80014c6:	6a5b      	ldr	r3, [r3, #36]	; 0x24
 80014c8:	2202      	movs	r2, #2
 80014ca:	4013      	ands	r3, r2
 80014cc:	d1f1      	bne.n	80014b2 <HAL_RCC_OscConfig+0x276>
        }
      }
    }
  }
  /*------------------------------ LSE Configuration -------------------------*/ 
  if(((RCC_OscInitStruct->OscillatorType) & RCC_OSCILLATORTYPE_LSE) == RCC_OSCILLATORTYPE_LSE)
 80014ce:	687b      	ldr	r3, [r7, #4]
 80014d0:	681b      	ldr	r3, [r3, #0]
 80014d2:	2204      	movs	r2, #4
 80014d4:	4013      	ands	r3, r2
 80014d6:	d100      	bne.n	80014da <HAL_RCC_OscConfig+0x29e>
 80014d8:	e0b6      	b.n	8001648 <HAL_RCC_OscConfig+0x40c>
  {
    FlagStatus       pwrclkchanged = RESET;
 80014da:	231f      	movs	r3, #31
 80014dc:	18fb      	adds	r3, r7, r3
 80014de:	2200      	movs	r2, #0
 80014e0:	701a      	strb	r2, [r3, #0]
    /* Check the parameters */
    assert_param(IS_RCC_LSE(RCC_OscInitStruct->LSEState));

    /* Update LSE configuration in Backup Domain control register    */
    /* Requires to enable write access to Backup Domain of necessary */
    if(__HAL_RCC_PWR_IS_CLK_DISABLED())
 80014e2:	4b22      	ldr	r3, [pc, #136]	; (800156c <HAL_RCC_OscConfig+0x330>)
 80014e4:	69da      	ldr	r2, [r3, #28]
 80014e6:	2380      	movs	r3, #128	; 0x80
 80014e8:	055b      	lsls	r3, r3, #21
 80014ea:	4013      	ands	r3, r2
 80014ec:	d111      	bne.n	8001512 <HAL_RCC_OscConfig+0x2d6>
    {
      __HAL_RCC_PWR_CLK_ENABLE();
 80014ee:	4b1f      	ldr	r3, [pc, #124]	; (800156c <HAL_RCC_OscConfig+0x330>)
 80014f0:	69da      	ldr	r2, [r3, #28]
 80014f2:	4b1e      	ldr	r3, [pc, #120]	; (800156c <HAL_RCC_OscConfig+0x330>)
 80014f4:	2180      	movs	r1, #128	; 0x80
 80014f6:	0549      	lsls	r1, r1, #21
 80014f8:	430a      	orrs	r2, r1
 80014fa:	61da      	str	r2, [r3, #28]
 80014fc:	4b1b      	ldr	r3, [pc, #108]	; (800156c <HAL_RCC_OscConfig+0x330>)
 80014fe:	69da      	ldr	r2, [r3, #28]
 8001500:	2380      	movs	r3, #128	; 0x80
 8001502:	055b      	lsls	r3, r3, #21
 8001504:	4013      	ands	r3, r2
 8001506:	60fb      	str	r3, [r7, #12]
 8001508:	68fb      	ldr	r3, [r7, #12]
      pwrclkchanged = SET;
 800150a:	231f      	movs	r3, #31
 800150c:	18fb      	adds	r3, r7, r3
 800150e:	2201      	movs	r2, #1
 8001510:	701a      	strb	r2, [r3, #0]
    }
    
    if(HAL_IS_BIT_CLR(PWR->CR, PWR_CR_DBP))
 8001512:	4b19      	ldr	r3, [pc, #100]	; (8001578 <HAL_RCC_OscConfig+0x33c>)
 8001514:	681a      	ldr	r2, [r3, #0]
 8001516:	2380      	movs	r3, #128	; 0x80
 8001518:	005b      	lsls	r3, r3, #1
 800151a:	4013      	ands	r3, r2
 800151c:	d11a      	bne.n	8001554 <HAL_RCC_OscConfig+0x318>
    {
      /* Enable write access to Backup domain */
      SET_BIT(PWR->CR, PWR_CR_DBP);
 800151e:	4b16      	ldr	r3, [pc, #88]	; (8001578 <HAL_RCC_OscConfig+0x33c>)
 8001520:	681a      	ldr	r2, [r3, #0]
 8001522:	4b15      	ldr	r3, [pc, #84]	; (8001578 <HAL_RCC_OscConfig+0x33c>)
 8001524:	2180      	movs	r1, #128	; 0x80
 8001526:	0049      	lsls	r1, r1, #1
 8001528:	430a      	orrs	r2, r1
 800152a:	601a      	str	r2, [r3, #0]
      
      /* Wait for Backup domain Write protection disable */
      tickstart = HAL_GetTick();
 800152c:	f7ff fbd0 	bl	8000cd0 <HAL_GetTick>
 8001530:	0003      	movs	r3, r0
 8001532:	61bb      	str	r3, [r7, #24]

      while(HAL_IS_BIT_CLR(PWR->CR, PWR_CR_DBP))
 8001534:	e008      	b.n	8001548 <HAL_RCC_OscConfig+0x30c>
      {
        if((HAL_GetTick() - tickstart) > RCC_DBP_TIMEOUT_VALUE)
 8001536:	f7ff fbcb 	bl	8000cd0 <HAL_GetTick>
 800153a:	0002      	movs	r2, r0
 800153c:	69bb      	ldr	r3, [r7, #24]
 800153e:	1ad3      	subs	r3, r2, r3
 8001540:	2b64      	cmp	r3, #100	; 0x64
 8001542:	d901      	bls.n	8001548 <HAL_RCC_OscConfig+0x30c>
        {
          return HAL_TIMEOUT;
 8001544:	2303      	movs	r3, #3
 8001546:	e186      	b.n	8001856 <HAL_RCC_OscConfig+0x61a>
      while(HAL_IS_BIT_CLR(PWR->CR, PWR_CR_DBP))
 8001548:	4b0b      	ldr	r3, [pc, #44]	; (8001578 <HAL_RCC_OscConfig+0x33c>)
 800154a:	681a      	ldr	r2, [r3, #0]
 800154c:	2380      	movs	r3, #128	; 0x80
 800154e:	005b      	lsls	r3, r3, #1
 8001550:	4013      	ands	r3, r2
 8001552:	d0f0      	beq.n	8001536 <HAL_RCC_OscConfig+0x2fa>
        }
      }
    }

    /* Set the new LSE configuration -----------------------------------------*/
    __HAL_RCC_LSE_CONFIG(RCC_OscInitStruct->LSEState);
 8001554:	687b      	ldr	r3, [r7, #4]
 8001556:	689b      	ldr	r3, [r3, #8]
 8001558:	2b01      	cmp	r3, #1
 800155a:	d10f      	bne.n	800157c <HAL_RCC_OscConfig+0x340>
 800155c:	4b03      	ldr	r3, [pc, #12]	; (800156c <HAL_RCC_OscConfig+0x330>)
 800155e:	6a1a      	ldr	r2, [r3, #32]
 8001560:	4b02      	ldr	r3, [pc, #8]	; (800156c <HAL_RCC_OscConfig+0x330>)
 8001562:	2101      	movs	r1, #1
 8001564:	430a      	orrs	r2, r1
 8001566:	621a      	str	r2, [r3, #32]
 8001568:	e036      	b.n	80015d8 <HAL_RCC_OscConfig+0x39c>
 800156a:	46c0      	nop			; (mov r8, r8)
 800156c:	40021000 	.word	0x40021000
 8001570:	fffeffff 	.word	0xfffeffff
 8001574:	fffbffff 	.word	0xfffbffff
 8001578:	40007000 	.word	0x40007000
 800157c:	687b      	ldr	r3, [r7, #4]
 800157e:	689b      	ldr	r3, [r3, #8]
 8001580:	2b00      	cmp	r3, #0
 8001582:	d10c      	bne.n	800159e <HAL_RCC_OscConfig+0x362>
 8001584:	4bb6      	ldr	r3, [pc, #728]	; (8001860 <HAL_RCC_OscConfig+0x624>)
 8001586:	6a1a      	ldr	r2, [r3, #32]
 8001588:	4bb5      	ldr	r3, [pc, #724]	; (8001860 <HAL_RCC_OscConfig+0x624>)
 800158a:	2101      	movs	r1, #1
 800158c:	438a      	bics	r2, r1
 800158e:	621a      	str	r2, [r3, #32]
 8001590:	4bb3      	ldr	r3, [pc, #716]	; (8001860 <HAL_RCC_OscConfig+0x624>)
 8001592:	6a1a      	ldr	r2, [r3, #32]
 8001594:	4bb2      	ldr	r3, [pc, #712]	; (8001860 <HAL_RCC_OscConfig+0x624>)
 8001596:	2104      	movs	r1, #4
 8001598:	438a      	bics	r2, r1
 800159a:	621a      	str	r2, [r3, #32]
 800159c:	e01c      	b.n	80015d8 <HAL_RCC_OscConfig+0x39c>
 800159e:	687b      	ldr	r3, [r7, #4]
 80015a0:	689b      	ldr	r3, [r3, #8]
 80015a2:	2b05      	cmp	r3, #5
 80015a4:	d10c      	bne.n	80015c0 <HAL_RCC_OscConfig+0x384>
 80015a6:	4bae      	ldr	r3, [pc, #696]	; (8001860 <HAL_RCC_OscConfig+0x624>)
 80015a8:	6a1a      	ldr	r2, [r3, #32]
 80015aa:	4bad      	ldr	r3, [pc, #692]	; (8001860 <HAL_RCC_OscConfig+0x624>)
 80015ac:	2104      	movs	r1, #4
 80015ae:	430a      	orrs	r2, r1
 80015b0:	621a      	str	r2, [r3, #32]
 80015b2:	4bab      	ldr	r3, [pc, #684]	; (8001860 <HAL_RCC_OscConfig+0x624>)
 80015b4:	6a1a      	ldr	r2, [r3, #32]
 80015b6:	4baa      	ldr	r3, [pc, #680]	; (8001860 <HAL_RCC_OscConfig+0x624>)
 80015b8:	2101      	movs	r1, #1
 80015ba:	430a      	orrs	r2, r1
 80015bc:	621a      	str	r2, [r3, #32]
 80015be:	e00b      	b.n	80015d8 <HAL_RCC_OscConfig+0x39c>
 80015c0:	4ba7      	ldr	r3, [pc, #668]	; (8001860 <HAL_RCC_OscConfig+0x624>)
 80015c2:	6a1a      	ldr	r2, [r3, #32]
 80015c4:	4ba6      	ldr	r3, [pc, #664]	; (8001860 <HAL_RCC_OscConfig+0x624>)
 80015c6:	2101      	movs	r1, #1
 80015c8:	438a      	bics	r2, r1
 80015ca:	621a      	str	r2, [r3, #32]
 80015cc:	4ba4      	ldr	r3, [pc, #656]	; (8001860 <HAL_RCC_OscConfig+0x624>)
 80015ce:	6a1a      	ldr	r2, [r3, #32]
 80015d0:	4ba3      	ldr	r3, [pc, #652]	; (8001860 <HAL_RCC_OscConfig+0x624>)
 80015d2:	2104      	movs	r1, #4
 80015d4:	438a      	bics	r2, r1
 80015d6:	621a      	str	r2, [r3, #32]
    /* Check the LSE State */
    if(RCC_OscInitStruct->LSEState != RCC_LSE_OFF)
 80015d8:	687b      	ldr	r3, [r7, #4]
 80015da:	689b      	ldr	r3, [r3, #8]
 80015dc:	2b00      	cmp	r3, #0
 80015de:	d014      	beq.n	800160a <HAL_RCC_OscConfig+0x3ce>
    {
      /* Get Start Tick */
      tickstart = HAL_GetTick();
 80015e0:	f7ff fb76 	bl	8000cd0 <HAL_GetTick>
 80015e4:	0003      	movs	r3, r0
 80015e6:	61bb      	str	r3, [r7, #24]
      
      /* Wait till LSE is ready */  
      while(__HAL_RCC_GET_FLAG(RCC_FLAG_LSERDY) == RESET)
 80015e8:	e009      	b.n	80015fe <HAL_RCC_OscConfig+0x3c2>
      {
        if((HAL_GetTick() - tickstart ) > RCC_LSE_TIMEOUT_VALUE)
 80015ea:	f7ff fb71 	bl	8000cd0 <HAL_GetTick>
 80015ee:	0002      	movs	r2, r0
 80015f0:	69bb      	ldr	r3, [r7, #24]
 80015f2:	1ad3      	subs	r3, r2, r3
 80015f4:	4a9b      	ldr	r2, [pc, #620]	; (8001864 <HAL_RCC_OscConfig+0x628>)
 80015f6:	4293      	cmp	r3, r2
 80015f8:	d901      	bls.n	80015fe <HAL_RCC_OscConfig+0x3c2>
        {
          return HAL_TIMEOUT;
 80015fa:	2303      	movs	r3, #3
 80015fc:	e12b      	b.n	8001856 <HAL_RCC_OscConfig+0x61a>
      while(__HAL_RCC_GET_FLAG(RCC_FLAG_LSERDY) == RESET)
 80015fe:	4b98      	ldr	r3, [pc, #608]	; (8001860 <HAL_RCC_OscConfig+0x624>)
 8001600:	6a1b      	ldr	r3, [r3, #32]
 8001602:	2202      	movs	r2, #2
 8001604:	4013      	ands	r3, r2
 8001606:	d0f0      	beq.n	80015ea <HAL_RCC_OscConfig+0x3ae>
 8001608:	e013      	b.n	8001632 <HAL_RCC_OscConfig+0x3f6>
      }
    }
    else
    {
      /* Get Start Tick */
      tickstart = HAL_GetTick();
 800160a:	f7ff fb61 	bl	8000cd0 <HAL_GetTick>
 800160e:	0003      	movs	r3, r0
 8001610:	61bb      	str	r3, [r7, #24]
      
      /* Wait till LSE is disabled */  
      while(__HAL_RCC_GET_FLAG(RCC_FLAG_LSERDY) != RESET)
 8001612:	e009      	b.n	8001628 <HAL_RCC_OscConfig+0x3ec>
      {
        if((HAL_GetTick() - tickstart ) > RCC_LSE_TIMEOUT_VALUE)
 8001614:	f7ff fb5c 	bl	8000cd0 <HAL_GetTick>
 8001618:	0002      	movs	r2, r0
 800161a:	69bb      	ldr	r3, [r7, #24]
 800161c:	1ad3      	subs	r3, r2, r3
 800161e:	4a91      	ldr	r2, [pc, #580]	; (8001864 <HAL_RCC_OscConfig+0x628>)
 8001620:	4293      	cmp	r3, r2
 8001622:	d901      	bls.n	8001628 <HAL_RCC_OscConfig+0x3ec>
        {
          return HAL_TIMEOUT;
 8001624:	2303      	movs	r3, #3
 8001626:	e116      	b.n	8001856 <HAL_RCC_OscConfig+0x61a>
      while(__HAL_RCC_GET_FLAG(RCC_FLAG_LSERDY) != RESET)
 8001628:	4b8d      	ldr	r3, [pc, #564]	; (8001860 <HAL_RCC_OscConfig+0x624>)
 800162a:	6a1b      	ldr	r3, [r3, #32]
 800162c:	2202      	movs	r2, #2
 800162e:	4013      	ands	r3, r2
 8001630:	d1f0      	bne.n	8001614 <HAL_RCC_OscConfig+0x3d8>
        }
      }
    }

    /* Require to disable power clock if necessary */
    if(pwrclkchanged == SET)
 8001632:	231f      	movs	r3, #31
 8001634:	18fb      	adds	r3, r7, r3
 8001636:	781b      	ldrb	r3, [r3, #0]
 8001638:	2b01      	cmp	r3, #1
 800163a:	d105      	bne.n	8001648 <HAL_RCC_OscConfig+0x40c>
    {
      __HAL_RCC_PWR_CLK_DISABLE();
 800163c:	4b88      	ldr	r3, [pc, #544]	; (8001860 <HAL_RCC_OscConfig+0x624>)
 800163e:	69da      	ldr	r2, [r3, #28]
 8001640:	4b87      	ldr	r3, [pc, #540]	; (8001860 <HAL_RCC_OscConfig+0x624>)
 8001642:	4989      	ldr	r1, [pc, #548]	; (8001868 <HAL_RCC_OscConfig+0x62c>)
 8001644:	400a      	ands	r2, r1
 8001646:	61da      	str	r2, [r3, #28]
    }
  }

  /*----------------------------- HSI14 Configuration --------------------------*/
  if(((RCC_OscInitStruct->OscillatorType) & RCC_OSCILLATORTYPE_HSI14) == RCC_OSCILLATORTYPE_HSI14)
 8001648:	687b      	ldr	r3, [r7, #4]
 800164a:	681b      	ldr	r3, [r3, #0]
 800164c:	2210      	movs	r2, #16
 800164e:	4013      	ands	r3, r2
 8001650:	d063      	beq.n	800171a <HAL_RCC_OscConfig+0x4de>
    /* Check the parameters */
    assert_param(IS_RCC_HSI14(RCC_OscInitStruct->HSI14State));
    assert_param(IS_RCC_CALIBRATION_VALUE(RCC_OscInitStruct->HSI14CalibrationValue));

    /* Check the HSI14 State */
    if(RCC_OscInitStruct->HSI14State == RCC_HSI14_ON)
 8001652:	687b      	ldr	r3, [r7, #4]
 8001654:	695b      	ldr	r3, [r3, #20]
 8001656:	2b01      	cmp	r3, #1
 8001658:	d12a      	bne.n	80016b0 <HAL_RCC_OscConfig+0x474>
    {
      /* Disable ADC control of the Internal High Speed oscillator HSI14 */
      __HAL_RCC_HSI14ADC_DISABLE();
 800165a:	4b81      	ldr	r3, [pc, #516]	; (8001860 <HAL_RCC_OscConfig+0x624>)
 800165c:	6b5a      	ldr	r2, [r3, #52]	; 0x34
 800165e:	4b80      	ldr	r3, [pc, #512]	; (8001860 <HAL_RCC_OscConfig+0x624>)
 8001660:	2104      	movs	r1, #4
 8001662:	430a      	orrs	r2, r1
 8001664:	635a      	str	r2, [r3, #52]	; 0x34

      /* Enable the Internal High Speed oscillator (HSI). */
      __HAL_RCC_HSI14_ENABLE();
 8001666:	4b7e      	ldr	r3, [pc, #504]	; (8001860 <HAL_RCC_OscConfig+0x624>)
 8001668:	6b5a      	ldr	r2, [r3, #52]	; 0x34
 800166a:	4b7d      	ldr	r3, [pc, #500]	; (8001860 <HAL_RCC_OscConfig+0x624>)
 800166c:	2101      	movs	r1, #1
 800166e:	430a      	orrs	r2, r1
 8001670:	635a      	str	r2, [r3, #52]	; 0x34

      /* Get Start Tick */
      tickstart = HAL_GetTick();
 8001672:	f7ff fb2d 	bl	8000cd0 <HAL_GetTick>
 8001676:	0003      	movs	r3, r0
 8001678:	61bb      	str	r3, [r7, #24]
      
      /* Wait till HSI is ready */  
      while(__HAL_RCC_GET_FLAG(RCC_FLAG_HSI14RDY) == RESET)
 800167a:	e008      	b.n	800168e <HAL_RCC_OscConfig+0x452>
      {
        if((HAL_GetTick() - tickstart) > HSI14_TIMEOUT_VALUE)
 800167c:	f7ff fb28 	bl	8000cd0 <HAL_GetTick>
 8001680:	0002      	movs	r2, r0
 8001682:	69bb      	ldr	r3, [r7, #24]
 8001684:	1ad3      	subs	r3, r2, r3
 8001686:	2b02      	cmp	r3, #2
 8001688:	d901      	bls.n	800168e <HAL_RCC_OscConfig+0x452>
        {
          return HAL_TIMEOUT;
 800168a:	2303      	movs	r3, #3
 800168c:	e0e3      	b.n	8001856 <HAL_RCC_OscConfig+0x61a>
      while(__HAL_RCC_GET_FLAG(RCC_FLAG_HSI14RDY) == RESET)
 800168e:	4b74      	ldr	r3, [pc, #464]	; (8001860 <HAL_RCC_OscConfig+0x624>)
 8001690:	6b5b      	ldr	r3, [r3, #52]	; 0x34
 8001692:	2202      	movs	r2, #2
 8001694:	4013      	ands	r3, r2
 8001696:	d0f1      	beq.n	800167c <HAL_RCC_OscConfig+0x440>
        }      
      } 

      /* Adjusts the Internal High Speed oscillator 14Mhz (HSI14) calibration value. */
      __HAL_RCC_HSI14_CALIBRATIONVALUE_ADJUST(RCC_OscInitStruct->HSI14CalibrationValue);
 8001698:	4b71      	ldr	r3, [pc, #452]	; (8001860 <HAL_RCC_OscConfig+0x624>)
 800169a:	6b5b      	ldr	r3, [r3, #52]	; 0x34
 800169c:	22f8      	movs	r2, #248	; 0xf8
 800169e:	4393      	bics	r3, r2
 80016a0:	0019      	movs	r1, r3
 80016a2:	687b      	ldr	r3, [r7, #4]
 80016a4:	699b      	ldr	r3, [r3, #24]
 80016a6:	00da      	lsls	r2, r3, #3
 80016a8:	4b6d      	ldr	r3, [pc, #436]	; (8001860 <HAL_RCC_OscConfig+0x624>)
 80016aa:	430a      	orrs	r2, r1
 80016ac:	635a      	str	r2, [r3, #52]	; 0x34
 80016ae:	e034      	b.n	800171a <HAL_RCC_OscConfig+0x4de>
    }
    else if(RCC_OscInitStruct->HSI14State == RCC_HSI14_ADC_CONTROL)
 80016b0:	687b      	ldr	r3, [r7, #4]
 80016b2:	695b      	ldr	r3, [r3, #20]
 80016b4:	3305      	adds	r3, #5
 80016b6:	d111      	bne.n	80016dc <HAL_RCC_OscConfig+0x4a0>
    {
      /* Enable ADC control of the Internal High Speed oscillator HSI14 */
      __HAL_RCC_HSI14ADC_ENABLE();
 80016b8:	4b69      	ldr	r3, [pc, #420]	; (8001860 <HAL_RCC_OscConfig+0x624>)
 80016ba:	6b5a      	ldr	r2, [r3, #52]	; 0x34
 80016bc:	4b68      	ldr	r3, [pc, #416]	; (8001860 <HAL_RCC_OscConfig+0x624>)
 80016be:	2104      	movs	r1, #4
 80016c0:	438a      	bics	r2, r1
 80016c2:	635a      	str	r2, [r3, #52]	; 0x34

      /* Adjusts the Internal High Speed oscillator 14Mhz (HSI14) calibration value. */
      __HAL_RCC_HSI14_CALIBRATIONVALUE_ADJUST(RCC_OscInitStruct->HSI14CalibrationValue);
 80016c4:	4b66      	ldr	r3, [pc, #408]	; (8001860 <HAL_RCC_OscConfig+0x624>)
 80016c6:	6b5b      	ldr	r3, [r3, #52]	; 0x34
 80016c8:	22f8      	movs	r2, #248	; 0xf8
 80016ca:	4393      	bics	r3, r2
 80016cc:	0019      	movs	r1, r3
 80016ce:	687b      	ldr	r3, [r7, #4]
 80016d0:	699b      	ldr	r3, [r3, #24]
 80016d2:	00da      	lsls	r2, r3, #3
 80016d4:	4b62      	ldr	r3, [pc, #392]	; (8001860 <HAL_RCC_OscConfig+0x624>)
 80016d6:	430a      	orrs	r2, r1
 80016d8:	635a      	str	r2, [r3, #52]	; 0x34
 80016da:	e01e      	b.n	800171a <HAL_RCC_OscConfig+0x4de>
    }
    else
    {
      /* Disable ADC control of the Internal High Speed oscillator HSI14 */
      __HAL_RCC_HSI14ADC_DISABLE();
 80016dc:	4b60      	ldr	r3, [pc, #384]	; (8001860 <HAL_RCC_OscConfig+0x624>)
 80016de:	6b5a      	ldr	r2, [r3, #52]	; 0x34
 80016e0:	4b5f      	ldr	r3, [pc, #380]	; (8001860 <HAL_RCC_OscConfig+0x624>)
 80016e2:	2104      	movs	r1, #4
 80016e4:	430a      	orrs	r2, r1
 80016e6:	635a      	str	r2, [r3, #52]	; 0x34

      /* Disable the Internal High Speed oscillator (HSI). */
      __HAL_RCC_HSI14_DISABLE();
 80016e8:	4b5d      	ldr	r3, [pc, #372]	; (8001860 <HAL_RCC_OscConfig+0x624>)
 80016ea:	6b5a      	ldr	r2, [r3, #52]	; 0x34
 80016ec:	4b5c      	ldr	r3, [pc, #368]	; (8001860 <HAL_RCC_OscConfig+0x624>)
 80016ee:	2101      	movs	r1, #1
 80016f0:	438a      	bics	r2, r1
 80016f2:	635a      	str	r2, [r3, #52]	; 0x34

      /* Get Start Tick */
      tickstart = HAL_GetTick();
 80016f4:	f7ff faec 	bl	8000cd0 <HAL_GetTick>
 80016f8:	0003      	movs	r3, r0
 80016fa:	61bb      	str	r3, [r7, #24]
      
      /* Wait till HSI is ready */  
      while(__HAL_RCC_GET_FLAG(RCC_FLAG_HSI14RDY) != RESET)
 80016fc:	e008      	b.n	8001710 <HAL_RCC_OscConfig+0x4d4>
      {
        if((HAL_GetTick() - tickstart) > HSI14_TIMEOUT_VALUE)
 80016fe:	f7ff fae7 	bl	8000cd0 <HAL_GetTick>
 8001702:	0002      	movs	r2, r0
 8001704:	69bb      	ldr	r3, [r7, #24]
 8001706:	1ad3      	subs	r3, r2, r3
 8001708:	2b02      	cmp	r3, #2
 800170a:	d901      	bls.n	8001710 <HAL_RCC_OscConfig+0x4d4>
        {
          return HAL_TIMEOUT;
 800170c:	2303      	movs	r3, #3
 800170e:	e0a2      	b.n	8001856 <HAL_RCC_OscConfig+0x61a>
      while(__HAL_RCC_GET_FLAG(RCC_FLAG_HSI14RDY) != RESET)
 8001710:	4b53      	ldr	r3, [pc, #332]	; (8001860 <HAL_RCC_OscConfig+0x624>)
 8001712:	6b5b      	ldr	r3, [r3, #52]	; 0x34
 8001714:	2202      	movs	r2, #2
 8001716:	4013      	ands	r3, r2
 8001718:	d1f1      	bne.n	80016fe <HAL_RCC_OscConfig+0x4c2>
#endif /* RCC_HSI48_SUPPORT */
       
  /*-------------------------------- PLL Configuration -----------------------*/
  /* Check the parameters */
  assert_param(IS_RCC_PLL(RCC_OscInitStruct->PLL.PLLState));
  if ((RCC_OscInitStruct->PLL.PLLState) != RCC_PLL_NONE)
 800171a:	687b      	ldr	r3, [r7, #4]
 800171c:	6a1b      	ldr	r3, [r3, #32]
 800171e:	2b00      	cmp	r3, #0
 8001720:	d100      	bne.n	8001724 <HAL_RCC_OscConfig+0x4e8>
 8001722:	e097      	b.n	8001854 <HAL_RCC_OscConfig+0x618>
  {
    /* Check if the PLL is used as system clock or not */
    if(__HAL_RCC_GET_SYSCLK_SOURCE() != RCC_SYSCLKSOURCE_STATUS_PLLCLK)
 8001724:	4b4e      	ldr	r3, [pc, #312]	; (8001860 <HAL_RCC_OscConfig+0x624>)
 8001726:	685b      	ldr	r3, [r3, #4]
 8001728:	220c      	movs	r2, #12
 800172a:	4013      	ands	r3, r2
 800172c:	2b08      	cmp	r3, #8
 800172e:	d100      	bne.n	8001732 <HAL_RCC_OscConfig+0x4f6>
 8001730:	e06b      	b.n	800180a <HAL_RCC_OscConfig+0x5ce>
    { 
      if((RCC_OscInitStruct->PLL.PLLState) == RCC_PLL_ON)
 8001732:	687b      	ldr	r3, [r7, #4]
 8001734:	6a1b      	ldr	r3, [r3, #32]
 8001736:	2b02      	cmp	r3, #2
 8001738:	d14c      	bne.n	80017d4 <HAL_RCC_OscConfig+0x598>
        assert_param(IS_RCC_PLLSOURCE(RCC_OscInitStruct->PLL.PLLSource));
        assert_param(IS_RCC_PLL_MUL(RCC_OscInitStruct->PLL.PLLMUL));
        assert_param(IS_RCC_PREDIV(RCC_OscInitStruct->PLL.PREDIV));
  
        /* Disable the main PLL. */
        __HAL_RCC_PLL_DISABLE();
 800173a:	4b49      	ldr	r3, [pc, #292]	; (8001860 <HAL_RCC_OscConfig+0x624>)
 800173c:	681a      	ldr	r2, [r3, #0]
 800173e:	4b48      	ldr	r3, [pc, #288]	; (8001860 <HAL_RCC_OscConfig+0x624>)
 8001740:	494a      	ldr	r1, [pc, #296]	; (800186c <HAL_RCC_OscConfig+0x630>)
 8001742:	400a      	ands	r2, r1
 8001744:	601a      	str	r2, [r3, #0]
        
        /* Get Start Tick */
        tickstart = HAL_GetTick();
 8001746:	f7ff fac3 	bl	8000cd0 <HAL_GetTick>
 800174a:	0003      	movs	r3, r0
 800174c:	61bb      	str	r3, [r7, #24]
        
        /* Wait till PLL is disabled */
        while(__HAL_RCC_GET_FLAG(RCC_FLAG_PLLRDY)  != RESET)
 800174e:	e008      	b.n	8001762 <HAL_RCC_OscConfig+0x526>
        {
          if((HAL_GetTick() - tickstart ) > PLL_TIMEOUT_VALUE)
 8001750:	f7ff fabe 	bl	8000cd0 <HAL_GetTick>
 8001754:	0002      	movs	r2, r0
 8001756:	69bb      	ldr	r3, [r7, #24]
 8001758:	1ad3      	subs	r3, r2, r3
 800175a:	2b02      	cmp	r3, #2
 800175c:	d901      	bls.n	8001762 <HAL_RCC_OscConfig+0x526>
          {
            return HAL_TIMEOUT;
 800175e:	2303      	movs	r3, #3
 8001760:	e079      	b.n	8001856 <HAL_RCC_OscConfig+0x61a>
        while(__HAL_RCC_GET_FLAG(RCC_FLAG_PLLRDY)  != RESET)
 8001762:	4b3f      	ldr	r3, [pc, #252]	; (8001860 <HAL_RCC_OscConfig+0x624>)
 8001764:	681a      	ldr	r2, [r3, #0]
 8001766:	2380      	movs	r3, #128	; 0x80
 8001768:	049b      	lsls	r3, r3, #18
 800176a:	4013      	ands	r3, r2
 800176c:	d1f0      	bne.n	8001750 <HAL_RCC_OscConfig+0x514>
          }
        }

        /* Configure the main PLL clock source, predivider and multiplication factor. */
        __HAL_RCC_PLL_CONFIG(RCC_OscInitStruct->PLL.PLLSource,
 800176e:	4b3c      	ldr	r3, [pc, #240]	; (8001860 <HAL_RCC_OscConfig+0x624>)
 8001770:	6adb      	ldr	r3, [r3, #44]	; 0x2c
 8001772:	220f      	movs	r2, #15
 8001774:	4393      	bics	r3, r2
 8001776:	0019      	movs	r1, r3
 8001778:	687b      	ldr	r3, [r7, #4]
 800177a:	6ada      	ldr	r2, [r3, #44]	; 0x2c
 800177c:	4b38      	ldr	r3, [pc, #224]	; (8001860 <HAL_RCC_OscConfig+0x624>)
 800177e:	430a      	orrs	r2, r1
 8001780:	62da      	str	r2, [r3, #44]	; 0x2c
 8001782:	4b37      	ldr	r3, [pc, #220]	; (8001860 <HAL_RCC_OscConfig+0x624>)
 8001784:	685b      	ldr	r3, [r3, #4]
 8001786:	4a3a      	ldr	r2, [pc, #232]	; (8001870 <HAL_RCC_OscConfig+0x634>)
 8001788:	4013      	ands	r3, r2
 800178a:	0019      	movs	r1, r3
 800178c:	687b      	ldr	r3, [r7, #4]
 800178e:	6a9a      	ldr	r2, [r3, #40]	; 0x28
 8001790:	687b      	ldr	r3, [r7, #4]
 8001792:	6a5b      	ldr	r3, [r3, #36]	; 0x24
 8001794:	431a      	orrs	r2, r3
 8001796:	4b32      	ldr	r3, [pc, #200]	; (8001860 <HAL_RCC_OscConfig+0x624>)
 8001798:	430a      	orrs	r2, r1
 800179a:	605a      	str	r2, [r3, #4]
                             RCC_OscInitStruct->PLL.PREDIV,
                             RCC_OscInitStruct->PLL.PLLMUL);
        /* Enable the main PLL. */
        __HAL_RCC_PLL_ENABLE();
 800179c:	4b30      	ldr	r3, [pc, #192]	; (8001860 <HAL_RCC_OscConfig+0x624>)
 800179e:	681a      	ldr	r2, [r3, #0]
 80017a0:	4b2f      	ldr	r3, [pc, #188]	; (8001860 <HAL_RCC_OscConfig+0x624>)
 80017a2:	2180      	movs	r1, #128	; 0x80
 80017a4:	0449      	lsls	r1, r1, #17
 80017a6:	430a      	orrs	r2, r1
 80017a8:	601a      	str	r2, [r3, #0]
        
        /* Get Start Tick */
        tickstart = HAL_GetTick();
 80017aa:	f7ff fa91 	bl	8000cd0 <HAL_GetTick>
 80017ae:	0003      	movs	r3, r0
 80017b0:	61bb      	str	r3, [r7, #24]
        
        /* Wait till PLL is ready */
        while(__HAL_RCC_GET_FLAG(RCC_FLAG_PLLRDY)  == RESET)
 80017b2:	e008      	b.n	80017c6 <HAL_RCC_OscConfig+0x58a>
        {
          if((HAL_GetTick() - tickstart ) > PLL_TIMEOUT_VALUE)
 80017b4:	f7ff fa8c 	bl	8000cd0 <HAL_GetTick>
 80017b8:	0002      	movs	r2, r0
 80017ba:	69bb      	ldr	r3, [r7, #24]
 80017bc:	1ad3      	subs	r3, r2, r3
 80017be:	2b02      	cmp	r3, #2
 80017c0:	d901      	bls.n	80017c6 <HAL_RCC_OscConfig+0x58a>
          {
            return HAL_TIMEOUT;
 80017c2:	2303      	movs	r3, #3
 80017c4:	e047      	b.n	8001856 <HAL_RCC_OscConfig+0x61a>
        while(__HAL_RCC_GET_FLAG(RCC_FLAG_PLLRDY)  == RESET)
 80017c6:	4b26      	ldr	r3, [pc, #152]	; (8001860 <HAL_RCC_OscConfig+0x624>)
 80017c8:	681a      	ldr	r2, [r3, #0]
 80017ca:	2380      	movs	r3, #128	; 0x80
 80017cc:	049b      	lsls	r3, r3, #18
 80017ce:	4013      	ands	r3, r2
 80017d0:	d0f0      	beq.n	80017b4 <HAL_RCC_OscConfig+0x578>
 80017d2:	e03f      	b.n	8001854 <HAL_RCC_OscConfig+0x618>
        }
      }
      else
      {
        /* Disable the main PLL. */
        __HAL_RCC_PLL_DISABLE();
 80017d4:	4b22      	ldr	r3, [pc, #136]	; (8001860 <HAL_RCC_OscConfig+0x624>)
 80017d6:	681a      	ldr	r2, [r3, #0]
 80017d8:	4b21      	ldr	r3, [pc, #132]	; (8001860 <HAL_RCC_OscConfig+0x624>)
 80017da:	4924      	ldr	r1, [pc, #144]	; (800186c <HAL_RCC_OscConfig+0x630>)
 80017dc:	400a      	ands	r2, r1
 80017de:	601a      	str	r2, [r3, #0]
 
        /* Get Start Tick */
        tickstart = HAL_GetTick();
 80017e0:	f7ff fa76 	bl	8000cd0 <HAL_GetTick>
 80017e4:	0003      	movs	r3, r0
 80017e6:	61bb      	str	r3, [r7, #24]
        
        /* Wait till PLL is disabled */  
        while(__HAL_RCC_GET_FLAG(RCC_FLAG_PLLRDY)  != RESET)
 80017e8:	e008      	b.n	80017fc <HAL_RCC_OscConfig+0x5c0>
        {
          if((HAL_GetTick() - tickstart ) > PLL_TIMEOUT_VALUE)
 80017ea:	f7ff fa71 	bl	8000cd0 <HAL_GetTick>
 80017ee:	0002      	movs	r2, r0
 80017f0:	69bb      	ldr	r3, [r7, #24]
 80017f2:	1ad3      	subs	r3, r2, r3
 80017f4:	2b02      	cmp	r3, #2
 80017f6:	d901      	bls.n	80017fc <HAL_RCC_OscConfig+0x5c0>
          {
            return HAL_TIMEOUT;
 80017f8:	2303      	movs	r3, #3
 80017fa:	e02c      	b.n	8001856 <HAL_RCC_OscConfig+0x61a>
        while(__HAL_RCC_GET_FLAG(RCC_FLAG_PLLRDY)  != RESET)
 80017fc:	4b18      	ldr	r3, [pc, #96]	; (8001860 <HAL_RCC_OscConfig+0x624>)
 80017fe:	681a      	ldr	r2, [r3, #0]
 8001800:	2380      	movs	r3, #128	; 0x80
 8001802:	049b      	lsls	r3, r3, #18
 8001804:	4013      	ands	r3, r2
 8001806:	d1f0      	bne.n	80017ea <HAL_RCC_OscConfig+0x5ae>
 8001808:	e024      	b.n	8001854 <HAL_RCC_OscConfig+0x618>
      }
    }
    else
    {
      /* Check if there is a request to disable the PLL used as System clock source */
      if((RCC_OscInitStruct->PLL.PLLState) == RCC_PLL_OFF)
 800180a:	687b      	ldr	r3, [r7, #4]
 800180c:	6a1b      	ldr	r3, [r3, #32]
 800180e:	2b01      	cmp	r3, #1
 8001810:	d101      	bne.n	8001816 <HAL_RCC_OscConfig+0x5da>
      {
        return HAL_ERROR;
 8001812:	2301      	movs	r3, #1
 8001814:	e01f      	b.n	8001856 <HAL_RCC_OscConfig+0x61a>
      }
      else
      {
        /* Do not return HAL_ERROR if request repeats the current configuration */
        pll_config  = RCC->CFGR;
 8001816:	4b12      	ldr	r3, [pc, #72]	; (8001860 <HAL_RCC_OscConfig+0x624>)
 8001818:	685b      	ldr	r3, [r3, #4]
 800181a:	617b      	str	r3, [r7, #20]
        pll_config2 = RCC->CFGR2;
 800181c:	4b10      	ldr	r3, [pc, #64]	; (8001860 <HAL_RCC_OscConfig+0x624>)
 800181e:	6adb      	ldr	r3, [r3, #44]	; 0x2c
 8001820:	613b      	str	r3, [r7, #16]
        if((READ_BIT(pll_config,  RCC_CFGR_PLLSRC)  != RCC_OscInitStruct->PLL.PLLSource) ||
 8001822:	697a      	ldr	r2, [r7, #20]
 8001824:	2380      	movs	r3, #128	; 0x80
 8001826:	025b      	lsls	r3, r3, #9
 8001828:	401a      	ands	r2, r3
 800182a:	687b      	ldr	r3, [r7, #4]
 800182c:	6a5b      	ldr	r3, [r3, #36]	; 0x24
 800182e:	429a      	cmp	r2, r3
 8001830:	d10e      	bne.n	8001850 <HAL_RCC_OscConfig+0x614>
           (READ_BIT(pll_config2, RCC_CFGR2_PREDIV) != RCC_OscInitStruct->PLL.PREDIV)    ||
 8001832:	693b      	ldr	r3, [r7, #16]
 8001834:	220f      	movs	r2, #15
 8001836:	401a      	ands	r2, r3
 8001838:	687b      	ldr	r3, [r7, #4]
 800183a:	6adb      	ldr	r3, [r3, #44]	; 0x2c
        if((READ_BIT(pll_config,  RCC_CFGR_PLLSRC)  != RCC_OscInitStruct->PLL.PLLSource) ||
 800183c:	429a      	cmp	r2, r3
 800183e:	d107      	bne.n	8001850 <HAL_RCC_OscConfig+0x614>
           (READ_BIT(pll_config,  RCC_CFGR_PLLMUL)  != RCC_OscInitStruct->PLL.PLLMUL))
 8001840:	697a      	ldr	r2, [r7, #20]
 8001842:	23f0      	movs	r3, #240	; 0xf0
 8001844:	039b      	lsls	r3, r3, #14
 8001846:	401a      	ands	r2, r3
 8001848:	687b      	ldr	r3, [r7, #4]
 800184a:	6a9b      	ldr	r3, [r3, #40]	; 0x28
           (READ_BIT(pll_config2, RCC_CFGR2_PREDIV) != RCC_OscInitStruct->PLL.PREDIV)    ||
 800184c:	429a      	cmp	r2, r3
 800184e:	d001      	beq.n	8001854 <HAL_RCC_OscConfig+0x618>
        {
          return HAL_ERROR;
 8001850:	2301      	movs	r3, #1
 8001852:	e000      	b.n	8001856 <HAL_RCC_OscConfig+0x61a>
        }
      }
    }
  }

  return HAL_OK;
 8001854:	2300      	movs	r3, #0
}
 8001856:	0018      	movs	r0, r3
 8001858:	46bd      	mov	sp, r7
 800185a:	b008      	add	sp, #32
 800185c:	bd80      	pop	{r7, pc}
 800185e:	46c0      	nop			; (mov r8, r8)
 8001860:	40021000 	.word	0x40021000
 8001864:	00001388 	.word	0x00001388
 8001868:	efffffff 	.word	0xefffffff
 800186c:	feffffff 	.word	0xfeffffff
 8001870:	ffc2ffff 	.word	0xffc2ffff

08001874 <HAL_RCC_ClockConfig>:
  *         You can use @ref HAL_RCC_GetClockConfig() function to know which clock is
  *         currently used as system clock source.
  * @retval HAL status
  */
HAL_StatusTypeDef HAL_RCC_ClockConfig(RCC_ClkInitTypeDef  *RCC_ClkInitStruct, uint32_t FLatency)
{
 8001874:	b580      	push	{r7, lr}
 8001876:	b084      	sub	sp, #16
 8001878:	af00      	add	r7, sp, #0
 800187a:	6078      	str	r0, [r7, #4]
 800187c:	6039      	str	r1, [r7, #0]
  uint32_t tickstart;

  /* Check Null pointer */
  if(RCC_ClkInitStruct == NULL)
 800187e:	687b      	ldr	r3, [r7, #4]
 8001880:	2b00      	cmp	r3, #0
 8001882:	d101      	bne.n	8001888 <HAL_RCC_ClockConfig+0x14>
  {
    return HAL_ERROR;
 8001884:	2301      	movs	r3, #1
 8001886:	e0b3      	b.n	80019f0 <HAL_RCC_ClockConfig+0x17c>
  /* To correctly read data from FLASH memory, the number of wait states (LATENCY) 
  must be correctly programmed according to the frequency of the CPU clock 
    (HCLK) of the device. */

  /* Increasing the number of wait states because of higher CPU frequency */
  if(FLatency > __HAL_FLASH_GET_LATENCY())
 8001888:	4b5b      	ldr	r3, [pc, #364]	; (80019f8 <HAL_RCC_ClockConfig+0x184>)
 800188a:	681b      	ldr	r3, [r3, #0]
 800188c:	2201      	movs	r2, #1
 800188e:	4013      	ands	r3, r2
 8001890:	683a      	ldr	r2, [r7, #0]
 8001892:	429a      	cmp	r2, r3
 8001894:	d911      	bls.n	80018ba <HAL_RCC_ClockConfig+0x46>
  {    
    /* Program the new number of wait states to the LATENCY bits in the FLASH_ACR register */
    __HAL_FLASH_SET_LATENCY(FLatency);
 8001896:	4b58      	ldr	r3, [pc, #352]	; (80019f8 <HAL_RCC_ClockConfig+0x184>)
 8001898:	681b      	ldr	r3, [r3, #0]
 800189a:	2201      	movs	r2, #1
 800189c:	4393      	bics	r3, r2
 800189e:	0019      	movs	r1, r3
 80018a0:	4b55      	ldr	r3, [pc, #340]	; (80019f8 <HAL_RCC_ClockConfig+0x184>)
 80018a2:	683a      	ldr	r2, [r7, #0]
 80018a4:	430a      	orrs	r2, r1
 80018a6:	601a      	str	r2, [r3, #0]
    
    /* Check that the new number of wait states is taken into account to access the Flash
    memory by reading the FLASH_ACR register */
    if(__HAL_FLASH_GET_LATENCY() != FLatency)
 80018a8:	4b53      	ldr	r3, [pc, #332]	; (80019f8 <HAL_RCC_ClockConfig+0x184>)
 80018aa:	681b      	ldr	r3, [r3, #0]
 80018ac:	2201      	movs	r2, #1
 80018ae:	4013      	ands	r3, r2
 80018b0:	683a      	ldr	r2, [r7, #0]
 80018b2:	429a      	cmp	r2, r3
 80018b4:	d001      	beq.n	80018ba <HAL_RCC_ClockConfig+0x46>
    {
      return HAL_ERROR;
 80018b6:	2301      	movs	r3, #1
 80018b8:	e09a      	b.n	80019f0 <HAL_RCC_ClockConfig+0x17c>
    }
  }

  /*-------------------------- HCLK Configuration --------------------------*/
  if(((RCC_ClkInitStruct->ClockType) & RCC_CLOCKTYPE_HCLK) == RCC_CLOCKTYPE_HCLK)
 80018ba:	687b      	ldr	r3, [r7, #4]
 80018bc:	681b      	ldr	r3, [r3, #0]
 80018be:	2202      	movs	r2, #2
 80018c0:	4013      	ands	r3, r2
 80018c2:	d015      	beq.n	80018f0 <HAL_RCC_ClockConfig+0x7c>
  {
    /* Set the highest APB divider in order to ensure that we do not go through
       a non-spec phase whatever we decrease or increase HCLK. */
    if(((RCC_ClkInitStruct->ClockType) & RCC_CLOCKTYPE_PCLK1) == RCC_CLOCKTYPE_PCLK1)
 80018c4:	687b      	ldr	r3, [r7, #4]
 80018c6:	681b      	ldr	r3, [r3, #0]
 80018c8:	2204      	movs	r2, #4
 80018ca:	4013      	ands	r3, r2
 80018cc:	d006      	beq.n	80018dc <HAL_RCC_ClockConfig+0x68>
    {
      MODIFY_REG(RCC->CFGR, RCC_CFGR_PPRE, RCC_HCLK_DIV16);
 80018ce:	4b4b      	ldr	r3, [pc, #300]	; (80019fc <HAL_RCC_ClockConfig+0x188>)
 80018d0:	685a      	ldr	r2, [r3, #4]
 80018d2:	4b4a      	ldr	r3, [pc, #296]	; (80019fc <HAL_RCC_ClockConfig+0x188>)
 80018d4:	21e0      	movs	r1, #224	; 0xe0
 80018d6:	00c9      	lsls	r1, r1, #3
 80018d8:	430a      	orrs	r2, r1
 80018da:	605a      	str	r2, [r3, #4]
    }

    /* Set the new HCLK clock divider */
    assert_param(IS_RCC_HCLK(RCC_ClkInitStruct->AHBCLKDivider));
    MODIFY_REG(RCC->CFGR, RCC_CFGR_HPRE, RCC_ClkInitStruct->AHBCLKDivider);
 80018dc:	4b47      	ldr	r3, [pc, #284]	; (80019fc <HAL_RCC_ClockConfig+0x188>)
 80018de:	685b      	ldr	r3, [r3, #4]
 80018e0:	22f0      	movs	r2, #240	; 0xf0
 80018e2:	4393      	bics	r3, r2
 80018e4:	0019      	movs	r1, r3
 80018e6:	687b      	ldr	r3, [r7, #4]
 80018e8:	689a      	ldr	r2, [r3, #8]
 80018ea:	4b44      	ldr	r3, [pc, #272]	; (80019fc <HAL_RCC_ClockConfig+0x188>)
 80018ec:	430a      	orrs	r2, r1
 80018ee:	605a      	str	r2, [r3, #4]
  }

  /*------------------------- SYSCLK Configuration ---------------------------*/ 
  if(((RCC_ClkInitStruct->ClockType) & RCC_CLOCKTYPE_SYSCLK) == RCC_CLOCKTYPE_SYSCLK)
 80018f0:	687b      	ldr	r3, [r7, #4]
 80018f2:	681b      	ldr	r3, [r3, #0]
 80018f4:	2201      	movs	r2, #1
 80018f6:	4013      	ands	r3, r2
 80018f8:	d040      	beq.n	800197c <HAL_RCC_ClockConfig+0x108>
  {
    assert_param(IS_RCC_SYSCLKSOURCE(RCC_ClkInitStruct->SYSCLKSource));
    
    /* HSE is selected as System Clock Source */
    if(RCC_ClkInitStruct->SYSCLKSource == RCC_SYSCLKSOURCE_HSE)
 80018fa:	687b      	ldr	r3, [r7, #4]
 80018fc:	685b      	ldr	r3, [r3, #4]
 80018fe:	2b01      	cmp	r3, #1
 8001900:	d107      	bne.n	8001912 <HAL_RCC_ClockConfig+0x9e>
    {
      /* Check the HSE ready flag */  
      if(__HAL_RCC_GET_FLAG(RCC_FLAG_HSERDY) == RESET)
 8001902:	4b3e      	ldr	r3, [pc, #248]	; (80019fc <HAL_RCC_ClockConfig+0x188>)
 8001904:	681a      	ldr	r2, [r3, #0]
 8001906:	2380      	movs	r3, #128	; 0x80
 8001908:	029b      	lsls	r3, r3, #10
 800190a:	4013      	ands	r3, r2
 800190c:	d114      	bne.n	8001938 <HAL_RCC_ClockConfig+0xc4>
      {
        return HAL_ERROR;
 800190e:	2301      	movs	r3, #1
 8001910:	e06e      	b.n	80019f0 <HAL_RCC_ClockConfig+0x17c>
      }
    }
    /* PLL is selected as System Clock Source */
    else if(RCC_ClkInitStruct->SYSCLKSource == RCC_SYSCLKSOURCE_PLLCLK)
 8001912:	687b      	ldr	r3, [r7, #4]
 8001914:	685b      	ldr	r3, [r3, #4]
 8001916:	2b02      	cmp	r3, #2
 8001918:	d107      	bne.n	800192a <HAL_RCC_ClockConfig+0xb6>
    {
      /* Check the PLL ready flag */  
      if(__HAL_RCC_GET_FLAG(RCC_FLAG_PLLRDY) == RESET)
 800191a:	4b38      	ldr	r3, [pc, #224]	; (80019fc <HAL_RCC_ClockConfig+0x188>)
 800191c:	681a      	ldr	r2, [r3, #0]
 800191e:	2380      	movs	r3, #128	; 0x80
 8001920:	049b      	lsls	r3, r3, #18
 8001922:	4013      	ands	r3, r2
 8001924:	d108      	bne.n	8001938 <HAL_RCC_ClockConfig+0xc4>
      {
        return HAL_ERROR;
 8001926:	2301      	movs	r3, #1
 8001928:	e062      	b.n	80019f0 <HAL_RCC_ClockConfig+0x17c>
#endif /* RCC_CFGR_SWS_HSI48 */
    /* HSI is selected as System Clock Source */
    else
    {
      /* Check the HSI ready flag */  
      if(__HAL_RCC_GET_FLAG(RCC_FLAG_HSIRDY) == RESET)
 800192a:	4b34      	ldr	r3, [pc, #208]	; (80019fc <HAL_RCC_ClockConfig+0x188>)
 800192c:	681b      	ldr	r3, [r3, #0]
 800192e:	2202      	movs	r2, #2
 8001930:	4013      	ands	r3, r2
 8001932:	d101      	bne.n	8001938 <HAL_RCC_ClockConfig+0xc4>
      {
        return HAL_ERROR;
 8001934:	2301      	movs	r3, #1
 8001936:	e05b      	b.n	80019f0 <HAL_RCC_ClockConfig+0x17c>
      }
    }
    __HAL_RCC_SYSCLK_CONFIG(RCC_ClkInitStruct->SYSCLKSource);
 8001938:	4b30      	ldr	r3, [pc, #192]	; (80019fc <HAL_RCC_ClockConfig+0x188>)
 800193a:	685b      	ldr	r3, [r3, #4]
 800193c:	2203      	movs	r2, #3
 800193e:	4393      	bics	r3, r2
 8001940:	0019      	movs	r1, r3
 8001942:	687b      	ldr	r3, [r7, #4]
 8001944:	685a      	ldr	r2, [r3, #4]
 8001946:	4b2d      	ldr	r3, [pc, #180]	; (80019fc <HAL_RCC_ClockConfig+0x188>)
 8001948:	430a      	orrs	r2, r1
 800194a:	605a      	str	r2, [r3, #4]

    /* Get Start Tick */
    tickstart = HAL_GetTick();
 800194c:	f7ff f9c0 	bl	8000cd0 <HAL_GetTick>
 8001950:	0003      	movs	r3, r0
 8001952:	60fb      	str	r3, [r7, #12]
    
    while (__HAL_RCC_GET_SYSCLK_SOURCE() != (RCC_ClkInitStruct->SYSCLKSource << RCC_CFGR_SWS_Pos))
 8001954:	e009      	b.n	800196a <HAL_RCC_ClockConfig+0xf6>
    {
      if((HAL_GetTick() - tickstart ) > CLOCKSWITCH_TIMEOUT_VALUE)
 8001956:	f7ff f9bb 	bl	8000cd0 <HAL_GetTick>
 800195a:	0002      	movs	r2, r0
 800195c:	68fb      	ldr	r3, [r7, #12]
 800195e:	1ad3      	subs	r3, r2, r3
 8001960:	4a27      	ldr	r2, [pc, #156]	; (8001a00 <HAL_RCC_ClockConfig+0x18c>)
 8001962:	4293      	cmp	r3, r2
 8001964:	d901      	bls.n	800196a <HAL_RCC_ClockConfig+0xf6>
      {
        return HAL_TIMEOUT;
 8001966:	2303      	movs	r3, #3
 8001968:	e042      	b.n	80019f0 <HAL_RCC_ClockConfig+0x17c>
    while (__HAL_RCC_GET_SYSCLK_SOURCE() != (RCC_ClkInitStruct->SYSCLKSource << RCC_CFGR_SWS_Pos))
 800196a:	4b24      	ldr	r3, [pc, #144]	; (80019fc <HAL_RCC_ClockConfig+0x188>)
 800196c:	685b      	ldr	r3, [r3, #4]
 800196e:	220c      	movs	r2, #12
 8001970:	401a      	ands	r2, r3
 8001972:	687b      	ldr	r3, [r7, #4]
 8001974:	685b      	ldr	r3, [r3, #4]
 8001976:	009b      	lsls	r3, r3, #2
 8001978:	429a      	cmp	r2, r3
 800197a:	d1ec      	bne.n	8001956 <HAL_RCC_ClockConfig+0xe2>
      }
    }
  }

  /* Decreasing the number of wait states because of lower CPU frequency */
  if(FLatency < __HAL_FLASH_GET_LATENCY())
 800197c:	4b1e      	ldr	r3, [pc, #120]	; (80019f8 <HAL_RCC_ClockConfig+0x184>)
 800197e:	681b      	ldr	r3, [r3, #0]
 8001980:	2201      	movs	r2, #1
 8001982:	4013      	ands	r3, r2
 8001984:	683a      	ldr	r2, [r7, #0]
 8001986:	429a      	cmp	r2, r3
 8001988:	d211      	bcs.n	80019ae <HAL_RCC_ClockConfig+0x13a>
  {    
    /* Program the new number of wait states to the LATENCY bits in the FLASH_ACR register */
    __HAL_FLASH_SET_LATENCY(FLatency);
 800198a:	4b1b      	ldr	r3, [pc, #108]	; (80019f8 <HAL_RCC_ClockConfig+0x184>)
 800198c:	681b      	ldr	r3, [r3, #0]
 800198e:	2201      	movs	r2, #1
 8001990:	4393      	bics	r3, r2
 8001992:	0019      	movs	r1, r3
 8001994:	4b18      	ldr	r3, [pc, #96]	; (80019f8 <HAL_RCC_ClockConfig+0x184>)
 8001996:	683a      	ldr	r2, [r7, #0]
 8001998:	430a      	orrs	r2, r1
 800199a:	601a      	str	r2, [r3, #0]
    
    /* Check that the new number of wait states is taken into account to access the Flash
    memory by reading the FLASH_ACR register */
    if(__HAL_FLASH_GET_LATENCY() != FLatency)
 800199c:	4b16      	ldr	r3, [pc, #88]	; (80019f8 <HAL_RCC_ClockConfig+0x184>)
 800199e:	681b      	ldr	r3, [r3, #0]
 80019a0:	2201      	movs	r2, #1
 80019a2:	4013      	ands	r3, r2
 80019a4:	683a      	ldr	r2, [r7, #0]
 80019a6:	429a      	cmp	r2, r3
 80019a8:	d001      	beq.n	80019ae <HAL_RCC_ClockConfig+0x13a>
    {
      return HAL_ERROR;
 80019aa:	2301      	movs	r3, #1
 80019ac:	e020      	b.n	80019f0 <HAL_RCC_ClockConfig+0x17c>
    }
  }    

  /*-------------------------- PCLK1 Configuration ---------------------------*/ 
  if(((RCC_ClkInitStruct->ClockType) & RCC_CLOCKTYPE_PCLK1) == RCC_CLOCKTYPE_PCLK1)
 80019ae:	687b      	ldr	r3, [r7, #4]
 80019b0:	681b      	ldr	r3, [r3, #0]
 80019b2:	2204      	movs	r2, #4
 80019b4:	4013      	ands	r3, r2
 80019b6:	d009      	beq.n	80019cc <HAL_RCC_ClockConfig+0x158>
  {
    assert_param(IS_RCC_PCLK(RCC_ClkInitStruct->APB1CLKDivider));
    MODIFY_REG(RCC->CFGR, RCC_CFGR_PPRE, RCC_ClkInitStruct->APB1CLKDivider);
 80019b8:	4b10      	ldr	r3, [pc, #64]	; (80019fc <HAL_RCC_ClockConfig+0x188>)
 80019ba:	685b      	ldr	r3, [r3, #4]
 80019bc:	4a11      	ldr	r2, [pc, #68]	; (8001a04 <HAL_RCC_ClockConfig+0x190>)
 80019be:	4013      	ands	r3, r2
 80019c0:	0019      	movs	r1, r3
 80019c2:	687b      	ldr	r3, [r7, #4]
 80019c4:	68da      	ldr	r2, [r3, #12]
 80019c6:	4b0d      	ldr	r3, [pc, #52]	; (80019fc <HAL_RCC_ClockConfig+0x188>)
 80019c8:	430a      	orrs	r2, r1
 80019ca:	605a      	str	r2, [r3, #4]
  }
  
  /* Update the SystemCoreClock global variable */
  SystemCoreClock = HAL_RCC_GetSysClockFreq() >> AHBPrescTable[(RCC->CFGR & RCC_CFGR_HPRE)>> RCC_CFGR_HPRE_BITNUMBER];
 80019cc:	f000 f820 	bl	8001a10 <HAL_RCC_GetSysClockFreq>
 80019d0:	0001      	movs	r1, r0
 80019d2:	4b0a      	ldr	r3, [pc, #40]	; (80019fc <HAL_RCC_ClockConfig+0x188>)
 80019d4:	685b      	ldr	r3, [r3, #4]
 80019d6:	091b      	lsrs	r3, r3, #4
 80019d8:	220f      	movs	r2, #15
 80019da:	4013      	ands	r3, r2
 80019dc:	4a0a      	ldr	r2, [pc, #40]	; (8001a08 <HAL_RCC_ClockConfig+0x194>)
 80019de:	5cd3      	ldrb	r3, [r2, r3]
 80019e0:	000a      	movs	r2, r1
 80019e2:	40da      	lsrs	r2, r3
 80019e4:	4b09      	ldr	r3, [pc, #36]	; (8001a0c <HAL_RCC_ClockConfig+0x198>)
 80019e6:	601a      	str	r2, [r3, #0]

  /* Configure the source of time base considering new system clocks settings*/
  HAL_InitTick (TICK_INT_PRIORITY);
 80019e8:	2000      	movs	r0, #0
 80019ea:	f7ff f92b 	bl	8000c44 <HAL_InitTick>
  
  return HAL_OK;
 80019ee:	2300      	movs	r3, #0
}
 80019f0:	0018      	movs	r0, r3
 80019f2:	46bd      	mov	sp, r7
 80019f4:	b004      	add	sp, #16
 80019f6:	bd80      	pop	{r7, pc}
 80019f8:	40022000 	.word	0x40022000
 80019fc:	40021000 	.word	0x40021000
 8001a00:	00001388 	.word	0x00001388
 8001a04:	fffff8ff 	.word	0xfffff8ff
 8001a08:	080028e0 	.word	0x080028e0
 8001a0c:	20000000 	.word	0x20000000

08001a10 <HAL_RCC_GetSysClockFreq>:
  *         right SYSCLK value. Otherwise, any configuration based on this function will be incorrect.
  *         
  * @retval SYSCLK frequency
  */
uint32_t HAL_RCC_GetSysClockFreq(void)
{
 8001a10:	b590      	push	{r4, r7, lr}
 8001a12:	b08f      	sub	sp, #60	; 0x3c
 8001a14:	af00      	add	r7, sp, #0
  const uint8_t aPLLMULFactorTable[16] = { 2U,  3U,  4U,  5U,  6U,  7U,  8U,  9U,
 8001a16:	2314      	movs	r3, #20
 8001a18:	18fb      	adds	r3, r7, r3
 8001a1a:	4a2b      	ldr	r2, [pc, #172]	; (8001ac8 <HAL_RCC_GetSysClockFreq+0xb8>)
 8001a1c:	ca13      	ldmia	r2!, {r0, r1, r4}
 8001a1e:	c313      	stmia	r3!, {r0, r1, r4}
 8001a20:	6812      	ldr	r2, [r2, #0]
 8001a22:	601a      	str	r2, [r3, #0]
                                         10U, 11U, 12U, 13U, 14U, 15U, 16U, 16U};
  const uint8_t aPredivFactorTable[16] = { 1U, 2U,  3U,  4U,  5U,  6U,  7U,  8U,
 8001a24:	1d3b      	adds	r3, r7, #4
 8001a26:	4a29      	ldr	r2, [pc, #164]	; (8001acc <HAL_RCC_GetSysClockFreq+0xbc>)
 8001a28:	ca13      	ldmia	r2!, {r0, r1, r4}
 8001a2a:	c313      	stmia	r3!, {r0, r1, r4}
 8001a2c:	6812      	ldr	r2, [r2, #0]
 8001a2e:	601a      	str	r2, [r3, #0]
                                           9U,10U, 11U, 12U, 13U, 14U, 15U, 16U};

  uint32_t tmpreg = 0U, prediv = 0U, pllclk = 0U, pllmul = 0U;
 8001a30:	2300      	movs	r3, #0
 8001a32:	62fb      	str	r3, [r7, #44]	; 0x2c
 8001a34:	2300      	movs	r3, #0
 8001a36:	62bb      	str	r3, [r7, #40]	; 0x28
 8001a38:	2300      	movs	r3, #0
 8001a3a:	637b      	str	r3, [r7, #52]	; 0x34
 8001a3c:	2300      	movs	r3, #0
 8001a3e:	627b      	str	r3, [r7, #36]	; 0x24
  uint32_t sysclockfreq = 0U;
 8001a40:	2300      	movs	r3, #0
 8001a42:	633b      	str	r3, [r7, #48]	; 0x30
  
  tmpreg = RCC->CFGR;
 8001a44:	4b22      	ldr	r3, [pc, #136]	; (8001ad0 <HAL_RCC_GetSysClockFreq+0xc0>)
 8001a46:	685b      	ldr	r3, [r3, #4]
 8001a48:	62fb      	str	r3, [r7, #44]	; 0x2c
  
  /* Get SYSCLK source -------------------------------------------------------*/
  switch (tmpreg & RCC_CFGR_SWS)
 8001a4a:	6afb      	ldr	r3, [r7, #44]	; 0x2c
 8001a4c:	220c      	movs	r2, #12
 8001a4e:	4013      	ands	r3, r2
 8001a50:	2b04      	cmp	r3, #4
 8001a52:	d002      	beq.n	8001a5a <HAL_RCC_GetSysClockFreq+0x4a>
 8001a54:	2b08      	cmp	r3, #8
 8001a56:	d003      	beq.n	8001a60 <HAL_RCC_GetSysClockFreq+0x50>
 8001a58:	e02d      	b.n	8001ab6 <HAL_RCC_GetSysClockFreq+0xa6>
  {
    case RCC_SYSCLKSOURCE_STATUS_HSE:  /* HSE used as system clock */
    {
      sysclockfreq = HSE_VALUE;
 8001a5a:	4b1e      	ldr	r3, [pc, #120]	; (8001ad4 <HAL_RCC_GetSysClockFreq+0xc4>)
 8001a5c:	633b      	str	r3, [r7, #48]	; 0x30
      break;
 8001a5e:	e02d      	b.n	8001abc <HAL_RCC_GetSysClockFreq+0xac>
    }
    case RCC_SYSCLKSOURCE_STATUS_PLLCLK:  /* PLL used as system clock */
    {
      pllmul = aPLLMULFactorTable[(uint32_t)(tmpreg & RCC_CFGR_PLLMUL) >> RCC_CFGR_PLLMUL_BITNUMBER];
 8001a60:	6afb      	ldr	r3, [r7, #44]	; 0x2c
 8001a62:	0c9b      	lsrs	r3, r3, #18
 8001a64:	220f      	movs	r2, #15
 8001a66:	4013      	ands	r3, r2
 8001a68:	2214      	movs	r2, #20
 8001a6a:	18ba      	adds	r2, r7, r2
 8001a6c:	5cd3      	ldrb	r3, [r2, r3]
 8001a6e:	627b      	str	r3, [r7, #36]	; 0x24
      prediv = aPredivFactorTable[(uint32_t)(RCC->CFGR2 & RCC_CFGR2_PREDIV) >> RCC_CFGR2_PREDIV_BITNUMBER];
 8001a70:	4b17      	ldr	r3, [pc, #92]	; (8001ad0 <HAL_RCC_GetSysClockFreq+0xc0>)
 8001a72:	6adb      	ldr	r3, [r3, #44]	; 0x2c
 8001a74:	220f      	movs	r2, #15
 8001a76:	4013      	ands	r3, r2
 8001a78:	1d3a      	adds	r2, r7, #4
 8001a7a:	5cd3      	ldrb	r3, [r2, r3]
 8001a7c:	62bb      	str	r3, [r7, #40]	; 0x28
      if ((tmpreg & RCC_CFGR_PLLSRC) == RCC_PLLSOURCE_HSE)
 8001a7e:	6afa      	ldr	r2, [r7, #44]	; 0x2c
 8001a80:	2380      	movs	r3, #128	; 0x80
 8001a82:	025b      	lsls	r3, r3, #9
 8001a84:	4013      	ands	r3, r2
 8001a86:	d009      	beq.n	8001a9c <HAL_RCC_GetSysClockFreq+0x8c>
      {
        /* HSE used as PLL clock source : PLLCLK = HSE/PREDIV * PLLMUL */
        pllclk = (uint32_t)((uint64_t) HSE_VALUE / (uint64_t) (prediv)) * ((uint64_t) pllmul);
 8001a88:	6ab9      	ldr	r1, [r7, #40]	; 0x28
 8001a8a:	4812      	ldr	r0, [pc, #72]	; (8001ad4 <HAL_RCC_GetSysClockFreq+0xc4>)
 8001a8c:	f7fe fb3c 	bl	8000108 <__udivsi3>
 8001a90:	0003      	movs	r3, r0
 8001a92:	001a      	movs	r2, r3
 8001a94:	6a7b      	ldr	r3, [r7, #36]	; 0x24
 8001a96:	4353      	muls	r3, r2
 8001a98:	637b      	str	r3, [r7, #52]	; 0x34
 8001a9a:	e009      	b.n	8001ab0 <HAL_RCC_GetSysClockFreq+0xa0>
#if  (defined(STM32F042x6) || defined(STM32F048xx) || defined(STM32F070x6) || defined(STM32F071xB) || defined(STM32F072xB) || defined(STM32F078xx) || defined(STM32F070xB) || defined(STM32F091xC) || defined(STM32F098xx) || defined(STM32F030xC))
        /* HSI used as PLL clock source : PLLCLK = HSI/PREDIV * PLLMUL */
        pllclk = (uint32_t)((uint64_t) HSI_VALUE / (uint64_t) (prediv)) * ((uint64_t) pllmul);
#else
        /* HSI used as PLL clock source : PLLCLK = HSI/2 * PLLMUL */
        pllclk = (uint32_t)((uint64_t) (HSI_VALUE >> 1U) * ((uint64_t) pllmul));
 8001a9c:	6a79      	ldr	r1, [r7, #36]	; 0x24
 8001a9e:	000a      	movs	r2, r1
 8001aa0:	0152      	lsls	r2, r2, #5
 8001aa2:	1a52      	subs	r2, r2, r1
 8001aa4:	0193      	lsls	r3, r2, #6
 8001aa6:	1a9b      	subs	r3, r3, r2
 8001aa8:	00db      	lsls	r3, r3, #3
 8001aaa:	185b      	adds	r3, r3, r1
 8001aac:	021b      	lsls	r3, r3, #8
 8001aae:	637b      	str	r3, [r7, #52]	; 0x34
#endif
      }
      sysclockfreq = pllclk;
 8001ab0:	6b7b      	ldr	r3, [r7, #52]	; 0x34
 8001ab2:	633b      	str	r3, [r7, #48]	; 0x30
      break;
 8001ab4:	e002      	b.n	8001abc <HAL_RCC_GetSysClockFreq+0xac>
    }
#endif /* RCC_CFGR_SWS_HSI48 */
    case RCC_SYSCLKSOURCE_STATUS_HSI:  /* HSI used as system clock source */
    default: /* HSI used as system clock */
    {
      sysclockfreq = HSI_VALUE;
 8001ab6:	4b07      	ldr	r3, [pc, #28]	; (8001ad4 <HAL_RCC_GetSysClockFreq+0xc4>)
 8001ab8:	633b      	str	r3, [r7, #48]	; 0x30
      break;
 8001aba:	46c0      	nop			; (mov r8, r8)
    }
  }
  return sysclockfreq;
 8001abc:	6b3b      	ldr	r3, [r7, #48]	; 0x30
}
 8001abe:	0018      	movs	r0, r3
 8001ac0:	46bd      	mov	sp, r7
 8001ac2:	b00f      	add	sp, #60	; 0x3c
 8001ac4:	bd90      	pop	{r4, r7, pc}
 8001ac6:	46c0      	nop			; (mov r8, r8)
 8001ac8:	080028c0 	.word	0x080028c0
 8001acc:	080028d0 	.word	0x080028d0
 8001ad0:	40021000 	.word	0x40021000
 8001ad4:	007a1200 	.word	0x007a1200

08001ad8 <HAL_TIM_Base_Init>:
  *         Ex: call @ref HAL_TIM_Base_DeInit() before HAL_TIM_Base_Init()
  * @param  htim TIM Base handle
  * @retval HAL status
  */
HAL_StatusTypeDef HAL_TIM_Base_Init(TIM_HandleTypeDef *htim)
{
 8001ad8:	b580      	push	{r7, lr}
 8001ada:	b082      	sub	sp, #8
 8001adc:	af00      	add	r7, sp, #0
 8001ade:	6078      	str	r0, [r7, #4]
  /* Check the TIM handle allocation */
  if (htim == NULL)
 8001ae0:	687b      	ldr	r3, [r7, #4]
 8001ae2:	2b00      	cmp	r3, #0
 8001ae4:	d101      	bne.n	8001aea <HAL_TIM_Base_Init+0x12>
  {
    return HAL_ERROR;
 8001ae6:	2301      	movs	r3, #1
 8001ae8:	e01e      	b.n	8001b28 <HAL_TIM_Base_Init+0x50>
  assert_param(IS_TIM_INSTANCE(htim->Instance));
  assert_param(IS_TIM_COUNTER_MODE(htim->Init.CounterMode));
  assert_param(IS_TIM_CLOCKDIVISION_DIV(htim->Init.ClockDivision));
  assert_param(IS_TIM_AUTORELOAD_PRELOAD(htim->Init.AutoReloadPreload));

  if (htim->State == HAL_TIM_STATE_RESET)
 8001aea:	687b      	ldr	r3, [r7, #4]
 8001aec:	223d      	movs	r2, #61	; 0x3d
 8001aee:	5c9b      	ldrb	r3, [r3, r2]
 8001af0:	b2db      	uxtb	r3, r3
 8001af2:	2b00      	cmp	r3, #0
 8001af4:	d107      	bne.n	8001b06 <HAL_TIM_Base_Init+0x2e>
  {
    /* Allocate lock resource and initialize it */
    htim->Lock = HAL_UNLOCKED;
 8001af6:	687b      	ldr	r3, [r7, #4]
 8001af8:	223c      	movs	r2, #60	; 0x3c
 8001afa:	2100      	movs	r1, #0
 8001afc:	5499      	strb	r1, [r3, r2]
    }
    /* Init the low level hardware : GPIO, CLOCK, NVIC */
    htim->Base_MspInitCallback(htim);
#else
    /* Init the low level hardware : GPIO, CLOCK, NVIC */
    HAL_TIM_Base_MspInit(htim);
 8001afe:	687b      	ldr	r3, [r7, #4]
 8001b00:	0018      	movs	r0, r3
 8001b02:	f7fe ffbd 	bl	8000a80 <HAL_TIM_Base_MspInit>
#endif /* USE_HAL_TIM_REGISTER_CALLBACKS */
  }

  /* Set the TIM state */
  htim->State = HAL_TIM_STATE_BUSY;
 8001b06:	687b      	ldr	r3, [r7, #4]
 8001b08:	223d      	movs	r2, #61	; 0x3d
 8001b0a:	2102      	movs	r1, #2
 8001b0c:	5499      	strb	r1, [r3, r2]

  /* Set the Time Base configuration */
  TIM_Base_SetConfig(htim->Instance, &htim->Init);
 8001b0e:	687b      	ldr	r3, [r7, #4]
 8001b10:	681a      	ldr	r2, [r3, #0]
 8001b12:	687b      	ldr	r3, [r7, #4]
 8001b14:	3304      	adds	r3, #4
 8001b16:	0019      	movs	r1, r3
 8001b18:	0010      	movs	r0, r2
 8001b1a:	f000 fb2d 	bl	8002178 <TIM_Base_SetConfig>

  /* Initialize the TIM state*/
  htim->State = HAL_TIM_STATE_READY;
 8001b1e:	687b      	ldr	r3, [r7, #4]
 8001b20:	223d      	movs	r2, #61	; 0x3d
 8001b22:	2101      	movs	r1, #1
 8001b24:	5499      	strb	r1, [r3, r2]

  return HAL_OK;
 8001b26:	2300      	movs	r3, #0
}
 8001b28:	0018      	movs	r0, r3
 8001b2a:	46bd      	mov	sp, r7
 8001b2c:	b002      	add	sp, #8
 8001b2e:	bd80      	pop	{r7, pc}

08001b30 <HAL_TIM_Base_Start>:
  * @brief  Starts the TIM Base generation.
  * @param  htim TIM Base handle
  * @retval HAL status
  */
HAL_StatusTypeDef HAL_TIM_Base_Start(TIM_HandleTypeDef *htim)
{
 8001b30:	b580      	push	{r7, lr}
 8001b32:	b084      	sub	sp, #16
 8001b34:	af00      	add	r7, sp, #0
 8001b36:	6078      	str	r0, [r7, #4]

  /* Check the parameters */
  assert_param(IS_TIM_INSTANCE(htim->Instance));

  /* Set the TIM state */
  htim->State = HAL_TIM_STATE_BUSY;
 8001b38:	687b      	ldr	r3, [r7, #4]
 8001b3a:	223d      	movs	r2, #61	; 0x3d
 8001b3c:	2102      	movs	r1, #2
 8001b3e:	5499      	strb	r1, [r3, r2]

  /* Enable the Peripheral, except in trigger mode where enable is automatically done with trigger */
  tmpsmcr = htim->Instance->SMCR & TIM_SMCR_SMS;
 8001b40:	687b      	ldr	r3, [r7, #4]
 8001b42:	681b      	ldr	r3, [r3, #0]
 8001b44:	689b      	ldr	r3, [r3, #8]
 8001b46:	2207      	movs	r2, #7
 8001b48:	4013      	ands	r3, r2
 8001b4a:	60fb      	str	r3, [r7, #12]
  if (!IS_TIM_SLAVEMODE_TRIGGER_ENABLED(tmpsmcr))
 8001b4c:	68fb      	ldr	r3, [r7, #12]
 8001b4e:	2b06      	cmp	r3, #6
 8001b50:	d007      	beq.n	8001b62 <HAL_TIM_Base_Start+0x32>
  {
    __HAL_TIM_ENABLE(htim);
 8001b52:	687b      	ldr	r3, [r7, #4]
 8001b54:	681b      	ldr	r3, [r3, #0]
 8001b56:	681a      	ldr	r2, [r3, #0]
 8001b58:	687b      	ldr	r3, [r7, #4]
 8001b5a:	681b      	ldr	r3, [r3, #0]
 8001b5c:	2101      	movs	r1, #1
 8001b5e:	430a      	orrs	r2, r1
 8001b60:	601a      	str	r2, [r3, #0]
  }

  /* Change the TIM state*/
  htim->State = HAL_TIM_STATE_READY;
 8001b62:	687b      	ldr	r3, [r7, #4]
 8001b64:	223d      	movs	r2, #61	; 0x3d
 8001b66:	2101      	movs	r1, #1
 8001b68:	5499      	strb	r1, [r3, r2]

  /* Return function status */
  return HAL_OK;
 8001b6a:	2300      	movs	r3, #0
}
 8001b6c:	0018      	movs	r0, r3
 8001b6e:	46bd      	mov	sp, r7
 8001b70:	b004      	add	sp, #16
 8001b72:	bd80      	pop	{r7, pc}

08001b74 <HAL_TIM_PWM_Init>:
  *         Ex: call @ref HAL_TIM_PWM_DeInit() before HAL_TIM_PWM_Init()
  * @param  htim TIM PWM handle
  * @retval HAL status
  */
HAL_StatusTypeDef HAL_TIM_PWM_Init(TIM_HandleTypeDef *htim)
{
 8001b74:	b580      	push	{r7, lr}
 8001b76:	b082      	sub	sp, #8
 8001b78:	af00      	add	r7, sp, #0
 8001b7a:	6078      	str	r0, [r7, #4]
  /* Check the TIM handle allocation */
  if (htim == NULL)
 8001b7c:	687b      	ldr	r3, [r7, #4]
 8001b7e:	2b00      	cmp	r3, #0
 8001b80:	d101      	bne.n	8001b86 <HAL_TIM_PWM_Init+0x12>
  {
    return HAL_ERROR;
 8001b82:	2301      	movs	r3, #1
 8001b84:	e01e      	b.n	8001bc4 <HAL_TIM_PWM_Init+0x50>
  assert_param(IS_TIM_INSTANCE(htim->Instance));
  assert_param(IS_TIM_COUNTER_MODE(htim->Init.CounterMode));
  assert_param(IS_TIM_CLOCKDIVISION_DIV(htim->Init.ClockDivision));
  assert_param(IS_TIM_AUTORELOAD_PRELOAD(htim->Init.AutoReloadPreload));

  if (htim->State == HAL_TIM_STATE_RESET)
 8001b86:	687b      	ldr	r3, [r7, #4]
 8001b88:	223d      	movs	r2, #61	; 0x3d
 8001b8a:	5c9b      	ldrb	r3, [r3, r2]
 8001b8c:	b2db      	uxtb	r3, r3
 8001b8e:	2b00      	cmp	r3, #0
 8001b90:	d107      	bne.n	8001ba2 <HAL_TIM_PWM_Init+0x2e>
  {
    /* Allocate lock resource and initialize it */
    htim->Lock = HAL_UNLOCKED;
 8001b92:	687b      	ldr	r3, [r7, #4]
 8001b94:	223c      	movs	r2, #60	; 0x3c
 8001b96:	2100      	movs	r1, #0
 8001b98:	5499      	strb	r1, [r3, r2]
    }
    /* Init the low level hardware : GPIO, CLOCK, NVIC */
    htim->PWM_MspInitCallback(htim);
#else
    /* Init the low level hardware : GPIO, CLOCK, NVIC and DMA */
    HAL_TIM_PWM_MspInit(htim);
 8001b9a:	687b      	ldr	r3, [r7, #4]
 8001b9c:	0018      	movs	r0, r3
 8001b9e:	f7fe fed5 	bl	800094c <HAL_TIM_PWM_MspInit>
#endif /* USE_HAL_TIM_REGISTER_CALLBACKS */
  }

  /* Set the TIM state */
  htim->State = HAL_TIM_STATE_BUSY;
 8001ba2:	687b      	ldr	r3, [r7, #4]
 8001ba4:	223d      	movs	r2, #61	; 0x3d
 8001ba6:	2102      	movs	r1, #2
 8001ba8:	5499      	strb	r1, [r3, r2]

  /* Init the base time for the PWM */
  TIM_Base_SetConfig(htim->Instance, &htim->Init);
 8001baa:	687b      	ldr	r3, [r7, #4]
 8001bac:	681a      	ldr	r2, [r3, #0]
 8001bae:	687b      	ldr	r3, [r7, #4]
 8001bb0:	3304      	adds	r3, #4
 8001bb2:	0019      	movs	r1, r3
 8001bb4:	0010      	movs	r0, r2
 8001bb6:	f000 fadf 	bl	8002178 <TIM_Base_SetConfig>

  /* Initialize the TIM state*/
  htim->State = HAL_TIM_STATE_READY;
 8001bba:	687b      	ldr	r3, [r7, #4]
 8001bbc:	223d      	movs	r2, #61	; 0x3d
 8001bbe:	2101      	movs	r1, #1
 8001bc0:	5499      	strb	r1, [r3, r2]

  return HAL_OK;
 8001bc2:	2300      	movs	r3, #0
}
 8001bc4:	0018      	movs	r0, r3
 8001bc6:	46bd      	mov	sp, r7
 8001bc8:	b002      	add	sp, #8
 8001bca:	bd80      	pop	{r7, pc}

08001bcc <HAL_TIM_PWM_Start>:
  *            @arg TIM_CHANNEL_3: TIM Channel 3 selected
  *            @arg TIM_CHANNEL_4: TIM Channel 4 selected
  * @retval HAL status
  */
HAL_StatusTypeDef HAL_TIM_PWM_Start(TIM_HandleTypeDef *htim, uint32_t Channel)
{
 8001bcc:	b580      	push	{r7, lr}
 8001bce:	b084      	sub	sp, #16
 8001bd0:	af00      	add	r7, sp, #0
 8001bd2:	6078      	str	r0, [r7, #4]
 8001bd4:	6039      	str	r1, [r7, #0]

  /* Check the parameters */
  assert_param(IS_TIM_CCX_INSTANCE(htim->Instance, Channel));

  /* Enable the Capture compare channel */
  TIM_CCxChannelCmd(htim->Instance, Channel, TIM_CCx_ENABLE);
 8001bd6:	687b      	ldr	r3, [r7, #4]
 8001bd8:	681b      	ldr	r3, [r3, #0]
 8001bda:	6839      	ldr	r1, [r7, #0]
 8001bdc:	2201      	movs	r2, #1
 8001bde:	0018      	movs	r0, r3
 8001be0:	f000 fd46 	bl	8002670 <TIM_CCxChannelCmd>

  if (IS_TIM_BREAK_INSTANCE(htim->Instance) != RESET)
 8001be4:	687b      	ldr	r3, [r7, #4]
 8001be6:	681b      	ldr	r3, [r3, #0]
 8001be8:	4a1a      	ldr	r2, [pc, #104]	; (8001c54 <HAL_TIM_PWM_Start+0x88>)
 8001bea:	4293      	cmp	r3, r2
 8001bec:	d00e      	beq.n	8001c0c <HAL_TIM_PWM_Start+0x40>
 8001bee:	687b      	ldr	r3, [r7, #4]
 8001bf0:	681b      	ldr	r3, [r3, #0]
 8001bf2:	4a19      	ldr	r2, [pc, #100]	; (8001c58 <HAL_TIM_PWM_Start+0x8c>)
 8001bf4:	4293      	cmp	r3, r2
 8001bf6:	d009      	beq.n	8001c0c <HAL_TIM_PWM_Start+0x40>
 8001bf8:	687b      	ldr	r3, [r7, #4]
 8001bfa:	681b      	ldr	r3, [r3, #0]
 8001bfc:	4a17      	ldr	r2, [pc, #92]	; (8001c5c <HAL_TIM_PWM_Start+0x90>)
 8001bfe:	4293      	cmp	r3, r2
 8001c00:	d004      	beq.n	8001c0c <HAL_TIM_PWM_Start+0x40>
 8001c02:	687b      	ldr	r3, [r7, #4]
 8001c04:	681b      	ldr	r3, [r3, #0]
 8001c06:	4a16      	ldr	r2, [pc, #88]	; (8001c60 <HAL_TIM_PWM_Start+0x94>)
 8001c08:	4293      	cmp	r3, r2
 8001c0a:	d101      	bne.n	8001c10 <HAL_TIM_PWM_Start+0x44>
 8001c0c:	2301      	movs	r3, #1
 8001c0e:	e000      	b.n	8001c12 <HAL_TIM_PWM_Start+0x46>
 8001c10:	2300      	movs	r3, #0
 8001c12:	2b00      	cmp	r3, #0
 8001c14:	d008      	beq.n	8001c28 <HAL_TIM_PWM_Start+0x5c>
  {
    /* Enable the main output */
    __HAL_TIM_MOE_ENABLE(htim);
 8001c16:	687b      	ldr	r3, [r7, #4]
 8001c18:	681b      	ldr	r3, [r3, #0]
 8001c1a:	6c5a      	ldr	r2, [r3, #68]	; 0x44
 8001c1c:	687b      	ldr	r3, [r7, #4]
 8001c1e:	681b      	ldr	r3, [r3, #0]
 8001c20:	2180      	movs	r1, #128	; 0x80
 8001c22:	0209      	lsls	r1, r1, #8
 8001c24:	430a      	orrs	r2, r1
 8001c26:	645a      	str	r2, [r3, #68]	; 0x44
  }

  /* Enable the Peripheral, except in trigger mode where enable is automatically done with trigger */
  tmpsmcr = htim->Instance->SMCR & TIM_SMCR_SMS;
 8001c28:	687b      	ldr	r3, [r7, #4]
 8001c2a:	681b      	ldr	r3, [r3, #0]
 8001c2c:	689b      	ldr	r3, [r3, #8]
 8001c2e:	2207      	movs	r2, #7
 8001c30:	4013      	ands	r3, r2
 8001c32:	60fb      	str	r3, [r7, #12]
  if (!IS_TIM_SLAVEMODE_TRIGGER_ENABLED(tmpsmcr))
 8001c34:	68fb      	ldr	r3, [r7, #12]
 8001c36:	2b06      	cmp	r3, #6
 8001c38:	d007      	beq.n	8001c4a <HAL_TIM_PWM_Start+0x7e>
  {
    __HAL_TIM_ENABLE(htim);
 8001c3a:	687b      	ldr	r3, [r7, #4]
 8001c3c:	681b      	ldr	r3, [r3, #0]
 8001c3e:	681a      	ldr	r2, [r3, #0]
 8001c40:	687b      	ldr	r3, [r7, #4]
 8001c42:	681b      	ldr	r3, [r3, #0]
 8001c44:	2101      	movs	r1, #1
 8001c46:	430a      	orrs	r2, r1
 8001c48:	601a      	str	r2, [r3, #0]
  }

  /* Return function status */
  return HAL_OK;
 8001c4a:	2300      	movs	r3, #0
}
 8001c4c:	0018      	movs	r0, r3
 8001c4e:	46bd      	mov	sp, r7
 8001c50:	b004      	add	sp, #16
 8001c52:	bd80      	pop	{r7, pc}
 8001c54:	40012c00 	.word	0x40012c00
 8001c58:	40014000 	.word	0x40014000
 8001c5c:	40014400 	.word	0x40014400
 8001c60:	40014800 	.word	0x40014800

08001c64 <HAL_TIM_Encoder_Init>:
  * @param  htim TIM Encoder Interface handle
  * @param  sConfig TIM Encoder Interface configuration structure
  * @retval HAL status
  */
HAL_StatusTypeDef HAL_TIM_Encoder_Init(TIM_HandleTypeDef *htim,  TIM_Encoder_InitTypeDef *sConfig)
{
 8001c64:	b580      	push	{r7, lr}
 8001c66:	b086      	sub	sp, #24
 8001c68:	af00      	add	r7, sp, #0
 8001c6a:	6078      	str	r0, [r7, #4]
 8001c6c:	6039      	str	r1, [r7, #0]
  uint32_t tmpsmcr;
  uint32_t tmpccmr1;
  uint32_t tmpccer;

  /* Check the TIM handle allocation */
  if (htim == NULL)
 8001c6e:	687b      	ldr	r3, [r7, #4]
 8001c70:	2b00      	cmp	r3, #0
 8001c72:	d101      	bne.n	8001c78 <HAL_TIM_Encoder_Init+0x14>
  {
    return HAL_ERROR;
 8001c74:	2301      	movs	r3, #1
 8001c76:	e07c      	b.n	8001d72 <HAL_TIM_Encoder_Init+0x10e>
  assert_param(IS_TIM_IC_PRESCALER(sConfig->IC1Prescaler));
  assert_param(IS_TIM_IC_PRESCALER(sConfig->IC2Prescaler));
  assert_param(IS_TIM_IC_FILTER(sConfig->IC1Filter));
  assert_param(IS_TIM_IC_FILTER(sConfig->IC2Filter));

  if (htim->State == HAL_TIM_STATE_RESET)
 8001c78:	687b      	ldr	r3, [r7, #4]
 8001c7a:	223d      	movs	r2, #61	; 0x3d
 8001c7c:	5c9b      	ldrb	r3, [r3, r2]
 8001c7e:	b2db      	uxtb	r3, r3
 8001c80:	2b00      	cmp	r3, #0
 8001c82:	d107      	bne.n	8001c94 <HAL_TIM_Encoder_Init+0x30>
  {
    /* Allocate lock resource and initialize it */
    htim->Lock = HAL_UNLOCKED;
 8001c84:	687b      	ldr	r3, [r7, #4]
 8001c86:	223c      	movs	r2, #60	; 0x3c
 8001c88:	2100      	movs	r1, #0
 8001c8a:	5499      	strb	r1, [r3, r2]
    }
    /* Init the low level hardware : GPIO, CLOCK, NVIC */
    htim->Encoder_MspInitCallback(htim);
#else
    /* Init the low level hardware : GPIO, CLOCK, NVIC and DMA */
    HAL_TIM_Encoder_MspInit(htim);
 8001c8c:	687b      	ldr	r3, [r7, #4]
 8001c8e:	0018      	movs	r0, r3
 8001c90:	f7fe fe7c 	bl	800098c <HAL_TIM_Encoder_MspInit>
#endif /* USE_HAL_TIM_REGISTER_CALLBACKS */
  }

  /* Set the TIM state */
  htim->State = HAL_TIM_STATE_BUSY;
 8001c94:	687b      	ldr	r3, [r7, #4]
 8001c96:	223d      	movs	r2, #61	; 0x3d
 8001c98:	2102      	movs	r1, #2
 8001c9a:	5499      	strb	r1, [r3, r2]

  /* Reset the SMS and ECE bits */
  htim->Instance->SMCR &= ~(TIM_SMCR_SMS | TIM_SMCR_ECE);
 8001c9c:	687b      	ldr	r3, [r7, #4]
 8001c9e:	681b      	ldr	r3, [r3, #0]
 8001ca0:	689a      	ldr	r2, [r3, #8]
 8001ca2:	687b      	ldr	r3, [r7, #4]
 8001ca4:	681b      	ldr	r3, [r3, #0]
 8001ca6:	4935      	ldr	r1, [pc, #212]	; (8001d7c <HAL_TIM_Encoder_Init+0x118>)
 8001ca8:	400a      	ands	r2, r1
 8001caa:	609a      	str	r2, [r3, #8]

  /* Configure the Time base in the Encoder Mode */
  TIM_Base_SetConfig(htim->Instance, &htim->Init);
 8001cac:	687b      	ldr	r3, [r7, #4]
 8001cae:	681a      	ldr	r2, [r3, #0]
 8001cb0:	687b      	ldr	r3, [r7, #4]
 8001cb2:	3304      	adds	r3, #4
 8001cb4:	0019      	movs	r1, r3
 8001cb6:	0010      	movs	r0, r2
 8001cb8:	f000 fa5e 	bl	8002178 <TIM_Base_SetConfig>

  /* Get the TIMx SMCR register value */
  tmpsmcr = htim->Instance->SMCR;
 8001cbc:	687b      	ldr	r3, [r7, #4]
 8001cbe:	681b      	ldr	r3, [r3, #0]
 8001cc0:	689b      	ldr	r3, [r3, #8]
 8001cc2:	617b      	str	r3, [r7, #20]

  /* Get the TIMx CCMR1 register value */
  tmpccmr1 = htim->Instance->CCMR1;
 8001cc4:	687b      	ldr	r3, [r7, #4]
 8001cc6:	681b      	ldr	r3, [r3, #0]
 8001cc8:	699b      	ldr	r3, [r3, #24]
 8001cca:	613b      	str	r3, [r7, #16]

  /* Get the TIMx CCER register value */
  tmpccer = htim->Instance->CCER;
 8001ccc:	687b      	ldr	r3, [r7, #4]
 8001cce:	681b      	ldr	r3, [r3, #0]
 8001cd0:	6a1b      	ldr	r3, [r3, #32]
 8001cd2:	60fb      	str	r3, [r7, #12]

  /* Set the encoder Mode */
  tmpsmcr |= sConfig->EncoderMode;
 8001cd4:	683b      	ldr	r3, [r7, #0]
 8001cd6:	681b      	ldr	r3, [r3, #0]
 8001cd8:	697a      	ldr	r2, [r7, #20]
 8001cda:	4313      	orrs	r3, r2
 8001cdc:	617b      	str	r3, [r7, #20]

  /* Select the Capture Compare 1 and the Capture Compare 2 as input */
  tmpccmr1 &= ~(TIM_CCMR1_CC1S | TIM_CCMR1_CC2S);
 8001cde:	693b      	ldr	r3, [r7, #16]
 8001ce0:	4a27      	ldr	r2, [pc, #156]	; (8001d80 <HAL_TIM_Encoder_Init+0x11c>)
 8001ce2:	4013      	ands	r3, r2
 8001ce4:	613b      	str	r3, [r7, #16]
  tmpccmr1 |= (sConfig->IC1Selection | (sConfig->IC2Selection << 8U));
 8001ce6:	683b      	ldr	r3, [r7, #0]
 8001ce8:	689a      	ldr	r2, [r3, #8]
 8001cea:	683b      	ldr	r3, [r7, #0]
 8001cec:	699b      	ldr	r3, [r3, #24]
 8001cee:	021b      	lsls	r3, r3, #8
 8001cf0:	4313      	orrs	r3, r2
 8001cf2:	693a      	ldr	r2, [r7, #16]
 8001cf4:	4313      	orrs	r3, r2
 8001cf6:	613b      	str	r3, [r7, #16]

  /* Set the Capture Compare 1 and the Capture Compare 2 prescalers and filters */
  tmpccmr1 &= ~(TIM_CCMR1_IC1PSC | TIM_CCMR1_IC2PSC);
 8001cf8:	693b      	ldr	r3, [r7, #16]
 8001cfa:	4a22      	ldr	r2, [pc, #136]	; (8001d84 <HAL_TIM_Encoder_Init+0x120>)
 8001cfc:	4013      	ands	r3, r2
 8001cfe:	613b      	str	r3, [r7, #16]
  tmpccmr1 &= ~(TIM_CCMR1_IC1F | TIM_CCMR1_IC2F);
 8001d00:	693b      	ldr	r3, [r7, #16]
 8001d02:	4a21      	ldr	r2, [pc, #132]	; (8001d88 <HAL_TIM_Encoder_Init+0x124>)
 8001d04:	4013      	ands	r3, r2
 8001d06:	613b      	str	r3, [r7, #16]
  tmpccmr1 |= sConfig->IC1Prescaler | (sConfig->IC2Prescaler << 8U);
 8001d08:	683b      	ldr	r3, [r7, #0]
 8001d0a:	68da      	ldr	r2, [r3, #12]
 8001d0c:	683b      	ldr	r3, [r7, #0]
 8001d0e:	69db      	ldr	r3, [r3, #28]
 8001d10:	021b      	lsls	r3, r3, #8
 8001d12:	4313      	orrs	r3, r2
 8001d14:	693a      	ldr	r2, [r7, #16]
 8001d16:	4313      	orrs	r3, r2
 8001d18:	613b      	str	r3, [r7, #16]
  tmpccmr1 |= (sConfig->IC1Filter << 4U) | (sConfig->IC2Filter << 12U);
 8001d1a:	683b      	ldr	r3, [r7, #0]
 8001d1c:	691b      	ldr	r3, [r3, #16]
 8001d1e:	011a      	lsls	r2, r3, #4
 8001d20:	683b      	ldr	r3, [r7, #0]
 8001d22:	6a1b      	ldr	r3, [r3, #32]
 8001d24:	031b      	lsls	r3, r3, #12
 8001d26:	4313      	orrs	r3, r2
 8001d28:	693a      	ldr	r2, [r7, #16]
 8001d2a:	4313      	orrs	r3, r2
 8001d2c:	613b      	str	r3, [r7, #16]

  /* Set the TI1 and the TI2 Polarities */
  tmpccer &= ~(TIM_CCER_CC1P | TIM_CCER_CC2P);
 8001d2e:	68fb      	ldr	r3, [r7, #12]
 8001d30:	2222      	movs	r2, #34	; 0x22
 8001d32:	4393      	bics	r3, r2
 8001d34:	60fb      	str	r3, [r7, #12]
  tmpccer &= ~(TIM_CCER_CC1NP | TIM_CCER_CC2NP);
 8001d36:	68fb      	ldr	r3, [r7, #12]
 8001d38:	2288      	movs	r2, #136	; 0x88
 8001d3a:	4393      	bics	r3, r2
 8001d3c:	60fb      	str	r3, [r7, #12]
  tmpccer |= sConfig->IC1Polarity | (sConfig->IC2Polarity << 4U);
 8001d3e:	683b      	ldr	r3, [r7, #0]
 8001d40:	685a      	ldr	r2, [r3, #4]
 8001d42:	683b      	ldr	r3, [r7, #0]
 8001d44:	695b      	ldr	r3, [r3, #20]
 8001d46:	011b      	lsls	r3, r3, #4
 8001d48:	4313      	orrs	r3, r2
 8001d4a:	68fa      	ldr	r2, [r7, #12]
 8001d4c:	4313      	orrs	r3, r2
 8001d4e:	60fb      	str	r3, [r7, #12]

  /* Write to TIMx SMCR */
  htim->Instance->SMCR = tmpsmcr;
 8001d50:	687b      	ldr	r3, [r7, #4]
 8001d52:	681b      	ldr	r3, [r3, #0]
 8001d54:	697a      	ldr	r2, [r7, #20]
 8001d56:	609a      	str	r2, [r3, #8]

  /* Write to TIMx CCMR1 */
  htim->Instance->CCMR1 = tmpccmr1;
 8001d58:	687b      	ldr	r3, [r7, #4]
 8001d5a:	681b      	ldr	r3, [r3, #0]
 8001d5c:	693a      	ldr	r2, [r7, #16]
 8001d5e:	619a      	str	r2, [r3, #24]

  /* Write to TIMx CCER */
  htim->Instance->CCER = tmpccer;
 8001d60:	687b      	ldr	r3, [r7, #4]
 8001d62:	681b      	ldr	r3, [r3, #0]
 8001d64:	68fa      	ldr	r2, [r7, #12]
 8001d66:	621a      	str	r2, [r3, #32]

  /* Initialize the TIM state*/
  htim->State = HAL_TIM_STATE_READY;
 8001d68:	687b      	ldr	r3, [r7, #4]
 8001d6a:	223d      	movs	r2, #61	; 0x3d
 8001d6c:	2101      	movs	r1, #1
 8001d6e:	5499      	strb	r1, [r3, r2]

  return HAL_OK;
 8001d70:	2300      	movs	r3, #0
}
 8001d72:	0018      	movs	r0, r3
 8001d74:	46bd      	mov	sp, r7
 8001d76:	b006      	add	sp, #24
 8001d78:	bd80      	pop	{r7, pc}
 8001d7a:	46c0      	nop			; (mov r8, r8)
 8001d7c:	ffffbff8 	.word	0xffffbff8
 8001d80:	fffffcfc 	.word	0xfffffcfc
 8001d84:	fffff3f3 	.word	0xfffff3f3
 8001d88:	ffff0f0f 	.word	0xffff0f0f

08001d8c <HAL_TIM_IRQHandler>:
  * @brief  This function handles TIM interrupts requests.
  * @param  htim TIM  handle
  * @retval None
  */
void HAL_TIM_IRQHandler(TIM_HandleTypeDef *htim)
{
 8001d8c:	b580      	push	{r7, lr}
 8001d8e:	b082      	sub	sp, #8
 8001d90:	af00      	add	r7, sp, #0
 8001d92:	6078      	str	r0, [r7, #4]
  /* Capture compare 1 event */
  if (__HAL_TIM_GET_FLAG(htim, TIM_FLAG_CC1) != RESET)
 8001d94:	687b      	ldr	r3, [r7, #4]
 8001d96:	681b      	ldr	r3, [r3, #0]
 8001d98:	691b      	ldr	r3, [r3, #16]
 8001d9a:	2202      	movs	r2, #2
 8001d9c:	4013      	ands	r3, r2
 8001d9e:	2b02      	cmp	r3, #2
 8001da0:	d124      	bne.n	8001dec <HAL_TIM_IRQHandler+0x60>
  {
    if (__HAL_TIM_GET_IT_SOURCE(htim, TIM_IT_CC1) != RESET)
 8001da2:	687b      	ldr	r3, [r7, #4]
 8001da4:	681b      	ldr	r3, [r3, #0]
 8001da6:	68db      	ldr	r3, [r3, #12]
 8001da8:	2202      	movs	r2, #2
 8001daa:	4013      	ands	r3, r2
 8001dac:	2b02      	cmp	r3, #2
 8001dae:	d11d      	bne.n	8001dec <HAL_TIM_IRQHandler+0x60>
    {
      {
        __HAL_TIM_CLEAR_IT(htim, TIM_IT_CC1);
 8001db0:	687b      	ldr	r3, [r7, #4]
 8001db2:	681b      	ldr	r3, [r3, #0]
 8001db4:	2203      	movs	r2, #3
 8001db6:	4252      	negs	r2, r2
 8001db8:	611a      	str	r2, [r3, #16]
        htim->Channel = HAL_TIM_ACTIVE_CHANNEL_1;
 8001dba:	687b      	ldr	r3, [r7, #4]
 8001dbc:	2201      	movs	r2, #1
 8001dbe:	771a      	strb	r2, [r3, #28]

        /* Input capture event */
        if ((htim->Instance->CCMR1 & TIM_CCMR1_CC1S) != 0x00U)
 8001dc0:	687b      	ldr	r3, [r7, #4]
 8001dc2:	681b      	ldr	r3, [r3, #0]
 8001dc4:	699b      	ldr	r3, [r3, #24]
 8001dc6:	2203      	movs	r2, #3
 8001dc8:	4013      	ands	r3, r2
 8001dca:	d004      	beq.n	8001dd6 <HAL_TIM_IRQHandler+0x4a>
        {
#if (USE_HAL_TIM_REGISTER_CALLBACKS == 1)
          htim->IC_CaptureCallback(htim);
#else
          HAL_TIM_IC_CaptureCallback(htim);
 8001dcc:	687b      	ldr	r3, [r7, #4]
 8001dce:	0018      	movs	r0, r3
 8001dd0:	f000 f9ba 	bl	8002148 <HAL_TIM_IC_CaptureCallback>
 8001dd4:	e007      	b.n	8001de6 <HAL_TIM_IRQHandler+0x5a>
        {
#if (USE_HAL_TIM_REGISTER_CALLBACKS == 1)
          htim->OC_DelayElapsedCallback(htim);
          htim->PWM_PulseFinishedCallback(htim);
#else
          HAL_TIM_OC_DelayElapsedCallback(htim);
 8001dd6:	687b      	ldr	r3, [r7, #4]
 8001dd8:	0018      	movs	r0, r3
 8001dda:	f000 f9ad 	bl	8002138 <HAL_TIM_OC_DelayElapsedCallback>
          HAL_TIM_PWM_PulseFinishedCallback(htim);
 8001dde:	687b      	ldr	r3, [r7, #4]
 8001de0:	0018      	movs	r0, r3
 8001de2:	f000 f9b9 	bl	8002158 <HAL_TIM_PWM_PulseFinishedCallback>
#endif /* USE_HAL_TIM_REGISTER_CALLBACKS */
        }
        htim->Channel = HAL_TIM_ACTIVE_CHANNEL_CLEARED;
 8001de6:	687b      	ldr	r3, [r7, #4]
 8001de8:	2200      	movs	r2, #0
 8001dea:	771a      	strb	r2, [r3, #28]
      }
    }
  }
  /* Capture compare 2 event */
  if (__HAL_TIM_GET_FLAG(htim, TIM_FLAG_CC2) != RESET)
 8001dec:	687b      	ldr	r3, [r7, #4]
 8001dee:	681b      	ldr	r3, [r3, #0]
 8001df0:	691b      	ldr	r3, [r3, #16]
 8001df2:	2204      	movs	r2, #4
 8001df4:	4013      	ands	r3, r2
 8001df6:	2b04      	cmp	r3, #4
 8001df8:	d125      	bne.n	8001e46 <HAL_TIM_IRQHandler+0xba>
  {
    if (__HAL_TIM_GET_IT_SOURCE(htim, TIM_IT_CC2) != RESET)
 8001dfa:	687b      	ldr	r3, [r7, #4]
 8001dfc:	681b      	ldr	r3, [r3, #0]
 8001dfe:	68db      	ldr	r3, [r3, #12]
 8001e00:	2204      	movs	r2, #4
 8001e02:	4013      	ands	r3, r2
 8001e04:	2b04      	cmp	r3, #4
 8001e06:	d11e      	bne.n	8001e46 <HAL_TIM_IRQHandler+0xba>
    {
      __HAL_TIM_CLEAR_IT(htim, TIM_IT_CC2);
 8001e08:	687b      	ldr	r3, [r7, #4]
 8001e0a:	681b      	ldr	r3, [r3, #0]
 8001e0c:	2205      	movs	r2, #5
 8001e0e:	4252      	negs	r2, r2
 8001e10:	611a      	str	r2, [r3, #16]
      htim->Channel = HAL_TIM_ACTIVE_CHANNEL_2;
 8001e12:	687b      	ldr	r3, [r7, #4]
 8001e14:	2202      	movs	r2, #2
 8001e16:	771a      	strb	r2, [r3, #28]
      /* Input capture event */
      if ((htim->Instance->CCMR1 & TIM_CCMR1_CC2S) != 0x00U)
 8001e18:	687b      	ldr	r3, [r7, #4]
 8001e1a:	681b      	ldr	r3, [r3, #0]
 8001e1c:	699a      	ldr	r2, [r3, #24]
 8001e1e:	23c0      	movs	r3, #192	; 0xc0
 8001e20:	009b      	lsls	r3, r3, #2
 8001e22:	4013      	ands	r3, r2
 8001e24:	d004      	beq.n	8001e30 <HAL_TIM_IRQHandler+0xa4>
      {
#if (USE_HAL_TIM_REGISTER_CALLBACKS == 1)
        htim->IC_CaptureCallback(htim);
#else
        HAL_TIM_IC_CaptureCallback(htim);
 8001e26:	687b      	ldr	r3, [r7, #4]
 8001e28:	0018      	movs	r0, r3
 8001e2a:	f000 f98d 	bl	8002148 <HAL_TIM_IC_CaptureCallback>
 8001e2e:	e007      	b.n	8001e40 <HAL_TIM_IRQHandler+0xb4>
      {
#if (USE_HAL_TIM_REGISTER_CALLBACKS == 1)
        htim->OC_DelayElapsedCallback(htim);
        htim->PWM_PulseFinishedCallback(htim);
#else
        HAL_TIM_OC_DelayElapsedCallback(htim);
 8001e30:	687b      	ldr	r3, [r7, #4]
 8001e32:	0018      	movs	r0, r3
 8001e34:	f000 f980 	bl	8002138 <HAL_TIM_OC_DelayElapsedCallback>
        HAL_TIM_PWM_PulseFinishedCallback(htim);
 8001e38:	687b      	ldr	r3, [r7, #4]
 8001e3a:	0018      	movs	r0, r3
 8001e3c:	f000 f98c 	bl	8002158 <HAL_TIM_PWM_PulseFinishedCallback>
#endif /* USE_HAL_TIM_REGISTER_CALLBACKS */
      }
      htim->Channel = HAL_TIM_ACTIVE_CHANNEL_CLEARED;
 8001e40:	687b      	ldr	r3, [r7, #4]
 8001e42:	2200      	movs	r2, #0
 8001e44:	771a      	strb	r2, [r3, #28]
    }
  }
  /* Capture compare 3 event */
  if (__HAL_TIM_GET_FLAG(htim, TIM_FLAG_CC3) != RESET)
 8001e46:	687b      	ldr	r3, [r7, #4]
 8001e48:	681b      	ldr	r3, [r3, #0]
 8001e4a:	691b      	ldr	r3, [r3, #16]
 8001e4c:	2208      	movs	r2, #8
 8001e4e:	4013      	ands	r3, r2
 8001e50:	2b08      	cmp	r3, #8
 8001e52:	d124      	bne.n	8001e9e <HAL_TIM_IRQHandler+0x112>
  {
    if (__HAL_TIM_GET_IT_SOURCE(htim, TIM_IT_CC3) != RESET)
 8001e54:	687b      	ldr	r3, [r7, #4]
 8001e56:	681b      	ldr	r3, [r3, #0]
 8001e58:	68db      	ldr	r3, [r3, #12]
 8001e5a:	2208      	movs	r2, #8
 8001e5c:	4013      	ands	r3, r2
 8001e5e:	2b08      	cmp	r3, #8
 8001e60:	d11d      	bne.n	8001e9e <HAL_TIM_IRQHandler+0x112>
    {
      __HAL_TIM_CLEAR_IT(htim, TIM_IT_CC3);
 8001e62:	687b      	ldr	r3, [r7, #4]
 8001e64:	681b      	ldr	r3, [r3, #0]
 8001e66:	2209      	movs	r2, #9
 8001e68:	4252      	negs	r2, r2
 8001e6a:	611a      	str	r2, [r3, #16]
      htim->Channel = HAL_TIM_ACTIVE_CHANNEL_3;
 8001e6c:	687b      	ldr	r3, [r7, #4]
 8001e6e:	2204      	movs	r2, #4
 8001e70:	771a      	strb	r2, [r3, #28]
      /* Input capture event */
      if ((htim->Instance->CCMR2 & TIM_CCMR2_CC3S) != 0x00U)
 8001e72:	687b      	ldr	r3, [r7, #4]
 8001e74:	681b      	ldr	r3, [r3, #0]
 8001e76:	69db      	ldr	r3, [r3, #28]
 8001e78:	2203      	movs	r2, #3
 8001e7a:	4013      	ands	r3, r2
 8001e7c:	d004      	beq.n	8001e88 <HAL_TIM_IRQHandler+0xfc>
      {
#if (USE_HAL_TIM_REGISTER_CALLBACKS == 1)
        htim->IC_CaptureCallback(htim);
#else
        HAL_TIM_IC_CaptureCallback(htim);
 8001e7e:	687b      	ldr	r3, [r7, #4]
 8001e80:	0018      	movs	r0, r3
 8001e82:	f000 f961 	bl	8002148 <HAL_TIM_IC_CaptureCallback>
 8001e86:	e007      	b.n	8001e98 <HAL_TIM_IRQHandler+0x10c>
      {
#if (USE_HAL_TIM_REGISTER_CALLBACKS == 1)
        htim->OC_DelayElapsedCallback(htim);
        htim->PWM_PulseFinishedCallback(htim);
#else
        HAL_TIM_OC_DelayElapsedCallback(htim);
 8001e88:	687b      	ldr	r3, [r7, #4]
 8001e8a:	0018      	movs	r0, r3
 8001e8c:	f000 f954 	bl	8002138 <HAL_TIM_OC_DelayElapsedCallback>
        HAL_TIM_PWM_PulseFinishedCallback(htim);
 8001e90:	687b      	ldr	r3, [r7, #4]
 8001e92:	0018      	movs	r0, r3
 8001e94:	f000 f960 	bl	8002158 <HAL_TIM_PWM_PulseFinishedCallback>
#endif /* USE_HAL_TIM_REGISTER_CALLBACKS */
      }
      htim->Channel = HAL_TIM_ACTIVE_CHANNEL_CLEARED;
 8001e98:	687b      	ldr	r3, [r7, #4]
 8001e9a:	2200      	movs	r2, #0
 8001e9c:	771a      	strb	r2, [r3, #28]
    }
  }
  /* Capture compare 4 event */
  if (__HAL_TIM_GET_FLAG(htim, TIM_FLAG_CC4) != RESET)
 8001e9e:	687b      	ldr	r3, [r7, #4]
 8001ea0:	681b      	ldr	r3, [r3, #0]
 8001ea2:	691b      	ldr	r3, [r3, #16]
 8001ea4:	2210      	movs	r2, #16
 8001ea6:	4013      	ands	r3, r2
 8001ea8:	2b10      	cmp	r3, #16
 8001eaa:	d125      	bne.n	8001ef8 <HAL_TIM_IRQHandler+0x16c>
  {
    if (__HAL_TIM_GET_IT_SOURCE(htim, TIM_IT_CC4) != RESET)
 8001eac:	687b      	ldr	r3, [r7, #4]
 8001eae:	681b      	ldr	r3, [r3, #0]
 8001eb0:	68db      	ldr	r3, [r3, #12]
 8001eb2:	2210      	movs	r2, #16
 8001eb4:	4013      	ands	r3, r2
 8001eb6:	2b10      	cmp	r3, #16
 8001eb8:	d11e      	bne.n	8001ef8 <HAL_TIM_IRQHandler+0x16c>
    {
      __HAL_TIM_CLEAR_IT(htim, TIM_IT_CC4);
 8001eba:	687b      	ldr	r3, [r7, #4]
 8001ebc:	681b      	ldr	r3, [r3, #0]
 8001ebe:	2211      	movs	r2, #17
 8001ec0:	4252      	negs	r2, r2
 8001ec2:	611a      	str	r2, [r3, #16]
      htim->Channel = HAL_TIM_ACTIVE_CHANNEL_4;
 8001ec4:	687b      	ldr	r3, [r7, #4]
 8001ec6:	2208      	movs	r2, #8
 8001ec8:	771a      	strb	r2, [r3, #28]
      /* Input capture event */
      if ((htim->Instance->CCMR2 & TIM_CCMR2_CC4S) != 0x00U)
 8001eca:	687b      	ldr	r3, [r7, #4]
 8001ecc:	681b      	ldr	r3, [r3, #0]
 8001ece:	69da      	ldr	r2, [r3, #28]
 8001ed0:	23c0      	movs	r3, #192	; 0xc0
 8001ed2:	009b      	lsls	r3, r3, #2
 8001ed4:	4013      	ands	r3, r2
 8001ed6:	d004      	beq.n	8001ee2 <HAL_TIM_IRQHandler+0x156>
      {
#if (USE_HAL_TIM_REGISTER_CALLBACKS == 1)
        htim->IC_CaptureCallback(htim);
#else
        HAL_TIM_IC_CaptureCallback(htim);
 8001ed8:	687b      	ldr	r3, [r7, #4]
 8001eda:	0018      	movs	r0, r3
 8001edc:	f000 f934 	bl	8002148 <HAL_TIM_IC_CaptureCallback>
 8001ee0:	e007      	b.n	8001ef2 <HAL_TIM_IRQHandler+0x166>
      {
#if (USE_HAL_TIM_REGISTER_CALLBACKS == 1)
        htim->OC_DelayElapsedCallback(htim);
        htim->PWM_PulseFinishedCallback(htim);
#else
        HAL_TIM_OC_DelayElapsedCallback(htim);
 8001ee2:	687b      	ldr	r3, [r7, #4]
 8001ee4:	0018      	movs	r0, r3
 8001ee6:	f000 f927 	bl	8002138 <HAL_TIM_OC_DelayElapsedCallback>
        HAL_TIM_PWM_PulseFinishedCallback(htim);
 8001eea:	687b      	ldr	r3, [r7, #4]
 8001eec:	0018      	movs	r0, r3
 8001eee:	f000 f933 	bl	8002158 <HAL_TIM_PWM_PulseFinishedCallback>
#endif /* USE_HAL_TIM_REGISTER_CALLBACKS */
      }
      htim->Channel = HAL_TIM_ACTIVE_CHANNEL_CLEARED;
 8001ef2:	687b      	ldr	r3, [r7, #4]
 8001ef4:	2200      	movs	r2, #0
 8001ef6:	771a      	strb	r2, [r3, #28]
    }
  }
  /* TIM Update event */
  if (__HAL_TIM_GET_FLAG(htim, TIM_FLAG_UPDATE) != RESET)
 8001ef8:	687b      	ldr	r3, [r7, #4]
 8001efa:	681b      	ldr	r3, [r3, #0]
 8001efc:	691b      	ldr	r3, [r3, #16]
 8001efe:	2201      	movs	r2, #1
 8001f00:	4013      	ands	r3, r2
 8001f02:	2b01      	cmp	r3, #1
 8001f04:	d10f      	bne.n	8001f26 <HAL_TIM_IRQHandler+0x19a>
  {
    if (__HAL_TIM_GET_IT_SOURCE(htim, TIM_IT_UPDATE) != RESET)
 8001f06:	687b      	ldr	r3, [r7, #4]
 8001f08:	681b      	ldr	r3, [r3, #0]
 8001f0a:	68db      	ldr	r3, [r3, #12]
 8001f0c:	2201      	movs	r2, #1
 8001f0e:	4013      	ands	r3, r2
 8001f10:	2b01      	cmp	r3, #1
 8001f12:	d108      	bne.n	8001f26 <HAL_TIM_IRQHandler+0x19a>
    {
      __HAL_TIM_CLEAR_IT(htim, TIM_IT_UPDATE);
 8001f14:	687b      	ldr	r3, [r7, #4]
 8001f16:	681b      	ldr	r3, [r3, #0]
 8001f18:	2202      	movs	r2, #2
 8001f1a:	4252      	negs	r2, r2
 8001f1c:	611a      	str	r2, [r3, #16]
#if (USE_HAL_TIM_REGISTER_CALLBACKS == 1)
      htim->PeriodElapsedCallback(htim);
#else
      HAL_TIM_PeriodElapsedCallback(htim);
 8001f1e:	687b      	ldr	r3, [r7, #4]
 8001f20:	0018      	movs	r0, r3
 8001f22:	f000 f901 	bl	8002128 <HAL_TIM_PeriodElapsedCallback>
#endif /* USE_HAL_TIM_REGISTER_CALLBACKS */
    }
  }
  /* TIM Break input event */
  if (__HAL_TIM_GET_FLAG(htim, TIM_FLAG_BREAK) != RESET)
 8001f26:	687b      	ldr	r3, [r7, #4]
 8001f28:	681b      	ldr	r3, [r3, #0]
 8001f2a:	691b      	ldr	r3, [r3, #16]
 8001f2c:	2280      	movs	r2, #128	; 0x80
 8001f2e:	4013      	ands	r3, r2
 8001f30:	2b80      	cmp	r3, #128	; 0x80
 8001f32:	d10f      	bne.n	8001f54 <HAL_TIM_IRQHandler+0x1c8>
  {
    if (__HAL_TIM_GET_IT_SOURCE(htim, TIM_IT_BREAK) != RESET)
 8001f34:	687b      	ldr	r3, [r7, #4]
 8001f36:	681b      	ldr	r3, [r3, #0]
 8001f38:	68db      	ldr	r3, [r3, #12]
 8001f3a:	2280      	movs	r2, #128	; 0x80
 8001f3c:	4013      	ands	r3, r2
 8001f3e:	2b80      	cmp	r3, #128	; 0x80
 8001f40:	d108      	bne.n	8001f54 <HAL_TIM_IRQHandler+0x1c8>
    {
      __HAL_TIM_CLEAR_IT(htim, TIM_IT_BREAK);
 8001f42:	687b      	ldr	r3, [r7, #4]
 8001f44:	681b      	ldr	r3, [r3, #0]
 8001f46:	2281      	movs	r2, #129	; 0x81
 8001f48:	4252      	negs	r2, r2
 8001f4a:	611a      	str	r2, [r3, #16]
#if (USE_HAL_TIM_REGISTER_CALLBACKS == 1)
      htim->BreakCallback(htim);
#else
      HAL_TIMEx_BreakCallback(htim);
 8001f4c:	687b      	ldr	r3, [r7, #4]
 8001f4e:	0018      	movs	r0, r3
 8001f50:	f000 fc76 	bl	8002840 <HAL_TIMEx_BreakCallback>
#endif /* USE_HAL_TIM_REGISTER_CALLBACKS */
    }
  }
  /* TIM Trigger detection event */
  if (__HAL_TIM_GET_FLAG(htim, TIM_FLAG_TRIGGER) != RESET)
 8001f54:	687b      	ldr	r3, [r7, #4]
 8001f56:	681b      	ldr	r3, [r3, #0]
 8001f58:	691b      	ldr	r3, [r3, #16]
 8001f5a:	2240      	movs	r2, #64	; 0x40
 8001f5c:	4013      	ands	r3, r2
 8001f5e:	2b40      	cmp	r3, #64	; 0x40
 8001f60:	d10f      	bne.n	8001f82 <HAL_TIM_IRQHandler+0x1f6>
  {
    if (__HAL_TIM_GET_IT_SOURCE(htim, TIM_IT_TRIGGER) != RESET)
 8001f62:	687b      	ldr	r3, [r7, #4]
 8001f64:	681b      	ldr	r3, [r3, #0]
 8001f66:	68db      	ldr	r3, [r3, #12]
 8001f68:	2240      	movs	r2, #64	; 0x40
 8001f6a:	4013      	ands	r3, r2
 8001f6c:	2b40      	cmp	r3, #64	; 0x40
 8001f6e:	d108      	bne.n	8001f82 <HAL_TIM_IRQHandler+0x1f6>
    {
      __HAL_TIM_CLEAR_IT(htim, TIM_IT_TRIGGER);
 8001f70:	687b      	ldr	r3, [r7, #4]
 8001f72:	681b      	ldr	r3, [r3, #0]
 8001f74:	2241      	movs	r2, #65	; 0x41
 8001f76:	4252      	negs	r2, r2
 8001f78:	611a      	str	r2, [r3, #16]
#if (USE_HAL_TIM_REGISTER_CALLBACKS == 1)
      htim->TriggerCallback(htim);
#else
      HAL_TIM_TriggerCallback(htim);
 8001f7a:	687b      	ldr	r3, [r7, #4]
 8001f7c:	0018      	movs	r0, r3
 8001f7e:	f000 f8f3 	bl	8002168 <HAL_TIM_TriggerCallback>
#endif /* USE_HAL_TIM_REGISTER_CALLBACKS */
    }
  }
  /* TIM commutation event */
  if (__HAL_TIM_GET_FLAG(htim, TIM_FLAG_COM) != RESET)
 8001f82:	687b      	ldr	r3, [r7, #4]
 8001f84:	681b      	ldr	r3, [r3, #0]
 8001f86:	691b      	ldr	r3, [r3, #16]
 8001f88:	2220      	movs	r2, #32
 8001f8a:	4013      	ands	r3, r2
 8001f8c:	2b20      	cmp	r3, #32
 8001f8e:	d10f      	bne.n	8001fb0 <HAL_TIM_IRQHandler+0x224>
  {
    if (__HAL_TIM_GET_IT_SOURCE(htim, TIM_IT_COM) != RESET)
 8001f90:	687b      	ldr	r3, [r7, #4]
 8001f92:	681b      	ldr	r3, [r3, #0]
 8001f94:	68db      	ldr	r3, [r3, #12]
 8001f96:	2220      	movs	r2, #32
 8001f98:	4013      	ands	r3, r2
 8001f9a:	2b20      	cmp	r3, #32
 8001f9c:	d108      	bne.n	8001fb0 <HAL_TIM_IRQHandler+0x224>
    {
      __HAL_TIM_CLEAR_IT(htim, TIM_FLAG_COM);
 8001f9e:	687b      	ldr	r3, [r7, #4]
 8001fa0:	681b      	ldr	r3, [r3, #0]
 8001fa2:	2221      	movs	r2, #33	; 0x21
 8001fa4:	4252      	negs	r2, r2
 8001fa6:	611a      	str	r2, [r3, #16]
#if (USE_HAL_TIM_REGISTER_CALLBACKS == 1)
      htim->CommutationCallback(htim);
#else
      HAL_TIMEx_CommutCallback(htim);
 8001fa8:	687b      	ldr	r3, [r7, #4]
 8001faa:	0018      	movs	r0, r3
 8001fac:	f000 fc40 	bl	8002830 <HAL_TIMEx_CommutCallback>
#endif /* USE_HAL_TIM_REGISTER_CALLBACKS */
    }
  }
}
 8001fb0:	46c0      	nop			; (mov r8, r8)
 8001fb2:	46bd      	mov	sp, r7
 8001fb4:	b002      	add	sp, #8
 8001fb6:	bd80      	pop	{r7, pc}

08001fb8 <HAL_TIM_PWM_ConfigChannel>:
  * @retval HAL status
  */
HAL_StatusTypeDef HAL_TIM_PWM_ConfigChannel(TIM_HandleTypeDef *htim,
                                            TIM_OC_InitTypeDef *sConfig,
                                            uint32_t Channel)
{
 8001fb8:	b580      	push	{r7, lr}
 8001fba:	b084      	sub	sp, #16
 8001fbc:	af00      	add	r7, sp, #0
 8001fbe:	60f8      	str	r0, [r7, #12]
 8001fc0:	60b9      	str	r1, [r7, #8]
 8001fc2:	607a      	str	r2, [r7, #4]
  assert_param(IS_TIM_PWM_MODE(sConfig->OCMode));
  assert_param(IS_TIM_OC_POLARITY(sConfig->OCPolarity));
  assert_param(IS_TIM_FAST_STATE(sConfig->OCFastMode));

  /* Process Locked */
  __HAL_LOCK(htim);
 8001fc4:	68fb      	ldr	r3, [r7, #12]
 8001fc6:	223c      	movs	r2, #60	; 0x3c
 8001fc8:	5c9b      	ldrb	r3, [r3, r2]
 8001fca:	2b01      	cmp	r3, #1
 8001fcc:	d101      	bne.n	8001fd2 <HAL_TIM_PWM_ConfigChannel+0x1a>
 8001fce:	2302      	movs	r3, #2
 8001fd0:	e0a4      	b.n	800211c <HAL_TIM_PWM_ConfigChannel+0x164>
 8001fd2:	68fb      	ldr	r3, [r7, #12]
 8001fd4:	223c      	movs	r2, #60	; 0x3c
 8001fd6:	2101      	movs	r1, #1
 8001fd8:	5499      	strb	r1, [r3, r2]

  htim->State = HAL_TIM_STATE_BUSY;
 8001fda:	68fb      	ldr	r3, [r7, #12]
 8001fdc:	223d      	movs	r2, #61	; 0x3d
 8001fde:	2102      	movs	r1, #2
 8001fe0:	5499      	strb	r1, [r3, r2]

  switch (Channel)
 8001fe2:	687b      	ldr	r3, [r7, #4]
 8001fe4:	2b04      	cmp	r3, #4
 8001fe6:	d029      	beq.n	800203c <HAL_TIM_PWM_ConfigChannel+0x84>
 8001fe8:	d802      	bhi.n	8001ff0 <HAL_TIM_PWM_ConfigChannel+0x38>
 8001fea:	2b00      	cmp	r3, #0
 8001fec:	d005      	beq.n	8001ffa <HAL_TIM_PWM_ConfigChannel+0x42>
      htim->Instance->CCMR2 |= sConfig->OCFastMode << 8U;
      break;
    }

    default:
      break;
 8001fee:	e08c      	b.n	800210a <HAL_TIM_PWM_ConfigChannel+0x152>
  switch (Channel)
 8001ff0:	2b08      	cmp	r3, #8
 8001ff2:	d046      	beq.n	8002082 <HAL_TIM_PWM_ConfigChannel+0xca>
 8001ff4:	2b0c      	cmp	r3, #12
 8001ff6:	d065      	beq.n	80020c4 <HAL_TIM_PWM_ConfigChannel+0x10c>
      break;
 8001ff8:	e087      	b.n	800210a <HAL_TIM_PWM_ConfigChannel+0x152>
      TIM_OC1_SetConfig(htim->Instance, sConfig);
 8001ffa:	68fb      	ldr	r3, [r7, #12]
 8001ffc:	681b      	ldr	r3, [r3, #0]
 8001ffe:	68ba      	ldr	r2, [r7, #8]
 8002000:	0011      	movs	r1, r2
 8002002:	0018      	movs	r0, r3
 8002004:	f000 f938 	bl	8002278 <TIM_OC1_SetConfig>
      htim->Instance->CCMR1 |= TIM_CCMR1_OC1PE;
 8002008:	68fb      	ldr	r3, [r7, #12]
 800200a:	681b      	ldr	r3, [r3, #0]
 800200c:	699a      	ldr	r2, [r3, #24]
 800200e:	68fb      	ldr	r3, [r7, #12]
 8002010:	681b      	ldr	r3, [r3, #0]
 8002012:	2108      	movs	r1, #8
 8002014:	430a      	orrs	r2, r1
 8002016:	619a      	str	r2, [r3, #24]
      htim->Instance->CCMR1 &= ~TIM_CCMR1_OC1FE;
 8002018:	68fb      	ldr	r3, [r7, #12]
 800201a:	681b      	ldr	r3, [r3, #0]
 800201c:	699a      	ldr	r2, [r3, #24]
 800201e:	68fb      	ldr	r3, [r7, #12]
 8002020:	681b      	ldr	r3, [r3, #0]
 8002022:	2104      	movs	r1, #4
 8002024:	438a      	bics	r2, r1
 8002026:	619a      	str	r2, [r3, #24]
      htim->Instance->CCMR1 |= sConfig->OCFastMode;
 8002028:	68fb      	ldr	r3, [r7, #12]
 800202a:	681b      	ldr	r3, [r3, #0]
 800202c:	6999      	ldr	r1, [r3, #24]
 800202e:	68bb      	ldr	r3, [r7, #8]
 8002030:	691a      	ldr	r2, [r3, #16]
 8002032:	68fb      	ldr	r3, [r7, #12]
 8002034:	681b      	ldr	r3, [r3, #0]
 8002036:	430a      	orrs	r2, r1
 8002038:	619a      	str	r2, [r3, #24]
      break;
 800203a:	e066      	b.n	800210a <HAL_TIM_PWM_ConfigChannel+0x152>
      TIM_OC2_SetConfig(htim->Instance, sConfig);
 800203c:	68fb      	ldr	r3, [r7, #12]
 800203e:	681b      	ldr	r3, [r3, #0]
 8002040:	68ba      	ldr	r2, [r7, #8]
 8002042:	0011      	movs	r1, r2
 8002044:	0018      	movs	r0, r3
 8002046:	f000 f99f 	bl	8002388 <TIM_OC2_SetConfig>
      htim->Instance->CCMR1 |= TIM_CCMR1_OC2PE;
 800204a:	68fb      	ldr	r3, [r7, #12]
 800204c:	681b      	ldr	r3, [r3, #0]
 800204e:	699a      	ldr	r2, [r3, #24]
 8002050:	68fb      	ldr	r3, [r7, #12]
 8002052:	681b      	ldr	r3, [r3, #0]
 8002054:	2180      	movs	r1, #128	; 0x80
 8002056:	0109      	lsls	r1, r1, #4
 8002058:	430a      	orrs	r2, r1
 800205a:	619a      	str	r2, [r3, #24]
      htim->Instance->CCMR1 &= ~TIM_CCMR1_OC2FE;
 800205c:	68fb      	ldr	r3, [r7, #12]
 800205e:	681b      	ldr	r3, [r3, #0]
 8002060:	699a      	ldr	r2, [r3, #24]
 8002062:	68fb      	ldr	r3, [r7, #12]
 8002064:	681b      	ldr	r3, [r3, #0]
 8002066:	492f      	ldr	r1, [pc, #188]	; (8002124 <HAL_TIM_PWM_ConfigChannel+0x16c>)
 8002068:	400a      	ands	r2, r1
 800206a:	619a      	str	r2, [r3, #24]
      htim->Instance->CCMR1 |= sConfig->OCFastMode << 8U;
 800206c:	68fb      	ldr	r3, [r7, #12]
 800206e:	681b      	ldr	r3, [r3, #0]
 8002070:	6999      	ldr	r1, [r3, #24]
 8002072:	68bb      	ldr	r3, [r7, #8]
 8002074:	691b      	ldr	r3, [r3, #16]
 8002076:	021a      	lsls	r2, r3, #8
 8002078:	68fb      	ldr	r3, [r7, #12]
 800207a:	681b      	ldr	r3, [r3, #0]
 800207c:	430a      	orrs	r2, r1
 800207e:	619a      	str	r2, [r3, #24]
      break;
 8002080:	e043      	b.n	800210a <HAL_TIM_PWM_ConfigChannel+0x152>
      TIM_OC3_SetConfig(htim->Instance, sConfig);
 8002082:	68fb      	ldr	r3, [r7, #12]
 8002084:	681b      	ldr	r3, [r3, #0]
 8002086:	68ba      	ldr	r2, [r7, #8]
 8002088:	0011      	movs	r1, r2
 800208a:	0018      	movs	r0, r3
 800208c:	f000 fa00 	bl	8002490 <TIM_OC3_SetConfig>
      htim->Instance->CCMR2 |= TIM_CCMR2_OC3PE;
 8002090:	68fb      	ldr	r3, [r7, #12]
 8002092:	681b      	ldr	r3, [r3, #0]
 8002094:	69da      	ldr	r2, [r3, #28]
 8002096:	68fb      	ldr	r3, [r7, #12]
 8002098:	681b      	ldr	r3, [r3, #0]
 800209a:	2108      	movs	r1, #8
 800209c:	430a      	orrs	r2, r1
 800209e:	61da      	str	r2, [r3, #28]
      htim->Instance->CCMR2 &= ~TIM_CCMR2_OC3FE;
 80020a0:	68fb      	ldr	r3, [r7, #12]
 80020a2:	681b      	ldr	r3, [r3, #0]
 80020a4:	69da      	ldr	r2, [r3, #28]
 80020a6:	68fb      	ldr	r3, [r7, #12]
 80020a8:	681b      	ldr	r3, [r3, #0]
 80020aa:	2104      	movs	r1, #4
 80020ac:	438a      	bics	r2, r1
 80020ae:	61da      	str	r2, [r3, #28]
      htim->Instance->CCMR2 |= sConfig->OCFastMode;
 80020b0:	68fb      	ldr	r3, [r7, #12]
 80020b2:	681b      	ldr	r3, [r3, #0]
 80020b4:	69d9      	ldr	r1, [r3, #28]
 80020b6:	68bb      	ldr	r3, [r7, #8]
 80020b8:	691a      	ldr	r2, [r3, #16]
 80020ba:	68fb      	ldr	r3, [r7, #12]
 80020bc:	681b      	ldr	r3, [r3, #0]
 80020be:	430a      	orrs	r2, r1
 80020c0:	61da      	str	r2, [r3, #28]
      break;
 80020c2:	e022      	b.n	800210a <HAL_TIM_PWM_ConfigChannel+0x152>
      TIM_OC4_SetConfig(htim->Instance, sConfig);
 80020c4:	68fb      	ldr	r3, [r7, #12]
 80020c6:	681b      	ldr	r3, [r3, #0]
 80020c8:	68ba      	ldr	r2, [r7, #8]
 80020ca:	0011      	movs	r1, r2
 80020cc:	0018      	movs	r0, r3
 80020ce:	f000 fa65 	bl	800259c <TIM_OC4_SetConfig>
      htim->Instance->CCMR2 |= TIM_CCMR2_OC4PE;
 80020d2:	68fb      	ldr	r3, [r7, #12]
 80020d4:	681b      	ldr	r3, [r3, #0]
 80020d6:	69da      	ldr	r2, [r3, #28]
 80020d8:	68fb      	ldr	r3, [r7, #12]
 80020da:	681b      	ldr	r3, [r3, #0]
 80020dc:	2180      	movs	r1, #128	; 0x80
 80020de:	0109      	lsls	r1, r1, #4
 80020e0:	430a      	orrs	r2, r1
 80020e2:	61da      	str	r2, [r3, #28]
      htim->Instance->CCMR2 &= ~TIM_CCMR2_OC4FE;
 80020e4:	68fb      	ldr	r3, [r7, #12]
 80020e6:	681b      	ldr	r3, [r3, #0]
 80020e8:	69da      	ldr	r2, [r3, #28]
 80020ea:	68fb      	ldr	r3, [r7, #12]
 80020ec:	681b      	ldr	r3, [r3, #0]
 80020ee:	490d      	ldr	r1, [pc, #52]	; (8002124 <HAL_TIM_PWM_ConfigChannel+0x16c>)
 80020f0:	400a      	ands	r2, r1
 80020f2:	61da      	str	r2, [r3, #28]
      htim->Instance->CCMR2 |= sConfig->OCFastMode << 8U;
 80020f4:	68fb      	ldr	r3, [r7, #12]
 80020f6:	681b      	ldr	r3, [r3, #0]
 80020f8:	69d9      	ldr	r1, [r3, #28]
 80020fa:	68bb      	ldr	r3, [r7, #8]
 80020fc:	691b      	ldr	r3, [r3, #16]
 80020fe:	021a      	lsls	r2, r3, #8
 8002100:	68fb      	ldr	r3, [r7, #12]
 8002102:	681b      	ldr	r3, [r3, #0]
 8002104:	430a      	orrs	r2, r1
 8002106:	61da      	str	r2, [r3, #28]
      break;
 8002108:	46c0      	nop			; (mov r8, r8)
  }

  htim->State = HAL_TIM_STATE_READY;
 800210a:	68fb      	ldr	r3, [r7, #12]
 800210c:	223d      	movs	r2, #61	; 0x3d
 800210e:	2101      	movs	r1, #1
 8002110:	5499      	strb	r1, [r3, r2]

  __HAL_UNLOCK(htim);
 8002112:	68fb      	ldr	r3, [r7, #12]
 8002114:	223c      	movs	r2, #60	; 0x3c
 8002116:	2100      	movs	r1, #0
 8002118:	5499      	strb	r1, [r3, r2]

  return HAL_OK;
 800211a:	2300      	movs	r3, #0
}
 800211c:	0018      	movs	r0, r3
 800211e:	46bd      	mov	sp, r7
 8002120:	b004      	add	sp, #16
 8002122:	bd80      	pop	{r7, pc}
 8002124:	fffffbff 	.word	0xfffffbff

08002128 <HAL_TIM_PeriodElapsedCallback>:
  * @brief  Period elapsed callback in non-blocking mode
  * @param  htim TIM handle
  * @retval None
  */
__weak void HAL_TIM_PeriodElapsedCallback(TIM_HandleTypeDef *htim)
{
 8002128:	b580      	push	{r7, lr}
 800212a:	b082      	sub	sp, #8
 800212c:	af00      	add	r7, sp, #0
 800212e:	6078      	str	r0, [r7, #4]
  UNUSED(htim);

  /* NOTE : This function should not be modified, when the callback is needed,
            the HAL_TIM_PeriodElapsedCallback could be implemented in the user file
   */
}
 8002130:	46c0      	nop			; (mov r8, r8)
 8002132:	46bd      	mov	sp, r7
 8002134:	b002      	add	sp, #8
 8002136:	bd80      	pop	{r7, pc}

08002138 <HAL_TIM_OC_DelayElapsedCallback>:
  * @brief  Output Compare callback in non-blocking mode
  * @param  htim TIM OC handle
  * @retval None
  */
__weak void HAL_TIM_OC_DelayElapsedCallback(TIM_HandleTypeDef *htim)
{
 8002138:	b580      	push	{r7, lr}
 800213a:	b082      	sub	sp, #8
 800213c:	af00      	add	r7, sp, #0
 800213e:	6078      	str	r0, [r7, #4]
  UNUSED(htim);

  /* NOTE : This function should not be modified, when the callback is needed,
            the HAL_TIM_OC_DelayElapsedCallback could be implemented in the user file
   */
}
 8002140:	46c0      	nop			; (mov r8, r8)
 8002142:	46bd      	mov	sp, r7
 8002144:	b002      	add	sp, #8
 8002146:	bd80      	pop	{r7, pc}

08002148 <HAL_TIM_IC_CaptureCallback>:
  * @brief  Input Capture callback in non-blocking mode
  * @param  htim TIM IC handle
  * @retval None
  */
__weak void HAL_TIM_IC_CaptureCallback(TIM_HandleTypeDef *htim)
{
 8002148:	b580      	push	{r7, lr}
 800214a:	b082      	sub	sp, #8
 800214c:	af00      	add	r7, sp, #0
 800214e:	6078      	str	r0, [r7, #4]
  UNUSED(htim);

  /* NOTE : This function should not be modified, when the callback is needed,
            the HAL_TIM_IC_CaptureCallback could be implemented in the user file
   */
}
 8002150:	46c0      	nop			; (mov r8, r8)
 8002152:	46bd      	mov	sp, r7
 8002154:	b002      	add	sp, #8
 8002156:	bd80      	pop	{r7, pc}

08002158 <HAL_TIM_PWM_PulseFinishedCallback>:
  * @brief  PWM Pulse finished callback in non-blocking mode
  * @param  htim TIM handle
  * @retval None
  */
__weak void HAL_TIM_PWM_PulseFinishedCallback(TIM_HandleTypeDef *htim)
{
 8002158:	b580      	push	{r7, lr}
 800215a:	b082      	sub	sp, #8
 800215c:	af00      	add	r7, sp, #0
 800215e:	6078      	str	r0, [r7, #4]
  UNUSED(htim);

  /* NOTE : This function should not be modified, when the callback is needed,
            the HAL_TIM_PWM_PulseFinishedCallback could be implemented in the user file
   */
}
 8002160:	46c0      	nop			; (mov r8, r8)
 8002162:	46bd      	mov	sp, r7
 8002164:	b002      	add	sp, #8
 8002166:	bd80      	pop	{r7, pc}

08002168 <HAL_TIM_TriggerCallback>:
  * @brief  Hall Trigger detection callback in non-blocking mode
  * @param  htim TIM handle
  * @retval None
  */
__weak void HAL_TIM_TriggerCallback(TIM_HandleTypeDef *htim)
{
 8002168:	b580      	push	{r7, lr}
 800216a:	b082      	sub	sp, #8
 800216c:	af00      	add	r7, sp, #0
 800216e:	6078      	str	r0, [r7, #4]
  UNUSED(htim);

  /* NOTE : This function should not be modified, when the callback is needed,
            the HAL_TIM_TriggerCallback could be implemented in the user file
   */
}
 8002170:	46c0      	nop			; (mov r8, r8)
 8002172:	46bd      	mov	sp, r7
 8002174:	b002      	add	sp, #8
 8002176:	bd80      	pop	{r7, pc}

08002178 <TIM_Base_SetConfig>:
  * @param  TIMx TIM peripheral
  * @param  Structure TIM Base configuration structure
  * @retval None
  */
void TIM_Base_SetConfig(TIM_TypeDef *TIMx, TIM_Base_InitTypeDef *Structure)
{
 8002178:	b580      	push	{r7, lr}
 800217a:	b084      	sub	sp, #16
 800217c:	af00      	add	r7, sp, #0
 800217e:	6078      	str	r0, [r7, #4]
 8002180:	6039      	str	r1, [r7, #0]
  uint32_t tmpcr1;
  tmpcr1 = TIMx->CR1;
 8002182:	687b      	ldr	r3, [r7, #4]
 8002184:	681b      	ldr	r3, [r3, #0]
 8002186:	60fb      	str	r3, [r7, #12]

  /* Set TIM Time Base Unit parameters ---------------------------------------*/
  if (IS_TIM_COUNTER_MODE_SELECT_INSTANCE(TIMx))
 8002188:	687b      	ldr	r3, [r7, #4]
 800218a:	4a34      	ldr	r2, [pc, #208]	; (800225c <TIM_Base_SetConfig+0xe4>)
 800218c:	4293      	cmp	r3, r2
 800218e:	d008      	beq.n	80021a2 <TIM_Base_SetConfig+0x2a>
 8002190:	687a      	ldr	r2, [r7, #4]
 8002192:	2380      	movs	r3, #128	; 0x80
 8002194:	05db      	lsls	r3, r3, #23
 8002196:	429a      	cmp	r2, r3
 8002198:	d003      	beq.n	80021a2 <TIM_Base_SetConfig+0x2a>
 800219a:	687b      	ldr	r3, [r7, #4]
 800219c:	4a30      	ldr	r2, [pc, #192]	; (8002260 <TIM_Base_SetConfig+0xe8>)
 800219e:	4293      	cmp	r3, r2
 80021a0:	d108      	bne.n	80021b4 <TIM_Base_SetConfig+0x3c>
  {
    /* Select the Counter Mode */
    tmpcr1 &= ~(TIM_CR1_DIR | TIM_CR1_CMS);
 80021a2:	68fb      	ldr	r3, [r7, #12]
 80021a4:	2270      	movs	r2, #112	; 0x70
 80021a6:	4393      	bics	r3, r2
 80021a8:	60fb      	str	r3, [r7, #12]
    tmpcr1 |= Structure->CounterMode;
 80021aa:	683b      	ldr	r3, [r7, #0]
 80021ac:	685b      	ldr	r3, [r3, #4]
 80021ae:	68fa      	ldr	r2, [r7, #12]
 80021b0:	4313      	orrs	r3, r2
 80021b2:	60fb      	str	r3, [r7, #12]
  }

  if (IS_TIM_CLOCK_DIVISION_INSTANCE(TIMx))
 80021b4:	687b      	ldr	r3, [r7, #4]
 80021b6:	4a29      	ldr	r2, [pc, #164]	; (800225c <TIM_Base_SetConfig+0xe4>)
 80021b8:	4293      	cmp	r3, r2
 80021ba:	d018      	beq.n	80021ee <TIM_Base_SetConfig+0x76>
 80021bc:	687a      	ldr	r2, [r7, #4]
 80021be:	2380      	movs	r3, #128	; 0x80
 80021c0:	05db      	lsls	r3, r3, #23
 80021c2:	429a      	cmp	r2, r3
 80021c4:	d013      	beq.n	80021ee <TIM_Base_SetConfig+0x76>
 80021c6:	687b      	ldr	r3, [r7, #4]
 80021c8:	4a25      	ldr	r2, [pc, #148]	; (8002260 <TIM_Base_SetConfig+0xe8>)
 80021ca:	4293      	cmp	r3, r2
 80021cc:	d00f      	beq.n	80021ee <TIM_Base_SetConfig+0x76>
 80021ce:	687b      	ldr	r3, [r7, #4]
 80021d0:	4a24      	ldr	r2, [pc, #144]	; (8002264 <TIM_Base_SetConfig+0xec>)
 80021d2:	4293      	cmp	r3, r2
 80021d4:	d00b      	beq.n	80021ee <TIM_Base_SetConfig+0x76>
 80021d6:	687b      	ldr	r3, [r7, #4]
 80021d8:	4a23      	ldr	r2, [pc, #140]	; (8002268 <TIM_Base_SetConfig+0xf0>)
 80021da:	4293      	cmp	r3, r2
 80021dc:	d007      	beq.n	80021ee <TIM_Base_SetConfig+0x76>
 80021de:	687b      	ldr	r3, [r7, #4]
 80021e0:	4a22      	ldr	r2, [pc, #136]	; (800226c <TIM_Base_SetConfig+0xf4>)
 80021e2:	4293      	cmp	r3, r2
 80021e4:	d003      	beq.n	80021ee <TIM_Base_SetConfig+0x76>
 80021e6:	687b      	ldr	r3, [r7, #4]
 80021e8:	4a21      	ldr	r2, [pc, #132]	; (8002270 <TIM_Base_SetConfig+0xf8>)
 80021ea:	4293      	cmp	r3, r2
 80021ec:	d108      	bne.n	8002200 <TIM_Base_SetConfig+0x88>
  {
    /* Set the clock division */
    tmpcr1 &= ~TIM_CR1_CKD;
 80021ee:	68fb      	ldr	r3, [r7, #12]
 80021f0:	4a20      	ldr	r2, [pc, #128]	; (8002274 <TIM_Base_SetConfig+0xfc>)
 80021f2:	4013      	ands	r3, r2
 80021f4:	60fb      	str	r3, [r7, #12]
    tmpcr1 |= (uint32_t)Structure->ClockDivision;
 80021f6:	683b      	ldr	r3, [r7, #0]
 80021f8:	68db      	ldr	r3, [r3, #12]
 80021fa:	68fa      	ldr	r2, [r7, #12]
 80021fc:	4313      	orrs	r3, r2
 80021fe:	60fb      	str	r3, [r7, #12]
  }

  /* Set the auto-reload preload */
  MODIFY_REG(tmpcr1, TIM_CR1_ARPE, Structure->AutoReloadPreload);
 8002200:	68fb      	ldr	r3, [r7, #12]
 8002202:	2280      	movs	r2, #128	; 0x80
 8002204:	4393      	bics	r3, r2
 8002206:	001a      	movs	r2, r3
 8002208:	683b      	ldr	r3, [r7, #0]
 800220a:	695b      	ldr	r3, [r3, #20]
 800220c:	4313      	orrs	r3, r2
 800220e:	60fb      	str	r3, [r7, #12]

  TIMx->CR1 = tmpcr1;
 8002210:	687b      	ldr	r3, [r7, #4]
 8002212:	68fa      	ldr	r2, [r7, #12]
 8002214:	601a      	str	r2, [r3, #0]

  /* Set the Autoreload value */
  TIMx->ARR = (uint32_t)Structure->Period ;
 8002216:	683b      	ldr	r3, [r7, #0]
 8002218:	689a      	ldr	r2, [r3, #8]
 800221a:	687b      	ldr	r3, [r7, #4]
 800221c:	62da      	str	r2, [r3, #44]	; 0x2c

  /* Set the Prescaler value */
  TIMx->PSC = Structure->Prescaler;
 800221e:	683b      	ldr	r3, [r7, #0]
 8002220:	681a      	ldr	r2, [r3, #0]
 8002222:	687b      	ldr	r3, [r7, #4]
 8002224:	629a      	str	r2, [r3, #40]	; 0x28

  if (IS_TIM_REPETITION_COUNTER_INSTANCE(TIMx))
 8002226:	687b      	ldr	r3, [r7, #4]
 8002228:	4a0c      	ldr	r2, [pc, #48]	; (800225c <TIM_Base_SetConfig+0xe4>)
 800222a:	4293      	cmp	r3, r2
 800222c:	d00b      	beq.n	8002246 <TIM_Base_SetConfig+0xce>
 800222e:	687b      	ldr	r3, [r7, #4]
 8002230:	4a0d      	ldr	r2, [pc, #52]	; (8002268 <TIM_Base_SetConfig+0xf0>)
 8002232:	4293      	cmp	r3, r2
 8002234:	d007      	beq.n	8002246 <TIM_Base_SetConfig+0xce>
 8002236:	687b      	ldr	r3, [r7, #4]
 8002238:	4a0c      	ldr	r2, [pc, #48]	; (800226c <TIM_Base_SetConfig+0xf4>)
 800223a:	4293      	cmp	r3, r2
 800223c:	d003      	beq.n	8002246 <TIM_Base_SetConfig+0xce>
 800223e:	687b      	ldr	r3, [r7, #4]
 8002240:	4a0b      	ldr	r2, [pc, #44]	; (8002270 <TIM_Base_SetConfig+0xf8>)
 8002242:	4293      	cmp	r3, r2
 8002244:	d103      	bne.n	800224e <TIM_Base_SetConfig+0xd6>
  {
    /* Set the Repetition Counter value */
    TIMx->RCR = Structure->RepetitionCounter;
 8002246:	683b      	ldr	r3, [r7, #0]
 8002248:	691a      	ldr	r2, [r3, #16]
 800224a:	687b      	ldr	r3, [r7, #4]
 800224c:	631a      	str	r2, [r3, #48]	; 0x30
  }

  /* Generate an update event to reload the Prescaler
     and the repetition counter (only for advanced timer) value immediately */
  TIMx->EGR = TIM_EGR_UG;
 800224e:	687b      	ldr	r3, [r7, #4]
 8002250:	2201      	movs	r2, #1
 8002252:	615a      	str	r2, [r3, #20]
}
 8002254:	46c0      	nop			; (mov r8, r8)
 8002256:	46bd      	mov	sp, r7
 8002258:	b004      	add	sp, #16
 800225a:	bd80      	pop	{r7, pc}
 800225c:	40012c00 	.word	0x40012c00
 8002260:	40000400 	.word	0x40000400
 8002264:	40002000 	.word	0x40002000
 8002268:	40014000 	.word	0x40014000
 800226c:	40014400 	.word	0x40014400
 8002270:	40014800 	.word	0x40014800
 8002274:	fffffcff 	.word	0xfffffcff

08002278 <TIM_OC1_SetConfig>:
  * @param  TIMx to select the TIM peripheral
  * @param  OC_Config The ouput configuration structure
  * @retval None
  */
static void TIM_OC1_SetConfig(TIM_TypeDef *TIMx, TIM_OC_InitTypeDef *OC_Config)
{
 8002278:	b580      	push	{r7, lr}
 800227a:	b086      	sub	sp, #24
 800227c:	af00      	add	r7, sp, #0
 800227e:	6078      	str	r0, [r7, #4]
 8002280:	6039      	str	r1, [r7, #0]
  uint32_t tmpccmrx;
  uint32_t tmpccer;
  uint32_t tmpcr2;

  /* Disable the Channel 1: Reset the CC1E Bit */
  TIMx->CCER &= ~TIM_CCER_CC1E;
 8002282:	687b      	ldr	r3, [r7, #4]
 8002284:	6a1b      	ldr	r3, [r3, #32]
 8002286:	2201      	movs	r2, #1
 8002288:	4393      	bics	r3, r2
 800228a:	001a      	movs	r2, r3
 800228c:	687b      	ldr	r3, [r7, #4]
 800228e:	621a      	str	r2, [r3, #32]

  /* Get the TIMx CCER register value */
  tmpccer = TIMx->CCER;
 8002290:	687b      	ldr	r3, [r7, #4]
 8002292:	6a1b      	ldr	r3, [r3, #32]
 8002294:	617b      	str	r3, [r7, #20]
  /* Get the TIMx CR2 register value */
  tmpcr2 =  TIMx->CR2;
 8002296:	687b      	ldr	r3, [r7, #4]
 8002298:	685b      	ldr	r3, [r3, #4]
 800229a:	613b      	str	r3, [r7, #16]

  /* Get the TIMx CCMR1 register value */
  tmpccmrx = TIMx->CCMR1;
 800229c:	687b      	ldr	r3, [r7, #4]
 800229e:	699b      	ldr	r3, [r3, #24]
 80022a0:	60fb      	str	r3, [r7, #12]

  /* Reset the Output Compare Mode Bits */
  tmpccmrx &= ~TIM_CCMR1_OC1M;
 80022a2:	68fb      	ldr	r3, [r7, #12]
 80022a4:	2270      	movs	r2, #112	; 0x70
 80022a6:	4393      	bics	r3, r2
 80022a8:	60fb      	str	r3, [r7, #12]
  tmpccmrx &= ~TIM_CCMR1_CC1S;
 80022aa:	68fb      	ldr	r3, [r7, #12]
 80022ac:	2203      	movs	r2, #3
 80022ae:	4393      	bics	r3, r2
 80022b0:	60fb      	str	r3, [r7, #12]
  /* Select the Output Compare Mode */
  tmpccmrx |= OC_Config->OCMode;
 80022b2:	683b      	ldr	r3, [r7, #0]
 80022b4:	681b      	ldr	r3, [r3, #0]
 80022b6:	68fa      	ldr	r2, [r7, #12]
 80022b8:	4313      	orrs	r3, r2
 80022ba:	60fb      	str	r3, [r7, #12]

  /* Reset the Output Polarity level */
  tmpccer &= ~TIM_CCER_CC1P;
 80022bc:	697b      	ldr	r3, [r7, #20]
 80022be:	2202      	movs	r2, #2
 80022c0:	4393      	bics	r3, r2
 80022c2:	617b      	str	r3, [r7, #20]
  /* Set the Output Compare Polarity */
  tmpccer |= OC_Config->OCPolarity;
 80022c4:	683b      	ldr	r3, [r7, #0]
 80022c6:	689b      	ldr	r3, [r3, #8]
 80022c8:	697a      	ldr	r2, [r7, #20]
 80022ca:	4313      	orrs	r3, r2
 80022cc:	617b      	str	r3, [r7, #20]

  if (IS_TIM_CCXN_INSTANCE(TIMx, TIM_CHANNEL_1))
 80022ce:	687b      	ldr	r3, [r7, #4]
 80022d0:	4a27      	ldr	r2, [pc, #156]	; (8002370 <TIM_OC1_SetConfig+0xf8>)
 80022d2:	4293      	cmp	r3, r2
 80022d4:	d00b      	beq.n	80022ee <TIM_OC1_SetConfig+0x76>
 80022d6:	687b      	ldr	r3, [r7, #4]
 80022d8:	4a26      	ldr	r2, [pc, #152]	; (8002374 <TIM_OC1_SetConfig+0xfc>)
 80022da:	4293      	cmp	r3, r2
 80022dc:	d007      	beq.n	80022ee <TIM_OC1_SetConfig+0x76>
 80022de:	687b      	ldr	r3, [r7, #4]
 80022e0:	4a25      	ldr	r2, [pc, #148]	; (8002378 <TIM_OC1_SetConfig+0x100>)
 80022e2:	4293      	cmp	r3, r2
 80022e4:	d003      	beq.n	80022ee <TIM_OC1_SetConfig+0x76>
 80022e6:	687b      	ldr	r3, [r7, #4]
 80022e8:	4a24      	ldr	r2, [pc, #144]	; (800237c <TIM_OC1_SetConfig+0x104>)
 80022ea:	4293      	cmp	r3, r2
 80022ec:	d10c      	bne.n	8002308 <TIM_OC1_SetConfig+0x90>
  {
    /* Check parameters */
    assert_param(IS_TIM_OCN_POLARITY(OC_Config->OCNPolarity));

    /* Reset the Output N Polarity level */
    tmpccer &= ~TIM_CCER_CC1NP;
 80022ee:	697b      	ldr	r3, [r7, #20]
 80022f0:	2208      	movs	r2, #8
 80022f2:	4393      	bics	r3, r2
 80022f4:	617b      	str	r3, [r7, #20]
    /* Set the Output N Polarity */
    tmpccer |= OC_Config->OCNPolarity;
 80022f6:	683b      	ldr	r3, [r7, #0]
 80022f8:	68db      	ldr	r3, [r3, #12]
 80022fa:	697a      	ldr	r2, [r7, #20]
 80022fc:	4313      	orrs	r3, r2
 80022fe:	617b      	str	r3, [r7, #20]
    /* Reset the Output N State */
    tmpccer &= ~TIM_CCER_CC1NE;
 8002300:	697b      	ldr	r3, [r7, #20]
 8002302:	2204      	movs	r2, #4
 8002304:	4393      	bics	r3, r2
 8002306:	617b      	str	r3, [r7, #20]
  }

  if (IS_TIM_BREAK_INSTANCE(TIMx))
 8002308:	687b      	ldr	r3, [r7, #4]
 800230a:	4a19      	ldr	r2, [pc, #100]	; (8002370 <TIM_OC1_SetConfig+0xf8>)
 800230c:	4293      	cmp	r3, r2
 800230e:	d00b      	beq.n	8002328 <TIM_OC1_SetConfig+0xb0>
 8002310:	687b      	ldr	r3, [r7, #4]
 8002312:	4a18      	ldr	r2, [pc, #96]	; (8002374 <TIM_OC1_SetConfig+0xfc>)
 8002314:	4293      	cmp	r3, r2
 8002316:	d007      	beq.n	8002328 <TIM_OC1_SetConfig+0xb0>
 8002318:	687b      	ldr	r3, [r7, #4]
 800231a:	4a17      	ldr	r2, [pc, #92]	; (8002378 <TIM_OC1_SetConfig+0x100>)
 800231c:	4293      	cmp	r3, r2
 800231e:	d003      	beq.n	8002328 <TIM_OC1_SetConfig+0xb0>
 8002320:	687b      	ldr	r3, [r7, #4]
 8002322:	4a16      	ldr	r2, [pc, #88]	; (800237c <TIM_OC1_SetConfig+0x104>)
 8002324:	4293      	cmp	r3, r2
 8002326:	d111      	bne.n	800234c <TIM_OC1_SetConfig+0xd4>
    /* Check parameters */
    assert_param(IS_TIM_OCNIDLE_STATE(OC_Config->OCNIdleState));
    assert_param(IS_TIM_OCIDLE_STATE(OC_Config->OCIdleState));

    /* Reset the Output Compare and Output Compare N IDLE State */
    tmpcr2 &= ~TIM_CR2_OIS1;
 8002328:	693b      	ldr	r3, [r7, #16]
 800232a:	4a15      	ldr	r2, [pc, #84]	; (8002380 <TIM_OC1_SetConfig+0x108>)
 800232c:	4013      	ands	r3, r2
 800232e:	613b      	str	r3, [r7, #16]
    tmpcr2 &= ~TIM_CR2_OIS1N;
 8002330:	693b      	ldr	r3, [r7, #16]
 8002332:	4a14      	ldr	r2, [pc, #80]	; (8002384 <TIM_OC1_SetConfig+0x10c>)
 8002334:	4013      	ands	r3, r2
 8002336:	613b      	str	r3, [r7, #16]
    /* Set the Output Idle state */
    tmpcr2 |= OC_Config->OCIdleState;
 8002338:	683b      	ldr	r3, [r7, #0]
 800233a:	695b      	ldr	r3, [r3, #20]
 800233c:	693a      	ldr	r2, [r7, #16]
 800233e:	4313      	orrs	r3, r2
 8002340:	613b      	str	r3, [r7, #16]
    /* Set the Output N Idle state */
    tmpcr2 |= OC_Config->OCNIdleState;
 8002342:	683b      	ldr	r3, [r7, #0]
 8002344:	699b      	ldr	r3, [r3, #24]
 8002346:	693a      	ldr	r2, [r7, #16]
 8002348:	4313      	orrs	r3, r2
 800234a:	613b      	str	r3, [r7, #16]
  }

  /* Write to TIMx CR2 */
  TIMx->CR2 = tmpcr2;
 800234c:	687b      	ldr	r3, [r7, #4]
 800234e:	693a      	ldr	r2, [r7, #16]
 8002350:	605a      	str	r2, [r3, #4]

  /* Write to TIMx CCMR1 */
  TIMx->CCMR1 = tmpccmrx;
 8002352:	687b      	ldr	r3, [r7, #4]
 8002354:	68fa      	ldr	r2, [r7, #12]
 8002356:	619a      	str	r2, [r3, #24]

  /* Set the Capture Compare Register value */
  TIMx->CCR1 = OC_Config->Pulse;
 8002358:	683b      	ldr	r3, [r7, #0]
 800235a:	685a      	ldr	r2, [r3, #4]
 800235c:	687b      	ldr	r3, [r7, #4]
 800235e:	635a      	str	r2, [r3, #52]	; 0x34

  /* Write to TIMx CCER */
  TIMx->CCER = tmpccer;
 8002360:	687b      	ldr	r3, [r7, #4]
 8002362:	697a      	ldr	r2, [r7, #20]
 8002364:	621a      	str	r2, [r3, #32]
}
 8002366:	46c0      	nop			; (mov r8, r8)
 8002368:	46bd      	mov	sp, r7
 800236a:	b006      	add	sp, #24
 800236c:	bd80      	pop	{r7, pc}
 800236e:	46c0      	nop			; (mov r8, r8)
 8002370:	40012c00 	.word	0x40012c00
 8002374:	40014000 	.word	0x40014000
 8002378:	40014400 	.word	0x40014400
 800237c:	40014800 	.word	0x40014800
 8002380:	fffffeff 	.word	0xfffffeff
 8002384:	fffffdff 	.word	0xfffffdff

08002388 <TIM_OC2_SetConfig>:
  * @param  TIMx to select the TIM peripheral
  * @param  OC_Config The ouput configuration structure
  * @retval None
  */
void TIM_OC2_SetConfig(TIM_TypeDef *TIMx, TIM_OC_InitTypeDef *OC_Config)
{
 8002388:	b580      	push	{r7, lr}
 800238a:	b086      	sub	sp, #24
 800238c:	af00      	add	r7, sp, #0
 800238e:	6078      	str	r0, [r7, #4]
 8002390:	6039      	str	r1, [r7, #0]
  uint32_t tmpccmrx;
  uint32_t tmpccer;
  uint32_t tmpcr2;

  /* Disable the Channel 2: Reset the CC2E Bit */
  TIMx->CCER &= ~TIM_CCER_CC2E;
 8002392:	687b      	ldr	r3, [r7, #4]
 8002394:	6a1b      	ldr	r3, [r3, #32]
 8002396:	2210      	movs	r2, #16
 8002398:	4393      	bics	r3, r2
 800239a:	001a      	movs	r2, r3
 800239c:	687b      	ldr	r3, [r7, #4]
 800239e:	621a      	str	r2, [r3, #32]

  /* Get the TIMx CCER register value */
  tmpccer = TIMx->CCER;
 80023a0:	687b      	ldr	r3, [r7, #4]
 80023a2:	6a1b      	ldr	r3, [r3, #32]
 80023a4:	617b      	str	r3, [r7, #20]
  /* Get the TIMx CR2 register value */
  tmpcr2 =  TIMx->CR2;
 80023a6:	687b      	ldr	r3, [r7, #4]
 80023a8:	685b      	ldr	r3, [r3, #4]
 80023aa:	613b      	str	r3, [r7, #16]

  /* Get the TIMx CCMR1 register value */
  tmpccmrx = TIMx->CCMR1;
 80023ac:	687b      	ldr	r3, [r7, #4]
 80023ae:	699b      	ldr	r3, [r3, #24]
 80023b0:	60fb      	str	r3, [r7, #12]

  /* Reset the Output Compare mode and Capture/Compare selection Bits */
  tmpccmrx &= ~TIM_CCMR1_OC2M;
 80023b2:	68fb      	ldr	r3, [r7, #12]
 80023b4:	4a2e      	ldr	r2, [pc, #184]	; (8002470 <TIM_OC2_SetConfig+0xe8>)
 80023b6:	4013      	ands	r3, r2
 80023b8:	60fb      	str	r3, [r7, #12]
  tmpccmrx &= ~TIM_CCMR1_CC2S;
 80023ba:	68fb      	ldr	r3, [r7, #12]
 80023bc:	4a2d      	ldr	r2, [pc, #180]	; (8002474 <TIM_OC2_SetConfig+0xec>)
 80023be:	4013      	ands	r3, r2
 80023c0:	60fb      	str	r3, [r7, #12]

  /* Select the Output Compare Mode */
  tmpccmrx |= (OC_Config->OCMode << 8U);
 80023c2:	683b      	ldr	r3, [r7, #0]
 80023c4:	681b      	ldr	r3, [r3, #0]
 80023c6:	021b      	lsls	r3, r3, #8
 80023c8:	68fa      	ldr	r2, [r7, #12]
 80023ca:	4313      	orrs	r3, r2
 80023cc:	60fb      	str	r3, [r7, #12]

  /* Reset the Output Polarity level */
  tmpccer &= ~TIM_CCER_CC2P;
 80023ce:	697b      	ldr	r3, [r7, #20]
 80023d0:	2220      	movs	r2, #32
 80023d2:	4393      	bics	r3, r2
 80023d4:	617b      	str	r3, [r7, #20]
  /* Set the Output Compare Polarity */
  tmpccer |= (OC_Config->OCPolarity << 4U);
 80023d6:	683b      	ldr	r3, [r7, #0]
 80023d8:	689b      	ldr	r3, [r3, #8]
 80023da:	011b      	lsls	r3, r3, #4
 80023dc:	697a      	ldr	r2, [r7, #20]
 80023de:	4313      	orrs	r3, r2
 80023e0:	617b      	str	r3, [r7, #20]

  if (IS_TIM_CCXN_INSTANCE(TIMx, TIM_CHANNEL_2))
 80023e2:	687b      	ldr	r3, [r7, #4]
 80023e4:	4a24      	ldr	r2, [pc, #144]	; (8002478 <TIM_OC2_SetConfig+0xf0>)
 80023e6:	4293      	cmp	r3, r2
 80023e8:	d10d      	bne.n	8002406 <TIM_OC2_SetConfig+0x7e>
  {
    assert_param(IS_TIM_OCN_POLARITY(OC_Config->OCNPolarity));

    /* Reset the Output N Polarity level */
    tmpccer &= ~TIM_CCER_CC2NP;
 80023ea:	697b      	ldr	r3, [r7, #20]
 80023ec:	2280      	movs	r2, #128	; 0x80
 80023ee:	4393      	bics	r3, r2
 80023f0:	617b      	str	r3, [r7, #20]
    /* Set the Output N Polarity */
    tmpccer |= (OC_Config->OCNPolarity << 4U);
 80023f2:	683b      	ldr	r3, [r7, #0]
 80023f4:	68db      	ldr	r3, [r3, #12]
 80023f6:	011b      	lsls	r3, r3, #4
 80023f8:	697a      	ldr	r2, [r7, #20]
 80023fa:	4313      	orrs	r3, r2
 80023fc:	617b      	str	r3, [r7, #20]
    /* Reset the Output N State */
    tmpccer &= ~TIM_CCER_CC2NE;
 80023fe:	697b      	ldr	r3, [r7, #20]
 8002400:	2240      	movs	r2, #64	; 0x40
 8002402:	4393      	bics	r3, r2
 8002404:	617b      	str	r3, [r7, #20]

  }

  if (IS_TIM_BREAK_INSTANCE(TIMx))
 8002406:	687b      	ldr	r3, [r7, #4]
 8002408:	4a1b      	ldr	r2, [pc, #108]	; (8002478 <TIM_OC2_SetConfig+0xf0>)
 800240a:	4293      	cmp	r3, r2
 800240c:	d00b      	beq.n	8002426 <TIM_OC2_SetConfig+0x9e>
 800240e:	687b      	ldr	r3, [r7, #4]
 8002410:	4a1a      	ldr	r2, [pc, #104]	; (800247c <TIM_OC2_SetConfig+0xf4>)
 8002412:	4293      	cmp	r3, r2
 8002414:	d007      	beq.n	8002426 <TIM_OC2_SetConfig+0x9e>
 8002416:	687b      	ldr	r3, [r7, #4]
 8002418:	4a19      	ldr	r2, [pc, #100]	; (8002480 <TIM_OC2_SetConfig+0xf8>)
 800241a:	4293      	cmp	r3, r2
 800241c:	d003      	beq.n	8002426 <TIM_OC2_SetConfig+0x9e>
 800241e:	687b      	ldr	r3, [r7, #4]
 8002420:	4a18      	ldr	r2, [pc, #96]	; (8002484 <TIM_OC2_SetConfig+0xfc>)
 8002422:	4293      	cmp	r3, r2
 8002424:	d113      	bne.n	800244e <TIM_OC2_SetConfig+0xc6>
    /* Check parameters */
    assert_param(IS_TIM_OCNIDLE_STATE(OC_Config->OCNIdleState));
    assert_param(IS_TIM_OCIDLE_STATE(OC_Config->OCIdleState));

    /* Reset the Output Compare and Output Compare N IDLE State */
    tmpcr2 &= ~TIM_CR2_OIS2;
 8002426:	693b      	ldr	r3, [r7, #16]
 8002428:	4a17      	ldr	r2, [pc, #92]	; (8002488 <TIM_OC2_SetConfig+0x100>)
 800242a:	4013      	ands	r3, r2
 800242c:	613b      	str	r3, [r7, #16]
    tmpcr2 &= ~TIM_CR2_OIS2N;
 800242e:	693b      	ldr	r3, [r7, #16]
 8002430:	4a16      	ldr	r2, [pc, #88]	; (800248c <TIM_OC2_SetConfig+0x104>)
 8002432:	4013      	ands	r3, r2
 8002434:	613b      	str	r3, [r7, #16]
    /* Set the Output Idle state */
    tmpcr2 |= (OC_Config->OCIdleState << 2U);
 8002436:	683b      	ldr	r3, [r7, #0]
 8002438:	695b      	ldr	r3, [r3, #20]
 800243a:	009b      	lsls	r3, r3, #2
 800243c:	693a      	ldr	r2, [r7, #16]
 800243e:	4313      	orrs	r3, r2
 8002440:	613b      	str	r3, [r7, #16]
    /* Set the Output N Idle state */
    tmpcr2 |= (OC_Config->OCNIdleState << 2U);
 8002442:	683b      	ldr	r3, [r7, #0]
 8002444:	699b      	ldr	r3, [r3, #24]
 8002446:	009b      	lsls	r3, r3, #2
 8002448:	693a      	ldr	r2, [r7, #16]
 800244a:	4313      	orrs	r3, r2
 800244c:	613b      	str	r3, [r7, #16]
  }

  /* Write to TIMx CR2 */
  TIMx->CR2 = tmpcr2;
 800244e:	687b      	ldr	r3, [r7, #4]
 8002450:	693a      	ldr	r2, [r7, #16]
 8002452:	605a      	str	r2, [r3, #4]

  /* Write to TIMx CCMR1 */
  TIMx->CCMR1 = tmpccmrx;
 8002454:	687b      	ldr	r3, [r7, #4]
 8002456:	68fa      	ldr	r2, [r7, #12]
 8002458:	619a      	str	r2, [r3, #24]

  /* Set the Capture Compare Register value */
  TIMx->CCR2 = OC_Config->Pulse;
 800245a:	683b      	ldr	r3, [r7, #0]
 800245c:	685a      	ldr	r2, [r3, #4]
 800245e:	687b      	ldr	r3, [r7, #4]
 8002460:	639a      	str	r2, [r3, #56]	; 0x38

  /* Write to TIMx CCER */
  TIMx->CCER = tmpccer;
 8002462:	687b      	ldr	r3, [r7, #4]
 8002464:	697a      	ldr	r2, [r7, #20]
 8002466:	621a      	str	r2, [r3, #32]
}
 8002468:	46c0      	nop			; (mov r8, r8)
 800246a:	46bd      	mov	sp, r7
 800246c:	b006      	add	sp, #24
 800246e:	bd80      	pop	{r7, pc}
 8002470:	ffff8fff 	.word	0xffff8fff
 8002474:	fffffcff 	.word	0xfffffcff
 8002478:	40012c00 	.word	0x40012c00
 800247c:	40014000 	.word	0x40014000
 8002480:	40014400 	.word	0x40014400
 8002484:	40014800 	.word	0x40014800
 8002488:	fffffbff 	.word	0xfffffbff
 800248c:	fffff7ff 	.word	0xfffff7ff

08002490 <TIM_OC3_SetConfig>:
  * @param  TIMx to select the TIM peripheral
  * @param  OC_Config The ouput configuration structure
  * @retval None
  */
static void TIM_OC3_SetConfig(TIM_TypeDef *TIMx, TIM_OC_InitTypeDef *OC_Config)
{
 8002490:	b580      	push	{r7, lr}
 8002492:	b086      	sub	sp, #24
 8002494:	af00      	add	r7, sp, #0
 8002496:	6078      	str	r0, [r7, #4]
 8002498:	6039      	str	r1, [r7, #0]
  uint32_t tmpccmrx;
  uint32_t tmpccer;
  uint32_t tmpcr2;

  /* Disable the Channel 3: Reset the CC2E Bit */
  TIMx->CCER &= ~TIM_CCER_CC3E;
 800249a:	687b      	ldr	r3, [r7, #4]
 800249c:	6a1b      	ldr	r3, [r3, #32]
 800249e:	4a35      	ldr	r2, [pc, #212]	; (8002574 <TIM_OC3_SetConfig+0xe4>)
 80024a0:	401a      	ands	r2, r3
 80024a2:	687b      	ldr	r3, [r7, #4]
 80024a4:	621a      	str	r2, [r3, #32]

  /* Get the TIMx CCER register value */
  tmpccer = TIMx->CCER;
 80024a6:	687b      	ldr	r3, [r7, #4]
 80024a8:	6a1b      	ldr	r3, [r3, #32]
 80024aa:	617b      	str	r3, [r7, #20]
  /* Get the TIMx CR2 register value */
  tmpcr2 =  TIMx->CR2;
 80024ac:	687b      	ldr	r3, [r7, #4]
 80024ae:	685b      	ldr	r3, [r3, #4]
 80024b0:	613b      	str	r3, [r7, #16]

  /* Get the TIMx CCMR2 register value */
  tmpccmrx = TIMx->CCMR2;
 80024b2:	687b      	ldr	r3, [r7, #4]
 80024b4:	69db      	ldr	r3, [r3, #28]
 80024b6:	60fb      	str	r3, [r7, #12]

  /* Reset the Output Compare mode and Capture/Compare selection Bits */
  tmpccmrx &= ~TIM_CCMR2_OC3M;
 80024b8:	68fb      	ldr	r3, [r7, #12]
 80024ba:	2270      	movs	r2, #112	; 0x70
 80024bc:	4393      	bics	r3, r2
 80024be:	60fb      	str	r3, [r7, #12]
  tmpccmrx &= ~TIM_CCMR2_CC3S;
 80024c0:	68fb      	ldr	r3, [r7, #12]
 80024c2:	2203      	movs	r2, #3
 80024c4:	4393      	bics	r3, r2
 80024c6:	60fb      	str	r3, [r7, #12]
  /* Select the Output Compare Mode */
  tmpccmrx |= OC_Config->OCMode;
 80024c8:	683b      	ldr	r3, [r7, #0]
 80024ca:	681b      	ldr	r3, [r3, #0]
 80024cc:	68fa      	ldr	r2, [r7, #12]
 80024ce:	4313      	orrs	r3, r2
 80024d0:	60fb      	str	r3, [r7, #12]

  /* Reset the Output Polarity level */
  tmpccer &= ~TIM_CCER_CC3P;
 80024d2:	697b      	ldr	r3, [r7, #20]
 80024d4:	4a28      	ldr	r2, [pc, #160]	; (8002578 <TIM_OC3_SetConfig+0xe8>)
 80024d6:	4013      	ands	r3, r2
 80024d8:	617b      	str	r3, [r7, #20]
  /* Set the Output Compare Polarity */
  tmpccer |= (OC_Config->OCPolarity << 8U);
 80024da:	683b      	ldr	r3, [r7, #0]
 80024dc:	689b      	ldr	r3, [r3, #8]
 80024de:	021b      	lsls	r3, r3, #8
 80024e0:	697a      	ldr	r2, [r7, #20]
 80024e2:	4313      	orrs	r3, r2
 80024e4:	617b      	str	r3, [r7, #20]

  if (IS_TIM_CCXN_INSTANCE(TIMx, TIM_CHANNEL_3))
 80024e6:	687b      	ldr	r3, [r7, #4]
 80024e8:	4a24      	ldr	r2, [pc, #144]	; (800257c <TIM_OC3_SetConfig+0xec>)
 80024ea:	4293      	cmp	r3, r2
 80024ec:	d10d      	bne.n	800250a <TIM_OC3_SetConfig+0x7a>
  {
    assert_param(IS_TIM_OCN_POLARITY(OC_Config->OCNPolarity));

    /* Reset the Output N Polarity level */
    tmpccer &= ~TIM_CCER_CC3NP;
 80024ee:	697b      	ldr	r3, [r7, #20]
 80024f0:	4a23      	ldr	r2, [pc, #140]	; (8002580 <TIM_OC3_SetConfig+0xf0>)
 80024f2:	4013      	ands	r3, r2
 80024f4:	617b      	str	r3, [r7, #20]
    /* Set the Output N Polarity */
    tmpccer |= (OC_Config->OCNPolarity << 8U);
 80024f6:	683b      	ldr	r3, [r7, #0]
 80024f8:	68db      	ldr	r3, [r3, #12]
 80024fa:	021b      	lsls	r3, r3, #8
 80024fc:	697a      	ldr	r2, [r7, #20]
 80024fe:	4313      	orrs	r3, r2
 8002500:	617b      	str	r3, [r7, #20]
    /* Reset the Output N State */
    tmpccer &= ~TIM_CCER_CC3NE;
 8002502:	697b      	ldr	r3, [r7, #20]
 8002504:	4a1f      	ldr	r2, [pc, #124]	; (8002584 <TIM_OC3_SetConfig+0xf4>)
 8002506:	4013      	ands	r3, r2
 8002508:	617b      	str	r3, [r7, #20]
  }

  if (IS_TIM_BREAK_INSTANCE(TIMx))
 800250a:	687b      	ldr	r3, [r7, #4]
 800250c:	4a1b      	ldr	r2, [pc, #108]	; (800257c <TIM_OC3_SetConfig+0xec>)
 800250e:	4293      	cmp	r3, r2
 8002510:	d00b      	beq.n	800252a <TIM_OC3_SetConfig+0x9a>
 8002512:	687b      	ldr	r3, [r7, #4]
 8002514:	4a1c      	ldr	r2, [pc, #112]	; (8002588 <TIM_OC3_SetConfig+0xf8>)
 8002516:	4293      	cmp	r3, r2
 8002518:	d007      	beq.n	800252a <TIM_OC3_SetConfig+0x9a>
 800251a:	687b      	ldr	r3, [r7, #4]
 800251c:	4a1b      	ldr	r2, [pc, #108]	; (800258c <TIM_OC3_SetConfig+0xfc>)
 800251e:	4293      	cmp	r3, r2
 8002520:	d003      	beq.n	800252a <TIM_OC3_SetConfig+0x9a>
 8002522:	687b      	ldr	r3, [r7, #4]
 8002524:	4a1a      	ldr	r2, [pc, #104]	; (8002590 <TIM_OC3_SetConfig+0x100>)
 8002526:	4293      	cmp	r3, r2
 8002528:	d113      	bne.n	8002552 <TIM_OC3_SetConfig+0xc2>
    /* Check parameters */
    assert_param(IS_TIM_OCNIDLE_STATE(OC_Config->OCNIdleState));
    assert_param(IS_TIM_OCIDLE_STATE(OC_Config->OCIdleState));

    /* Reset the Output Compare and Output Compare N IDLE State */
    tmpcr2 &= ~TIM_CR2_OIS3;
 800252a:	693b      	ldr	r3, [r7, #16]
 800252c:	4a19      	ldr	r2, [pc, #100]	; (8002594 <TIM_OC3_SetConfig+0x104>)
 800252e:	4013      	ands	r3, r2
 8002530:	613b      	str	r3, [r7, #16]
    tmpcr2 &= ~TIM_CR2_OIS3N;
 8002532:	693b      	ldr	r3, [r7, #16]
 8002534:	4a18      	ldr	r2, [pc, #96]	; (8002598 <TIM_OC3_SetConfig+0x108>)
 8002536:	4013      	ands	r3, r2
 8002538:	613b      	str	r3, [r7, #16]
    /* Set the Output Idle state */
    tmpcr2 |= (OC_Config->OCIdleState << 4U);
 800253a:	683b      	ldr	r3, [r7, #0]
 800253c:	695b      	ldr	r3, [r3, #20]
 800253e:	011b      	lsls	r3, r3, #4
 8002540:	693a      	ldr	r2, [r7, #16]
 8002542:	4313      	orrs	r3, r2
 8002544:	613b      	str	r3, [r7, #16]
    /* Set the Output N Idle state */
    tmpcr2 |= (OC_Config->OCNIdleState << 4U);
 8002546:	683b      	ldr	r3, [r7, #0]
 8002548:	699b      	ldr	r3, [r3, #24]
 800254a:	011b      	lsls	r3, r3, #4
 800254c:	693a      	ldr	r2, [r7, #16]
 800254e:	4313      	orrs	r3, r2
 8002550:	613b      	str	r3, [r7, #16]
  }

  /* Write to TIMx CR2 */
  TIMx->CR2 = tmpcr2;
 8002552:	687b      	ldr	r3, [r7, #4]
 8002554:	693a      	ldr	r2, [r7, #16]
 8002556:	605a      	str	r2, [r3, #4]

  /* Write to TIMx CCMR2 */
  TIMx->CCMR2 = tmpccmrx;
 8002558:	687b      	ldr	r3, [r7, #4]
 800255a:	68fa      	ldr	r2, [r7, #12]
 800255c:	61da      	str	r2, [r3, #28]

  /* Set the Capture Compare Register value */
  TIMx->CCR3 = OC_Config->Pulse;
 800255e:	683b      	ldr	r3, [r7, #0]
 8002560:	685a      	ldr	r2, [r3, #4]
 8002562:	687b      	ldr	r3, [r7, #4]
 8002564:	63da      	str	r2, [r3, #60]	; 0x3c

  /* Write to TIMx CCER */
  TIMx->CCER = tmpccer;
 8002566:	687b      	ldr	r3, [r7, #4]
 8002568:	697a      	ldr	r2, [r7, #20]
 800256a:	621a      	str	r2, [r3, #32]
}
 800256c:	46c0      	nop			; (mov r8, r8)
 800256e:	46bd      	mov	sp, r7
 8002570:	b006      	add	sp, #24
 8002572:	bd80      	pop	{r7, pc}
 8002574:	fffffeff 	.word	0xfffffeff
 8002578:	fffffdff 	.word	0xfffffdff
 800257c:	40012c00 	.word	0x40012c00
 8002580:	fffff7ff 	.word	0xfffff7ff
 8002584:	fffffbff 	.word	0xfffffbff
 8002588:	40014000 	.word	0x40014000
 800258c:	40014400 	.word	0x40014400
 8002590:	40014800 	.word	0x40014800
 8002594:	ffffefff 	.word	0xffffefff
 8002598:	ffffdfff 	.word	0xffffdfff

0800259c <TIM_OC4_SetConfig>:
  * @param  TIMx to select the TIM peripheral
  * @param  OC_Config The ouput configuration structure
  * @retval None
  */
static void TIM_OC4_SetConfig(TIM_TypeDef *TIMx, TIM_OC_InitTypeDef *OC_Config)
{
 800259c:	b580      	push	{r7, lr}
 800259e:	b086      	sub	sp, #24
 80025a0:	af00      	add	r7, sp, #0
 80025a2:	6078      	str	r0, [r7, #4]
 80025a4:	6039      	str	r1, [r7, #0]
  uint32_t tmpccmrx;
  uint32_t tmpccer;
  uint32_t tmpcr2;

  /* Disable the Channel 4: Reset the CC4E Bit */
  TIMx->CCER &= ~TIM_CCER_CC4E;
 80025a6:	687b      	ldr	r3, [r7, #4]
 80025a8:	6a1b      	ldr	r3, [r3, #32]
 80025aa:	4a28      	ldr	r2, [pc, #160]	; (800264c <TIM_OC4_SetConfig+0xb0>)
 80025ac:	401a      	ands	r2, r3
 80025ae:	687b      	ldr	r3, [r7, #4]
 80025b0:	621a      	str	r2, [r3, #32]

  /* Get the TIMx CCER register value */
  tmpccer = TIMx->CCER;
 80025b2:	687b      	ldr	r3, [r7, #4]
 80025b4:	6a1b      	ldr	r3, [r3, #32]
 80025b6:	613b      	str	r3, [r7, #16]
  /* Get the TIMx CR2 register value */
  tmpcr2 =  TIMx->CR2;
 80025b8:	687b      	ldr	r3, [r7, #4]
 80025ba:	685b      	ldr	r3, [r3, #4]
 80025bc:	617b      	str	r3, [r7, #20]

  /* Get the TIMx CCMR2 register value */
  tmpccmrx = TIMx->CCMR2;
 80025be:	687b      	ldr	r3, [r7, #4]
 80025c0:	69db      	ldr	r3, [r3, #28]
 80025c2:	60fb      	str	r3, [r7, #12]

  /* Reset the Output Compare mode and Capture/Compare selection Bits */
  tmpccmrx &= ~TIM_CCMR2_OC4M;
 80025c4:	68fb      	ldr	r3, [r7, #12]
 80025c6:	4a22      	ldr	r2, [pc, #136]	; (8002650 <TIM_OC4_SetConfig+0xb4>)
 80025c8:	4013      	ands	r3, r2
 80025ca:	60fb      	str	r3, [r7, #12]
  tmpccmrx &= ~TIM_CCMR2_CC4S;
 80025cc:	68fb      	ldr	r3, [r7, #12]
 80025ce:	4a21      	ldr	r2, [pc, #132]	; (8002654 <TIM_OC4_SetConfig+0xb8>)
 80025d0:	4013      	ands	r3, r2
 80025d2:	60fb      	str	r3, [r7, #12]

  /* Select the Output Compare Mode */
  tmpccmrx |= (OC_Config->OCMode << 8U);
 80025d4:	683b      	ldr	r3, [r7, #0]
 80025d6:	681b      	ldr	r3, [r3, #0]
 80025d8:	021b      	lsls	r3, r3, #8
 80025da:	68fa      	ldr	r2, [r7, #12]
 80025dc:	4313      	orrs	r3, r2
 80025de:	60fb      	str	r3, [r7, #12]

  /* Reset the Output Polarity level */
  tmpccer &= ~TIM_CCER_CC4P;
 80025e0:	693b      	ldr	r3, [r7, #16]
 80025e2:	4a1d      	ldr	r2, [pc, #116]	; (8002658 <TIM_OC4_SetConfig+0xbc>)
 80025e4:	4013      	ands	r3, r2
 80025e6:	613b      	str	r3, [r7, #16]
  /* Set the Output Compare Polarity */
  tmpccer |= (OC_Config->OCPolarity << 12U);
 80025e8:	683b      	ldr	r3, [r7, #0]
 80025ea:	689b      	ldr	r3, [r3, #8]
 80025ec:	031b      	lsls	r3, r3, #12
 80025ee:	693a      	ldr	r2, [r7, #16]
 80025f0:	4313      	orrs	r3, r2
 80025f2:	613b      	str	r3, [r7, #16]

  if (IS_TIM_BREAK_INSTANCE(TIMx))
 80025f4:	687b      	ldr	r3, [r7, #4]
 80025f6:	4a19      	ldr	r2, [pc, #100]	; (800265c <TIM_OC4_SetConfig+0xc0>)
 80025f8:	4293      	cmp	r3, r2
 80025fa:	d00b      	beq.n	8002614 <TIM_OC4_SetConfig+0x78>
 80025fc:	687b      	ldr	r3, [r7, #4]
 80025fe:	4a18      	ldr	r2, [pc, #96]	; (8002660 <TIM_OC4_SetConfig+0xc4>)
 8002600:	4293      	cmp	r3, r2
 8002602:	d007      	beq.n	8002614 <TIM_OC4_SetConfig+0x78>
 8002604:	687b      	ldr	r3, [r7, #4]
 8002606:	4a17      	ldr	r2, [pc, #92]	; (8002664 <TIM_OC4_SetConfig+0xc8>)
 8002608:	4293      	cmp	r3, r2
 800260a:	d003      	beq.n	8002614 <TIM_OC4_SetConfig+0x78>
 800260c:	687b      	ldr	r3, [r7, #4]
 800260e:	4a16      	ldr	r2, [pc, #88]	; (8002668 <TIM_OC4_SetConfig+0xcc>)
 8002610:	4293      	cmp	r3, r2
 8002612:	d109      	bne.n	8002628 <TIM_OC4_SetConfig+0x8c>
  {
    /* Check parameters */
    assert_param(IS_TIM_OCIDLE_STATE(OC_Config->OCIdleState));

    /* Reset the Output Compare IDLE State */
    tmpcr2 &= ~TIM_CR2_OIS4;
 8002614:	697b      	ldr	r3, [r7, #20]
 8002616:	4a15      	ldr	r2, [pc, #84]	; (800266c <TIM_OC4_SetConfig+0xd0>)
 8002618:	4013      	ands	r3, r2
 800261a:	617b      	str	r3, [r7, #20]

    /* Set the Output Idle state */
    tmpcr2 |= (OC_Config->OCIdleState << 6U);
 800261c:	683b      	ldr	r3, [r7, #0]
 800261e:	695b      	ldr	r3, [r3, #20]
 8002620:	019b      	lsls	r3, r3, #6
 8002622:	697a      	ldr	r2, [r7, #20]
 8002624:	4313      	orrs	r3, r2
 8002626:	617b      	str	r3, [r7, #20]
  }

  /* Write to TIMx CR2 */
  TIMx->CR2 = tmpcr2;
 8002628:	687b      	ldr	r3, [r7, #4]
 800262a:	697a      	ldr	r2, [r7, #20]
 800262c:	605a      	str	r2, [r3, #4]

  /* Write to TIMx CCMR2 */
  TIMx->CCMR2 = tmpccmrx;
 800262e:	687b      	ldr	r3, [r7, #4]
 8002630:	68fa      	ldr	r2, [r7, #12]
 8002632:	61da      	str	r2, [r3, #28]

  /* Set the Capture Compare Register value */
  TIMx->CCR4 = OC_Config->Pulse;
 8002634:	683b      	ldr	r3, [r7, #0]
 8002636:	685a      	ldr	r2, [r3, #4]
 8002638:	687b      	ldr	r3, [r7, #4]
 800263a:	641a      	str	r2, [r3, #64]	; 0x40

  /* Write to TIMx CCER */
  TIMx->CCER = tmpccer;
 800263c:	687b      	ldr	r3, [r7, #4]
 800263e:	693a      	ldr	r2, [r7, #16]
 8002640:	621a      	str	r2, [r3, #32]
}
 8002642:	46c0      	nop			; (mov r8, r8)
 8002644:	46bd      	mov	sp, r7
 8002646:	b006      	add	sp, #24
 8002648:	bd80      	pop	{r7, pc}
 800264a:	46c0      	nop			; (mov r8, r8)
 800264c:	ffffefff 	.word	0xffffefff
 8002650:	ffff8fff 	.word	0xffff8fff
 8002654:	fffffcff 	.word	0xfffffcff
 8002658:	ffffdfff 	.word	0xffffdfff
 800265c:	40012c00 	.word	0x40012c00
 8002660:	40014000 	.word	0x40014000
 8002664:	40014400 	.word	0x40014400
 8002668:	40014800 	.word	0x40014800
 800266c:	ffffbfff 	.word	0xffffbfff

08002670 <TIM_CCxChannelCmd>:
  * @param  ChannelState specifies the TIM Channel CCxE bit new state.
  *          This parameter can be: TIM_CCx_ENABLE or TIM_CCx_DISABLE.
  * @retval None
  */
void TIM_CCxChannelCmd(TIM_TypeDef *TIMx, uint32_t Channel, uint32_t ChannelState)
{
 8002670:	b580      	push	{r7, lr}
 8002672:	b086      	sub	sp, #24
 8002674:	af00      	add	r7, sp, #0
 8002676:	60f8      	str	r0, [r7, #12]
 8002678:	60b9      	str	r1, [r7, #8]
 800267a:	607a      	str	r2, [r7, #4]

  /* Check the parameters */
  assert_param(IS_TIM_CC1_INSTANCE(TIMx));
  assert_param(IS_TIM_CHANNELS(Channel));

  tmp = TIM_CCER_CC1E << (Channel & 0x1FU); /* 0x1FU = 31 bits max shift */
 800267c:	68bb      	ldr	r3, [r7, #8]
 800267e:	221f      	movs	r2, #31
 8002680:	4013      	ands	r3, r2
 8002682:	2201      	movs	r2, #1
 8002684:	409a      	lsls	r2, r3
 8002686:	0013      	movs	r3, r2
 8002688:	617b      	str	r3, [r7, #20]

  /* Reset the CCxE Bit */
  TIMx->CCER &= ~tmp;
 800268a:	68fb      	ldr	r3, [r7, #12]
 800268c:	6a1b      	ldr	r3, [r3, #32]
 800268e:	697a      	ldr	r2, [r7, #20]
 8002690:	43d2      	mvns	r2, r2
 8002692:	401a      	ands	r2, r3
 8002694:	68fb      	ldr	r3, [r7, #12]
 8002696:	621a      	str	r2, [r3, #32]

  /* Set or reset the CCxE Bit */
  TIMx->CCER |= (uint32_t)(ChannelState << (Channel & 0x1FU)); /* 0x1FU = 31 bits max shift */
 8002698:	68fb      	ldr	r3, [r7, #12]
 800269a:	6a1a      	ldr	r2, [r3, #32]
 800269c:	68bb      	ldr	r3, [r7, #8]
 800269e:	211f      	movs	r1, #31
 80026a0:	400b      	ands	r3, r1
 80026a2:	6879      	ldr	r1, [r7, #4]
 80026a4:	4099      	lsls	r1, r3
 80026a6:	000b      	movs	r3, r1
 80026a8:	431a      	orrs	r2, r3
 80026aa:	68fb      	ldr	r3, [r7, #12]
 80026ac:	621a      	str	r2, [r3, #32]
}
 80026ae:	46c0      	nop			; (mov r8, r8)
 80026b0:	46bd      	mov	sp, r7
 80026b2:	b006      	add	sp, #24
 80026b4:	bd80      	pop	{r7, pc}
	...

080026b8 <HAL_TIMEx_MasterConfigSynchronization>:
  *         mode.
  * @retval HAL status
  */
HAL_StatusTypeDef HAL_TIMEx_MasterConfigSynchronization(TIM_HandleTypeDef *htim,
                                                        TIM_MasterConfigTypeDef *sMasterConfig)
{
 80026b8:	b580      	push	{r7, lr}
 80026ba:	b084      	sub	sp, #16
 80026bc:	af00      	add	r7, sp, #0
 80026be:	6078      	str	r0, [r7, #4]
 80026c0:	6039      	str	r1, [r7, #0]
  assert_param(IS_TIM_MASTER_INSTANCE(htim->Instance));
  assert_param(IS_TIM_TRGO_SOURCE(sMasterConfig->MasterOutputTrigger));
  assert_param(IS_TIM_MSM_STATE(sMasterConfig->MasterSlaveMode));

  /* Check input state */
  __HAL_LOCK(htim);
 80026c2:	687b      	ldr	r3, [r7, #4]
 80026c4:	223c      	movs	r2, #60	; 0x3c
 80026c6:	5c9b      	ldrb	r3, [r3, r2]
 80026c8:	2b01      	cmp	r3, #1
 80026ca:	d101      	bne.n	80026d0 <HAL_TIMEx_MasterConfigSynchronization+0x18>
 80026cc:	2302      	movs	r3, #2
 80026ce:	e047      	b.n	8002760 <HAL_TIMEx_MasterConfigSynchronization+0xa8>
 80026d0:	687b      	ldr	r3, [r7, #4]
 80026d2:	223c      	movs	r2, #60	; 0x3c
 80026d4:	2101      	movs	r1, #1
 80026d6:	5499      	strb	r1, [r3, r2]

  /* Change the handler state */
  htim->State = HAL_TIM_STATE_BUSY;
 80026d8:	687b      	ldr	r3, [r7, #4]
 80026da:	223d      	movs	r2, #61	; 0x3d
 80026dc:	2102      	movs	r1, #2
 80026de:	5499      	strb	r1, [r3, r2]

  /* Get the TIMx CR2 register value */
  tmpcr2 = htim->Instance->CR2;
 80026e0:	687b      	ldr	r3, [r7, #4]
 80026e2:	681b      	ldr	r3, [r3, #0]
 80026e4:	685b      	ldr	r3, [r3, #4]
 80026e6:	60fb      	str	r3, [r7, #12]

  /* Get the TIMx SMCR register value */
  tmpsmcr = htim->Instance->SMCR;
 80026e8:	687b      	ldr	r3, [r7, #4]
 80026ea:	681b      	ldr	r3, [r3, #0]
 80026ec:	689b      	ldr	r3, [r3, #8]
 80026ee:	60bb      	str	r3, [r7, #8]

  /* Reset the MMS Bits */
  tmpcr2 &= ~TIM_CR2_MMS;
 80026f0:	68fb      	ldr	r3, [r7, #12]
 80026f2:	2270      	movs	r2, #112	; 0x70
 80026f4:	4393      	bics	r3, r2
 80026f6:	60fb      	str	r3, [r7, #12]
  /* Select the TRGO source */
  tmpcr2 |=  sMasterConfig->MasterOutputTrigger;
 80026f8:	683b      	ldr	r3, [r7, #0]
 80026fa:	681b      	ldr	r3, [r3, #0]
 80026fc:	68fa      	ldr	r2, [r7, #12]
 80026fe:	4313      	orrs	r3, r2
 8002700:	60fb      	str	r3, [r7, #12]

  /* Update TIMx CR2 */
  htim->Instance->CR2 = tmpcr2;
 8002702:	687b      	ldr	r3, [r7, #4]
 8002704:	681b      	ldr	r3, [r3, #0]
 8002706:	68fa      	ldr	r2, [r7, #12]
 8002708:	605a      	str	r2, [r3, #4]

  if (IS_TIM_SLAVE_INSTANCE(htim->Instance))
 800270a:	687b      	ldr	r3, [r7, #4]
 800270c:	681b      	ldr	r3, [r3, #0]
 800270e:	4a16      	ldr	r2, [pc, #88]	; (8002768 <HAL_TIMEx_MasterConfigSynchronization+0xb0>)
 8002710:	4293      	cmp	r3, r2
 8002712:	d00f      	beq.n	8002734 <HAL_TIMEx_MasterConfigSynchronization+0x7c>
 8002714:	687b      	ldr	r3, [r7, #4]
 8002716:	681a      	ldr	r2, [r3, #0]
 8002718:	2380      	movs	r3, #128	; 0x80
 800271a:	05db      	lsls	r3, r3, #23
 800271c:	429a      	cmp	r2, r3
 800271e:	d009      	beq.n	8002734 <HAL_TIMEx_MasterConfigSynchronization+0x7c>
 8002720:	687b      	ldr	r3, [r7, #4]
 8002722:	681b      	ldr	r3, [r3, #0]
 8002724:	4a11      	ldr	r2, [pc, #68]	; (800276c <HAL_TIMEx_MasterConfigSynchronization+0xb4>)
 8002726:	4293      	cmp	r3, r2
 8002728:	d004      	beq.n	8002734 <HAL_TIMEx_MasterConfigSynchronization+0x7c>
 800272a:	687b      	ldr	r3, [r7, #4]
 800272c:	681b      	ldr	r3, [r3, #0]
 800272e:	4a10      	ldr	r2, [pc, #64]	; (8002770 <HAL_TIMEx_MasterConfigSynchronization+0xb8>)
 8002730:	4293      	cmp	r3, r2
 8002732:	d10c      	bne.n	800274e <HAL_TIMEx_MasterConfigSynchronization+0x96>
  {
    /* Reset the MSM Bit */
    tmpsmcr &= ~TIM_SMCR_MSM;
 8002734:	68bb      	ldr	r3, [r7, #8]
 8002736:	2280      	movs	r2, #128	; 0x80
 8002738:	4393      	bics	r3, r2
 800273a:	60bb      	str	r3, [r7, #8]
    /* Set master mode */
    tmpsmcr |= sMasterConfig->MasterSlaveMode;
 800273c:	683b      	ldr	r3, [r7, #0]
 800273e:	685b      	ldr	r3, [r3, #4]
 8002740:	68ba      	ldr	r2, [r7, #8]
 8002742:	4313      	orrs	r3, r2
 8002744:	60bb      	str	r3, [r7, #8]

    /* Update TIMx SMCR */
    htim->Instance->SMCR = tmpsmcr;
 8002746:	687b      	ldr	r3, [r7, #4]
 8002748:	681b      	ldr	r3, [r3, #0]
 800274a:	68ba      	ldr	r2, [r7, #8]
 800274c:	609a      	str	r2, [r3, #8]
  }

  /* Change the htim state */
  htim->State = HAL_TIM_STATE_READY;
 800274e:	687b      	ldr	r3, [r7, #4]
 8002750:	223d      	movs	r2, #61	; 0x3d
 8002752:	2101      	movs	r1, #1
 8002754:	5499      	strb	r1, [r3, r2]

  __HAL_UNLOCK(htim);
 8002756:	687b      	ldr	r3, [r7, #4]
 8002758:	223c      	movs	r2, #60	; 0x3c
 800275a:	2100      	movs	r1, #0
 800275c:	5499      	strb	r1, [r3, r2]

  return HAL_OK;
 800275e:	2300      	movs	r3, #0
}
 8002760:	0018      	movs	r0, r3
 8002762:	46bd      	mov	sp, r7
 8002764:	b004      	add	sp, #16
 8002766:	bd80      	pop	{r7, pc}
 8002768:	40012c00 	.word	0x40012c00
 800276c:	40000400 	.word	0x40000400
 8002770:	40014000 	.word	0x40014000

08002774 <HAL_TIMEx_ConfigBreakDeadTime>:
  *         interrupt can be enabled by calling the @ref __HAL_TIM_ENABLE_IT macro.
  * @retval HAL status
  */
HAL_StatusTypeDef HAL_TIMEx_ConfigBreakDeadTime(TIM_HandleTypeDef *htim,
                                                TIM_BreakDeadTimeConfigTypeDef *sBreakDeadTimeConfig)
{
 8002774:	b580      	push	{r7, lr}
 8002776:	b084      	sub	sp, #16
 8002778:	af00      	add	r7, sp, #0
 800277a:	6078      	str	r0, [r7, #4]
 800277c:	6039      	str	r1, [r7, #0]
  /* Keep this variable initialized to 0 as it is used to configure BDTR register */
  uint32_t tmpbdtr = 0U;
 800277e:	2300      	movs	r3, #0
 8002780:	60fb      	str	r3, [r7, #12]
  assert_param(IS_TIM_BREAK_STATE(sBreakDeadTimeConfig->BreakState));
  assert_param(IS_TIM_BREAK_POLARITY(sBreakDeadTimeConfig->BreakPolarity));
  assert_param(IS_TIM_AUTOMATIC_OUTPUT_STATE(sBreakDeadTimeConfig->AutomaticOutput));

  /* Check input state */
  __HAL_LOCK(htim);
 8002782:	687b      	ldr	r3, [r7, #4]
 8002784:	223c      	movs	r2, #60	; 0x3c
 8002786:	5c9b      	ldrb	r3, [r3, r2]
 8002788:	2b01      	cmp	r3, #1
 800278a:	d101      	bne.n	8002790 <HAL_TIMEx_ConfigBreakDeadTime+0x1c>
 800278c:	2302      	movs	r3, #2
 800278e:	e03e      	b.n	800280e <HAL_TIMEx_ConfigBreakDeadTime+0x9a>
 8002790:	687b      	ldr	r3, [r7, #4]
 8002792:	223c      	movs	r2, #60	; 0x3c
 8002794:	2101      	movs	r1, #1
 8002796:	5499      	strb	r1, [r3, r2]

  /* Set the Lock level, the Break enable Bit and the Polarity, the OSSR State,
     the OSSI State, the dead time value and the Automatic Output Enable Bit */

  /* Set the BDTR bits */
  MODIFY_REG(tmpbdtr, TIM_BDTR_DTG, sBreakDeadTimeConfig->DeadTime);
 8002798:	68fb      	ldr	r3, [r7, #12]
 800279a:	22ff      	movs	r2, #255	; 0xff
 800279c:	4393      	bics	r3, r2
 800279e:	001a      	movs	r2, r3
 80027a0:	683b      	ldr	r3, [r7, #0]
 80027a2:	68db      	ldr	r3, [r3, #12]
 80027a4:	4313      	orrs	r3, r2
 80027a6:	60fb      	str	r3, [r7, #12]
  MODIFY_REG(tmpbdtr, TIM_BDTR_LOCK, sBreakDeadTimeConfig->LockLevel);
 80027a8:	68fb      	ldr	r3, [r7, #12]
 80027aa:	4a1b      	ldr	r2, [pc, #108]	; (8002818 <HAL_TIMEx_ConfigBreakDeadTime+0xa4>)
 80027ac:	401a      	ands	r2, r3
 80027ae:	683b      	ldr	r3, [r7, #0]
 80027b0:	689b      	ldr	r3, [r3, #8]
 80027b2:	4313      	orrs	r3, r2
 80027b4:	60fb      	str	r3, [r7, #12]
  MODIFY_REG(tmpbdtr, TIM_BDTR_OSSI, sBreakDeadTimeConfig->OffStateIDLEMode);
 80027b6:	68fb      	ldr	r3, [r7, #12]
 80027b8:	4a18      	ldr	r2, [pc, #96]	; (800281c <HAL_TIMEx_ConfigBreakDeadTime+0xa8>)
 80027ba:	401a      	ands	r2, r3
 80027bc:	683b      	ldr	r3, [r7, #0]
 80027be:	685b      	ldr	r3, [r3, #4]
 80027c0:	4313      	orrs	r3, r2
 80027c2:	60fb      	str	r3, [r7, #12]
  MODIFY_REG(tmpbdtr, TIM_BDTR_OSSR, sBreakDeadTimeConfig->OffStateRunMode);
 80027c4:	68fb      	ldr	r3, [r7, #12]
 80027c6:	4a16      	ldr	r2, [pc, #88]	; (8002820 <HAL_TIMEx_ConfigBreakDeadTime+0xac>)
 80027c8:	401a      	ands	r2, r3
 80027ca:	683b      	ldr	r3, [r7, #0]
 80027cc:	681b      	ldr	r3, [r3, #0]
 80027ce:	4313      	orrs	r3, r2
 80027d0:	60fb      	str	r3, [r7, #12]
  MODIFY_REG(tmpbdtr, TIM_BDTR_BKE, sBreakDeadTimeConfig->BreakState);
 80027d2:	68fb      	ldr	r3, [r7, #12]
 80027d4:	4a13      	ldr	r2, [pc, #76]	; (8002824 <HAL_TIMEx_ConfigBreakDeadTime+0xb0>)
 80027d6:	401a      	ands	r2, r3
 80027d8:	683b      	ldr	r3, [r7, #0]
 80027da:	691b      	ldr	r3, [r3, #16]
 80027dc:	4313      	orrs	r3, r2
 80027de:	60fb      	str	r3, [r7, #12]
  MODIFY_REG(tmpbdtr, TIM_BDTR_BKP, sBreakDeadTimeConfig->BreakPolarity);
 80027e0:	68fb      	ldr	r3, [r7, #12]
 80027e2:	4a11      	ldr	r2, [pc, #68]	; (8002828 <HAL_TIMEx_ConfigBreakDeadTime+0xb4>)
 80027e4:	401a      	ands	r2, r3
 80027e6:	683b      	ldr	r3, [r7, #0]
 80027e8:	695b      	ldr	r3, [r3, #20]
 80027ea:	4313      	orrs	r3, r2
 80027ec:	60fb      	str	r3, [r7, #12]
  MODIFY_REG(tmpbdtr, TIM_BDTR_AOE, sBreakDeadTimeConfig->AutomaticOutput);
 80027ee:	68fb      	ldr	r3, [r7, #12]
 80027f0:	4a0e      	ldr	r2, [pc, #56]	; (800282c <HAL_TIMEx_ConfigBreakDeadTime+0xb8>)
 80027f2:	401a      	ands	r2, r3
 80027f4:	683b      	ldr	r3, [r7, #0]
 80027f6:	69db      	ldr	r3, [r3, #28]
 80027f8:	4313      	orrs	r3, r2
 80027fa:	60fb      	str	r3, [r7, #12]


  /* Set TIMx_BDTR */
  htim->Instance->BDTR = tmpbdtr;
 80027fc:	687b      	ldr	r3, [r7, #4]
 80027fe:	681b      	ldr	r3, [r3, #0]
 8002800:	68fa      	ldr	r2, [r7, #12]
 8002802:	645a      	str	r2, [r3, #68]	; 0x44

  __HAL_UNLOCK(htim);
 8002804:	687b      	ldr	r3, [r7, #4]
 8002806:	223c      	movs	r2, #60	; 0x3c
 8002808:	2100      	movs	r1, #0
 800280a:	5499      	strb	r1, [r3, r2]

  return HAL_OK;
 800280c:	2300      	movs	r3, #0
}
 800280e:	0018      	movs	r0, r3
 8002810:	46bd      	mov	sp, r7
 8002812:	b004      	add	sp, #16
 8002814:	bd80      	pop	{r7, pc}
 8002816:	46c0      	nop			; (mov r8, r8)
 8002818:	fffffcff 	.word	0xfffffcff
 800281c:	fffffbff 	.word	0xfffffbff
 8002820:	fffff7ff 	.word	0xfffff7ff
 8002824:	ffffefff 	.word	0xffffefff
 8002828:	ffffdfff 	.word	0xffffdfff
 800282c:	ffffbfff 	.word	0xffffbfff

08002830 <HAL_TIMEx_CommutCallback>:
  * @brief  Hall commutation changed callback in non-blocking mode
  * @param  htim TIM handle
  * @retval None
  */
__weak void HAL_TIMEx_CommutCallback(TIM_HandleTypeDef *htim)
{
 8002830:	b580      	push	{r7, lr}
 8002832:	b082      	sub	sp, #8
 8002834:	af00      	add	r7, sp, #0
 8002836:	6078      	str	r0, [r7, #4]
  UNUSED(htim);

  /* NOTE : This function should not be modified, when the callback is needed,
            the HAL_TIMEx_CommutCallback could be implemented in the user file
   */
}
 8002838:	46c0      	nop			; (mov r8, r8)
 800283a:	46bd      	mov	sp, r7
 800283c:	b002      	add	sp, #8
 800283e:	bd80      	pop	{r7, pc}

08002840 <HAL_TIMEx_BreakCallback>:
  * @brief  Hall Break detection callback in non-blocking mode
  * @param  htim TIM handle
  * @retval None
  */
__weak void HAL_TIMEx_BreakCallback(TIM_HandleTypeDef *htim)
{
 8002840:	b580      	push	{r7, lr}
 8002842:	b082      	sub	sp, #8
 8002844:	af00      	add	r7, sp, #0
 8002846:	6078      	str	r0, [r7, #4]
  UNUSED(htim);

  /* NOTE : This function should not be modified, when the callback is needed,
            the HAL_TIMEx_BreakCallback could be implemented in the user file
   */
}
 8002848:	46c0      	nop			; (mov r8, r8)
 800284a:	46bd      	mov	sp, r7
 800284c:	b002      	add	sp, #8
 800284e:	bd80      	pop	{r7, pc}

08002850 <__libc_init_array>:
 8002850:	b570      	push	{r4, r5, r6, lr}
 8002852:	2600      	movs	r6, #0
 8002854:	4d0c      	ldr	r5, [pc, #48]	; (8002888 <__libc_init_array+0x38>)
 8002856:	4c0d      	ldr	r4, [pc, #52]	; (800288c <__libc_init_array+0x3c>)
 8002858:	1b64      	subs	r4, r4, r5
 800285a:	10a4      	asrs	r4, r4, #2
 800285c:	42a6      	cmp	r6, r4
 800285e:	d109      	bne.n	8002874 <__libc_init_array+0x24>
 8002860:	2600      	movs	r6, #0
 8002862:	f000 f821 	bl	80028a8 <_init>
 8002866:	4d0a      	ldr	r5, [pc, #40]	; (8002890 <__libc_init_array+0x40>)
 8002868:	4c0a      	ldr	r4, [pc, #40]	; (8002894 <__libc_init_array+0x44>)
 800286a:	1b64      	subs	r4, r4, r5
 800286c:	10a4      	asrs	r4, r4, #2
 800286e:	42a6      	cmp	r6, r4
 8002870:	d105      	bne.n	800287e <__libc_init_array+0x2e>
 8002872:	bd70      	pop	{r4, r5, r6, pc}
 8002874:	00b3      	lsls	r3, r6, #2
 8002876:	58eb      	ldr	r3, [r5, r3]
 8002878:	4798      	blx	r3
 800287a:	3601      	adds	r6, #1
 800287c:	e7ee      	b.n	800285c <__libc_init_array+0xc>
 800287e:	00b3      	lsls	r3, r6, #2
 8002880:	58eb      	ldr	r3, [r5, r3]
 8002882:	4798      	blx	r3
 8002884:	3601      	adds	r6, #1
 8002886:	e7f2      	b.n	800286e <__libc_init_array+0x1e>
 8002888:	080028f0 	.word	0x080028f0
 800288c:	080028f0 	.word	0x080028f0
 8002890:	080028f0 	.word	0x080028f0
 8002894:	080028f4 	.word	0x080028f4

08002898 <memset>:
 8002898:	0003      	movs	r3, r0
 800289a:	1812      	adds	r2, r2, r0
 800289c:	4293      	cmp	r3, r2
 800289e:	d100      	bne.n	80028a2 <memset+0xa>
 80028a0:	4770      	bx	lr
 80028a2:	7019      	strb	r1, [r3, #0]
 80028a4:	3301      	adds	r3, #1
 80028a6:	e7f9      	b.n	800289c <memset+0x4>

080028a8 <_init>:
 80028a8:	b5f8      	push	{r3, r4, r5, r6, r7, lr}
 80028aa:	46c0      	nop			; (mov r8, r8)
 80028ac:	bcf8      	pop	{r3, r4, r5, r6, r7}
 80028ae:	bc08      	pop	{r3}
 80028b0:	469e      	mov	lr, r3
 80028b2:	4770      	bx	lr

080028b4 <_fini>:
 80028b4:	b5f8      	push	{r3, r4, r5, r6, r7, lr}
 80028b6:	46c0      	nop			; (mov r8, r8)
 80028b8:	bcf8      	pop	{r3, r4, r5, r6, r7}
 80028ba:	bc08      	pop	{r3}
 80028bc:	469e      	mov	lr, r3
 80028be:	4770      	bx	lr
